
========================================================================

** ELF Header Information

    File Name: .\output\syd8811_hid.axf

    Machine class: ELFCLASS32 (32-bit)
    Data encoding: ELFDATA2LSB (Little endian)
    Header version: EV_CURRENT (Current version)
    Operating System ABI: none
    ABI Version: 0
    File Type: ET_EXEC (Executable) (2)
    Machine: EM_ARM (ARM)

    Image Entry point: 0x100000c1
    Flags: EF_ARM_HASENTRY + EF_ARM_ABI_FLOAT_SOFT (0x05000202)

    ARM ELF revision: 5 (ABI version 2)

    Conforms to Soft float procedure-call standard

    Built with
    Component: ARM Compiler 5.06 (build 20) Tool: armasm [4d35a2]
    Component: ARM Compiler 5.06 (build 20) Tool: armlink [4d35a3]

    Header size: 52 bytes (0x34)
    Program header entry size: 32 bytes (0x20)
    Section header entry size: 40 bytes (0x28)

    Program header entries: 1
    Section header entries: 16

    Program header offset: 361072 (0x00058270)
    Section header offset: 361104 (0x00058290)

    Section header string table index: 15

========================================================================

** Program header #0 (PT_LOAD) [PF_X + PF_W + PF_R + PF_ARM_ENTRY]
    Size : 30400 bytes (25820 bytes in file)
    Virtual address: 0x10000000 (Alignment 8)


========================================================================

** Section #1 'ER_IROM1' (SHT_PROGBITS) [SHF_ALLOC + SHF_EXECINSTR]
    Size   : 25648 bytes (alignment 4)
    Address: 0x10000000

    $d.realdata
    RESET
    __Vectors
        0x10000000:    20004290    .B.     DCD    536887952
        0x10000004:    1000254d    M%..    DCD    268445005
        0x10000008:    10002555    U%..    DCD    268445013
        0x1000000c:    10002557    W%..    DCD    268445015
        0x10000010:    00000000    ....    DCD    0
        0x10000014:    00000000    ....    DCD    0
        0x10000018:    00000000    ....    DCD    0
        0x1000001c:    00000000    ....    DCD    0
        0x10000020:    00000000    ....    DCD    0
        0x10000024:    00000000    ....    DCD    0
        0x10000028:    00000000    ....    DCD    0
        0x1000002c:    10002559    Y%..    DCD    268445017
        0x10000030:    00000000    ....    DCD    0
        0x10000034:    00000000    ....    DCD    0
        0x10000038:    1000255b    [%..    DCD    268445019
        0x1000003c:    1000255d    ]%..    DCD    268445021
        0x10000040:    00000000    ....    DCD    0
        0x10000044:    1000255f    _%..    DCD    268445023
        0x10000048:    10002fb7    ./..    DCD    268447671
        0x1000004c:    1000255f    _%..    DCD    268445023
        0x10000050:    1000255f    _%..    DCD    268445023
        0x10000054:    1000255f    _%..    DCD    268445023
        0x10000058:    10001499    ....    DCD    268440729
        0x1000005c:    1000154b    K...    DCD    268440907
        0x10000060:    10002865    e(..    DCD    268445797
        0x10000064:    10002915    .)..    DCD    268445973
        0x10000068:    100029f5    .)..    DCD    268446197
        0x1000006c:    1000255f    _%..    DCD    268445023
        0x10000070:    1000124f    O...    DCD    268440143
        0x10000074:    1000255f    _%..    DCD    268445023
        0x10000078:    1000255f    _%..    DCD    268445023
        0x1000007c:    1000255f    _%..    DCD    268445023
        0x10000080:    1000255f    _%..    DCD    268445023
        0x10000084:    1000255f    _%..    DCD    268445023
        0x10000088:    1000255f    _%..    DCD    268445023
        0x1000008c:    1000255f    _%..    DCD    268445023
        0x10000090:    1000255f    _%..    DCD    268445023
        0x10000094:    1000255f    _%..    DCD    268445023
        0x10000098:    1000255f    _%..    DCD    268445023
        0x1000009c:    1000255f    _%..    DCD    268445023
        0x100000a0:    00000000    ....    DCD    0
        0x100000a4:    00000000    ....    DCD    0
        0x100000a8:    00000000    ....    DCD    0
        0x100000ac:    00000000    ....    DCD    0
        0x100000b0:    00000000    ....    DCD    0
        0x100000b4:    00000000    ....    DCD    0
        0x100000b8:    00000000    ....    DCD    0
        0x100000bc:    00000000    ....    DCD    0
    $t
    .ARM.Collect$$$$00000000
    .ARM.Collect$$$$00000001
    __Vectors_End
    __main
    _main_stk
        0x100000c0:    4803        .H      LDR      r0,__lit__00000000 ; [0x100000d0] = 0x20004290
        0x100000c2:    4685        .F      MOV      sp,r0
    .ARM.Collect$$$$00000004
    _main_scatterload
        0x100000c4:    f005fcc8    ....    BL       __scatterload ; 0x10005a58
    .ARM.Collect$$$$00000008
    .ARM.Collect$$$$0000000A
    .ARM.Collect$$$$0000000B
    __main_after_scatterload
    _main_clock
    _main_cpp_init
    _main_init
        0x100000c8:    4800        .H      LDR      r0,[pc,#0] ; [0x100000cc] = 0x10000983
        0x100000ca:    4700        .G      BX       r0
    $d
        0x100000cc:    10000983    ....    DCD    268437891
    .ARM.Collect$$$$00002712
    __lit__00000000
    .ARM.Collect$$$$0000000D
    .ARM.Collect$$$$0000000F
    __rt_final_cpp
    __rt_final_exit
        0x100000d0:    20004290    .B.     DCD    536887952
    $t
    .text
    setup_adv_data
        0x100000d4:    b51f        ..      PUSH     {r0-r4,lr}
        0x100000d6:    2100        .!      MOVS     r1,#0
        0x100000d8:    4668        hF      MOV      r0,sp
        0x100000da:    7001        .p      STRB     r1,[r0,#0]
        0x100000dc:    2107        .!      MOVS     r1,#7
        0x100000de:    7241        Ar      STRB     r1,[r0,#9]
        0x100000e0:    2119        .!      MOVS     r1,#0x19
        0x100000e2:    0149        I.      LSLS     r1,r1,#5
        0x100000e4:    8141        A.      STRH     r1,[r0,#0xa]
        0x100000e6:    49fe        .I      LDR      r1,[pc,#1016] ; [0x100004e0] = 0x3fff
        0x100000e8:    8181        ..      STRH     r1,[r0,#0xc]
        0x100000ea:    2100        .!      MOVS     r1,#0
        0x100000ec:    7201        .r      STRB     r1,[r0,#8]
        0x100000ee:    f003ff80    ....    BL       SetAdvParams ; 0x10003ff2
        0x100000f2:    48fc        .H      LDR      r0,[pc,#1008] ; [0x100004e4] = 0x20003042
        0x100000f4:    f003ff6b    ..k.    BL       GetDevAddr ; 0x10003fce
        0x100000f8:    48fa        .H      LDR      r0,[pc,#1000] ; [0x100004e4] = 0x20003042
        0x100000fa:    7840        @x      LDRB     r0,[r0,#1]
        0x100000fc:    49fa        .I      LDR      r1,[pc,#1000] ; [0x100004e8] = 0x2000301d
        0x100000fe:    73c8        .s      STRB     r0,[r1,#0xf]
        0x10000100:    48f8        .H      LDR      r0,[pc,#992] ; [0x100004e4] = 0x20003042
        0x10000102:    7880        .x      LDRB     r0,[r0,#2]
        0x10000104:    7408        .t      STRB     r0,[r1,#0x10]
        0x10000106:    48f7        .H      LDR      r0,[pc,#988] ; [0x100004e4] = 0x20003042
        0x10000108:    78c0        .x      LDRB     r0,[r0,#3]
        0x1000010a:    7448        Ht      STRB     r0,[r1,#0x11]
        0x1000010c:    48f5        .H      LDR      r0,[pc,#980] ; [0x100004e4] = 0x20003042
        0x1000010e:    7900        .y      LDRB     r0,[r0,#4]
        0x10000110:    7488        .t      STRB     r0,[r1,#0x12]
        0x10000112:    48f4        .H      LDR      r0,[pc,#976] ; [0x100004e4] = 0x20003042
        0x10000114:    7940        @y      LDRB     r0,[r0,#5]
        0x10000116:    74c8        .t      STRB     r0,[r1,#0x13]
        0x10000118:    48f2        .H      LDR      r0,[pc,#968] ; [0x100004e4] = 0x20003042
        0x1000011a:    7980        .y      LDRB     r0,[r0,#6]
        0x1000011c:    7508        .u      STRB     r0,[r1,#0x14]
        0x1000011e:    bf00        ..      NOP      
        0x10000120:    2306        .#      MOVS     r3,#6
        0x10000122:    4af0        .J      LDR      r2,[pc,#960] ; [0x100004e4] = 0x20003042
        0x10000124:    1c52        R.      ADDS     r2,r2,#1
        0x10000126:    a1f1        ..      ADR      r1,{pc}+0x3c6 ; 0x100004ec
        0x10000128:    2000        .       MOVS     r0,#0
        0x1000012a:    f002f9c7    ....    BL       SEGGER_RTT_hexdump ; 0x100024bc
        0x1000012e:    bf00        ..      NOP      
        0x10000130:    48f2        .H      LDR      r0,[pc,#968] ; [0x100004fc] = 0x20003040
        0x10000132:    7803        .x      LDRB     r3,[r0,#0]
        0x10000134:    48f2        .H      LDR      r0,[pc,#968] ; [0x10000500] = 0x2000303c
        0x10000136:    7801        .x      LDRB     r1,[r0,#0]
        0x10000138:    4af2        .J      LDR      r2,[pc,#968] ; [0x10000504] = 0x2000303e
        0x1000013a:    48eb        .H      LDR      r0,[pc,#940] ; [0x100004e8] = 0x2000301d
        0x1000013c:    f003ff5f    .._.    BL       SetAdvData ; 0x10003ffe
        0x10000140:    bd1f        ..      POP      {r0-r4,pc}
    BLSetConnectionUpdate
        0x10000142:    b53e        >.      PUSH     {r1-r5,lr}
        0x10000144:    4604        .F      MOV      r4,r0
        0x10000146:    2c00        .,      CMP      r4,#0
        0x10000148:    d002        ..      BEQ      0x10000150 ; BLSetConnectionUpdate + 14
        0x1000014a:    2c01        .,      CMP      r4,#1
        0x1000014c:    d111        ..      BNE      0x10000172 ; BLSetConnectionUpdate + 48
        0x1000014e:    e007        ..      B        0x10000160 ; BLSetConnectionUpdate + 30
        0x10000150:    2110        .!      MOVS     r1,#0x10
        0x10000152:    4668        hF      MOV      r0,sp
        0x10000154:    80c1        ..      STRH     r1,[r0,#6]
        0x10000156:    21c8        .!      MOVS     r1,#0xc8
        0x10000158:    8141        A.      STRH     r1,[r0,#0xa]
        0x1000015a:    2100        .!      MOVS     r1,#0
        0x1000015c:    8101        ..      STRH     r1,[r0,#8]
        0x1000015e:    e008        ..      B        0x10000172 ; BLSetConnectionUpdate + 48
        0x10000160:    2150        P!      MOVS     r1,#0x50
        0x10000162:    4668        hF      MOV      r0,sp
        0x10000164:    80c1        ..      STRH     r1,[r0,#6]
        0x10000166:    214b        K!      MOVS     r1,#0x4b
        0x10000168:    00c9        ..      LSLS     r1,r1,#3
        0x1000016a:    8141        A.      STRH     r1,[r0,#0xa]
        0x1000016c:    210a        .!      MOVS     r1,#0xa
        0x1000016e:    8101        ..      STRH     r1,[r0,#8]
        0x10000170:    bf00        ..      NOP      
        0x10000172:    bf00        ..      NOP      
        0x10000174:    21c0        .!      MOVS     r1,#0xc0
        0x10000176:    4668        hF      MOV      r0,sp
        0x10000178:    7101        .q      STRB     r1,[r0,#4]
        0x1000017a:    2104        .!      MOVS     r1,#4
        0x1000017c:    7141        Aq      STRB     r1,[r0,#5]
        0x1000017e:    a801        ..      ADD      r0,sp,#4
        0x10000180:    f004fc53    ..S.    BL       gap_s_smart_update_latency ; 0x10004a2a
        0x10000184:    bf00        ..      NOP      
        0x10000186:    4668        hF      MOV      r0,sp
        0x10000188:    8940        @.      LDRH     r0,[r0,#0xa]
        0x1000018a:    9000        ..      STR      r0,[sp,#0]
        0x1000018c:    4668        hF      MOV      r0,sp
        0x1000018e:    8903        ..      LDRH     r3,[r0,#8]
        0x10000190:    88c2        ..      LDRH     r2,[r0,#6]
        0x10000192:    a1dd        ..      ADR      r1,{pc}+0x376 ; 0x10000508
        0x10000194:    2000        .       MOVS     r0,#0
        0x10000196:    f002f97f    ....    BL       SEGGER_RTT_printf ; 0x10002498
        0x1000019a:    bf00        ..      NOP      
        0x1000019c:    bd3e        >.      POP      {r1-r5,pc}
    ble_gatt_read
        0x1000019e:    b513        ..      PUSH     {r0,r1,r4,lr}
        0x100001a0:    b084        ..      SUB      sp,sp,#0x10
        0x100001a2:    4668        hF      MOV      r0,sp
        0x100001a4:    8a40        @.      LDRH     r0,[r0,#0x12]
        0x100001a6:    2115        .!      MOVS     r1,#0x15
        0x100001a8:    0249        I.      LSLS     r1,r1,#9
        0x100001aa:    4288        .B      CMP      r0,r1
        0x100001ac:    d109        ..      BNE      0x100001c2 ; ble_gatt_read + 36
        0x100001ae:    a1e2        ..      ADR      r1,{pc}+0x38a ; 0x10000538
        0x100001b0:    c903        ..      LDM      r1,{r0,r1}
        0x100001b2:    9103        ..      STR      r1,[sp,#0xc]
        0x100001b4:    9002        ..      STR      r0,[sp,#8]
        0x100001b6:    2407        .$      MOVS     r4,#7
        0x100001b8:    a902        ..      ADD      r1,sp,#8
        0x100001ba:    4620         F      MOV      r0,r4
        0x100001bc:    f004f8d0    ....    BL       SetGATTReadRsp ; 0x10004360
        0x100001c0:    e02a        *.      B        0x10000218 ; ble_gatt_read + 122
        0x100001c2:    4668        hF      MOV      r0,sp
        0x100001c4:    8a40        @.      LDRH     r0,[r0,#0x12]
        0x100001c6:    49de        .I      LDR      r1,[pc,#888] ; [0x10000540] = 0x2a01
        0x100001c8:    4288        .B      CMP      r0,r1
        0x100001ca:    d108        ..      BNE      0x100001de ; ble_gatt_read + 64
        0x100001cc:    a0dd        ..      ADR      r0,{pc}+0x378 ; 0x10000544
        0x100001ce:    6800        .h      LDR      r0,[r0,#0]
        0x100001d0:    9003        ..      STR      r0,[sp,#0xc]
        0x100001d2:    2402        .$      MOVS     r4,#2
        0x100001d4:    a903        ..      ADD      r1,sp,#0xc
        0x100001d6:    4620         F      MOV      r0,r4
        0x100001d8:    f004f8c2    ....    BL       SetGATTReadRsp ; 0x10004360
        0x100001dc:    e01c        ..      B        0x10000218 ; ble_gatt_read + 122
        0x100001de:    4668        hF      MOV      r0,sp
        0x100001e0:    8a40        @.      LDRH     r0,[r0,#0x12]
        0x100001e2:    49d9        .I      LDR      r1,[pc,#868] ; [0x10000548] = 0xff01
        0x100001e4:    4288        .B      CMP      r0,r1
        0x100001e6:    d10e        ..      BNE      0x10000206 ; ble_gatt_read + 104
        0x100001e8:    2100        .!      MOVS     r1,#0
        0x100001ea:    9103        ..      STR      r1,[sp,#0xc]
        0x100001ec:    2000        .       MOVS     r0,#0
        0x100001ee:    9001        ..      STR      r0,[sp,#4]
        0x100001f0:    9002        ..      STR      r0,[sp,#8]
        0x100001f2:    a903        ..      ADD      r1,sp,#0xc
        0x100001f4:    a801        ..      ADD      r0,sp,#4
        0x100001f6:    f001fd2b    ..+.    BL       ota_rsp ; 0x10001c50
        0x100001fa:    a901        ..      ADD      r1,sp,#4
        0x100001fc:    4668        hF      MOV      r0,sp
        0x100001fe:    7b00        .{      LDRB     r0,[r0,#0xc]
        0x10000200:    f004f8ae    ....    BL       SetGATTReadRsp ; 0x10004360
        0x10000204:    e008        ..      B        0x10000218 ; ble_gatt_read + 122
        0x10000206:    4668        hF      MOV      r0,sp
        0x10000208:    8a40        @.      LDRH     r0,[r0,#0x12]
        0x1000020a:    49d0        .I      LDR      r1,[pc,#832] ; [0x1000054c] = 0x180f
        0x1000020c:    4288        .B      CMP      r0,r1
        0x1000020e:    d103        ..      BNE      0x10000218 ; ble_gatt_read + 122
        0x10000210:    49cf        .I      LDR      r1,[pc,#828] ; [0x10000550] = 0x20003017
        0x10000212:    2001        .       MOVS     r0,#1
        0x10000214:    f004f8a4    ....    BL       SetGATTReadRsp ; 0x10004360
        0x10000218:    b006        ..      ADD      sp,sp,#0x18
        0x1000021a:    bd10        ..      POP      {r4,pc}
    ble_gatt_write
        0x1000021c:    b40f        ..      PUSH     {r0-r3}
        0x1000021e:    b510        ..      PUSH     {r4,lr}
        0x10000220:    4668        hF      MOV      r0,sp
        0x10000222:    8940        @.      LDRH     r0,[r0,#0xa]
        0x10000224:    2802        .(      CMP      r0,#2
        0x10000226:    d11f        ..      BNE      0x10000268 ; ble_gatt_write + 76
        0x10000228:    4668        hF      MOV      r0,sp
        0x1000022a:    7bc0        .{      LDRB     r0,[r0,#0xf]
        0x1000022c:    28a1        .(      CMP      r0,#0xa1
        0x1000022e:    d111        ..      BNE      0x10000254 ; ble_gatt_write + 56
        0x10000230:    a802        ..      ADD      r0,sp,#8
        0x10000232:    7a00        .z      LDRB     r0,[r0,#8]
        0x10000234:    2801        .(      CMP      r0,#1
        0x10000236:    d10d        ..      BNE      0x10000254 ; ble_gatt_write + 56
        0x10000238:    a802        ..      ADD      r0,sp,#8
        0x1000023a:    7a40        @z      LDRB     r0,[r0,#9]
        0x1000023c:    2801        .(      CMP      r0,#1
        0x1000023e:    d109        ..      BNE      0x10000254 ; ble_gatt_write + 56
        0x10000240:    a802        ..      ADD      r0,sp,#8
        0x10000242:    7a80        .z      LDRB     r0,[r0,#0xa]
        0x10000244:    2801        .(      CMP      r0,#1
        0x10000246:    d105        ..      BNE      0x10000254 ; ble_gatt_write + 56
        0x10000248:    2100        .!      MOVS     r1,#0
        0x1000024a:    f004f863    ..c.    BL       SecurityReq ; 0x10004314
        0x1000024e:    2001        .       MOVS     r0,#1
        0x10000250:    49c0        .I      LDR      r1,[pc,#768] ; [0x10000554] = 0x20003015
        0x10000252:    7008        .p      STRB     r0,[r1,#0]
        0x10000254:    bf00        ..      NOP      
        0x10000256:    4668        hF      MOV      r0,sp
        0x10000258:    7b83        .{      LDRB     r3,[r0,#0xe]
        0x1000025a:    aa03        ..      ADD      r2,sp,#0xc
        0x1000025c:    3203        .2      ADDS     r2,#3
        0x1000025e:    a1be        ..      ADR      r1,{pc}+0x2fa ; 0x10000558
        0x10000260:    2000        .       MOVS     r0,#0
        0x10000262:    f002f92b    ..+.    BL       SEGGER_RTT_hexdump ; 0x100024bc
        0x10000266:    e020         .      B        0x100002aa ; ble_gatt_write + 142
        0x10000268:    4668        hF      MOV      r0,sp
        0x1000026a:    8940        @.      LDRH     r0,[r0,#0xa]
        0x1000026c:    49b4        .I      LDR      r1,[pc,#720] ; [0x10000540] = 0x2a01
        0x1000026e:    314c        L1      ADDS     r1,r1,#0x4c
        0x10000270:    4288        .B      CMP      r0,r1
        0x10000272:    d10d        ..      BNE      0x10000290 ; ble_gatt_write + 116
        0x10000274:    4668        hF      MOV      r0,sp
        0x10000276:    8980        ..      LDRH     r0,[r0,#0xc]
        0x10000278:    2829        )(      CMP      r0,#0x29
        0x1000027a:    d109        ..      BNE      0x10000290 ; ble_gatt_write + 116
        0x1000027c:    bf00        ..      NOP      
        0x1000027e:    4668        hF      MOV      r0,sp
        0x10000280:    7b83        .{      LDRB     r3,[r0,#0xe]
        0x10000282:    aa03        ..      ADD      r2,sp,#0xc
        0x10000284:    3203        .2      ADDS     r2,#3
        0x10000286:    a1b6        ..      ADR      r1,{pc}+0x2da ; 0x10000560
        0x10000288:    2000        .       MOVS     r0,#0
        0x1000028a:    f002f917    ....    BL       SEGGER_RTT_hexdump ; 0x100024bc
        0x1000028e:    e00c        ..      B        0x100002aa ; ble_gatt_write + 142
        0x10000290:    4668        hF      MOV      r0,sp
        0x10000292:    8940        @.      LDRH     r0,[r0,#0xa]
        0x10000294:    49ac        .I      LDR      r1,[pc,#688] ; [0x10000548] = 0xff01
        0x10000296:    4288        .B      CMP      r0,r1
        0x10000298:    d107        ..      BNE      0x100002aa ; ble_gatt_write + 142
        0x1000029a:    2000        .       MOVS     r0,#0
        0x1000029c:    49ad        .I      LDR      r1,[pc,#692] ; [0x10000554] = 0x20003015
        0x1000029e:    7008        .p      STRB     r0,[r1,#0]
        0x100002a0:    4668        hF      MOV      r0,sp
        0x100002a2:    7b81        .{      LDRB     r1,[r0,#0xe]
        0x100002a4:    300f        .0      ADDS     r0,r0,#0xf
        0x100002a6:    f001fac7    ....    BL       ota_cmd ; 0x10001838
        0x100002aa:    bc10        ..      POP      {r4}
        0x100002ac:    bc08        ..      POP      {r3}
        0x100002ae:    b004        ..      ADD      sp,sp,#0x10
        0x100002b0:    4718        .G      BX       r3
    BLE_Indicate_Service_Changed
        0x100002b2:    b57f        ..      PUSH     {r0-r6,lr}
        0x100002b4:    4604        .F      MOV      r4,r0
        0x100002b6:    460d        .F      MOV      r5,r1
        0x100002b8:    48ae        .H      LDR      r0,[pc,#696] ; [0x10000574] = 0x20003008
        0x100002ba:    7800        .x      LDRB     r0,[r0,#0]
        0x100002bc:    2801        .(      CMP      r0,#1
        0x100002be:    d133        3.      BNE      0x10000328 ; BLE_Indicate_Service_Changed + 118
        0x100002c0:    2000        .       MOVS     r0,#0
        0x100002c2:    9003        ..      STR      r0,[sp,#0xc]
        0x100002c4:    4620         F      MOV      r0,r4
        0x100002c6:    17e1        ..      ASRS     r1,r4,#31
        0x100002c8:    0e09        ..      LSRS     r1,r1,#24
        0x100002ca:    1809        ..      ADDS     r1,r1,r0
        0x100002cc:    1209        ..      ASRS     r1,r1,#8
        0x100002ce:    0209        ..      LSLS     r1,r1,#8
        0x100002d0:    1a61        a.      SUBS     r1,r4,r1
        0x100002d2:    b2ca        ..      UXTB     r2,r1
        0x100002d4:    4669        iF      MOV      r1,sp
        0x100002d6:    730a        .s      STRB     r2,[r1,#0xc]
        0x100002d8:    17e1        ..      ASRS     r1,r4,#31
        0x100002da:    0e09        ..      LSRS     r1,r1,#24
        0x100002dc:    1809        ..      ADDS     r1,r1,r0
        0x100002de:    0409        ..      LSLS     r1,r1,#16
        0x100002e0:    0e0a        ..      LSRS     r2,r1,#24
        0x100002e2:    4669        iF      MOV      r1,sp
        0x100002e4:    734a        Js      STRB     r2,[r1,#0xd]
        0x100002e6:    4628        (F      MOV      r0,r5
        0x100002e8:    17e9        ..      ASRS     r1,r5,#31
        0x100002ea:    0e09        ..      LSRS     r1,r1,#24
        0x100002ec:    1809        ..      ADDS     r1,r1,r0
        0x100002ee:    1209        ..      ASRS     r1,r1,#8
        0x100002f0:    0209        ..      LSLS     r1,r1,#8
        0x100002f2:    1a69        i.      SUBS     r1,r5,r1
        0x100002f4:    b2ca        ..      UXTB     r2,r1
        0x100002f6:    4669        iF      MOV      r1,sp
        0x100002f8:    738a        .s      STRB     r2,[r1,#0xe]
        0x100002fa:    17e9        ..      ASRS     r1,r5,#31
        0x100002fc:    0e09        ..      LSRS     r1,r1,#24
        0x100002fe:    1809        ..      ADDS     r1,r1,r0
        0x10000300:    0409        ..      LSLS     r1,r1,#16
        0x10000302:    0e0a        ..      LSRS     r2,r1,#24
        0x10000304:    4669        iF      MOV      r1,sp
        0x10000306:    73ca        .s      STRB     r2,[r1,#0xf]
        0x10000308:    4890        .H      LDR      r0,[pc,#576] ; [0x1000054c] = 0x180f
        0x1000030a:    380e        .8      SUBS     r0,r0,#0xe
        0x1000030c:    8008        ..      STRH     r0,[r1,#0]
        0x1000030e:    488c        .H      LDR      r0,[pc,#560] ; [0x10000540] = 0x2a01
        0x10000310:    1d00        ..      ADDS     r0,r0,#4
        0x10000312:    8048        H.      STRH     r0,[r1,#2]
        0x10000314:    200a        .       MOVS     r0,#0xa
        0x10000316:    8088        ..      STRH     r0,[r1,#4]
        0x10000318:    2002        .       MOVS     r0,#2
        0x1000031a:    8108        ..      STRH     r0,[r1,#8]
        0x1000031c:    ab03        ..      ADD      r3,sp,#0xc
        0x1000031e:    2204        ."      MOVS     r2,#4
        0x10000320:    f004f82d    ..-.    BL       GATTDataSend ; 0x1000437e
        0x10000324:    b004        ..      ADD      sp,sp,#0x10
        0x10000326:    bd70        p.      POP      {r4-r6,pc}
        0x10000328:    2000        .       MOVS     r0,#0
        0x1000032a:    e7fb        ..      B        0x10000324 ; BLE_Indicate_Service_Changed + 114
    HID_Key_Vlaue_Send
        0x1000032c:    b51f        ..      PUSH     {r0-r4,lr}
        0x1000032e:    4604        .F      MOV      r4,r0
        0x10000330:    2000        .       MOVS     r0,#0
        0x10000332:    9000        ..      STR      r0,[sp,#0]
        0x10000334:    4668        hF      MOV      r0,sp
        0x10000336:    7004        .p      STRB     r4,[r0,#0]
        0x10000338:    0420         .      LSLS     r0,r4,#16
        0x1000033a:    0e01        ..      LSRS     r1,r0,#24
        0x1000033c:    4668        hF      MOV      r0,sp
        0x1000033e:    7041        Ap      STRB     r1,[r0,#1]
        0x10000340:    488d        .H      LDR      r0,[pc,#564] ; [0x10000578] = 0x20003007
        0x10000342:    7800        .x      LDRB     r0,[r0,#0]
        0x10000344:    2801        .(      CMP      r0,#1
        0x10000346:    d114        ..      BNE      0x10000372 ; HID_Key_Vlaue_Send + 70
        0x10000348:    4980        .I      LDR      r1,[pc,#512] ; [0x1000054c] = 0x180f
        0x1000034a:    1cc9        ..      ADDS     r1,r1,#3
        0x1000034c:    4668        hF      MOV      r0,sp
        0x1000034e:    8081        ..      STRH     r1,[r0,#4]
        0x10000350:    497b        {I      LDR      r1,[pc,#492] ; [0x10000540] = 0x2a01
        0x10000352:    314c        L1      ADDS     r1,r1,#0x4c
        0x10000354:    80c1        ..      STRH     r1,[r0,#6]
        0x10000356:    2126        &!      MOVS     r1,#0x26
        0x10000358:    8141        A.      STRH     r1,[r0,#0xa]
        0x1000035a:    2125        %!      MOVS     r1,#0x25
        0x1000035c:    8101        ..      STRH     r1,[r0,#8]
        0x1000035e:    2101        .!      MOVS     r1,#1
        0x10000360:    8181        ..      STRH     r1,[r0,#0xc]
        0x10000362:    466b        kF      MOV      r3,sp
        0x10000364:    2202        ."      MOVS     r2,#2
        0x10000366:    a901        ..      ADD      r1,sp,#4
        0x10000368:    2001        .       MOVS     r0,#1
        0x1000036a:    f004f808    ....    BL       GATTDataSend ; 0x1000437e
        0x1000036e:    b004        ..      ADD      sp,sp,#0x10
        0x10000370:    bd10        ..      POP      {r4,pc}
        0x10000372:    2000        .       MOVS     r0,#0
        0x10000374:    e7fb        ..      B        0x1000036e ; HID_Key_Vlaue_Send + 66
    ble_evt_callback
        0x10000376:    b510        ..      PUSH     {r4,lr}
        0x10000378:    b08c        ..      SUB      sp,sp,#0x30
        0x1000037a:    4604        .F      MOV      r4,r0
        0x1000037c:    1c60        `.      ADDS     r0,r4,#1
        0x1000037e:    f004ffd9    ....    BL       __aeabi_uread4 ; 0x10005334
        0x10000382:    2801        .(      CMP      r0,#1
        0x10000384:    d109        ..      BNE      0x1000039a ; ble_evt_callback + 36
        0x10000386:    f7fffea5    ....    BL       setup_adv_data ; 0x100000d4
        0x1000038a:    f003ff74    ..t.    BL       StartAdv ; 0x10004276
        0x1000038e:    bf00        ..      NOP      
        0x10000390:    a17a        z.      ADR      r1,{pc}+0x1ec ; 0x1000057c
        0x10000392:    2000        .       MOVS     r0,#0
        0x10000394:    f002f880    ....    BL       SEGGER_RTT_printf ; 0x10002498
        0x10000398:    e1fb        ..      B        0x10000792 ; ble_evt_callback + 1052
        0x1000039a:    1c60        `.      ADDS     r0,r4,#1
        0x1000039c:    f004ffca    ....    BL       __aeabi_uread4 ; 0x10005334
        0x100003a0:    2802        .(      CMP      r0,#2
        0x100003a2:    d117        ..      BNE      0x100003d4 ; ble_evt_callback + 94
        0x100003a4:    2000        .       MOVS     r0,#0
        0x100003a6:    4979        yI      LDR      r1,[pc,#484] ; [0x1000058c] = 0x20003005
        0x100003a8:    7008        .p      STRB     r0,[r1,#0]
        0x100003aa:    4973        sI      LDR      r1,[pc,#460] ; [0x10000578] = 0x20003007
        0x100003ac:    7008        .p      STRB     r0,[r1,#0]
        0x100003ae:    2001        .       MOVS     r0,#1
        0x100003b0:    4977        wI      LDR      r1,[pc,#476] ; [0x10000590] = 0x20003014
        0x100003b2:    7008        .p      STRB     r0,[r1,#0]
        0x100003b4:    2000        .       MOVS     r0,#0
        0x100003b6:    496f        oI      LDR      r1,[pc,#444] ; [0x10000574] = 0x20003008
        0x100003b8:    7008        .p      STRB     r0,[r1,#0]
        0x100003ba:    4976        vI      LDR      r1,[pc,#472] ; [0x10000594] = 0x20003004
        0x100003bc:    7008        .p      STRB     r0,[r1,#0]
        0x100003be:    2001        .       MOVS     r0,#1
        0x100003c0:    f001fa27    ..'.    BL       ota_variable_clear ; 0x10001812
        0x100003c4:    bf00        ..      NOP      
        0x100003c6:    2306        .#      MOVS     r3,#6
        0x100003c8:    1da2        ..      ADDS     r2,r4,#6
        0x100003ca:    a173        s.      ADR      r1,{pc}+0x1ce ; 0x10000598
        0x100003cc:    2000        .       MOVS     r0,#0
        0x100003ce:    f002f875    ..u.    BL       SEGGER_RTT_hexdump ; 0x100024bc
        0x100003d2:    e1de        ..      B        0x10000792 ; ble_evt_callback + 1052
        0x100003d4:    1c60        `.      ADDS     r0,r4,#1
        0x100003d6:    f004ffad    ....    BL       __aeabi_uread4 ; 0x10005334
        0x100003da:    2804        .(      CMP      r0,#4
        0x100003dc:    d115        ..      BNE      0x1000040a ; ble_evt_callback + 148
        0x100003de:    2000        .       MOVS     r0,#0
        0x100003e0:    496b        kI      LDR      r1,[pc,#428] ; [0x10000590] = 0x20003014
        0x100003e2:    7008        .p      STRB     r0,[r1,#0]
        0x100003e4:    4969        iI      LDR      r1,[pc,#420] ; [0x1000058c] = 0x20003005
        0x100003e6:    7008        .p      STRB     r0,[r1,#0]
        0x100003e8:    4963        cI      LDR      r1,[pc,#396] ; [0x10000578] = 0x20003007
        0x100003ea:    7008        .p      STRB     r0,[r1,#0]
        0x100003ec:    4961        aI      LDR      r1,[pc,#388] ; [0x10000574] = 0x20003008
        0x100003ee:    7008        .p      STRB     r0,[r1,#0]
        0x100003f0:    f003ff41    ..A.    BL       StartAdv ; 0x10004276
        0x100003f4:    2001        .       MOVS     r0,#1
        0x100003f6:    0240        @.      LSLS     r0,r0,#9
        0x100003f8:    f002f970    ..p.    BL       Timer_Evt_Stop ; 0x100026dc
        0x100003fc:    bf00        ..      NOP      
        0x100003fe:    7962        by      LDRB     r2,[r4,#5]
        0x10000400:    a16b        k.      ADR      r1,{pc}+0x1b0 ; 0x100005b0
        0x10000402:    2000        .       MOVS     r0,#0
        0x10000404:    f002f848    ..H.    BL       SEGGER_RTT_printf ; 0x10002498
        0x10000408:    e1c3        ..      B        0x10000792 ; ble_evt_callback + 1052
        0x1000040a:    1c60        `.      ADDS     r0,r4,#1
        0x1000040c:    f004ff92    ....    BL       __aeabi_uread4 ; 0x10005334
        0x10000410:    2101        .!      MOVS     r1,#1
        0x10000412:    0349        I.      LSLS     r1,r1,#13
        0x10000414:    4288        .B      CMP      r0,r1
        0x10000416:    d161        a.      BNE      0x100004dc ; ble_evt_callback + 358
        0x10000418:    79a1        .y      LDRB     r1,[r4,#6]
        0x1000041a:    7962        by      LDRB     r2,[r4,#5]
        0x1000041c:    0208        ..      LSLS     r0,r1,#8
        0x1000041e:    4310        .C      ORRS     r0,r0,r2
        0x10000420:    2801        .(      CMP      r0,#1
        0x10000422:    d123        #.      BNE      0x1000046c ; ble_evt_callback + 246
        0x10000424:    7a21        !z      LDRB     r1,[r4,#8]
        0x10000426:    79e2        .y      LDRB     r2,[r4,#7]
        0x10000428:    0208        ..      LSLS     r0,r1,#8
        0x1000042a:    4310        .C      ORRS     r0,r0,r2
        0x1000042c:    2811        .(      CMP      r0,#0x11
        0x1000042e:    d1b3        ..      BNE      0x10000398 ; ble_evt_callback + 34
        0x10000430:    7aa1        .z      LDRB     r1,[r4,#0xa]
        0x10000432:    7a62        bz      LDRB     r2,[r4,#9]
        0x10000434:    0208        ..      LSLS     r0,r1,#8
        0x10000436:    4310        .C      ORRS     r0,r0,r2
        0x10000438:    07c0        ..      LSLS     r0,r0,#31
        0x1000043a:    0fc0        ..      LSRS     r0,r0,#31
        0x1000043c:    2800        .(      CMP      r0,#0
        0x1000043e:    d107        ..      BNE      0x10000450 ; ble_evt_callback + 218
        0x10000440:    7aa1        .z      LDRB     r1,[r4,#0xa]
        0x10000442:    7a62        bz      LDRB     r2,[r4,#9]
        0x10000444:    0208        ..      LSLS     r0,r1,#8
        0x10000446:    4310        .C      ORRS     r0,r0,r2
        0x10000448:    2102        .!      MOVS     r1,#2
        0x1000044a:    4008        .@      ANDS     r0,r0,r1
        0x1000044c:    2800        .(      CMP      r0,#0
        0x1000044e:    d009        ..      BEQ      0x10000464 ; ble_evt_callback + 238
        0x10000450:    bf00        ..      NOP      
        0x10000452:    a15e        ^.      ADR      r1,{pc}+0x17a ; 0x100005cc
        0x10000454:    2000        .       MOVS     r0,#0
        0x10000456:    f002f81f    ....    BL       SEGGER_RTT_printf ; 0x10002498
        0x1000045a:    bf00        ..      NOP      
        0x1000045c:    2001        .       MOVS     r0,#1
        0x1000045e:    494b        KI      LDR      r1,[pc,#300] ; [0x1000058c] = 0x20003005
        0x10000460:    7008        .p      STRB     r0,[r1,#0]
        0x10000462:    e196        ..      B        0x10000792 ; ble_evt_callback + 1052
        0x10000464:    2000        .       MOVS     r0,#0
        0x10000466:    4949        II      LDR      r1,[pc,#292] ; [0x1000058c] = 0x20003005
        0x10000468:    7008        .p      STRB     r0,[r1,#0]
        0x1000046a:    e192        ..      B        0x10000792 ; ble_evt_callback + 1052
        0x1000046c:    79a1        .y      LDRB     r1,[r4,#6]
        0x1000046e:    7962        by      LDRB     r2,[r4,#5]
        0x10000470:    0208        ..      LSLS     r0,r1,#8
        0x10000472:    4310        .C      ORRS     r0,r0,r2
        0x10000474:    4935        5I      LDR      r1,[pc,#212] ; [0x1000054c] = 0x180f
        0x10000476:    1cc9        ..      ADDS     r1,r1,#3
        0x10000478:    4288        .B      CMP      r0,r1
        0x1000047a:    d11f        ..      BNE      0x100004bc ; ble_evt_callback + 326
        0x1000047c:    7a21        !z      LDRB     r1,[r4,#8]
        0x1000047e:    79e2        .y      LDRB     r2,[r4,#7]
        0x10000480:    0208        ..      LSLS     r0,r1,#8
        0x10000482:    4310        .C      ORRS     r0,r0,r2
        0x10000484:    2826        &(      CMP      r0,#0x26
        0x10000486:    d187        ..      BNE      0x10000398 ; ble_evt_callback + 34
        0x10000488:    7aa1        .z      LDRB     r1,[r4,#0xa]
        0x1000048a:    7a62        bz      LDRB     r2,[r4,#9]
        0x1000048c:    0208        ..      LSLS     r0,r1,#8
        0x1000048e:    4310        .C      ORRS     r0,r0,r2
        0x10000490:    07c0        ..      LSLS     r0,r0,#31
        0x10000492:    0fc0        ..      LSRS     r0,r0,#31
        0x10000494:    2800        .(      CMP      r0,#0
        0x10000496:    d009        ..      BEQ      0x100004ac ; ble_evt_callback + 310
        0x10000498:    bf00        ..      NOP      
        0x1000049a:    a151        Q.      ADR      r1,{pc}+0x146 ; 0x100005e0
        0x1000049c:    2000        .       MOVS     r0,#0
        0x1000049e:    f001fffb    ....    BL       SEGGER_RTT_printf ; 0x10002498
        0x100004a2:    bf00        ..      NOP      
        0x100004a4:    2001        .       MOVS     r0,#1
        0x100004a6:    4934        4I      LDR      r1,[pc,#208] ; [0x10000578] = 0x20003007
        0x100004a8:    7008        .p      STRB     r0,[r1,#0]
        0x100004aa:    e172        r.      B        0x10000792 ; ble_evt_callback + 1052
        0x100004ac:    2000        .       MOVS     r0,#0
        0x100004ae:    4932        2I      LDR      r1,[pc,#200] ; [0x10000578] = 0x20003007
        0x100004b0:    7008        .p      STRB     r0,[r1,#0]
        0x100004b2:    bf00        ..      NOP      
        0x100004b4:    a14f        O.      ADR      r1,{pc}+0x140 ; 0x100005f4
        0x100004b6:    f001ffef    ....    BL       SEGGER_RTT_printf ; 0x10002498
        0x100004ba:    e16a        j.      B        0x10000792 ; ble_evt_callback + 1052
        0x100004bc:    79a1        .y      LDRB     r1,[r4,#6]
        0x100004be:    7962        by      LDRB     r2,[r4,#5]
        0x100004c0:    0208        ..      LSLS     r0,r1,#8
        0x100004c2:    4310        .C      ORRS     r0,r0,r2
        0x100004c4:    4921        !I      LDR      r1,[pc,#132] ; [0x1000054c] = 0x180f
        0x100004c6:    4288        .B      CMP      r0,r1
        0x100004c8:    d109        ..      BNE      0x100004de ; ble_evt_callback + 360
        0x100004ca:    7aa1        .z      LDRB     r1,[r4,#0xa]
        0x100004cc:    7a62        bz      LDRB     r2,[r4,#9]
        0x100004ce:    0208        ..      LSLS     r0,r1,#8
        0x100004d0:    4310        .C      ORRS     r0,r0,r2
        0x100004d2:    07c0        ..      LSLS     r0,r0,#31
        0x100004d4:    0fc0        ..      LSRS     r0,r0,#31
        0x100004d6:    2800        .(      CMP      r0,#0
        0x100004d8:    d096        ..      BEQ      0x10000408 ; ble_evt_callback + 146
        0x100004da:    e097        ..      B        0x1000060c ; ble_evt_callback + 662
        0x100004dc:    e0c9        ..      B        0x10000672 ; ble_evt_callback + 764
        0x100004de:    e0a4        ..      B        0x1000062a ; ble_evt_callback + 692
    $d
        0x100004e0:    00003fff    .?..    DCD    16383
        0x100004e4:    20003042    B0.     DCD    536883266
        0x100004e8:    2000301d    .0.     DCD    536883229
        0x100004ec:    69766564    devi    DCD    1769366884
        0x100004f0:    61206563    ce a    DCD    1629513059
        0x100004f4:    3a726464    ddr:    DCD    980575332
        0x100004f8:    00000000    ....    DCD    0
        0x100004fc:    20003040    @0.     DCD    536883264
        0x10000500:    2000303c    <0.     DCD    536883260
        0x10000504:    2000303e    >0.     DCD    536883262
        0x10000508:    72616d73    smar    DCD    1918987635
        0x1000050c:    61705f74    t_pa    DCD    1634754420
        0x10000510:    736d6172    rams    DCD    1936548210
        0x10000514:    746e6920     int    DCD    1953392928
        0x10000518:    61767265    erva    DCD    1635152485
        0x1000051c:    78253a6c    l:%x    DCD    2015705708
        0x10000520:    74616c20     lat    DCD    1952541728
        0x10000524:    79636e65    ency    DCD    2036559461
        0x10000528:    2078253a    :%x     DCD    544744762
        0x1000052c:    6f747673    svto    DCD    1869903475
        0x10000530:    0d78253a    :%x.    DCD    225977658
        0x10000534:    0000000a    ....    DCD    10
        0x10000538:    5f445953    SYD_    DCD    1598314835
        0x1000053c:    00444948    HID.    DCD    4475208
        0x10000540:    00002a01    .*..    DCD    10753
        0x10000544:    000003c1    ....    DCD    961
        0x10000548:    0000ff01    ....    DCD    65281
        0x1000054c:    0000180f    ....    DCD    6159
        0x10000550:    20003017    .0.     DCD    536883223
        0x10000554:    20003015    .0.     DCD    536883221
        0x10000558:    3a67736d    msg:    DCD    979858285
        0x1000055c:    00000a0d    ....    DCD    2573
        0x10000560:    20646968    hid     DCD    543451496
        0x10000564:    6279656b    keyb    DCD    1652122987
        0x10000568:    6472616f    oard    DCD    1685217647
        0x1000056c:    67736d20     msg    DCD    1735617824
        0x10000570:    000a0d3a    :...    DCD    658746
        0x10000574:    20003008    .0.     DCD    536883208
        0x10000578:    20003007    .0.     DCD    536883207
        0x1000057c:    74536552    ReSt    DCD    1951622482
        0x10000580:    41747261    artA    DCD    1098150497
        0x10000584:    0a0d7664    dv..    DCD    168654436
        0x10000588:    00000000    ....    DCD    0
        0x1000058c:    20003005    .0.     DCD    536883205
        0x10000590:    20003014    .0.     DCD    536883220
        0x10000594:    20003004    .0.     DCD    536883204
        0x10000598:    5f504147    GAP_    DCD    1599095111
        0x1000059c:    5f545645    EVT_    DCD    1599362629
        0x100005a0:    4e4e4f43    CONN    DCD    1313754947
        0x100005a4:    45544345    ECTE    DCD    1163150149
        0x100005a8:    64612044    D ad    DCD    1684086852
        0x100005ac:    003a7264    dr:.    DCD    3830372
        0x100005b0:    5f504147    GAP_    DCD    1599095111
        0x100005b4:    5f545645    EVT_    DCD    1599362629
        0x100005b8:    43534944    DISC    DCD    1129531716
        0x100005bc:    454e4e4f    ONNE    DCD    1162759759
        0x100005c0:    44455443    CTED    DCD    1145394243
        0x100005c4:    0d782520     %x.    DCD    225977632
        0x100005c8:    0000000a    ....    DCD    10
        0x100005cc:    72617473    star    DCD    1918989427
        0x100005d0:    78745f74    t_tx    DCD    2020892532
        0x100005d4:    616e6520     ena    DCD    1634624800
        0x100005d8:    0d656c62    ble.    DCD    224750690
        0x100005dc:    0000000a    ....    DCD    10
        0x100005e0:    5f646968    hid_    DCD    1600416104
        0x100005e4:    5f79656b    key_    DCD    1601791339
        0x100005e8:    65207874    tx e    DCD    1696626804
        0x100005ec:    6c62616e    nabl    DCD    1818386798
        0x100005f0:    000a0d65    e...    DCD    658789
        0x100005f4:    5f646968    hid_    DCD    1600416104
        0x100005f8:    5f79656b    key_    DCD    1601791339
        0x100005fc:    64207874    tx d    DCD    1679849588
        0x10000600:    62617369    isab    DCD    1650553705
        0x10000604:    0a0d656c    le..    DCD    168650092
        0x10000608:    00000000    ....    DCD    0
    $t
        0x1000060c:    49fe        .I      LDR      r1,[pc,#1016] ; [0x10000a08] = 0x180f
        0x1000060e:    4668        hF      MOV      r0,sp
        0x10000610:    8481        ..      STRH     r1,[r0,#0x24]
        0x10000612:    84c1        ..      STRH     r1,[r0,#0x26]
        0x10000614:    2117        .!      MOVS     r1,#0x17
        0x10000616:    8501        ..      STRH     r1,[r0,#0x28]
        0x10000618:    2101        .!      MOVS     r1,#1
        0x1000061a:    8581        ..      STRH     r1,[r0,#0x2c]
        0x1000061c:    4bfb        .K      LDR      r3,[pc,#1004] ; [0x10000a0c] = 0x20003017
        0x1000061e:    2201        ."      MOVS     r2,#1
        0x10000620:    a909        ..      ADD      r1,sp,#0x24
        0x10000622:    4610        .F      MOV      r0,r2
        0x10000624:    f003feab    ....    BL       GATTDataSend ; 0x1000437e
        0x10000628:    e0b3        ..      B        0x10000792 ; ble_evt_callback + 1052
        0x1000062a:    79a1        .y      LDRB     r1,[r4,#6]
        0x1000062c:    7962        by      LDRB     r2,[r4,#5]
        0x1000062e:    0208        ..      LSLS     r0,r1,#8
        0x10000630:    4310        .C      ORRS     r0,r0,r2
        0x10000632:    49f5        .I      LDR      r1,[pc,#980] ; [0x10000a08] = 0x180f
        0x10000634:    390e        .9      SUBS     r1,r1,#0xe
        0x10000636:    4288        .B      CMP      r0,r1
        0x10000638:    d1f6        ..      BNE      0x10000628 ; ble_evt_callback + 690
        0x1000063a:    7aa1        .z      LDRB     r1,[r4,#0xa]
        0x1000063c:    7a62        bz      LDRB     r2,[r4,#9]
        0x1000063e:    0208        ..      LSLS     r0,r1,#8
        0x10000640:    4310        .C      ORRS     r0,r0,r2
        0x10000642:    2102        .!      MOVS     r1,#2
        0x10000644:    4008        .@      ANDS     r0,r0,r1
        0x10000646:    2800        .(      CMP      r0,#0
        0x10000648:    d009        ..      BEQ      0x1000065e ; ble_evt_callback + 744
        0x1000064a:    bf00        ..      NOP      
        0x1000064c:    a1f0        ..      ADR      r1,{pc}+0x3c4 ; 0x10000a10
        0x1000064e:    2000        .       MOVS     r0,#0
        0x10000650:    f001ff22    ..".    BL       SEGGER_RTT_printf ; 0x10002498
        0x10000654:    bf00        ..      NOP      
        0x10000656:    2001        .       MOVS     r0,#1
        0x10000658:    49f4        .I      LDR      r1,[pc,#976] ; [0x10000a2c] = 0x20003008
        0x1000065a:    7008        .p      STRB     r0,[r1,#0]
        0x1000065c:    e099        ..      B        0x10000792 ; ble_evt_callback + 1052
        0x1000065e:    bf00        ..      NOP      
        0x10000660:    a1f3        ..      ADR      r1,{pc}+0x3d0 ; 0x10000a30
        0x10000662:    2000        .       MOVS     r0,#0
        0x10000664:    f001ff18    ....    BL       SEGGER_RTT_printf ; 0x10002498
        0x10000668:    bf00        ..      NOP      
        0x1000066a:    2000        .       MOVS     r0,#0
        0x1000066c:    49ef        .I      LDR      r1,[pc,#956] ; [0x10000a2c] = 0x20003008
        0x1000066e:    7008        .p      STRB     r0,[r1,#0]
        0x10000670:    e08f        ..      B        0x10000792 ; ble_evt_callback + 1052
        0x10000672:    1c60        `.      ADDS     r0,r4,#1
        0x10000674:    f004fe5e    ..^.    BL       __aeabi_uread4 ; 0x10005334
        0x10000678:    2101        .!      MOVS     r1,#1
        0x1000067a:    0249        I.      LSLS     r1,r1,#9
        0x1000067c:    4288        .B      CMP      r0,r1
        0x1000067e:    d10f        ..      BNE      0x100006a0 ; ble_evt_callback + 810
        0x10000680:    220e        ."      MOVS     r2,#0xe
        0x10000682:    4621        !F      MOV      r1,r4
        0x10000684:    3115        .1      ADDS     r1,r1,#0x15
        0x10000686:    4668        hF      MOV      r0,sp
        0x10000688:    f004fe1a    ....    BL       __aeabi_memcpy ; 0x100052c0
        0x1000068c:    221e        ."      MOVS     r2,#0x1e
        0x1000068e:    1d61        a.      ADDS     r1,r4,#5
        0x10000690:    a804        ..      ADD      r0,sp,#0x10
        0x10000692:    f004fe15    ....    BL       __aeabi_memcpy ; 0x100052c0
        0x10000696:    a804        ..      ADD      r0,sp,#0x10
        0x10000698:    c80f        ..      LDM      r0,{r0-r3}
        0x1000069a:    f7fffdbf    ....    BL       ble_gatt_write ; 0x1000021c
        0x1000069e:    e078        x.      B        0x10000792 ; ble_evt_callback + 1052
        0x100006a0:    1c60        `.      ADDS     r0,r4,#1
        0x100006a2:    f004fe47    ..G.    BL       __aeabi_uread4 ; 0x10005334
        0x100006a6:    21ff        .!      MOVS     r1,#0xff
        0x100006a8:    3101        .1      ADDS     r1,#1
        0x100006aa:    4288        .B      CMP      r0,r1
        0x100006ac:    d109        ..      BNE      0x100006c2 ; ble_evt_callback + 844
        0x100006ae:    2208        ."      MOVS     r2,#8
        0x100006b0:    1d61        a.      ADDS     r1,r4,#5
        0x100006b2:    a80a        ..      ADD      r0,sp,#0x28
        0x100006b4:    f004fe04    ....    BL       __aeabi_memcpy ; 0x100052c0
        0x100006b8:    990b        ..      LDR      r1,[sp,#0x2c]
        0x100006ba:    980a        ..      LDR      r0,[sp,#0x28]
        0x100006bc:    f7fffd6f    ..o.    BL       ble_gatt_read ; 0x1000019e
        0x100006c0:    e067        g.      B        0x10000792 ; ble_evt_callback + 1052
        0x100006c2:    1c60        `.      ADDS     r0,r4,#1
        0x100006c4:    f004fe36    ..6.    BL       __aeabi_uread4 ; 0x10005334
        0x100006c8:    2101        .!      MOVS     r1,#1
        0x100006ca:    0309        ..      LSLS     r1,r1,#12
        0x100006cc:    4288        .B      CMP      r0,r1
        0x100006ce:    d060        `.      BEQ      0x10000792 ; ble_evt_callback + 1052
        0x100006d0:    1c60        `.      ADDS     r0,r4,#1
        0x100006d2:    f004fe2f    ../.    BL       __aeabi_uread4 ; 0x10005334
        0x100006d6:    2808        .(      CMP      r0,#8
        0x100006d8:    d105        ..      BNE      0x100006e6 ; ble_evt_callback + 880
        0x100006da:    bf00        ..      NOP      
        0x100006dc:    a1db        ..      ADR      r1,{pc}+0x370 ; 0x10000a4c
        0x100006de:    2000        .       MOVS     r0,#0
        0x100006e0:    f001feda    ....    BL       SEGGER_RTT_printf ; 0x10002498
        0x100006e4:    e055        U.      B        0x10000792 ; ble_evt_callback + 1052
        0x100006e6:    1c60        `.      ADDS     r0,r4,#1
        0x100006e8:    f004fe24    ..$.    BL       __aeabi_uread4 ; 0x10005334
        0x100006ec:    2101        .!      MOVS     r1,#1
        0x100006ee:    0389        ..      LSLS     r1,r1,#14
        0x100006f0:    4288        .B      CMP      r0,r1
        0x100006f2:    d105        ..      BNE      0x10000700 ; ble_evt_callback + 906
        0x100006f4:    bf00        ..      NOP      
        0x100006f6:    a1db        ..      ADR      r1,{pc}+0x36e ; 0x10000a64
        0x100006f8:    2000        .       MOVS     r0,#0
        0x100006fa:    f001fecd    ....    BL       SEGGER_RTT_printf ; 0x10002498
        0x100006fe:    e048        H.      B        0x10000792 ; ble_evt_callback + 1052
        0x10000700:    1c60        `.      ADDS     r0,r4,#1
        0x10000702:    f004fe17    ....    BL       __aeabi_uread4 ; 0x10005334
        0x10000706:    2101        .!      MOVS     r1,#1
        0x10000708:    03c9        ..      LSLS     r1,r1,#15
        0x1000070a:    4288        .B      CMP      r0,r1
        0x1000070c:    d141        A.      BNE      0x10000792 ; ble_evt_callback + 1052
        0x1000070e:    79a1        .y      LDRB     r1,[r4,#6]
        0x10000710:    7962        by      LDRB     r2,[r4,#5]
        0x10000712:    0208        ..      LSLS     r0,r1,#8
        0x10000714:    4310        .C      ORRS     r0,r0,r2
        0x10000716:    0003        ..      MOVS     r3,r0
        0x10000718:    f005fa07    ....    BL       __ARM_common_switch8 ; 0x10005b2a
    $d
        0x1000071c:    1e170406    ....    DCD    504824838
        0x10000720:    3a332c25    %,3:    DCD    976432165
    $t
        0x10000724:    bf00        ..      NOP      
        0x10000726:    a1d4        ..      ADR      r1,{pc}+0x352 ; 0x10000a78
        0x10000728:    2000        .       MOVS     r0,#0
        0x1000072a:    f001feb5    ....    BL       SEGGER_RTT_printf ; 0x10002498
        0x1000072e:    bf00        ..      NOP      
        0x10000730:    a80a        ..      ADD      r0,sp,#0x28
        0x10000732:    f003fddf    ....    BL       GetLinkParameters ; 0x100042f4
        0x10000736:    bf00        ..      NOP      
        0x10000738:    4668        hF      MOV      r0,sp
        0x1000073a:    8d43        C.      LDRH     r3,[r0,#0x2a]
        0x1000073c:    8d02        ..      LDRH     r2,[r0,#0x28]
        0x1000073e:    a1d4        ..      ADR      r1,{pc}+0x352 ; 0x10000a90
        0x10000740:    2000        .       MOVS     r0,#0
        0x10000742:    f001fea9    ....    BL       SEGGER_RTT_printf ; 0x10002498
        0x10000746:    bf00        ..      NOP      
        0x10000748:    e022        ".      B        0x10000790 ; ble_evt_callback + 1050
        0x1000074a:    bf00        ..      NOP      
        0x1000074c:    a1d7        ..      ADR      r1,{pc}+0x360 ; 0x10000aac
        0x1000074e:    2000        .       MOVS     r0,#0
        0x10000750:    f001fea2    ....    BL       SEGGER_RTT_printf ; 0x10002498
        0x10000754:    bf00        ..      NOP      
        0x10000756:    e01b        ..      B        0x10000790 ; ble_evt_callback + 1050
        0x10000758:    bf00        ..      NOP      
        0x1000075a:    a1da        ..      ADR      r1,{pc}+0x36a ; 0x10000ac4
        0x1000075c:    2000        .       MOVS     r0,#0
        0x1000075e:    f001fe9b    ....    BL       SEGGER_RTT_printf ; 0x10002498
        0x10000762:    bf00        ..      NOP      
        0x10000764:    e014        ..      B        0x10000790 ; ble_evt_callback + 1050
        0x10000766:    bf00        ..      NOP      
        0x10000768:    a1dc        ..      ADR      r1,{pc}+0x374 ; 0x10000adc
        0x1000076a:    2000        .       MOVS     r0,#0
        0x1000076c:    f001fe94    ....    BL       SEGGER_RTT_printf ; 0x10002498
        0x10000770:    bf00        ..      NOP      
        0x10000772:    e00d        ..      B        0x10000790 ; ble_evt_callback + 1050
        0x10000774:    bf00        ..      NOP      
        0x10000776:    a1df        ..      ADR      r1,{pc}+0x37e ; 0x10000af4
        0x10000778:    2000        .       MOVS     r0,#0
        0x1000077a:    f001fe8d    ....    BL       SEGGER_RTT_printf ; 0x10002498
        0x1000077e:    bf00        ..      NOP      
        0x10000780:    e006        ..      B        0x10000790 ; ble_evt_callback + 1050
        0x10000782:    bf00        ..      NOP      
        0x10000784:    a1e0        ..      ADR      r1,{pc}+0x384 ; 0x10000b08
        0x10000786:    2000        .       MOVS     r0,#0
        0x10000788:    f001fe86    ....    BL       SEGGER_RTT_printf ; 0x10002498
        0x1000078c:    bf00        ..      NOP      
        0x1000078e:    bf00        ..      NOP      
        0x10000790:    bf00        ..      NOP      
        0x10000792:    b00c        ..      ADD      sp,sp,#0x30
        0x10000794:    bd10        ..      POP      {r4,pc}
    ble_init
        0x10000796:    b500        ..      PUSH     {lr}
        0x10000798:    b087        ..      SUB      sp,sp,#0x1c
        0x1000079a:    f003fbb6    ....    BL       BleInit ; 0x10003f0a
        0x1000079e:    2103        .!      MOVS     r1,#3
        0x100007a0:    4668        hF      MOV      r0,sp
        0x100007a2:    7001        .p      STRB     r1,[r0,#0]
        0x100007a4:    2100        .!      MOVS     r1,#0
        0x100007a6:    7041        Ap      STRB     r1,[r0,#1]
        0x100007a8:    7880        .x      LDRB     r0,[r0,#2]
        0x100007aa:    0881        ..      LSRS     r1,r0,#2
        0x100007ac:    0089        ..      LSLS     r1,r1,#2
        0x100007ae:    1c49        I.      ADDS     r1,r1,#1
        0x100007b0:    4668        hF      MOV      r0,sp
        0x100007b2:    7081        .p      STRB     r1,[r0,#2]
        0x100007b4:    7880        .x      LDRB     r0,[r0,#2]
        0x100007b6:    2104        .!      MOVS     r1,#4
        0x100007b8:    4388        .C      BICS     r0,r0,r1
        0x100007ba:    4601        .F      MOV      r1,r0
        0x100007bc:    4668        hF      MOV      r0,sp
        0x100007be:    7081        .p      STRB     r1,[r0,#2]
        0x100007c0:    2110        .!      MOVS     r1,#0x10
        0x100007c2:    70c1        .p      STRB     r1,[r0,#3]
        0x100007c4:    2100        .!      MOVS     r1,#0
        0x100007c6:    7101        .q      STRB     r1,[r0,#4]
        0x100007c8:    2103        .!      MOVS     r1,#3
        0x100007ca:    7141        Aq      STRB     r1,[r0,#5]
        0x100007cc:    f003fd86    ....    BL       SetSecParams ; 0x100042dc
        0x100007d0:    20c0        .       MOVS     r0,#0xc0
        0x100007d2:    9005        ..      STR      r0,[sp,#0x14]
        0x100007d4:    48d1        .H      LDR      r0,[pc,#836] ; [0x10000b1c] = 0x10000377
        0x100007d6:    9006        ..      STR      r0,[sp,#0x18]
        0x100007d8:    a805        ..      ADD      r0,sp,#0x14
        0x100007da:    f003fda1    ....    BL       SetEvtCallback ; 0x10004320
        0x100007de:    48d0        .H      LDR      r0,[pc,#832] ; [0x10000b20] = 0x20003000
        0x100007e0:    f003fdb9    ....    BL       GetGATTReportHandle ; 0x10004356
        0x100007e4:    2000        .       MOVS     r0,#0
        0x100007e6:    f003ff7f    ....    BL       SetBondManagerIndex ; 0x100046e8
        0x100007ea:    f7fffc73    ..s.    BL       setup_adv_data ; 0x100000d4
        0x100007ee:    2100        .!      MOVS     r1,#0
        0x100007f0:    4668        hF      MOV      r0,sp
        0x100007f2:    7201        .r      STRB     r1,[r0,#8]
        0x100007f4:    2101        .!      MOVS     r1,#1
        0x100007f6:    7241        Ar      STRB     r1,[r0,#9]
        0x100007f8:    7281        .r      STRB     r1,[r0,#0xa]
        0x100007fa:    2100        .!      MOVS     r1,#0
        0x100007fc:    72c1        .r      STRB     r1,[r0,#0xb]
        0x100007fe:    2101        .!      MOVS     r1,#1
        0x10000800:    7301        .s      STRB     r1,[r0,#0xc]
        0x10000802:    a903        ..      ADD      r1,sp,#0xc
        0x10000804:    3103        .1      ADDS     r1,#3
        0x10000806:    2005        .       MOVS     r0,#5
        0x10000808:    0500        ..      LSLS     r0,r0,#20
        0x1000080a:    f004fd9d    ....    BL       __aeabi_uwrite4 ; 0x10005348
        0x1000080e:    a802        ..      ADD      r0,sp,#8
        0x10000810:    f003fecc    ....    BL       WakeupConfig ; 0x100045ac
        0x10000814:    b007        ..      ADD      sp,sp,#0x1c
        0x10000816:    bd00        ..      POP      {pc}
    ota_manage
        0x10000818:    b510        ..      PUSH     {r4,lr}
        0x1000081a:    48c2        .H      LDR      r0,[pc,#776] ; [0x10000b24] = 0x2000309c
        0x1000081c:    7800        .x      LDRB     r0,[r0,#0]
        0x1000081e:    2800        .(      CMP      r0,#0
        0x10000820:    d04d        M.      BEQ      0x100008be ; ota_manage + 166
        0x10000822:    48c0        .H      LDR      r0,[pc,#768] ; [0x10000b24] = 0x2000309c
        0x10000824:    7800        .x      LDRB     r0,[r0,#0]
        0x10000826:    2801        .(      CMP      r0,#1
        0x10000828:    d004        ..      BEQ      0x10000834 ; ota_manage + 28
        0x1000082a:    2802        .(      CMP      r0,#2
        0x1000082c:    d011        ..      BEQ      0x10000852 ; ota_manage + 58
        0x1000082e:    2803        .(      CMP      r0,#3
        0x10000830:    d143        C.      BNE      0x100008ba ; ota_manage + 162
        0x10000832:    e022        ".      B        0x1000087a ; ota_manage + 98
        0x10000834:    f000fef5    ....    BL       CmdFwErase ; 0x10001622
        0x10000838:    bf00        ..      NOP      
        0x1000083a:    a1bb        ..      ADR      r1,{pc}+0x2ee ; 0x10000b28
        0x1000083c:    2000        .       MOVS     r0,#0
        0x1000083e:    f001fe2b    ..+.    BL       SEGGER_RTT_printf ; 0x10002498
        0x10000842:    bf00        ..      NOP      
        0x10000844:    2002        .       MOVS     r0,#2
        0x10000846:    49b7        .I      LDR      r1,[pc,#732] ; [0x10000b24] = 0x2000309c
        0x10000848:    7008        .p      STRB     r0,[r1,#0]
        0x1000084a:    2000        .       MOVS     r0,#0
        0x1000084c:    49b9        .I      LDR      r1,[pc,#740] ; [0x10000b34] = 0x2000309d
        0x1000084e:    7008        .p      STRB     r0,[r1,#0]
        0x10000850:    e034        4.      B        0x100008bc ; ota_manage + 164
        0x10000852:    48b8        .H      LDR      r0,[pc,#736] ; [0x10000b34] = 0x2000309d
        0x10000854:    7800        .x      LDRB     r0,[r0,#0]
        0x10000856:    1c40        @.      ADDS     r0,r0,#1
        0x10000858:    49b6        .I      LDR      r1,[pc,#728] ; [0x10000b34] = 0x2000309d
        0x1000085a:    7008        .p      STRB     r0,[r1,#0]
        0x1000085c:    4608        .F      MOV      r0,r1
        0x1000085e:    7800        .x      LDRB     r0,[r0,#0]
        0x10000860:    2820         (      CMP      r0,#0x20
        0x10000862:    dd09        ..      BLE      0x10000878 ; ota_manage + 96
        0x10000864:    bf00        ..      NOP      
        0x10000866:    a1b4        ..      ADR      r1,{pc}+0x2d2 ; 0x10000b38
        0x10000868:    2000        .       MOVS     r0,#0
        0x1000086a:    f001fe15    ....    BL       SEGGER_RTT_printf ; 0x10002498
        0x1000086e:    bf00        ..      NOP      
        0x10000870:    2001        .       MOVS     r0,#1
        0x10000872:    0240        @.      LSLS     r0,r0,#9
        0x10000874:    f001ff32    ..2.    BL       Timer_Evt_Stop ; 0x100026dc
        0x10000878:    e020         .      B        0x100008bc ; ota_manage + 164
        0x1000087a:    2000        .       MOVS     r0,#0
        0x1000087c:    49a9        .I      LDR      r1,[pc,#676] ; [0x10000b24] = 0x2000309c
        0x1000087e:    7008        .p      STRB     r0,[r1,#0]
        0x10000880:    2001        .       MOVS     r0,#1
        0x10000882:    0240        @.      LSLS     r0,r0,#9
        0x10000884:    f001ff2a    ..*.    BL       Timer_Evt_Stop ; 0x100026dc
        0x10000888:    bf00        ..      NOP      
        0x1000088a:    a1ae        ..      ADR      r1,{pc}+0x2ba ; 0x10000b44
        0x1000088c:    2000        .       MOVS     r0,#0
        0x1000088e:    f001fe03    ....    BL       SEGGER_RTT_printf ; 0x10002498
        0x10000892:    bf00        ..      NOP      
        0x10000894:    207d        }       MOVS     r0,#0x7d
        0x10000896:    00c0        ..      LSLS     r0,r0,#3
        0x10000898:    f000fe9c    ....    BL       delay_ms ; 0x100015d4
        0x1000089c:    bf00        ..      NOP      
        0x1000089e:    a1ad        ..      ADR      r1,{pc}+0x2b6 ; 0x10000b54
        0x100008a0:    2000        .       MOVS     r0,#0
        0x100008a2:    f001fdf9    ....    BL       SEGGER_RTT_printf ; 0x10002498
        0x100008a6:    bf00        ..      NOP      
        0x100008a8:    f003ff0d    ....    BL       SystemReset ; 0x100046c6
        0x100008ac:    bf00        ..      NOP      
        0x100008ae:    a1ae        ..      ADR      r1,{pc}+0x2ba ; 0x10000b68
        0x100008b0:    2000        .       MOVS     r0,#0
        0x100008b2:    f001fdf1    ....    BL       SEGGER_RTT_printf ; 0x10002498
        0x100008b6:    bf00        ..      NOP      
        0x100008b8:    e000        ..      B        0x100008bc ; ota_manage + 164
        0x100008ba:    bf00        ..      NOP      
        0x100008bc:    bf00        ..      NOP      
        0x100008be:    bd10        ..      POP      {r4,pc}
    gpio_callback
        0x100008c0:    b510        ..      PUSH     {r4,lr}
        0x100008c2:    48ad        .H      LDR      r0,[pc,#692] ; [0x10000b78] = 0x20003005
        0x100008c4:    7800        .x      LDRB     r0,[r0,#0]
        0x100008c6:    07c0        ..      LSLS     r0,r0,#31
        0x100008c8:    0fc0        ..      LSRS     r0,r0,#31
        0x100008ca:    2800        .(      CMP      r0,#0
        0x100008cc:    d002        ..      BEQ      0x100008d4 ; gpio_callback + 20
        0x100008ce:    2001        .       MOVS     r0,#1
        0x100008d0:    f002ff18    ....    BL       UartEn ; 0x10003704
        0x100008d4:    bd10        ..      POP      {r4,pc}
    gpio_init
        0x100008d6:    b5fe        ..      PUSH     {r1-r7,lr}
        0x100008d8:    2500        .%      MOVS     r5,#0
        0x100008da:    2600        .&      MOVS     r6,#0
        0x100008dc:    2700        .'      MOVS     r7,#0
        0x100008de:    2000        .       MOVS     r0,#0
        0x100008e0:    9001        ..      STR      r0,[sp,#4]
        0x100008e2:    9000        ..      STR      r0,[sp,#0]
        0x100008e4:    21ff        .!      MOVS     r1,#0xff
        0x100008e6:    48a5        .H      LDR      r0,[pc,#660] ; [0x10000b7c] = 0x2000304c
        0x100008e8:    6800        .h      LDR      r0,[r0,#0]
        0x100008ea:    3020         0      ADDS     r0,r0,#0x20
        0x100008ec:    7001        .p      STRB     r1,[r0,#0]
        0x100008ee:    48a3        .H      LDR      r0,[pc,#652] ; [0x10000b7c] = 0x2000304c
        0x100008f0:    6800        .h      LDR      r0,[r0,#0]
        0x100008f2:    3020         0      ADDS     r0,r0,#0x20
        0x100008f4:    7041        Ap      STRB     r1,[r0,#1]
        0x100008f6:    48a1        .H      LDR      r0,[pc,#644] ; [0x10000b7c] = 0x2000304c
        0x100008f8:    6800        .h      LDR      r0,[r0,#0]
        0x100008fa:    3020         0      ADDS     r0,r0,#0x20
        0x100008fc:    7081        .p      STRB     r1,[r0,#2]
        0x100008fe:    21cf        .!      MOVS     r1,#0xcf
        0x10000900:    489e        .H      LDR      r0,[pc,#632] ; [0x10000b7c] = 0x2000304c
        0x10000902:    6800        .h      LDR      r0,[r0,#0]
        0x10000904:    3020         0      ADDS     r0,r0,#0x20
        0x10000906:    70c1        .p      STRB     r1,[r0,#3]
        0x10000908:    21ff        .!      MOVS     r1,#0xff
        0x1000090a:    489c        .H      LDR      r0,[pc,#624] ; [0x10000b7c] = 0x2000304c
        0x1000090c:    6800        .h      LDR      r0,[r0,#0]
        0x1000090e:    3020         0      ADDS     r0,r0,#0x20
        0x10000910:    7101        .q      STRB     r1,[r0,#4]
        0x10000912:    2400        .$      MOVS     r4,#0
        0x10000914:    e011        ..      B        0x1000093a ; gpio_init + 100
        0x10000916:    bf00        ..      NOP      
        0x10000918:    2001        .       MOVS     r0,#1
        0x1000091a:    40a0        .@      LSLS     r0,r0,r4
        0x1000091c:    4305        .C      ORRS     r5,r5,r0
        0x1000091e:    2001        .       MOVS     r0,#1
        0x10000920:    40a0        .@      LSLS     r0,r0,r4
        0x10000922:    9901        ..      LDR      r1,[sp,#4]
        0x10000924:    4308        .C      ORRS     r0,r0,r1
        0x10000926:    9001        ..      STR      r0,[sp,#4]
        0x10000928:    2001        .       MOVS     r0,#1
        0x1000092a:    40a0        .@      LSLS     r0,r0,r4
        0x1000092c:    9900        ..      LDR      r1,[sp,#0]
        0x1000092e:    4308        .C      ORRS     r0,r0,r1
        0x10000930:    9000        ..      STR      r0,[sp,#0]
        0x10000932:    bf00        ..      NOP      
        0x10000934:    bf00        ..      NOP      
        0x10000936:    1c60        `.      ADDS     r0,r4,#1
        0x10000938:    b2c4        ..      UXTB     r4,r0
        0x1000093a:    2c20         ,      CMP      r4,#0x20
        0x1000093c:    dbeb        ..      BLT      0x10000916 ; gpio_init + 64
        0x1000093e:    4629        )F      MOV      r1,r5
        0x10000940:    4331        1C      ORRS     r1,r1,r6
        0x10000942:    4608        .F      MOV      r0,r1
        0x10000944:    2100        .!      MOVS     r1,#0
        0x10000946:    f000fae5    ....    BL       PIN_Set_GPIO ; 0x10000f14
        0x1000094a:    4630        0F      MOV      r0,r6
        0x1000094c:    f000fb46    ..F.    BL       GPIO_Set_Output ; 0x10000fdc
        0x10000950:    4631        1F      MOV      r1,r6
        0x10000952:    43b9        .C      BICS     r1,r1,r7
        0x10000954:    4608        .F      MOV      r0,r1
        0x10000956:    f000fbd7    ....    BL       GPIO_Pin_Set ; 0x10001108
        0x1000095a:    4638        8F      MOV      r0,r7
        0x1000095c:    f000fbed    ....    BL       GPIO_Pin_Clear ; 0x1000113a
        0x10000960:    4628        (F      MOV      r0,r5
        0x10000962:    9900        ..      LDR      r1,[sp,#0]
        0x10000964:    f000fb53    ..S.    BL       GPIO_Set_Input ; 0x1000100e
        0x10000968:    2000        .       MOVS     r0,#0
        0x1000096a:    9901        ..      LDR      r1,[sp,#4]
        0x1000096c:    f000faeb    ....    BL       PIN_Pullup_Enable ; 0x10000f46
        0x10000970:    4628        (F      MOV      r0,r5
        0x10000972:    f000fbb0    ....    BL       GPIO_Input_Enable ; 0x100010d6
        0x10000976:    4982        .I      LDR      r1,[pc,#520] ; [0x10000b80] = 0x100008c1
        0x10000978:    2005        .       MOVS     r0,#5
        0x1000097a:    0500        ..      LSLS     r0,r0,#20
        0x1000097c:    f000fc20    .. .    BL       io_irq_enable ; 0x100011c0
        0x10000980:    bdfe        ..      POP      {r1-r7,pc}
    main
        0x10000982:    b508        ..      PUSH     {r3,lr}
        0x10000984:    b672        r.      CPSID    i
        0x10000986:    f7ffff06    ....    BL       ble_init ; 0x10000796
        0x1000098a:    2000        .       MOVS     r0,#0
        0x1000098c:    f003fdfe    ....    BL       MCUClockSwitch ; 0x1000458c
        0x10000990:    f002fe93    ....    BL       RCOSCCalibration ; 0x100036ba
        0x10000994:    2000        .       MOVS     r0,#0
        0x10000996:    f002ff34    ..4.    BL       ClockSwitch ; 0x10003802
        0x1000099a:    20ff        .       MOVS     r0,#0xff
        0x1000099c:    30f5        .0      ADDS     r0,r0,#0xf5
        0x1000099e:    f000fe19    ....    BL       delay_ms ; 0x100015d4
        0x100009a2:    f002ff3f    ..?.    BL       LPOCalibration ; 0x10003824
        0x100009a6:    f7ffff96    ....    BL       gpio_init ; 0x100008d6
        0x100009aa:    f001fae4    ....    BL       SEGGER_RTT_Init ; 0x10001f76
        0x100009ae:    bf00        ..      NOP      
        0x100009b0:    a174        t.      ADR      r1,{pc}+0x1d4 ; 0x10000b84
        0x100009b2:    2000        .       MOVS     r0,#0
        0x100009b4:    f001fd70    ..p.    BL       SEGGER_RTT_printf ; 0x10002498
        0x100009b8:    bf00        ..      NOP      
        0x100009ba:    2001        .       MOVS     r0,#1
        0x100009bc:    f002fea2    ....    BL       UartEn ; 0x10003704
        0x100009c0:    f000faa4    ....    BL       dbg_init ; 0x10000f0c
        0x100009c4:    2001        .       MOVS     r0,#1
        0x100009c6:    f002fe9d    ....    BL       UartEn ; 0x10003704
        0x100009ca:    bf00        ..      NOP      
        0x100009cc:    a371        q.      ADR      r3,{pc}+0x1c8 ; 0x10000b94
        0x100009ce:    a274        t.      ADR      r2,{pc}+0x1d2 ; 0x10000ba0
        0x100009d0:    a176        v.      ADR      r1,{pc}+0x1dc ; 0x10000bac
        0x100009d2:    2000        .       MOVS     r0,#0
        0x100009d4:    f001fd60    ..`.    BL       SEGGER_RTT_printf ; 0x10002498
        0x100009d8:    bf00        ..      NOP      
        0x100009da:    4979        yI      LDR      r1,[pc,#484] ; [0x10000bc0] = 0x2000317c
        0x100009dc:    2002        .       MOVS     r0,#2
        0x100009de:    f001ff0f    ....    BL       SYD_Timer_Init ; 0x10002800
        0x100009e2:    f001f993    ....    BL       Timer_Evt_List ; 0x10001d0c
        0x100009e6:    4977        wI      LDR      r1,[pc,#476] ; [0x10000bc4] = 0x200031ac
        0x100009e8:    2001        .       MOVS     r0,#1
        0x100009ea:    f002fad0    ....    BL       SYD_RTC_Init ; 0x10002f8e
        0x100009ee:    f001f9ac    ....    BL       RTC_Evt_List ; 0x10001d4a
        0x100009f2:    b662        b.      CPSIE    i
        0x100009f4:    f003fc3f    ..?.    BL       StartAdv ; 0x10004276
        0x100009f8:    bf00        ..      NOP      
        0x100009fa:    a173        s.      ADR      r1,{pc}+0x1ce ; 0x10000bc8
        0x100009fc:    2000        .       MOVS     r0,#0
        0x100009fe:    f001fd4b    ..K.    BL       SEGGER_RTT_printf ; 0x10002498
        0x10000a02:    bf00        ..      NOP      
        0x10000a04:    e1fb        ..      B        0x10000dfe ; main + 1148
    $d
        0x10000a06:    0000        ..      DCW    0
        0x10000a08:    0000180f    ....    DCD    6159
        0x10000a0c:    20003017    .0.     DCD    536883223
        0x10000a10:    454e4547    GENE    DCD    1162757447
        0x10000a14:    5f434952    RIC_    DCD    1598245202
        0x10000a18:    52545441    ATTR    DCD    1381258305
        0x10000a1c:    54554249    IBUT    DCD    1414873673
        0x10000a20:    6e652045    E en    DCD    1852121157
        0x10000a24:    656c6261    able    DCD    1701601889
        0x10000a28:    00000a0d    ....    DCD    2573
        0x10000a2c:    20003008    .0.     DCD    536883208
        0x10000a30:    454e4547    GENE    DCD    1162757447
        0x10000a34:    5f434952    RIC_    DCD    1598245202
        0x10000a38:    52545441    ATTR    DCD    1381258305
        0x10000a3c:    54554249    IBUT    DCD    1414873673
        0x10000a40:    69642045    E di    DCD    1768169541
        0x10000a44:    6c626173    sabl    DCD    1818386803
        0x10000a48:    000a0d65    e...    DCD    658789
        0x10000a4c:    5f504147    GAP_    DCD    1599095111
        0x10000a50:    5f545645    EVT_    DCD    1599362629
        0x10000a54:    52494150    PAIR    DCD    1380532560
        0x10000a58:    5f474e49    ING_    DCD    1598508617
        0x10000a5c:    504d4f43    COMP    DCD    1347243843
        0x10000a60:    00000a0d    ....    DCD    2573
        0x10000a64:    5f504147    GAP_    DCD    1599095111
        0x10000a68:    5f545645    EVT_    DCD    1599362629
        0x10000a6c:    5f434e45    ENC_    DCD    1598246469
        0x10000a70:    52415453    STAR    DCD    1380013139
        0x10000a74:    000a0d54    T...    DCD    658772
        0x10000a78:    61647075    upda    DCD    1633972341
        0x10000a7c:    72206574    te r    DCD    1914725748
        0x10000a80:    41207073    sp A    DCD    1092644979
        0x10000a84:    50454343    CCEP    DCD    1346716483
        0x10000a88:    0d444554    TED.    DCD    222578004
        0x10000a8c:    0000000a    ....    DCD    10
        0x10000a90:    65746e69    inte    DCD    1702129257
        0x10000a94:    6c617672    rval    DCD    1818326642
        0x10000a98:    2078253a    :%x     DCD    544744762
        0x10000a9c:    6574616c    late    DCD    1702125932
        0x10000aa0:    3a79636e    ncy:    DCD    981033838
        0x10000aa4:    0a0d7825    %x..    DCD    168654885
        0x10000aa8:    00000000    ....    DCD    0
        0x10000aac:    61647075    upda    DCD    1633972341
        0x10000ab0:    72206574    te r    DCD    1914725748
        0x10000ab4:    52207073    sp R    DCD    1377857651
        0x10000ab8:    43454a45    EJEC    DCD    1128614469
        0x10000abc:    0d444554    TED.    DCD    222578004
        0x10000ac0:    0000000a    ....    DCD    10
        0x10000ac4:    61647075    upda    DCD    1633972341
        0x10000ac8:    72206574    te r    DCD    1914725748
        0x10000acc:    54207073    sp T    DCD    1411412083
        0x10000ad0:    52454d49    IMER    DCD    1380273481
        0x10000ad4:    0d54554f    OUT.    DCD    223630671
        0x10000ad8:    0000000a    ....    DCD    10
        0x10000adc:    61647075    upda    DCD    1633972341
        0x10000ae0:    72206574    te r    DCD    1914725748
        0x10000ae4:    53207073    sp S    DCD    1394634867
        0x10000ae8:    45434355    UCCE    DCD    1162036053
        0x10000aec:    0a0d4445    ED..    DCD    168641605
        0x10000af0:    00000000    ....    DCD    0
        0x10000af4:    62616e45    Enab    DCD    1650552389
        0x10000af8:    6c20656c    le l    DCD    1814062444
        0x10000afc:    6e657461    aten    DCD    1852142689
        0x10000b00:    0a0d7963    cy..    DCD    168655203
        0x10000b04:    00000000    ....    DCD    0
        0x10000b08:    61736944    Disa    DCD    1634953540
        0x10000b0c:    20656c62    ble     DCD    543517794
        0x10000b10:    6574616c    late    DCD    1702125932
        0x10000b14:    0d79636e    ncy.    DCD    226059118
        0x10000b18:    0000000a    ....    DCD    10
        0x10000b1c:    10000377    w...    DCD    268436343
        0x10000b20:    20003000    .0.     DCD    536883200
        0x10000b24:    2000309c    .0.     DCD    536883356
        0x10000b28:    2041544f    OTA     DCD    541152335
        0x10000b2c:    72617473    star    DCD    1918989427
        0x10000b30:    000a0d74    t...    DCD    658804
        0x10000b34:    2000309d    .0.     DCD    536883357
        0x10000b38:    2041544f    OTA     DCD    541152335
        0x10000b3c:    6c696166    fail    DCD    1818845542
        0x10000b40:    000a0d65    e...    DCD    658789
        0x10000b44:    2041544f    OTA     DCD    541152335
        0x10000b48:    696e6966    fini    DCD    1768843622
        0x10000b4c:    0a0d6873    sh..    DCD    168650867
        0x10000b50:    00000000    ....    DCD    0
        0x10000b54:    72617453    Star    DCD    1918989395
        0x10000b58:    65522074    t Re    DCD    1699881076
        0x10000b5c:    20746573    set     DCD    544499059
        0x10000b60:    30303031    1000    DCD    808464433
        0x10000b64:    000a0d73    s...    DCD    658803
        0x10000b68:    65736552    Rese    DCD    1702061394
        0x10000b6c:    61662074    t fa    DCD    1634082932
        0x10000b70:    64656c69    iled    DCD    1684368489
        0x10000b74:    00000a0d    ....    DCD    2573
        0x10000b78:    20003005    .0.     DCD    536883205
        0x10000b7c:    2000304c    L0.     DCD    536883276
        0x10000b80:    100008c1    ....    DCD    268437697
        0x10000b84:    20445953    SYD     DCD    541350227
        0x10000b88:    20545452    RTT     DCD    542397522
        0x10000b8c:    74696e49    Init    DCD    1953066569
        0x10000b90:    00000a0d    ....    DCD    2573
        0x10000b94:    343a3631    16:4    DCD    876230193
        0x10000b98:    39353a36    6:59    DCD    959789622
        0x10000b9c:    00000000    ....    DCD    0
        0x10000ba0:    20727041    Apr     DCD    544370753
        0x10000ba4:    32203820     8 2    DCD    840972320
        0x10000ba8:    00303230    020.    DCD    3158576
        0x10000bac:    38647953    Syd8    DCD    946108755
        0x10000bb0:    5f313138    811_    DCD    1597059384
        0x10000bb4:    20444948    HID     DCD    541346120
        0x10000bb8:    253a7325    %s:%    DCD    624587557
        0x10000bbc:    000a0d73    s...    DCD    658803
        0x10000bc0:    2000317c    |1.     DCD    536883580
        0x10000bc4:    200031ac    .1.     DCD    536883628
        0x10000bc8:    72617453    Star    DCD    1918989395
        0x10000bcc:    76644174    tAdv    DCD    1986281844
        0x10000bd0:    00000a0d    ....    DCD    2573
    $t
        0x10000bd4:    f003fecf    ....    BL       ble_sched_execute ; 0x10004976
        0x10000bd8:    2001        .       MOVS     r0,#1
        0x10000bda:    0500        ..      LSLS     r0,r0,#20
        0x10000bdc:    f000fadf    ....    BL       GPIO_Pin_Read ; 0x1000119e
        0x10000be0:    2800        .(      CMP      r0,#0
        0x10000be2:    d020         .      BEQ      0x10000c26 ; main + 676
        0x10000be4:    2005        .       MOVS     r0,#5
        0x10000be6:    f000fcf5    ....    BL       delay_ms ; 0x100015d4
        0x10000bea:    2001        .       MOVS     r0,#1
        0x10000bec:    0500        ..      LSLS     r0,r0,#20
        0x10000bee:    f000fad6    ....    BL       GPIO_Pin_Read ; 0x1000119e
        0x10000bf2:    2800        .(      CMP      r0,#0
        0x10000bf4:    d026        &.      BEQ      0x10000c44 ; main + 706
        0x10000bf6:    2001        .       MOVS     r0,#1
        0x10000bf8:    4981        .I      LDR      r1,[pc,#516] ; [0x10000e00] = 0x2000300a
        0x10000bfa:    7008        .p      STRB     r0,[r1,#0]
        0x10000bfc:    bf00        ..      NOP      
        0x10000bfe:    a181        ..      ADR      r1,{pc}+0x206 ; 0x10000e04
        0x10000c00:    2000        .       MOVS     r0,#0
        0x10000c02:    f001fc49    ..I.    BL       SEGGER_RTT_printf ; 0x10002498
        0x10000c06:    bf00        ..      NOP      
        0x10000c08:    2001        .       MOVS     r0,#1
        0x10000c0a:    0540        @.      LSLS     r0,r0,#21
        0x10000c0c:    f000faae    ....    BL       GPIO_Pin_Turn ; 0x1000116c
        0x10000c10:    20e9        .       MOVS     r0,#0xe9
        0x10000c12:    f7fffb8b    ....    BL       HID_Key_Vlaue_Send ; 0x1000032c
        0x10000c16:    bf00        ..      NOP      
        0x10000c18:    2001        .       MOVS     r0,#1
        0x10000c1a:    0500        ..      LSLS     r0,r0,#20
        0x10000c1c:    f000fabf    ....    BL       GPIO_Pin_Read ; 0x1000119e
        0x10000c20:    2800        .(      CMP      r0,#0
        0x10000c22:    d1f9        ..      BNE      0x10000c18 ; main + 662
        0x10000c24:    e00e        ..      B        0x10000c44 ; main + 706
        0x10000c26:    4876        vH      LDR      r0,[pc,#472] ; [0x10000e00] = 0x2000300a
        0x10000c28:    7800        .x      LDRB     r0,[r0,#0]
        0x10000c2a:    2801        .(      CMP      r0,#1
        0x10000c2c:    d10a        ..      BNE      0x10000c44 ; main + 706
        0x10000c2e:    2000        .       MOVS     r0,#0
        0x10000c30:    4973        sI      LDR      r1,[pc,#460] ; [0x10000e00] = 0x2000300a
        0x10000c32:    7008        .p      STRB     r0,[r1,#0]
        0x10000c34:    bf00        ..      NOP      
        0x10000c36:    a178        x.      ADR      r1,{pc}+0x1e2 ; 0x10000e18
        0x10000c38:    f001fc2e    ....    BL       SEGGER_RTT_printf ; 0x10002498
        0x10000c3c:    bf00        ..      NOP      
        0x10000c3e:    2000        .       MOVS     r0,#0
        0x10000c40:    f7fffb74    ..t.    BL       HID_Key_Vlaue_Send ; 0x1000032c
        0x10000c44:    2001        .       MOVS     r0,#1
        0x10000c46:    0580        ..      LSLS     r0,r0,#22
        0x10000c48:    f000faa9    ....    BL       GPIO_Pin_Read ; 0x1000119e
        0x10000c4c:    2800        .(      CMP      r0,#0
        0x10000c4e:    d01f        ..      BEQ      0x10000c90 ; main + 782
        0x10000c50:    2005        .       MOVS     r0,#5
        0x10000c52:    f000fcbf    ....    BL       delay_ms ; 0x100015d4
        0x10000c56:    2001        .       MOVS     r0,#1
        0x10000c58:    0580        ..      LSLS     r0,r0,#22
        0x10000c5a:    f000faa0    ....    BL       GPIO_Pin_Read ; 0x1000119e
        0x10000c5e:    2800        .(      CMP      r0,#0
        0x10000c60:    d025        %.      BEQ      0x10000cae ; main + 812
        0x10000c62:    2001        .       MOVS     r0,#1
        0x10000c64:    4970        pI      LDR      r1,[pc,#448] ; [0x10000e28] = 0x2000300b
        0x10000c66:    7008        .p      STRB     r0,[r1,#0]
        0x10000c68:    bf00        ..      NOP      
        0x10000c6a:    a170        p.      ADR      r1,{pc}+0x1c2 ; 0x10000e2c
        0x10000c6c:    2000        .       MOVS     r0,#0
        0x10000c6e:    f001fc13    ....    BL       SEGGER_RTT_printf ; 0x10002498
        0x10000c72:    bf00        ..      NOP      
        0x10000c74:    2020                MOVS     r0,#0x20
        0x10000c76:    f000fa79    ..y.    BL       GPIO_Pin_Turn ; 0x1000116c
        0x10000c7a:    20ea        .       MOVS     r0,#0xea
        0x10000c7c:    f7fffb56    ..V.    BL       HID_Key_Vlaue_Send ; 0x1000032c
        0x10000c80:    bf00        ..      NOP      
        0x10000c82:    2001        .       MOVS     r0,#1
        0x10000c84:    0580        ..      LSLS     r0,r0,#22
        0x10000c86:    f000fa8a    ....    BL       GPIO_Pin_Read ; 0x1000119e
        0x10000c8a:    2800        .(      CMP      r0,#0
        0x10000c8c:    d1f9        ..      BNE      0x10000c82 ; main + 768
        0x10000c8e:    e00e        ..      B        0x10000cae ; main + 812
        0x10000c90:    4865        eH      LDR      r0,[pc,#404] ; [0x10000e28] = 0x2000300b
        0x10000c92:    7800        .x      LDRB     r0,[r0,#0]
        0x10000c94:    2801        .(      CMP      r0,#1
        0x10000c96:    d10a        ..      BNE      0x10000cae ; main + 812
        0x10000c98:    2000        .       MOVS     r0,#0
        0x10000c9a:    4963        cI      LDR      r1,[pc,#396] ; [0x10000e28] = 0x2000300b
        0x10000c9c:    7008        .p      STRB     r0,[r1,#0]
        0x10000c9e:    bf00        ..      NOP      
        0x10000ca0:    a166        f.      ADR      r1,{pc}+0x19c ; 0x10000e3c
        0x10000ca2:    f001fbf9    ....    BL       SEGGER_RTT_printf ; 0x10002498
        0x10000ca6:    bf00        ..      NOP      
        0x10000ca8:    2000        .       MOVS     r0,#0
        0x10000caa:    f7fffb3f    ..?.    BL       HID_Key_Vlaue_Send ; 0x1000032c
        0x10000cae:    2001        .       MOVS     r0,#1
        0x10000cb0:    05c0        ..      LSLS     r0,r0,#23
        0x10000cb2:    f000fa74    ..t.    BL       GPIO_Pin_Read ; 0x1000119e
        0x10000cb6:    2800        .(      CMP      r0,#0
        0x10000cb8:    d053        S.      BEQ      0x10000d62 ; main + 992
        0x10000cba:    2005        .       MOVS     r0,#5
        0x10000cbc:    f000fc8a    ....    BL       delay_ms ; 0x100015d4
        0x10000cc0:    2001        .       MOVS     r0,#1
        0x10000cc2:    05c0        ..      LSLS     r0,r0,#23
        0x10000cc4:    f000fa6b    ..k.    BL       GPIO_Pin_Read ; 0x1000119e
        0x10000cc8:    2800        .(      CMP      r0,#0
        0x10000cca:    d056        V.      BEQ      0x10000d7a ; main + 1016
        0x10000ccc:    2001        .       MOVS     r0,#1
        0x10000cce:    495f        _I      LDR      r1,[pc,#380] ; [0x10000e4c] = 0x2000300c
        0x10000cd0:    7008        .p      STRB     r0,[r1,#0]
        0x10000cd2:    485f        _H      LDR      r0,[pc,#380] ; [0x10000e50] = 0x20003008
        0x10000cd4:    7800        .x      LDRB     r0,[r0,#0]
        0x10000cd6:    2801        .(      CMP      r0,#1
        0x10000cd8:    d14f        O.      BNE      0x10000d7a ; main + 1016
        0x10000cda:    485e        ^H      LDR      r0,[pc,#376] ; [0x10000e54] = 0x20003009
        0x10000cdc:    7800        .x      LDRB     r0,[r0,#0]
        0x10000cde:    07c0        ..      LSLS     r0,r0,#31
        0x10000ce0:    0fc0        ..      LSRS     r0,r0,#31
        0x10000ce2:    2800        .(      CMP      r0,#0
        0x10000ce4:    d149        I.      BNE      0x10000d7a ; main + 1016
        0x10000ce6:    9000        ..      STR      r0,[sp,#0]
        0x10000ce8:    242c        ,$      MOVS     r4,#0x2c
        0x10000cea:    4669        iF      MOV      r1,sp
        0x10000cec:    4620         F      MOV      r0,r4
        0x10000cee:    f004f9a3    ....    BL       APP_Read_Attribute_Encrypt ; 0x10005038
        0x10000cf2:    2800        .(      CMP      r0,#0
        0x10000cf4:    d02d        -.      BEQ      0x10000d52 ; main + 976
        0x10000cf6:    bf00        ..      NOP      
        0x10000cf8:    4668        hF      MOV      r0,sp
        0x10000cfa:    7803        .x      LDRB     r3,[r0,#0]
        0x10000cfc:    4622        "F      MOV      r2,r4
        0x10000cfe:    a156        V.      ADR      r1,{pc}+0x15a ; 0x10000e58
        0x10000d00:    2000        .       MOVS     r0,#0
        0x10000d02:    f001fbc9    ....    BL       SEGGER_RTT_printf ; 0x10002498
        0x10000d06:    bf00        ..      NOP      
        0x10000d08:    4668        hF      MOV      r0,sp
        0x10000d0a:    7800        .x      LDRB     r0,[r0,#0]
        0x10000d0c:    2810        .(      CMP      r0,#0x10
        0x10000d0e:    d127        '.      BNE      0x10000d60 ; main + 990
        0x10000d10:    2070        p       MOVS     r0,#0x70
        0x10000d12:    9000        ..      STR      r0,[sp,#0]
        0x10000d14:    4669        iF      MOV      r1,sp
        0x10000d16:    4620         F      MOV      r0,r4
        0x10000d18:    f004f9ad    ....    BL       APP_Write_Attribute_Encrypt ; 0x10005076
        0x10000d1c:    bf00        ..      NOP      
        0x10000d1e:    4668        hF      MOV      r0,sp
        0x10000d20:    7803        .x      LDRB     r3,[r0,#0]
        0x10000d22:    4622        "F      MOV      r2,r4
        0x10000d24:    a152        R.      ADR      r1,{pc}+0x14c ; 0x10000e70
        0x10000d26:    2000        .       MOVS     r0,#0
        0x10000d28:    f001fbb6    ....    BL       SEGGER_RTT_printf ; 0x10002498
        0x10000d2c:    bf00        ..      NOP      
        0x10000d2e:    4956        VI      LDR      r1,[pc,#344] ; [0x10000e88] = 0xffff
        0x10000d30:    2019        .       MOVS     r0,#0x19
        0x10000d32:    f7fffabe    ....    BL       BLE_Indicate_Service_Changed ; 0x100002b2
        0x10000d36:    2800        .(      CMP      r0,#0
        0x10000d38:    d005        ..      BEQ      0x10000d46 ; main + 964
        0x10000d3a:    4846        FH      LDR      r0,[pc,#280] ; [0x10000e54] = 0x20003009
        0x10000d3c:    7800        .x      LDRB     r0,[r0,#0]
        0x10000d3e:    2101        .!      MOVS     r1,#1
        0x10000d40:    4308        .C      ORRS     r0,r0,r1
        0x10000d42:    4944        DI      LDR      r1,[pc,#272] ; [0x10000e54] = 0x20003009
        0x10000d44:    7008        .p      STRB     r0,[r1,#0]
        0x10000d46:    bf00        ..      NOP      
        0x10000d48:    a150        P.      ADR      r1,{pc}+0x144 ; 0x10000e8c
        0x10000d4a:    2000        .       MOVS     r0,#0
        0x10000d4c:    f001fba4    ....    BL       SEGGER_RTT_printf ; 0x10002498
        0x10000d50:    e006        ..      B        0x10000d60 ; main + 990
        0x10000d52:    bf00        ..      NOP      
        0x10000d54:    4622        "F      MOV      r2,r4
        0x10000d56:    a154        T.      ADR      r1,{pc}+0x152 ; 0x10000ea8
        0x10000d58:    2000        .       MOVS     r0,#0
        0x10000d5a:    f001fb9d    ....    BL       SEGGER_RTT_printf ; 0x10002498
        0x10000d5e:    bf00        ..      NOP      
        0x10000d60:    e00b        ..      B        0x10000d7a ; main + 1016
        0x10000d62:    483a        :H      LDR      r0,[pc,#232] ; [0x10000e4c] = 0x2000300c
        0x10000d64:    7800        .x      LDRB     r0,[r0,#0]
        0x10000d66:    2801        .(      CMP      r0,#1
        0x10000d68:    d107        ..      BNE      0x10000d7a ; main + 1016
        0x10000d6a:    2000        .       MOVS     r0,#0
        0x10000d6c:    4937        7I      LDR      r1,[pc,#220] ; [0x10000e4c] = 0x2000300c
        0x10000d6e:    7008        .p      STRB     r0,[r1,#0]
        0x10000d70:    bf00        ..      NOP      
        0x10000d72:    a154        T.      ADR      r1,{pc}+0x152 ; 0x10000ec4
        0x10000d74:    f001fb90    ....    BL       SEGGER_RTT_printf ; 0x10002498
        0x10000d78:    bf00        ..      NOP      
        0x10000d7a:    4856        VH      LDR      r0,[pc,#344] ; [0x10000ed4] = 0x200030e0
        0x10000d7c:    6800        .h      LDR      r0,[r0,#0]
        0x10000d7e:    2800        .(      CMP      r0,#0
        0x10000d80:    d022        ".      BEQ      0x10000dc8 ; main + 1094
        0x10000d82:    4854        TH      LDR      r0,[pc,#336] ; [0x10000ed4] = 0x200030e0
        0x10000d84:    6800        .h      LDR      r0,[r0,#0]
        0x10000d86:    2101        .!      MOVS     r1,#1
        0x10000d88:    0249        I.      LSLS     r1,r1,#9
        0x10000d8a:    4008        .@      ANDS     r0,r0,r1
        0x10000d8c:    2800        .(      CMP      r0,#0
        0x10000d8e:    d00b        ..      BEQ      0x10000da8 ; main + 1062
        0x10000d90:    f7fffd42    ..B.    BL       ota_manage ; 0x10000818
        0x10000d94:    2001        .       MOVS     r0,#1
        0x10000d96:    0240        @.      LSLS     r0,r0,#9
        0x10000d98:    f001fc8b    ....    BL       Timer_Evt_Clr ; 0x100026b2
        0x10000d9c:    bf00        ..      NOP      
        0x10000d9e:    a14e        N.      ADR      r1,{pc}+0x13a ; 0x10000ed8
        0x10000da0:    2000        .       MOVS     r0,#0
        0x10000da2:    f001fb79    ..y.    BL       SEGGER_RTT_printf ; 0x10002498
        0x10000da6:    bf00        ..      NOP      
        0x10000da8:    484a        JH      LDR      r0,[pc,#296] ; [0x10000ed4] = 0x200030e0
        0x10000daa:    6800        .h      LDR      r0,[r0,#0]
        0x10000dac:    21ff        .!      MOVS     r1,#0xff
        0x10000dae:    3101        .1      ADDS     r1,#1
        0x10000db0:    4008        .@      ANDS     r0,r0,r1
        0x10000db2:    2800        .(      CMP      r0,#0
        0x10000db4:    d008        ..      BEQ      0x10000dc8 ; main + 1094
        0x10000db6:    4608        .F      MOV      r0,r1
        0x10000db8:    f001fc7b    ..{.    BL       Timer_Evt_Clr ; 0x100026b2
        0x10000dbc:    bf00        ..      NOP      
        0x10000dbe:    a14a        J.      ADR      r1,{pc}+0x12a ; 0x10000ee8
        0x10000dc0:    2000        .       MOVS     r0,#0
        0x10000dc2:    f001fb69    ..i.    BL       SEGGER_RTT_printf ; 0x10002498
        0x10000dc6:    bf00        ..      NOP      
        0x10000dc8:    484a        JH      LDR      r0,[pc,#296] ; [0x10000ef4] = 0x200030f8
        0x10000dca:    6800        .h      LDR      r0,[r0,#0]
        0x10000dcc:    2800        .(      CMP      r0,#0
        0x10000dce:    d010        ..      BEQ      0x10000df2 ; main + 1136
        0x10000dd0:    4848        HH      LDR      r0,[pc,#288] ; [0x10000ef4] = 0x200030f8
        0x10000dd2:    6800        .h      LDR      r0,[r0,#0]
        0x10000dd4:    2104        .!      MOVS     r1,#4
        0x10000dd6:    4008        .@      ANDS     r0,r0,r1
        0x10000dd8:    2800        .(      CMP      r0,#0
        0x10000dda:    d00a        ..      BEQ      0x10000df2 ; main + 1136
        0x10000ddc:    f002fd22    ..".    BL       LPOCalibration ; 0x10003824
        0x10000de0:    bf00        ..      NOP      
        0x10000de2:    a145        E.      ADR      r1,{pc}+0x116 ; 0x10000ef8
        0x10000de4:    2000        .       MOVS     r0,#0
        0x10000de6:    f001fb57    ..W.    BL       SEGGER_RTT_printf ; 0x10002498
        0x10000dea:    bf00        ..      NOP      
        0x10000dec:    2004        .       MOVS     r0,#4
        0x10000dee:    f001ff45    ..E.    BL       RTC_EVT_Clr ; 0x10002c7c
        0x10000df2:    4845        EH      LDR      r0,[pc,#276] ; [0x10000f08] = 0x2000309c
        0x10000df4:    7800        .x      LDRB     r0,[r0,#0]
        0x10000df6:    2801        .(      CMP      r0,#1
        0x10000df8:    d101        ..      BNE      0x10000dfe ; main + 1148
        0x10000dfa:    f7fffd0d    ....    BL       ota_manage ; 0x10000818
        0x10000dfe:    e6e9        ..      B        0x10000bd4 ; main + 594
    $d
        0x10000e00:    2000300a    .0.     DCD    536883210
        0x10000e04:    3159454b    KEY1    DCD    827934027
        0x10000e08:    65725020     Pre    DCD    1701990432
        0x10000e0c:    20207373    ss      DCD    538997619
        0x10000e10:    0a0d2b56    V+..    DCD    168635222
        0x10000e14:    00000000    ....    DCD    0
        0x10000e18:    3159454b    KEY1    DCD    827934027
        0x10000e1c:    6c655220     Rel    DCD    1818579488
        0x10000e20:    65736165    ease    DCD    1702060389
        0x10000e24:    00000a0d    ....    DCD    2573
        0x10000e28:    2000300b    .0.     DCD    536883211
        0x10000e2c:    3259454b    KEY2    DCD    844711243
        0x10000e30:    65725020     Pre    DCD    1701990432
        0x10000e34:    56207373    ss V    DCD    1444967283
        0x10000e38:    000a0d2d    -...    DCD    658733
        0x10000e3c:    3259454b    KEY2    DCD    844711243
        0x10000e40:    6c655220     Rel    DCD    1818579488
        0x10000e44:    65736165    ease    DCD    1702060389
        0x10000e48:    00000a0d    ....    DCD    2573
        0x10000e4c:    2000300c    .0.     DCD    536883212
        0x10000e50:    20003008    .0.     DCD    536883208
        0x10000e54:    20003009    .0.     DCD    536883209
        0x10000e58:    646e6946    Find    DCD    1684957510
        0x10000e5c:    646c6820     hld    DCD    1684826144
        0x10000e60:    2078253a    :%x     DCD    544744762
        0x10000e64:    3a636e65    enc:    DCD    979594853
        0x10000e68:    0a0d7825    %x..    DCD    168654885
        0x10000e6c:    00000000    ....    DCD    0
        0x10000e70:    74697257    Writ    DCD    1953067607
        0x10000e74:    6c682065    e hl    DCD    1818763365
        0x10000e78:    78253a64    d:%x    DCD    2015705700
        0x10000e7c:    636e6520     enc    DCD    1668179232
        0x10000e80:    0d78253a    :%x.    DCD    225977658
        0x10000e84:    0000000a    ....    DCD    10
        0x10000e88:    0000ffff    ....    DCD    65535
        0x10000e8c:    69646e49    Indi    DCD    1768189513
        0x10000e90:    65746163    cate    DCD    1702125923
        0x10000e94:    7265535f    _Ser    DCD    1919243103
        0x10000e98:    65636976    vice    DCD    1701013878
        0x10000e9c:    6168435f    _Cha    DCD    1634222943
        0x10000ea0:    6465676e    nged    DCD    1684367214
        0x10000ea4:    00000a0d    ....    DCD    2573
        0x10000ea8:    206e6143    Can     DCD    544104771
        0x10000eac:    20746f6e    not     DCD    544501614
        0x10000eb0:    646e6946    Find    DCD    1684957510
        0x10000eb4:    636e6520     enc    DCD    1668179232
        0x10000eb8:    646c6820     hld    DCD    1684826144
        0x10000ebc:    0d78253a    :%x.    DCD    225977658
        0x10000ec0:    0000000a    ....    DCD    10
        0x10000ec4:    3359454b    KEY3    DCD    861488459
        0x10000ec8:    6c655220     Rel    DCD    1818579488
        0x10000ecc:    65736165    ease    DCD    1702060389
        0x10000ed0:    00000a0d    ....    DCD    2573
        0x10000ed4:    200030e0    .0.     DCD    536883424
        0x10000ed8:    5f545645    EVT_    DCD    1599362629
        0x10000edc:    4f5f5331    1S_O    DCD    1331647281
        0x10000ee0:    0a0d4154    TA..    DCD    168640852
        0x10000ee4:    00000000    ....    DCD    0
        0x10000ee8:    5f545645    EVT_    DCD    1599362629
        0x10000eec:    0a0d5332    2S..    DCD    168645426
        0x10000ef0:    00000000    ....    DCD    0
        0x10000ef4:    200030f8    .0.     DCD    536883448
        0x10000ef8:    45435452    RTCE    DCD    1162040402
        0x10000efc:    315f5456    VT_1    DCD    828331094
        0x10000f00:    0d533538    85S.    DCD    223556920
        0x10000f04:    0000000a    ....    DCD    10
        0x10000f08:    2000309c    .0.     DCD    536883356
    $t
    .text
    dbg_init
        0x10000f0c:    b510        ..      PUSH     {r4,lr}
        0x10000f0e:    f000f9f5    ....    BL       uart_0_init ; 0x100012fc
        0x10000f12:    bd10        ..      POP      {r4,pc}
    .text
    PIN_Set_GPIO
        0x10000f14:    b510        ..      PUSH     {r4,lr}
        0x10000f16:    4602        .F      MOV      r2,r0
        0x10000f18:    2000        .       MOVS     r0,#0
        0x10000f1a:    e010        ..      B        0x10000f3e ; PIN_Set_GPIO + 42
        0x10000f1c:    2301        .#      MOVS     r3,#1
        0x10000f1e:    4083        .@      LSLS     r3,r3,r0
        0x10000f20:    4013        .@      ANDS     r3,r3,r2
        0x10000f22:    2b00        .+      CMP      r3,#0
        0x10000f24:    d00a        ..      BEQ      0x10000f3c ; PIN_Set_GPIO + 40
        0x10000f26:    4beb        .K      LDR      r3,[pc,#940] ; [0x100012d4] = 0x2000304c
        0x10000f28:    681b        .h      LDR      r3,[r3,#0]
        0x10000f2a:    5419        .T      STRB     r1,[r3,r0]
        0x10000f2c:    2301        .#      MOVS     r3,#1
        0x10000f2e:    4083        .@      LSLS     r3,r3,r0
        0x10000f30:    4614        .F      MOV      r4,r2
        0x10000f32:    439c        .C      BICS     r4,r4,r3
        0x10000f34:    4622        "F      MOV      r2,r4
        0x10000f36:    2a00        .*      CMP      r2,#0
        0x10000f38:    d100        ..      BNE      0x10000f3c ; PIN_Set_GPIO + 40
        0x10000f3a:    e002        ..      B        0x10000f42 ; PIN_Set_GPIO + 46
        0x10000f3c:    1c40        @.      ADDS     r0,r0,#1
        0x10000f3e:    2820         (      CMP      r0,#0x20
        0x10000f40:    d3ec        ..      BCC      0x10000f1c ; PIN_Set_GPIO + 8
        0x10000f42:    bf00        ..      NOP      
        0x10000f44:    bd10        ..      POP      {r4,pc}
    PIN_Pullup_Enable
        0x10000f46:    b5fc        ..      PUSH     {r2-r7,lr}
        0x10000f48:    4603        .F      MOV      r3,r0
        0x10000f4a:    4ce3        .L      LDR      r4,[pc,#908] ; [0x100012d8] = 0x50001080
        0x10000f4c:    1d22        ".      ADDS     r2,r4,#4
        0x10000f4e:    9201        ..      STR      r2,[sp,#4]
        0x10000f50:    2200        ."      MOVS     r2,#0
        0x10000f52:    9200        ..      STR      r2,[sp,#0]
        0x10000f54:    2b00        .+      CMP      r3,#0
        0x10000f56:    d102        ..      BNE      0x10000f5e ; PIN_Pullup_Enable + 24
        0x10000f58:    4ae0        .J      LDR      r2,[pc,#896] ; [0x100012dc] = 0x20003064
        0x10000f5a:    9200        ..      STR      r2,[sp,#0]
        0x10000f5c:    e003        ..      B        0x10000f66 ; PIN_Pullup_Enable + 32
        0x10000f5e:    2b01        .+      CMP      r3,#1
        0x10000f60:    d101        ..      BNE      0x10000f66 ; PIN_Pullup_Enable + 32
        0x10000f62:    4adf        .J      LDR      r2,[pc,#892] ; [0x100012e0] = 0x2000307c
        0x10000f64:    9200        ..      STR      r2,[sp,#0]
        0x10000f66:    9a00        ..      LDR      r2,[sp,#0]
        0x10000f68:    2a00        .*      CMP      r2,#0
        0x10000f6a:    d036        6.      BEQ      0x10000fda ; PIN_Pullup_Enable + 148
        0x10000f6c:    2000        .       MOVS     r0,#0
        0x10000f6e:    e013        ..      B        0x10000f98 ; PIN_Pullup_Enable + 82
        0x10000f70:    2201        ."      MOVS     r2,#1
        0x10000f72:    4082        .@      LSLS     r2,r2,r0
        0x10000f74:    460d        .F      MOV      r5,r1
        0x10000f76:    4015        .@      ANDS     r5,r5,r2
        0x10000f78:    2d00        .-      CMP      r5,#0
        0x10000f7a:    d00c        ..      BEQ      0x10000f96 ; PIN_Pullup_Enable + 80
        0x10000f7c:    6825        %h      LDR      r5,[r4,#0]
        0x10000f7e:    9e00        ..      LDR      r6,[sp,#0]
        0x10000f80:    5c37        7\      LDRB     r7,[r6,r0]
        0x10000f82:    2601        .&      MOVS     r6,#1
        0x10000f84:    40be        .@      LSLS     r6,r6,r7
        0x10000f86:    4335        5C      ORRS     r5,r5,r6
        0x10000f88:    6025        %`      STR      r5,[r4,#0]
        0x10000f8a:    460d        .F      MOV      r5,r1
        0x10000f8c:    4395        .C      BICS     r5,r5,r2
        0x10000f8e:    4629        )F      MOV      r1,r5
        0x10000f90:    2900        .)      CMP      r1,#0
        0x10000f92:    d100        ..      BNE      0x10000f96 ; PIN_Pullup_Enable + 80
        0x10000f94:    e002        ..      B        0x10000f9c ; PIN_Pullup_Enable + 86
        0x10000f96:    1c40        @.      ADDS     r0,r0,#1
        0x10000f98:    2818        .(      CMP      r0,#0x18
        0x10000f9a:    d3e9        ..      BCC      0x10000f70 ; PIN_Pullup_Enable + 42
        0x10000f9c:    bf00        ..      NOP      
        0x10000f9e:    2018        .       MOVS     r0,#0x18
        0x10000fa0:    e017        ..      B        0x10000fd2 ; PIN_Pullup_Enable + 140
        0x10000fa2:    2501        .%      MOVS     r5,#1
        0x10000fa4:    4085        .@      LSLS     r5,r5,r0
        0x10000fa6:    462a        *F      MOV      r2,r5
        0x10000fa8:    460d        .F      MOV      r5,r1
        0x10000faa:    4015        .@      ANDS     r5,r5,r2
        0x10000fac:    2d00        .-      CMP      r5,#0
        0x10000fae:    d00f        ..      BEQ      0x10000fd0 ; PIN_Pullup_Enable + 138
        0x10000fb0:    9d01        ..      LDR      r5,[sp,#4]
        0x10000fb2:    782d        -x      LDRB     r5,[r5,#0]
        0x10000fb4:    4606        .F      MOV      r6,r0
        0x10000fb6:    3e18        .>      SUBS     r6,r6,#0x18
        0x10000fb8:    2701        .'      MOVS     r7,#1
        0x10000fba:    40b7        .@      LSLS     r7,r7,r6
        0x10000fbc:    433d        =C      ORRS     r5,r5,r7
        0x10000fbe:    b2ee        ..      UXTB     r6,r5
        0x10000fc0:    9d01        ..      LDR      r5,[sp,#4]
        0x10000fc2:    702e        .p      STRB     r6,[r5,#0]
        0x10000fc4:    460d        .F      MOV      r5,r1
        0x10000fc6:    4395        .C      BICS     r5,r5,r2
        0x10000fc8:    4629        )F      MOV      r1,r5
        0x10000fca:    2900        .)      CMP      r1,#0
        0x10000fcc:    d100        ..      BNE      0x10000fd0 ; PIN_Pullup_Enable + 138
        0x10000fce:    e002        ..      B        0x10000fd6 ; PIN_Pullup_Enable + 144
        0x10000fd0:    1c40        @.      ADDS     r0,r0,#1
        0x10000fd2:    2820         (      CMP      r0,#0x20
        0x10000fd4:    d3e5        ..      BCC      0x10000fa2 ; PIN_Pullup_Enable + 92
        0x10000fd6:    bf00        ..      NOP      
        0x10000fd8:    bf00        ..      NOP      
        0x10000fda:    bdfc        ..      POP      {r2-r7,pc}
    GPIO_Set_Output
        0x10000fdc:    49c1        .I      LDR      r1,[pc,#772] ; [0x100012e4] = 0x20003050
        0x10000fde:    6809        .h      LDR      r1,[r1,#0]
        0x10000fe0:    460a        .F      MOV      r2,r1
        0x10000fe2:    7813        .x      LDRB     r3,[r2,#0]
        0x10000fe4:    4619        .F      MOV      r1,r3
        0x10000fe6:    7853        Sx      LDRB     r3,[r2,#1]
        0x10000fe8:    021b        ..      LSLS     r3,r3,#8
        0x10000fea:    4319        .C      ORRS     r1,r1,r3
        0x10000fec:    7893        .x      LDRB     r3,[r2,#2]
        0x10000fee:    041b        ..      LSLS     r3,r3,#16
        0x10000ff0:    4319        .C      ORRS     r1,r1,r3
        0x10000ff2:    78d2        .x      LDRB     r2,[r2,#3]
        0x10000ff4:    0612        ..      LSLS     r2,r2,#24
        0x10000ff6:    4311        .C      ORRS     r1,r1,r2
        0x10000ff8:    4381        .C      BICS     r1,r1,r0
        0x10000ffa:    4aba        .J      LDR      r2,[pc,#744] ; [0x100012e4] = 0x20003050
        0x10000ffc:    6812        .h      LDR      r2,[r2,#0]
        0x10000ffe:    7011        .p      STRB     r1,[r2,#0]
        0x10001000:    0a0b        ..      LSRS     r3,r1,#8
        0x10001002:    7053        Sp      STRB     r3,[r2,#1]
        0x10001004:    0c0b        ..      LSRS     r3,r1,#16
        0x10001006:    7093        .p      STRB     r3,[r2,#2]
        0x10001008:    0e09        ..      LSRS     r1,r1,#24
        0x1000100a:    70d1        .p      STRB     r1,[r2,#3]
        0x1000100c:    4770        pG      BX       lr
    GPIO_Set_Input
        0x1000100e:    b510        ..      PUSH     {r4,lr}
        0x10001010:    4ab4        .J      LDR      r2,[pc,#720] ; [0x100012e4] = 0x20003050
        0x10001012:    6812        .h      LDR      r2,[r2,#0]
        0x10001014:    4613        .F      MOV      r3,r2
        0x10001016:    781c        .x      LDRB     r4,[r3,#0]
        0x10001018:    4622        "F      MOV      r2,r4
        0x1000101a:    785c        \x      LDRB     r4,[r3,#1]
        0x1000101c:    0224        $.      LSLS     r4,r4,#8
        0x1000101e:    4322        "C      ORRS     r2,r2,r4
        0x10001020:    789c        .x      LDRB     r4,[r3,#2]
        0x10001022:    0424        $.      LSLS     r4,r4,#16
        0x10001024:    4322        "C      ORRS     r2,r2,r4
        0x10001026:    78db        .x      LDRB     r3,[r3,#3]
        0x10001028:    061b        ..      LSLS     r3,r3,#24
        0x1000102a:    431a        .C      ORRS     r2,r2,r3
        0x1000102c:    4302        .C      ORRS     r2,r2,r0
        0x1000102e:    4bad        .K      LDR      r3,[pc,#692] ; [0x100012e4] = 0x20003050
        0x10001030:    681b        .h      LDR      r3,[r3,#0]
        0x10001032:    701a        .p      STRB     r2,[r3,#0]
        0x10001034:    0a14        ..      LSRS     r4,r2,#8
        0x10001036:    705c        \p      STRB     r4,[r3,#1]
        0x10001038:    0c14        ..      LSRS     r4,r2,#16
        0x1000103a:    709c        .p      STRB     r4,[r3,#2]
        0x1000103c:    0e12        ..      LSRS     r2,r2,#24
        0x1000103e:    70da        .p      STRB     r2,[r3,#3]
        0x10001040:    4aa9        .J      LDR      r2,[pc,#676] ; [0x100012e8] = 0x20003058
        0x10001042:    6812        .h      LDR      r2,[r2,#0]
        0x10001044:    4613        .F      MOV      r3,r2
        0x10001046:    781c        .x      LDRB     r4,[r3,#0]
        0x10001048:    4622        "F      MOV      r2,r4
        0x1000104a:    785c        \x      LDRB     r4,[r3,#1]
        0x1000104c:    0224        $.      LSLS     r4,r4,#8
        0x1000104e:    4322        "C      ORRS     r2,r2,r4
        0x10001050:    789c        .x      LDRB     r4,[r3,#2]
        0x10001052:    0424        $.      LSLS     r4,r4,#16
        0x10001054:    4322        "C      ORRS     r2,r2,r4
        0x10001056:    78db        .x      LDRB     r3,[r3,#3]
        0x10001058:    061b        ..      LSLS     r3,r3,#24
        0x1000105a:    431a        .C      ORRS     r2,r2,r3
        0x1000105c:    4302        .C      ORRS     r2,r2,r0
        0x1000105e:    4ba2        .K      LDR      r3,[pc,#648] ; [0x100012e8] = 0x20003058
        0x10001060:    681b        .h      LDR      r3,[r3,#0]
        0x10001062:    701a        .p      STRB     r2,[r3,#0]
        0x10001064:    0a14        ..      LSRS     r4,r2,#8
        0x10001066:    705c        \p      STRB     r4,[r3,#1]
        0x10001068:    0c14        ..      LSRS     r4,r2,#16
        0x1000106a:    709c        .p      STRB     r4,[r3,#2]
        0x1000106c:    0e12        ..      LSRS     r2,r2,#24
        0x1000106e:    70da        .p      STRB     r2,[r3,#3]
        0x10001070:    4a9d        .J      LDR      r2,[pc,#628] ; [0x100012e8] = 0x20003058
        0x10001072:    6812        .h      LDR      r2,[r2,#0]
        0x10001074:    2308        .#      MOVS     r3,#8
        0x10001076:    18d3        ..      ADDS     r3,r2,r3
        0x10001078:    781c        .x      LDRB     r4,[r3,#0]
        0x1000107a:    4622        "F      MOV      r2,r4
        0x1000107c:    785c        \x      LDRB     r4,[r3,#1]
        0x1000107e:    0224        $.      LSLS     r4,r4,#8
        0x10001080:    4322        "C      ORRS     r2,r2,r4
        0x10001082:    789c        .x      LDRB     r4,[r3,#2]
        0x10001084:    0424        $.      LSLS     r4,r4,#16
        0x10001086:    4322        "C      ORRS     r2,r2,r4
        0x10001088:    78db        .x      LDRB     r3,[r3,#3]
        0x1000108a:    061b        ..      LSLS     r3,r3,#24
        0x1000108c:    431a        .C      ORRS     r2,r2,r3
        0x1000108e:    4382        .C      BICS     r2,r2,r0
        0x10001090:    4b95        .K      LDR      r3,[pc,#596] ; [0x100012e8] = 0x20003058
        0x10001092:    681b        .h      LDR      r3,[r3,#0]
        0x10001094:    721a        .r      STRB     r2,[r3,#8]
        0x10001096:    0a14        ..      LSRS     r4,r2,#8
        0x10001098:    725c        \r      STRB     r4,[r3,#9]
        0x1000109a:    0c14        ..      LSRS     r4,r2,#16
        0x1000109c:    729c        .r      STRB     r4,[r3,#0xa]
        0x1000109e:    0e12        ..      LSRS     r2,r2,#24
        0x100010a0:    72da        .r      STRB     r2,[r3,#0xb]
        0x100010a2:    4a91        .J      LDR      r2,[pc,#580] ; [0x100012e8] = 0x20003058
        0x100010a4:    6812        .h      LDR      r2,[r2,#0]
        0x100010a6:    2308        .#      MOVS     r3,#8
        0x100010a8:    18d3        ..      ADDS     r3,r2,r3
        0x100010aa:    781c        .x      LDRB     r4,[r3,#0]
        0x100010ac:    4622        "F      MOV      r2,r4
        0x100010ae:    785c        \x      LDRB     r4,[r3,#1]
        0x100010b0:    0224        $.      LSLS     r4,r4,#8
        0x100010b2:    4322        "C      ORRS     r2,r2,r4
        0x100010b4:    789c        .x      LDRB     r4,[r3,#2]
        0x100010b6:    0424        $.      LSLS     r4,r4,#16
        0x100010b8:    4322        "C      ORRS     r2,r2,r4
        0x100010ba:    78db        .x      LDRB     r3,[r3,#3]
        0x100010bc:    061b        ..      LSLS     r3,r3,#24
        0x100010be:    431a        .C      ORRS     r2,r2,r3
        0x100010c0:    430a        .C      ORRS     r2,r2,r1
        0x100010c2:    4b89        .K      LDR      r3,[pc,#548] ; [0x100012e8] = 0x20003058
        0x100010c4:    681b        .h      LDR      r3,[r3,#0]
        0x100010c6:    721a        .r      STRB     r2,[r3,#8]
        0x100010c8:    0a14        ..      LSRS     r4,r2,#8
        0x100010ca:    725c        \r      STRB     r4,[r3,#9]
        0x100010cc:    0c14        ..      LSRS     r4,r2,#16
        0x100010ce:    729c        .r      STRB     r4,[r3,#0xa]
        0x100010d0:    0e12        ..      LSRS     r2,r2,#24
        0x100010d2:    72da        .r      STRB     r2,[r3,#0xb]
        0x100010d4:    bd10        ..      POP      {r4,pc}
    GPIO_Input_Enable
        0x100010d6:    4984        .I      LDR      r1,[pc,#528] ; [0x100012e8] = 0x20003058
        0x100010d8:    6809        .h      LDR      r1,[r1,#0]
        0x100010da:    460a        .F      MOV      r2,r1
        0x100010dc:    7813        .x      LDRB     r3,[r2,#0]
        0x100010de:    4619        .F      MOV      r1,r3
        0x100010e0:    7853        Sx      LDRB     r3,[r2,#1]
        0x100010e2:    021b        ..      LSLS     r3,r3,#8
        0x100010e4:    4319        .C      ORRS     r1,r1,r3
        0x100010e6:    7893        .x      LDRB     r3,[r2,#2]
        0x100010e8:    041b        ..      LSLS     r3,r3,#16
        0x100010ea:    4319        .C      ORRS     r1,r1,r3
        0x100010ec:    78d2        .x      LDRB     r2,[r2,#3]
        0x100010ee:    0612        ..      LSLS     r2,r2,#24
        0x100010f0:    4311        .C      ORRS     r1,r1,r2
        0x100010f2:    4301        .C      ORRS     r1,r1,r0
        0x100010f4:    4a7c        |J      LDR      r2,[pc,#496] ; [0x100012e8] = 0x20003058
        0x100010f6:    6812        .h      LDR      r2,[r2,#0]
        0x100010f8:    7011        .p      STRB     r1,[r2,#0]
        0x100010fa:    0a0b        ..      LSRS     r3,r1,#8
        0x100010fc:    7053        Sp      STRB     r3,[r2,#1]
        0x100010fe:    0c0b        ..      LSRS     r3,r1,#16
        0x10001100:    7093        .p      STRB     r3,[r2,#2]
        0x10001102:    0e09        ..      LSRS     r1,r1,#24
        0x10001104:    70d1        .p      STRB     r1,[r2,#3]
        0x10001106:    4770        pG      BX       lr
    GPIO_Pin_Set
        0x10001108:    4978        xI      LDR      r1,[pc,#480] ; [0x100012ec] = 0x20003054
        0x1000110a:    6809        .h      LDR      r1,[r1,#0]
        0x1000110c:    460a        .F      MOV      r2,r1
        0x1000110e:    7813        .x      LDRB     r3,[r2,#0]
        0x10001110:    4619        .F      MOV      r1,r3
        0x10001112:    7853        Sx      LDRB     r3,[r2,#1]
        0x10001114:    021b        ..      LSLS     r3,r3,#8
        0x10001116:    4319        .C      ORRS     r1,r1,r3
        0x10001118:    7893        .x      LDRB     r3,[r2,#2]
        0x1000111a:    041b        ..      LSLS     r3,r3,#16
        0x1000111c:    4319        .C      ORRS     r1,r1,r3
        0x1000111e:    78d2        .x      LDRB     r2,[r2,#3]
        0x10001120:    0612        ..      LSLS     r2,r2,#24
        0x10001122:    4311        .C      ORRS     r1,r1,r2
        0x10001124:    4301        .C      ORRS     r1,r1,r0
        0x10001126:    4a71        qJ      LDR      r2,[pc,#452] ; [0x100012ec] = 0x20003054
        0x10001128:    6812        .h      LDR      r2,[r2,#0]
        0x1000112a:    7011        .p      STRB     r1,[r2,#0]
        0x1000112c:    0a0b        ..      LSRS     r3,r1,#8
        0x1000112e:    7053        Sp      STRB     r3,[r2,#1]
        0x10001130:    0c0b        ..      LSRS     r3,r1,#16
        0x10001132:    7093        .p      STRB     r3,[r2,#2]
        0x10001134:    0e09        ..      LSRS     r1,r1,#24
        0x10001136:    70d1        .p      STRB     r1,[r2,#3]
        0x10001138:    4770        pG      BX       lr
    GPIO_Pin_Clear
        0x1000113a:    496c        lI      LDR      r1,[pc,#432] ; [0x100012ec] = 0x20003054
        0x1000113c:    6809        .h      LDR      r1,[r1,#0]
        0x1000113e:    460a        .F      MOV      r2,r1
        0x10001140:    7813        .x      LDRB     r3,[r2,#0]
        0x10001142:    4619        .F      MOV      r1,r3
        0x10001144:    7853        Sx      LDRB     r3,[r2,#1]
        0x10001146:    021b        ..      LSLS     r3,r3,#8
        0x10001148:    4319        .C      ORRS     r1,r1,r3
        0x1000114a:    7893        .x      LDRB     r3,[r2,#2]
        0x1000114c:    041b        ..      LSLS     r3,r3,#16
        0x1000114e:    4319        .C      ORRS     r1,r1,r3
        0x10001150:    78d2        .x      LDRB     r2,[r2,#3]
        0x10001152:    0612        ..      LSLS     r2,r2,#24
        0x10001154:    4311        .C      ORRS     r1,r1,r2
        0x10001156:    4381        .C      BICS     r1,r1,r0
        0x10001158:    4a64        dJ      LDR      r2,[pc,#400] ; [0x100012ec] = 0x20003054
        0x1000115a:    6812        .h      LDR      r2,[r2,#0]
        0x1000115c:    7011        .p      STRB     r1,[r2,#0]
        0x1000115e:    0a0b        ..      LSRS     r3,r1,#8
        0x10001160:    7053        Sp      STRB     r3,[r2,#1]
        0x10001162:    0c0b        ..      LSRS     r3,r1,#16
        0x10001164:    7093        .p      STRB     r3,[r2,#2]
        0x10001166:    0e09        ..      LSRS     r1,r1,#24
        0x10001168:    70d1        .p      STRB     r1,[r2,#3]
        0x1000116a:    4770        pG      BX       lr
    GPIO_Pin_Turn
        0x1000116c:    495f        _I      LDR      r1,[pc,#380] ; [0x100012ec] = 0x20003054
        0x1000116e:    6809        .h      LDR      r1,[r1,#0]
        0x10001170:    460a        .F      MOV      r2,r1
        0x10001172:    7813        .x      LDRB     r3,[r2,#0]
        0x10001174:    4619        .F      MOV      r1,r3
        0x10001176:    7853        Sx      LDRB     r3,[r2,#1]
        0x10001178:    021b        ..      LSLS     r3,r3,#8
        0x1000117a:    4319        .C      ORRS     r1,r1,r3
        0x1000117c:    7893        .x      LDRB     r3,[r2,#2]
        0x1000117e:    041b        ..      LSLS     r3,r3,#16
        0x10001180:    4319        .C      ORRS     r1,r1,r3
        0x10001182:    78d2        .x      LDRB     r2,[r2,#3]
        0x10001184:    0612        ..      LSLS     r2,r2,#24
        0x10001186:    4311        .C      ORRS     r1,r1,r2
        0x10001188:    4041        A@      EORS     r1,r1,r0
        0x1000118a:    4a58        XJ      LDR      r2,[pc,#352] ; [0x100012ec] = 0x20003054
        0x1000118c:    6812        .h      LDR      r2,[r2,#0]
        0x1000118e:    7011        .p      STRB     r1,[r2,#0]
        0x10001190:    0a0b        ..      LSRS     r3,r1,#8
        0x10001192:    7053        Sp      STRB     r3,[r2,#1]
        0x10001194:    0c0b        ..      LSRS     r3,r1,#16
        0x10001196:    7093        .p      STRB     r3,[r2,#2]
        0x10001198:    0e09        ..      LSRS     r1,r1,#24
        0x1000119a:    70d1        .p      STRB     r1,[r2,#3]
        0x1000119c:    4770        pG      BX       lr
    GPIO_Pin_Read
        0x1000119e:    4601        .F      MOV      r1,r0
        0x100011a0:    4851        QH      LDR      r0,[pc,#324] ; [0x100012e8] = 0x20003058
        0x100011a2:    6800        .h      LDR      r0,[r0,#0]
        0x100011a4:    1d02        ..      ADDS     r2,r0,#4
        0x100011a6:    7813        .x      LDRB     r3,[r2,#0]
        0x100011a8:    4618        .F      MOV      r0,r3
        0x100011aa:    7853        Sx      LDRB     r3,[r2,#1]
        0x100011ac:    021b        ..      LSLS     r3,r3,#8
        0x100011ae:    4318        .C      ORRS     r0,r0,r3
        0x100011b0:    7893        .x      LDRB     r3,[r2,#2]
        0x100011b2:    041b        ..      LSLS     r3,r3,#16
        0x100011b4:    4318        .C      ORRS     r0,r0,r3
        0x100011b6:    78d2        .x      LDRB     r2,[r2,#3]
        0x100011b8:    0612        ..      LSLS     r2,r2,#24
        0x100011ba:    4310        .C      ORRS     r0,r0,r2
        0x100011bc:    4008        .@      ANDS     r0,r0,r1
        0x100011be:    4770        pG      BX       lr
    io_irq_enable
        0x100011c0:    b510        ..      PUSH     {r4,lr}
        0x100011c2:    460a        .F      MOV      r2,r1
        0x100011c4:    494a        JI      LDR      r1,[pc,#296] ; [0x100012f0] = 0x2000305c
        0x100011c6:    6809        .h      LDR      r1,[r1,#0]
        0x100011c8:    2318        .#      MOVS     r3,#0x18
        0x100011ca:    18cb        ..      ADDS     r3,r1,r3
        0x100011cc:    781c        .x      LDRB     r4,[r3,#0]
        0x100011ce:    4621        !F      MOV      r1,r4
        0x100011d0:    785c        \x      LDRB     r4,[r3,#1]
        0x100011d2:    0224        $.      LSLS     r4,r4,#8
        0x100011d4:    4321        !C      ORRS     r1,r1,r4
        0x100011d6:    789c        .x      LDRB     r4,[r3,#2]
        0x100011d8:    0424        $.      LSLS     r4,r4,#16
        0x100011da:    4321        !C      ORRS     r1,r1,r4
        0x100011dc:    78db        .x      LDRB     r3,[r3,#3]
        0x100011de:    061b        ..      LSLS     r3,r3,#24
        0x100011e0:    4319        .C      ORRS     r1,r1,r3
        0x100011e2:    4001        .@      ANDS     r1,r1,r0
        0x100011e4:    4b42        BK      LDR      r3,[pc,#264] ; [0x100012f0] = 0x2000305c
        0x100011e6:    681b        .h      LDR      r3,[r3,#0]
        0x100011e8:    7019        .p      STRB     r1,[r3,#0]
        0x100011ea:    0a0c        ..      LSRS     r4,r1,#8
        0x100011ec:    705c        \p      STRB     r4,[r3,#1]
        0x100011ee:    0c0c        ..      LSRS     r4,r1,#16
        0x100011f0:    709c        .p      STRB     r4,[r3,#2]
        0x100011f2:    0e09        ..      LSRS     r1,r1,#24
        0x100011f4:    70d9        .p      STRB     r1,[r3,#3]
        0x100011f6:    493e        >I      LDR      r1,[pc,#248] ; [0x100012f0] = 0x2000305c
        0x100011f8:    6809        .h      LDR      r1,[r1,#0]
        0x100011fa:    2310        .#      MOVS     r3,#0x10
        0x100011fc:    18cb        ..      ADDS     r3,r1,r3
        0x100011fe:    781c        .x      LDRB     r4,[r3,#0]
        0x10001200:    4621        !F      MOV      r1,r4
        0x10001202:    785c        \x      LDRB     r4,[r3,#1]
        0x10001204:    0224        $.      LSLS     r4,r4,#8
        0x10001206:    4321        !C      ORRS     r1,r1,r4
        0x10001208:    789c        .x      LDRB     r4,[r3,#2]
        0x1000120a:    0424        $.      LSLS     r4,r4,#16
        0x1000120c:    4321        !C      ORRS     r1,r1,r4
        0x1000120e:    78db        .x      LDRB     r3,[r3,#3]
        0x10001210:    061b        ..      LSLS     r3,r3,#24
        0x10001212:    4319        .C      ORRS     r1,r1,r3
        0x10001214:    4381        .C      BICS     r1,r1,r0
        0x10001216:    4b36        6K      LDR      r3,[pc,#216] ; [0x100012f0] = 0x2000305c
        0x10001218:    681b        .h      LDR      r3,[r3,#0]
        0x1000121a:    7419        .t      STRB     r1,[r3,#0x10]
        0x1000121c:    0a0c        ..      LSRS     r4,r1,#8
        0x1000121e:    745c        \t      STRB     r4,[r3,#0x11]
        0x10001220:    0c0c        ..      LSRS     r4,r1,#16
        0x10001222:    749c        .t      STRB     r4,[r3,#0x12]
        0x10001224:    0e09        ..      LSRS     r1,r1,#24
        0x10001226:    74d9        .t      STRB     r1,[r3,#0x13]
        0x10001228:    4931        1I      LDR      r1,[pc,#196] ; [0x100012f0] = 0x2000305c
        0x1000122a:    6809        .h      LDR      r1,[r1,#0]
        0x1000122c:    3120         1      ADDS     r1,r1,#0x20
        0x1000122e:    7809        .x      LDRB     r1,[r1,#0]
        0x10001230:    0849        I.      LSRS     r1,r1,#1
        0x10001232:    0049        I.      LSLS     r1,r1,#1
        0x10001234:    4b2e        .K      LDR      r3,[pc,#184] ; [0x100012f0] = 0x2000305c
        0x10001236:    681b        .h      LDR      r3,[r3,#0]
        0x10001238:    3320         3      ADDS     r3,r3,#0x20
        0x1000123a:    7019        .p      STRB     r1,[r3,#0]
        0x1000123c:    492d        -I      LDR      r1,[pc,#180] ; [0x100012f4] = 0x20003060
        0x1000123e:    600a        .`      STR      r2,[r1,#0]
        0x10001240:    210c        .!      MOVS     r1,#0xc
        0x10001242:    2301        .#      MOVS     r3,#1
        0x10001244:    408b        .@      LSLS     r3,r3,r1
        0x10001246:    4c2c        ,L      LDR      r4,[pc,#176] ; [0x100012f8] = 0xe000e100
        0x10001248:    6023        #`      STR      r3,[r4,#0]
        0x1000124a:    bf00        ..      NOP      
        0x1000124c:    bd10        ..      POP      {r4,pc}
    GPIO_IRQHandler
        0x1000124e:    b510        ..      PUSH     {r4,lr}
        0x10001250:    4827        'H      LDR      r0,[pc,#156] ; [0x100012f0] = 0x2000305c
        0x10001252:    6800        .h      LDR      r0,[r0,#0]
        0x10001254:    2118        .!      MOVS     r1,#0x18
        0x10001256:    1841        A.      ADDS     r1,r0,r1
        0x10001258:    780a        .x      LDRB     r2,[r1,#0]
        0x1000125a:    4610        .F      MOV      r0,r2
        0x1000125c:    784a        Jx      LDRB     r2,[r1,#1]
        0x1000125e:    0212        ..      LSLS     r2,r2,#8
        0x10001260:    4310        .C      ORRS     r0,r0,r2
        0x10001262:    788a        .x      LDRB     r2,[r1,#2]
        0x10001264:    0412        ..      LSLS     r2,r2,#16
        0x10001266:    4310        .C      ORRS     r0,r0,r2
        0x10001268:    78c9        .x      LDRB     r1,[r1,#3]
        0x1000126a:    0609        ..      LSLS     r1,r1,#24
        0x1000126c:    4308        .C      ORRS     r0,r0,r1
        0x1000126e:    4920         I      LDR      r1,[pc,#128] ; [0x100012f0] = 0x2000305c
        0x10001270:    6809        .h      LDR      r1,[r1,#0]
        0x10001272:    2210        ."      MOVS     r2,#0x10
        0x10001274:    188a        ..      ADDS     r2,r1,r2
        0x10001276:    7813        .x      LDRB     r3,[r2,#0]
        0x10001278:    4619        .F      MOV      r1,r3
        0x1000127a:    7853        Sx      LDRB     r3,[r2,#1]
        0x1000127c:    021b        ..      LSLS     r3,r3,#8
        0x1000127e:    4319        .C      ORRS     r1,r1,r3
        0x10001280:    7893        .x      LDRB     r3,[r2,#2]
        0x10001282:    041b        ..      LSLS     r3,r3,#16
        0x10001284:    4319        .C      ORRS     r1,r1,r3
        0x10001286:    78d2        .x      LDRB     r2,[r2,#3]
        0x10001288:    0612        ..      LSLS     r2,r2,#24
        0x1000128a:    4311        .C      ORRS     r1,r1,r2
        0x1000128c:    4388        .C      BICS     r0,r0,r1
        0x1000128e:    2800        .(      CMP      r0,#0
        0x10001290:    d01e        ..      BEQ      0x100012d0 ; GPIO_IRQHandler + 130
        0x10001292:    4818        .H      LDR      r0,[pc,#96] ; [0x100012f4] = 0x20003060
        0x10001294:    6800        .h      LDR      r0,[r0,#0]
        0x10001296:    2800        .(      CMP      r0,#0
        0x10001298:    d002        ..      BEQ      0x100012a0 ; GPIO_IRQHandler + 82
        0x1000129a:    4816        .H      LDR      r0,[pc,#88] ; [0x100012f4] = 0x20003060
        0x1000129c:    6800        .h      LDR      r0,[r0,#0]
        0x1000129e:    4780        .G      BLX      r0
        0x100012a0:    4813        .H      LDR      r0,[pc,#76] ; [0x100012f0] = 0x2000305c
        0x100012a2:    6800        .h      LDR      r0,[r0,#0]
        0x100012a4:    2118        .!      MOVS     r1,#0x18
        0x100012a6:    1841        A.      ADDS     r1,r0,r1
        0x100012a8:    780a        .x      LDRB     r2,[r1,#0]
        0x100012aa:    4610        .F      MOV      r0,r2
        0x100012ac:    784a        Jx      LDRB     r2,[r1,#1]
        0x100012ae:    0212        ..      LSLS     r2,r2,#8
        0x100012b0:    4310        .C      ORRS     r0,r0,r2
        0x100012b2:    788a        .x      LDRB     r2,[r1,#2]
        0x100012b4:    0412        ..      LSLS     r2,r2,#16
        0x100012b6:    4310        .C      ORRS     r0,r0,r2
        0x100012b8:    78c9        .x      LDRB     r1,[r1,#3]
        0x100012ba:    0609        ..      LSLS     r1,r1,#24
        0x100012bc:    4308        .C      ORRS     r0,r0,r1
        0x100012be:    490c        .I      LDR      r1,[pc,#48] ; [0x100012f0] = 0x2000305c
        0x100012c0:    6809        .h      LDR      r1,[r1,#0]
        0x100012c2:    7008        .p      STRB     r0,[r1,#0]
        0x100012c4:    0a02        ..      LSRS     r2,r0,#8
        0x100012c6:    704a        Jp      STRB     r2,[r1,#1]
        0x100012c8:    0c02        ..      LSRS     r2,r0,#16
        0x100012ca:    708a        .p      STRB     r2,[r1,#2]
        0x100012cc:    0e00        ..      LSRS     r0,r0,#24
        0x100012ce:    70c8        .p      STRB     r0,[r1,#3]
        0x100012d0:    bd10        ..      POP      {r4,pc}
    $d
        0x100012d2:    0000        ..      DCW    0
        0x100012d4:    2000304c    L0.     DCD    536883276
        0x100012d8:    50001080    ...P    DCD    1342181504
        0x100012dc:    20003064    d0.     DCD    536883300
        0x100012e0:    2000307c    |0.     DCD    536883324
        0x100012e4:    20003050    P0.     DCD    536883280
        0x100012e8:    20003058    X0.     DCD    536883288
        0x100012ec:    20003054    T0.     DCD    536883284
        0x100012f0:    2000305c    \0.     DCD    536883292
        0x100012f4:    20003060    `0.     DCD    536883296
        0x100012f8:    e000e100    ....    DCD    3758153984
    $t
    .text
    uart_0_init
        0x100012fc:    b510        ..      PUSH     {r4,lr}
        0x100012fe:    48b1        .H      LDR      r0,[pc,#708] ; [0x100015c4] = 0x2000304c
        0x10001300:    6800        .h      LDR      r0,[r0,#0]
        0x10001302:    7bc0        .{      LDRB     r0,[r0,#0xf]
        0x10001304:    0980        ..      LSRS     r0,r0,#6
        0x10001306:    0180        ..      LSLS     r0,r0,#6
        0x10001308:    1cc0        ..      ADDS     r0,r0,#3
        0x1000130a:    49ae        .I      LDR      r1,[pc,#696] ; [0x100015c4] = 0x2000304c
        0x1000130c:    6809        .h      LDR      r1,[r1,#0]
        0x1000130e:    73c8        .s      STRB     r0,[r1,#0xf]
        0x10001310:    48ac        .H      LDR      r0,[pc,#688] ; [0x100015c4] = 0x2000304c
        0x10001312:    6800        .h      LDR      r0,[r0,#0]
        0x10001314:    7c00        .|      LDRB     r0,[r0,#0x10]
        0x10001316:    0980        ..      LSRS     r0,r0,#6
        0x10001318:    0180        ..      LSLS     r0,r0,#6
        0x1000131a:    1d00        ..      ADDS     r0,r0,#4
        0x1000131c:    49a9        .I      LDR      r1,[pc,#676] ; [0x100015c4] = 0x2000304c
        0x1000131e:    6809        .h      LDR      r1,[r1,#0]
        0x10001320:    7408        .t      STRB     r0,[r1,#0x10]
        0x10001322:    48a8        .H      LDR      r0,[pc,#672] ; [0x100015c4] = 0x2000304c
        0x10001324:    6800        .h      LDR      r0,[r0,#0]
        0x10001326:    3020         0      ADDS     r0,r0,#0x20
        0x10001328:    7880        .x      LDRB     r0,[r0,#2]
        0x1000132a:    2120         !      MOVS     r1,#0x20
        0x1000132c:    4388        .C      BICS     r0,r0,r1
        0x1000132e:    49a5        .I      LDR      r1,[pc,#660] ; [0x100015c4] = 0x2000304c
        0x10001330:    6809        .h      LDR      r1,[r1,#0]
        0x10001332:    3120         1      ADDS     r1,r1,#0x20
        0x10001334:    7088        .p      STRB     r0,[r1,#2]
        0x10001336:    48a3        .H      LDR      r0,[pc,#652] ; [0x100015c4] = 0x2000304c
        0x10001338:    6800        .h      LDR      r0,[r0,#0]
        0x1000133a:    3020         0      ADDS     r0,r0,#0x20
        0x1000133c:    7880        .x      LDRB     r0,[r0,#2]
        0x1000133e:    2140        @!      MOVS     r1,#0x40
        0x10001340:    4388        .C      BICS     r0,r0,r1
        0x10001342:    49a0        .I      LDR      r1,[pc,#640] ; [0x100015c4] = 0x2000304c
        0x10001344:    6809        .h      LDR      r1,[r1,#0]
        0x10001346:    3120         1      ADDS     r1,r1,#0x20
        0x10001348:    7088        .p      STRB     r0,[r1,#2]
        0x1000134a:    489f        .H      LDR      r0,[pc,#636] ; [0x100015c8] = 0x20003094
        0x1000134c:    6800        .h      LDR      r0,[r0,#0]
        0x1000134e:    7880        .x      LDRB     r0,[r0,#2]
        0x10001350:    0840        @.      LSRS     r0,r0,#1
        0x10001352:    0040        @.      LSLS     r0,r0,#1
        0x10001354:    499c        .I      LDR      r1,[pc,#624] ; [0x100015c8] = 0x20003094
        0x10001356:    6809        .h      LDR      r1,[r1,#0]
        0x10001358:    7088        .p      STRB     r0,[r1,#2]
        0x1000135a:    489b        .H      LDR      r0,[pc,#620] ; [0x100015c8] = 0x20003094
        0x1000135c:    6800        .h      LDR      r0,[r0,#0]
        0x1000135e:    7800        .x      LDRB     r0,[r0,#0]
        0x10001360:    0900        ..      LSRS     r0,r0,#4
        0x10001362:    0100        ..      LSLS     r0,r0,#4
        0x10001364:    3008        .0      ADDS     r0,r0,#8
        0x10001366:    4998        .I      LDR      r1,[pc,#608] ; [0x100015c8] = 0x20003094
        0x10001368:    6809        .h      LDR      r1,[r1,#0]
        0x1000136a:    7008        .p      STRB     r0,[r1,#0]
        0x1000136c:    4896        .H      LDR      r0,[pc,#600] ; [0x100015c8] = 0x20003094
        0x1000136e:    6800        .h      LDR      r0,[r0,#0]
        0x10001370:    7800        .x      LDRB     r0,[r0,#0]
        0x10001372:    2180        .!      MOVS     r1,#0x80
        0x10001374:    4388        .C      BICS     r0,r0,r1
        0x10001376:    4994        .I      LDR      r1,[pc,#592] ; [0x100015c8] = 0x20003094
        0x10001378:    6809        .h      LDR      r1,[r1,#0]
        0x1000137a:    7008        .p      STRB     r0,[r1,#0]
        0x1000137c:    4892        .H      LDR      r0,[pc,#584] ; [0x100015c8] = 0x20003094
        0x1000137e:    6800        .h      LDR      r0,[r0,#0]
        0x10001380:    7800        .x      LDRB     r0,[r0,#0]
        0x10001382:    2140        @!      MOVS     r1,#0x40
        0x10001384:    4388        .C      BICS     r0,r0,r1
        0x10001386:    3040        @0      ADDS     r0,r0,#0x40
        0x10001388:    498f        .I      LDR      r1,[pc,#572] ; [0x100015c8] = 0x20003094
        0x1000138a:    6809        .h      LDR      r1,[r1,#0]
        0x1000138c:    7008        .p      STRB     r0,[r1,#0]
        0x1000138e:    488e        .H      LDR      r0,[pc,#568] ; [0x100015c8] = 0x20003094
        0x10001390:    6800        .h      LDR      r0,[r0,#0]
        0x10001392:    78c0        .x      LDRB     r0,[r0,#3]
        0x10001394:    2110        .!      MOVS     r1,#0x10
        0x10001396:    4388        .C      BICS     r0,r0,r1
        0x10001398:    3010        .0      ADDS     r0,r0,#0x10
        0x1000139a:    498b        .I      LDR      r1,[pc,#556] ; [0x100015c8] = 0x20003094
        0x1000139c:    6809        .h      LDR      r1,[r1,#0]
        0x1000139e:    70c8        .p      STRB     r0,[r1,#3]
        0x100013a0:    4889        .H      LDR      r0,[pc,#548] ; [0x100015c8] = 0x20003094
        0x100013a2:    6800        .h      LDR      r0,[r0,#0]
        0x100013a4:    7880        .x      LDRB     r0,[r0,#2]
        0x100013a6:    2104        .!      MOVS     r1,#4
        0x100013a8:    4388        .C      BICS     r0,r0,r1
        0x100013aa:    1d00        ..      ADDS     r0,r0,#4
        0x100013ac:    4986        .I      LDR      r1,[pc,#536] ; [0x100015c8] = 0x20003094
        0x100013ae:    6809        .h      LDR      r1,[r1,#0]
        0x100013b0:    7088        .p      STRB     r0,[r1,#2]
        0x100013b2:    4885        .H      LDR      r0,[pc,#532] ; [0x100015c8] = 0x20003094
        0x100013b4:    6800        .h      LDR      r0,[r0,#0]
        0x100013b6:    7880        .x      LDRB     r0,[r0,#2]
        0x100013b8:    2120         !      MOVS     r1,#0x20
        0x100013ba:    4388        .C      BICS     r0,r0,r1
        0x100013bc:    4982        .I      LDR      r1,[pc,#520] ; [0x100015c8] = 0x20003094
        0x100013be:    6809        .h      LDR      r1,[r1,#0]
        0x100013c0:    7088        .p      STRB     r0,[r1,#2]
        0x100013c2:    4881        .H      LDR      r0,[pc,#516] ; [0x100015c8] = 0x20003094
        0x100013c4:    6800        .h      LDR      r0,[r0,#0]
        0x100013c6:    7880        .x      LDRB     r0,[r0,#2]
        0x100013c8:    2110        .!      MOVS     r1,#0x10
        0x100013ca:    4388        .C      BICS     r0,r0,r1
        0x100013cc:    497e        ~I      LDR      r1,[pc,#504] ; [0x100015c8] = 0x20003094
        0x100013ce:    6809        .h      LDR      r1,[r1,#0]
        0x100013d0:    7088        .p      STRB     r0,[r1,#2]
        0x100013d2:    487d        }H      LDR      r0,[pc,#500] ; [0x100015c8] = 0x20003094
        0x100013d4:    6800        .h      LDR      r0,[r0,#0]
        0x100013d6:    7880        .x      LDRB     r0,[r0,#2]
        0x100013d8:    2180        .!      MOVS     r1,#0x80
        0x100013da:    4388        .C      BICS     r0,r0,r1
        0x100013dc:    497a        zI      LDR      r1,[pc,#488] ; [0x100015c8] = 0x20003094
        0x100013de:    6809        .h      LDR      r1,[r1,#0]
        0x100013e0:    7088        .p      STRB     r0,[r1,#2]
        0x100013e2:    4879        yH      LDR      r0,[pc,#484] ; [0x100015c8] = 0x20003094
        0x100013e4:    6800        .h      LDR      r0,[r0,#0]
        0x100013e6:    7880        .x      LDRB     r0,[r0,#2]
        0x100013e8:    2140        @!      MOVS     r1,#0x40
        0x100013ea:    4388        .C      BICS     r0,r0,r1
        0x100013ec:    4976        vI      LDR      r1,[pc,#472] ; [0x100015c8] = 0x20003094
        0x100013ee:    6809        .h      LDR      r1,[r1,#0]
        0x100013f0:    7088        .p      STRB     r0,[r1,#2]
        0x100013f2:    4875        uH      LDR      r0,[pc,#468] ; [0x100015c8] = 0x20003094
        0x100013f4:    6800        .h      LDR      r0,[r0,#0]
        0x100013f6:    7800        .x      LDRB     r0,[r0,#0]
        0x100013f8:    2110        .!      MOVS     r1,#0x10
        0x100013fa:    4388        .C      BICS     r0,r0,r1
        0x100013fc:    4972        rI      LDR      r1,[pc,#456] ; [0x100015c8] = 0x20003094
        0x100013fe:    6809        .h      LDR      r1,[r1,#0]
        0x10001400:    7008        .p      STRB     r0,[r1,#0]
        0x10001402:    4871        qH      LDR      r0,[pc,#452] ; [0x100015c8] = 0x20003094
        0x10001404:    6800        .h      LDR      r0,[r0,#0]
        0x10001406:    7800        .x      LDRB     r0,[r0,#0]
        0x10001408:    2120         !      MOVS     r1,#0x20
        0x1000140a:    4388        .C      BICS     r0,r0,r1
        0x1000140c:    496e        nI      LDR      r1,[pc,#440] ; [0x100015c8] = 0x20003094
        0x1000140e:    6809        .h      LDR      r1,[r1,#0]
        0x10001410:    7008        .p      STRB     r0,[r1,#0]
        0x10001412:    486d        mH      LDR      r0,[pc,#436] ; [0x100015c8] = 0x20003094
        0x10001414:    6800        .h      LDR      r0,[r0,#0]
        0x10001416:    7880        .x      LDRB     r0,[r0,#2]
        0x10001418:    2102        .!      MOVS     r1,#2
        0x1000141a:    4388        .C      BICS     r0,r0,r1
        0x1000141c:    1c80        ..      ADDS     r0,r0,#2
        0x1000141e:    496a        jI      LDR      r1,[pc,#424] ; [0x100015c8] = 0x20003094
        0x10001420:    6809        .h      LDR      r1,[r1,#0]
        0x10001422:    7088        .p      STRB     r0,[r1,#2]
        0x10001424:    4868        hH      LDR      r0,[pc,#416] ; [0x100015c8] = 0x20003094
        0x10001426:    6800        .h      LDR      r0,[r0,#0]
        0x10001428:    78c0        .x      LDRB     r0,[r0,#3]
        0x1000142a:    2120         !      MOVS     r1,#0x20
        0x1000142c:    4388        .C      BICS     r0,r0,r1
        0x1000142e:    3020         0      ADDS     r0,r0,#0x20
        0x10001430:    4965        eI      LDR      r1,[pc,#404] ; [0x100015c8] = 0x20003094
        0x10001432:    6809        .h      LDR      r1,[r1,#0]
        0x10001434:    70c8        .p      STRB     r0,[r1,#3]
        0x10001436:    2006        .       MOVS     r0,#6
        0x10001438:    f000f8bc    ....    BL       NVIC_EnableIRQ ; 0x100015b4
        0x1000143c:    4862        bH      LDR      r0,[pc,#392] ; [0x100015c8] = 0x20003094
        0x1000143e:    6800        .h      LDR      r0,[r0,#0]
        0x10001440:    7880        .x      LDRB     r0,[r0,#2]
        0x10001442:    2108        .!      MOVS     r1,#8
        0x10001444:    4388        .C      BICS     r0,r0,r1
        0x10001446:    3008        .0      ADDS     r0,r0,#8
        0x10001448:    495f        _I      LDR      r1,[pc,#380] ; [0x100015c8] = 0x20003094
        0x1000144a:    6809        .h      LDR      r1,[r1,#0]
        0x1000144c:    7088        .p      STRB     r0,[r1,#2]
        0x1000144e:    bd10        ..      POP      {r4,pc}
    uart_0_read
        0x10001450:    b518        ..      PUSH     {r3,r4,lr}
        0x10001452:    4602        .F      MOV      r2,r0
        0x10001454:    2000        .       MOVS     r0,#0
        0x10001456:    2300        .#      MOVS     r3,#0
        0x10001458:    9300        ..      STR      r3,[sp,#0]
        0x1000145a:    e014        ..      B        0x10001486 ; uart_0_read + 54
        0x1000145c:    4b5a        ZK      LDR      r3,[pc,#360] ; [0x100015c8] = 0x20003094
        0x1000145e:    681b        .h      LDR      r3,[r3,#0]
        0x10001460:    791b        .y      LDRB     r3,[r3,#4]
        0x10001462:    540b        .T      STRB     r3,[r1,r0]
        0x10001464:    1c43        C.      ADDS     r3,r0,#1
        0x10001466:    b2d8        ..      UXTB     r0,r3
        0x10001468:    466b        kF      MOV      r3,sp
        0x1000146a:    781b        .x      LDRB     r3,[r3,#0]
        0x1000146c:    1c5b        [.      ADDS     r3,r3,#1
        0x1000146e:    b2dc        ..      UXTB     r4,r3
        0x10001470:    9400        ..      STR      r4,[sp,#0]
        0x10001472:    466b        kF      MOV      r3,sp
        0x10001474:    781b        .x      LDRB     r3,[r3,#0]
        0x10001476:    1c5b        [.      ADDS     r3,r3,#1
        0x10001478:    b2dc        ..      UXTB     r4,r3
        0x1000147a:    9400        ..      STR      r4,[sp,#0]
        0x1000147c:    466b        kF      MOV      r3,sp
        0x1000147e:    781b        .x      LDRB     r3,[r3,#0]
        0x10001480:    1c5b        [.      ADDS     r3,r3,#1
        0x10001482:    b2dc        ..      UXTB     r4,r3
        0x10001484:    9400        ..      STR      r4,[sp,#0]
        0x10001486:    4b50        PK      LDR      r3,[pc,#320] ; [0x100015c8] = 0x20003094
        0x10001488:    681b        .h      LDR      r3,[r3,#0]
        0x1000148a:    78db        .x      LDRB     r3,[r3,#3]
        0x1000148c:    07db        ..      LSLS     r3,r3,#31
        0x1000148e:    0fdb        ..      LSRS     r3,r3,#31
        0x10001490:    2b00        .+      CMP      r3,#0
        0x10001492:    d0e3        ..      BEQ      0x1000145c ; uart_0_read + 12
        0x10001494:    7010        .p      STRB     r0,[r2,#0]
        0x10001496:    bd18        ..      POP      {r3,r4,pc}
    UART0_IRQHandler
        0x10001498:    b50c        ..      PUSH     {r2,r3,lr}
        0x1000149a:    484b        KH      LDR      r0,[pc,#300] ; [0x100015c8] = 0x20003094
        0x1000149c:    6800        .h      LDR      r0,[r0,#0]
        0x1000149e:    7800        .x      LDRB     r0,[r0,#0]
        0x100014a0:    06c0        ..      LSLS     r0,r0,#27
        0x100014a2:    0fc0        ..      LSRS     r0,r0,#31
        0x100014a4:    2800        .(      CMP      r0,#0
        0x100014a6:    d00c        ..      BEQ      0x100014c2 ; UART0_IRQHandler + 42
        0x100014a8:    4847        GH      LDR      r0,[pc,#284] ; [0x100015c8] = 0x20003094
        0x100014aa:    6800        .h      LDR      r0,[r0,#0]
        0x100014ac:    7800        .x      LDRB     r0,[r0,#0]
        0x100014ae:    2110        .!      MOVS     r1,#0x10
        0x100014b0:    4388        .C      BICS     r0,r0,r1
        0x100014b2:    4945        EI      LDR      r1,[pc,#276] ; [0x100015c8] = 0x20003094
        0x100014b4:    6809        .h      LDR      r1,[r1,#0]
        0x100014b6:    7008        .p      STRB     r0,[r1,#0]
        0x100014b8:    4669        iF      MOV      r1,sp
        0x100014ba:    a801        ..      ADD      r0,sp,#4
        0x100014bc:    f7ffffc8    ....    BL       uart_0_read ; 0x10001450
        0x100014c0:    bf00        ..      NOP      
        0x100014c2:    4841        AH      LDR      r0,[pc,#260] ; [0x100015c8] = 0x20003094
        0x100014c4:    6800        .h      LDR      r0,[r0,#0]
        0x100014c6:    7800        .x      LDRB     r0,[r0,#0]
        0x100014c8:    0680        ..      LSLS     r0,r0,#26
        0x100014ca:    0fc0        ..      LSRS     r0,r0,#31
        0x100014cc:    2800        .(      CMP      r0,#0
        0x100014ce:    d007        ..      BEQ      0x100014e0 ; UART0_IRQHandler + 72
        0x100014d0:    483d        =H      LDR      r0,[pc,#244] ; [0x100015c8] = 0x20003094
        0x100014d2:    6800        .h      LDR      r0,[r0,#0]
        0x100014d4:    7800        .x      LDRB     r0,[r0,#0]
        0x100014d6:    2120         !      MOVS     r1,#0x20
        0x100014d8:    4388        .C      BICS     r0,r0,r1
        0x100014da:    493b        ;I      LDR      r1,[pc,#236] ; [0x100015c8] = 0x20003094
        0x100014dc:    6809        .h      LDR      r1,[r1,#0]
        0x100014de:    7008        .p      STRB     r0,[r1,#0]
        0x100014e0:    4839        9H      LDR      r0,[pc,#228] ; [0x100015c8] = 0x20003094
        0x100014e2:    6800        .h      LDR      r0,[r0,#0]
        0x100014e4:    7880        .x      LDRB     r0,[r0,#2]
        0x100014e6:    0780        ..      LSLS     r0,r0,#30
        0x100014e8:    0fc0        ..      LSRS     r0,r0,#31
        0x100014ea:    2800        .(      CMP      r0,#0
        0x100014ec:    d008        ..      BEQ      0x10001500 ; UART0_IRQHandler + 104
        0x100014ee:    4836        6H      LDR      r0,[pc,#216] ; [0x100015c8] = 0x20003094
        0x100014f0:    6800        .h      LDR      r0,[r0,#0]
        0x100014f2:    7880        .x      LDRB     r0,[r0,#2]
        0x100014f4:    2102        .!      MOVS     r1,#2
        0x100014f6:    4388        .C      BICS     r0,r0,r1
        0x100014f8:    1c80        ..      ADDS     r0,r0,#2
        0x100014fa:    4933        3I      LDR      r1,[pc,#204] ; [0x100015c8] = 0x20003094
        0x100014fc:    6809        .h      LDR      r1,[r1,#0]
        0x100014fe:    7088        .p      STRB     r0,[r1,#2]
        0x10001500:    bd0c        ..      POP      {r2,r3,pc}
    uart_1_read
        0x10001502:    b518        ..      PUSH     {r3,r4,lr}
        0x10001504:    4602        .F      MOV      r2,r0
        0x10001506:    2000        .       MOVS     r0,#0
        0x10001508:    2300        .#      MOVS     r3,#0
        0x1000150a:    9300        ..      STR      r3,[sp,#0]
        0x1000150c:    e014        ..      B        0x10001538 ; uart_1_read + 54
        0x1000150e:    4b2f        /K      LDR      r3,[pc,#188] ; [0x100015cc] = 0x20003098
        0x10001510:    681b        .h      LDR      r3,[r3,#0]
        0x10001512:    791b        .y      LDRB     r3,[r3,#4]
        0x10001514:    540b        .T      STRB     r3,[r1,r0]
        0x10001516:    1c43        C.      ADDS     r3,r0,#1
        0x10001518:    b2d8        ..      UXTB     r0,r3
        0x1000151a:    466b        kF      MOV      r3,sp
        0x1000151c:    781b        .x      LDRB     r3,[r3,#0]
        0x1000151e:    1c5b        [.      ADDS     r3,r3,#1
        0x10001520:    b2dc        ..      UXTB     r4,r3
        0x10001522:    9400        ..      STR      r4,[sp,#0]
        0x10001524:    466b        kF      MOV      r3,sp
        0x10001526:    781b        .x      LDRB     r3,[r3,#0]
        0x10001528:    1c5b        [.      ADDS     r3,r3,#1
        0x1000152a:    b2dc        ..      UXTB     r4,r3
        0x1000152c:    9400        ..      STR      r4,[sp,#0]
        0x1000152e:    466b        kF      MOV      r3,sp
        0x10001530:    781b        .x      LDRB     r3,[r3,#0]
        0x10001532:    1c5b        [.      ADDS     r3,r3,#1
        0x10001534:    b2dc        ..      UXTB     r4,r3
        0x10001536:    9400        ..      STR      r4,[sp,#0]
        0x10001538:    4b24        $K      LDR      r3,[pc,#144] ; [0x100015cc] = 0x20003098
        0x1000153a:    681b        .h      LDR      r3,[r3,#0]
        0x1000153c:    78db        .x      LDRB     r3,[r3,#3]
        0x1000153e:    07db        ..      LSLS     r3,r3,#31
        0x10001540:    0fdb        ..      LSRS     r3,r3,#31
        0x10001542:    2b00        .+      CMP      r3,#0
        0x10001544:    d0e3        ..      BEQ      0x1000150e ; uart_1_read + 12
        0x10001546:    7010        .p      STRB     r0,[r2,#0]
        0x10001548:    bd18        ..      POP      {r3,r4,pc}
    UART1_IRQHandler
        0x1000154a:    b50c        ..      PUSH     {r2,r3,lr}
        0x1000154c:    481f        .H      LDR      r0,[pc,#124] ; [0x100015cc] = 0x20003098
        0x1000154e:    6800        .h      LDR      r0,[r0,#0]
        0x10001550:    7800        .x      LDRB     r0,[r0,#0]
        0x10001552:    06c0        ..      LSLS     r0,r0,#27
        0x10001554:    0fc0        ..      LSRS     r0,r0,#31
        0x10001556:    2800        .(      CMP      r0,#0
        0x10001558:    d00c        ..      BEQ      0x10001574 ; UART1_IRQHandler + 42
        0x1000155a:    481c        .H      LDR      r0,[pc,#112] ; [0x100015cc] = 0x20003098
        0x1000155c:    6800        .h      LDR      r0,[r0,#0]
        0x1000155e:    7800        .x      LDRB     r0,[r0,#0]
        0x10001560:    2110        .!      MOVS     r1,#0x10
        0x10001562:    4388        .C      BICS     r0,r0,r1
        0x10001564:    4919        .I      LDR      r1,[pc,#100] ; [0x100015cc] = 0x20003098
        0x10001566:    6809        .h      LDR      r1,[r1,#0]
        0x10001568:    7008        .p      STRB     r0,[r1,#0]
        0x1000156a:    4669        iF      MOV      r1,sp
        0x1000156c:    a801        ..      ADD      r0,sp,#4
        0x1000156e:    f7ffffc8    ....    BL       uart_1_read ; 0x10001502
        0x10001572:    bf00        ..      NOP      
        0x10001574:    4815        .H      LDR      r0,[pc,#84] ; [0x100015cc] = 0x20003098
        0x10001576:    6800        .h      LDR      r0,[r0,#0]
        0x10001578:    7800        .x      LDRB     r0,[r0,#0]
        0x1000157a:    0680        ..      LSLS     r0,r0,#26
        0x1000157c:    0fc0        ..      LSRS     r0,r0,#31
        0x1000157e:    2800        .(      CMP      r0,#0
        0x10001580:    d007        ..      BEQ      0x10001592 ; UART1_IRQHandler + 72
        0x10001582:    4812        .H      LDR      r0,[pc,#72] ; [0x100015cc] = 0x20003098
        0x10001584:    6800        .h      LDR      r0,[r0,#0]
        0x10001586:    7800        .x      LDRB     r0,[r0,#0]
        0x10001588:    2120         !      MOVS     r1,#0x20
        0x1000158a:    4388        .C      BICS     r0,r0,r1
        0x1000158c:    490f        .I      LDR      r1,[pc,#60] ; [0x100015cc] = 0x20003098
        0x1000158e:    6809        .h      LDR      r1,[r1,#0]
        0x10001590:    7008        .p      STRB     r0,[r1,#0]
        0x10001592:    480e        .H      LDR      r0,[pc,#56] ; [0x100015cc] = 0x20003098
        0x10001594:    6800        .h      LDR      r0,[r0,#0]
        0x10001596:    7880        .x      LDRB     r0,[r0,#2]
        0x10001598:    0780        ..      LSLS     r0,r0,#30
        0x1000159a:    0fc0        ..      LSRS     r0,r0,#31
        0x1000159c:    2800        .(      CMP      r0,#0
        0x1000159e:    d008        ..      BEQ      0x100015b2 ; UART1_IRQHandler + 104
        0x100015a0:    480a        .H      LDR      r0,[pc,#40] ; [0x100015cc] = 0x20003098
        0x100015a2:    6800        .h      LDR      r0,[r0,#0]
        0x100015a4:    7880        .x      LDRB     r0,[r0,#2]
        0x100015a6:    2102        .!      MOVS     r1,#2
        0x100015a8:    4388        .C      BICS     r0,r0,r1
        0x100015aa:    1c80        ..      ADDS     r0,r0,#2
        0x100015ac:    4907        .I      LDR      r1,[pc,#28] ; [0x100015cc] = 0x20003098
        0x100015ae:    6809        .h      LDR      r1,[r1,#0]
        0x100015b0:    7088        .p      STRB     r0,[r1,#2]
        0x100015b2:    bd0c        ..      POP      {r2,r3,pc}
    NVIC_EnableIRQ
        0x100015b4:    06c2        ..      LSLS     r2,r0,#27
        0x100015b6:    0ed2        ..      LSRS     r2,r2,#27
        0x100015b8:    2101        .!      MOVS     r1,#1
        0x100015ba:    4091        .@      LSLS     r1,r1,r2
        0x100015bc:    4a04        .J      LDR      r2,[pc,#16] ; [0x100015d0] = 0xe000e100
        0x100015be:    6011        .`      STR      r1,[r2,#0]
        0x100015c0:    4770        pG      BX       lr
    $d
        0x100015c2:    0000        ..      DCW    0
        0x100015c4:    2000304c    L0.     DCD    536883276
        0x100015c8:    20003094    .0.     DCD    536883348
        0x100015cc:    20003098    .0.     DCD    536883352
        0x100015d0:    e000e100    ....    DCD    3758153984
    $t
    .text
    delay_ms
        0x100015d4:    2100        .!      MOVS     r1,#0
        0x100015d6:    e008        ..      B        0x100015ea ; delay_ms + 22
        0x100015d8:    2200        ."      MOVS     r2,#0
        0x100015da:    e001        ..      B        0x100015e0 ; delay_ms + 12
        0x100015dc:    1c53        S.      ADDS     r3,r2,#1
        0x100015de:    b29a        ..      UXTH     r2,r3
        0x100015e0:    4b03        .K      LDR      r3,[pc,#12] ; [0x100015f0] = 0xa8c
        0x100015e2:    429a        .B      CMP      r2,r3
        0x100015e4:    dbfa        ..      BLT      0x100015dc ; delay_ms + 8
        0x100015e6:    1c4b        K.      ADDS     r3,r1,#1
        0x100015e8:    b299        ..      UXTH     r1,r3
        0x100015ea:    4281        .B      CMP      r1,r0
        0x100015ec:    dbf4        ..      BLT      0x100015d8 ; delay_ms + 4
        0x100015ee:    4770        pG      BX       lr
    $d
        0x100015f0:    00000a8c    ....    DCD    2700
    $t
    .text
    EvtCommandComplete
        0x100015f4:    b570        p.      PUSH     {r4-r6,lr}
        0x100015f6:    4604        .F      MOV      r4,r0
        0x100015f8:    460e        .F      MOV      r6,r1
        0x100015fa:    4615        .F      MOV      r5,r2
        0x100015fc:    200e        .       MOVS     r0,#0xe
        0x100015fe:    49f7        .I      LDR      r1,[pc,#988] ; [0x100019dc] = 0x200030b4
        0x10001600:    6809        .h      LDR      r1,[r1,#0]
        0x10001602:    7008        .p      STRB     r0,[r1,#0]
        0x10001604:    1c68        h.      ADDS     r0,r5,#1
        0x10001606:    49f5        .I      LDR      r1,[pc,#980] ; [0x100019dc] = 0x200030b4
        0x10001608:    6809        .h      LDR      r1,[r1,#0]
        0x1000160a:    7048        Hp      STRB     r0,[r1,#1]
        0x1000160c:    48f3        .H      LDR      r0,[pc,#972] ; [0x100019dc] = 0x200030b4
        0x1000160e:    6800        .h      LDR      r0,[r0,#0]
        0x10001610:    7084        .p      STRB     r4,[r0,#2]
        0x10001612:    462a        *F      MOV      r2,r5
        0x10001614:    4631        1F      MOV      r1,r6
        0x10001616:    48f1        .H      LDR      r0,[pc,#964] ; [0x100019dc] = 0x200030b4
        0x10001618:    6800        .h      LDR      r0,[r0,#0]
        0x1000161a:    1cc0        ..      ADDS     r0,r0,#3
        0x1000161c:    f003fe50    ..P.    BL       __aeabi_memcpy ; 0x100052c0
        0x10001620:    bd70        p.      POP      {r4-r6,pc}
    CmdFwErase
        0x10001622:    b508        ..      PUSH     {r3,lr}
        0x10001624:    f003f8e1    ....    BL       CodeErase ; 0x100047ea
        0x10001628:    2000        .       MOVS     r0,#0
        0x1000162a:    9000        ..      STR      r0,[sp,#0]
        0x1000162c:    2201        ."      MOVS     r2,#1
        0x1000162e:    4669        iF      MOV      r1,sp
        0x10001630:    2016        .       MOVS     r0,#0x16
        0x10001632:    f7ffffdf    ....    BL       EvtCommandComplete ; 0x100015f4
        0x10001636:    bd08        ..      POP      {r3,pc}
    Cmd4KSETTINGWrite
        0x10001638:    b538        8.      PUSH     {r3-r5,lr}
        0x1000163a:    4604        .F      MOV      r4,r0
        0x1000163c:    7860        `x      LDRB     r0,[r4,#1]
        0x1000163e:    7821        !x      LDRB     r1,[r4,#0]
        0x10001640:    0200        ..      LSLS     r0,r0,#8
        0x10001642:    4308        .C      ORRS     r0,r0,r1
        0x10001644:    2101        .!      MOVS     r1,#1
        0x10001646:    0309        ..      LSLS     r1,r1,#12
        0x10001648:    4288        .B      CMP      r0,r1
        0x1000164a:    dd00        ..      BLE      0x1000164e ; Cmd4KSETTINGWrite + 22
        0x1000164c:    bd38        8.      POP      {r3-r5,pc}
        0x1000164e:    7860        `x      LDRB     r0,[r4,#1]
        0x10001650:    7821        !x      LDRB     r1,[r4,#0]
        0x10001652:    0200        ..      LSLS     r0,r0,#8
        0x10001654:    4308        .C      ORRS     r0,r0,r1
        0x10001656:    78a1        .x      LDRB     r1,[r4,#2]
        0x10001658:    1840        @.      ADDS     r0,r0,r1
        0x1000165a:    2101        .!      MOVS     r1,#1
        0x1000165c:    0309        ..      LSLS     r1,r1,#12
        0x1000165e:    4288        .B      CMP      r0,r1
        0x10001660:    dd07        ..      BLE      0x10001672 ; Cmd4KSETTINGWrite + 58
        0x10001662:    7860        `x      LDRB     r0,[r4,#1]
        0x10001664:    7821        !x      LDRB     r1,[r4,#0]
        0x10001666:    0200        ..      LSLS     r0,r0,#8
        0x10001668:    4308        .C      ORRS     r0,r0,r1
        0x1000166a:    2101        .!      MOVS     r1,#1
        0x1000166c:    0309        ..      LSLS     r1,r1,#12
        0x1000166e:    1a08        ..      SUBS     r0,r1,r0
        0x10001670:    70a0        .p      STRB     r0,[r4,#2]
        0x10001672:    78a2        .x      LDRB     r2,[r4,#2]
        0x10001674:    7861        ax      LDRB     r1,[r4,#1]
        0x10001676:    7823        #x      LDRB     r3,[r4,#0]
        0x10001678:    0209        ..      LSLS     r1,r1,#8
        0x1000167a:    4319        .C      ORRS     r1,r1,r3
        0x1000167c:    4bd8        .K      LDR      r3,[pc,#864] ; [0x100019e0] = 0x2000074a
        0x1000167e:    18c8        ..      ADDS     r0,r1,r3
        0x10001680:    1ce1        ..      ADDS     r1,r4,#3
        0x10001682:    f003fe1d    ....    BL       __aeabi_memcpy ; 0x100052c0
        0x10001686:    bf00        ..      NOP      
        0x10001688:    78a3        .x      LDRB     r3,[r4,#2]
        0x1000168a:    7860        `x      LDRB     r0,[r4,#1]
        0x1000168c:    7821        !x      LDRB     r1,[r4,#0]
        0x1000168e:    0200        ..      LSLS     r0,r0,#8
        0x10001690:    4308        .C      ORRS     r0,r0,r1
        0x10001692:    4602        .F      MOV      r2,r0
        0x10001694:    a1d3        ..      ADR      r1,{pc}+0x350 ; 0x100019e4
        0x10001696:    2000        .       MOVS     r0,#0
        0x10001698:    f000fefe    ....    BL       SEGGER_RTT_printf ; 0x10002498
        0x1000169c:    bf00        ..      NOP      
        0x1000169e:    2000        .       MOVS     r0,#0
        0x100016a0:    9000        ..      STR      r0,[sp,#0]
        0x100016a2:    2201        ."      MOVS     r2,#1
        0x100016a4:    4669        iF      MOV      r1,sp
        0x100016a6:    2017        .       MOVS     r0,#0x17
        0x100016a8:    f7ffffa4    ....    BL       EvtCommandComplete ; 0x100015f4
        0x100016ac:    bf00        ..      NOP      
        0x100016ae:    e7cd        ..      B        0x1000164c ; Cmd4KSETTINGWrite + 20
    CmdFwWriteStart
        0x100016b0:    b57c        |.      PUSH     {r2-r6,lr}
        0x100016b2:    4604        .F      MOV      r4,r0
        0x100016b4:    460d        .F      MOV      r5,r1
        0x100016b6:    4616        .F      MOV      r6,r2
        0x100016b8:    4668        hF      MOV      r0,sp
        0x100016ba:    7045        Ep      STRB     r5,[r0,#1]
        0x100016bc:    0a29        ).      LSRS     r1,r5,#8
        0x100016be:    7081        .p      STRB     r1,[r0,#2]
        0x100016c0:    70c6        .p      STRB     r6,[r0,#3]
        0x100016c2:    0a31        1.      LSRS     r1,r6,#8
        0x100016c4:    7101        .q      STRB     r1,[r0,#4]
        0x100016c6:    7004        .p      STRB     r4,[r0,#0]
        0x100016c8:    2205        ."      MOVS     r2,#5
        0x100016ca:    4669        iF      MOV      r1,sp
        0x100016cc:    2014        .       MOVS     r0,#0x14
        0x100016ce:    f7ffff91    ....    BL       EvtCommandComplete ; 0x100015f4
        0x100016d2:    bd7c        |.      POP      {r2-r6,pc}
    Cmd4KSETTINGUpgrade
        0x100016d4:    b57c        |.      PUSH     {r2-r6,lr}
        0x100016d6:    4604        .F      MOV      r4,r0
        0x100016d8:    2500        .%      MOVS     r5,#0
        0x100016da:    1c60        `.      ADDS     r0,r4,#1
        0x100016dc:    f003fe2a    ..*.    BL       __aeabi_uread4 ; 0x10005334
        0x100016e0:    4606        .F      MOV      r6,r0
        0x100016e2:    7822        "x      LDRB     r2,[r4,#0]
        0x100016e4:    4631        1F      MOV      r1,r6
        0x100016e6:    48be        .H      LDR      r0,[pc,#760] ; [0x100019e0] = 0x2000074a
        0x100016e8:    f003fa42    ..B.    BL       Setting4kUpdate ; 0x10004b70
        0x100016ec:    4605        .F      MOV      r5,r0
        0x100016ee:    bf00        ..      NOP      
        0x100016f0:    1c60        `.      ADDS     r0,r4,#1
        0x100016f2:    f003fe1f    ....    BL       __aeabi_uread4 ; 0x10005334
        0x100016f6:    4606        .F      MOV      r6,r0
        0x100016f8:    7820         x      LDRB     r0,[r4,#0]
        0x100016fa:    4633        3F      MOV      r3,r6
        0x100016fc:    462a        *F      MOV      r2,r5
        0x100016fe:    a1c0        ..      ADR      r1,{pc}+0x302 ; 0x10001a00
        0x10001700:    9000        ..      STR      r0,[sp,#0]
        0x10001702:    2000        .       MOVS     r0,#0
        0x10001704:    f000fec8    ....    BL       SEGGER_RTT_printf ; 0x10002498
        0x10001708:    bf00        ..      NOP      
        0x1000170a:    2d00        .-      CMP      r5,#0
        0x1000170c:    d102        ..      BNE      0x10001714 ; Cmd4KSETTINGUpgrade + 64
        0x1000170e:    2001        .       MOVS     r0,#1
        0x10001710:    9001        ..      STR      r0,[sp,#4]
        0x10001712:    e001        ..      B        0x10001718 ; Cmd4KSETTINGUpgrade + 68
        0x10001714:    2000        .       MOVS     r0,#0
        0x10001716:    9001        ..      STR      r0,[sp,#4]
        0x10001718:    2201        ."      MOVS     r2,#1
        0x1000171a:    a901        ..      ADD      r1,sp,#4
        0x1000171c:    2018        .       MOVS     r0,#0x18
        0x1000171e:    f7ffff69    ..i.    BL       EvtCommandComplete ; 0x100015f4
        0x10001722:    bd7c        |.      POP      {r2-r6,pc}
    CmdFwUpgradev20
        0x10001724:    b5f8        ..      PUSH     {r3-r7,lr}
        0x10001726:    4605        .F      MOV      r5,r0
        0x10001728:    bf00        ..      NOP      
        0x1000172a:    48bb        .H      LDR      r0,[pc,#748] ; [0x10001a18] = 0x20003174
        0x1000172c:    7900        .y      LDRB     r0,[r0,#4]
        0x1000172e:    2800        .(      CMP      r0,#0
        0x10001730:    d008        ..      BEQ      0x10001744 ; CmdFwUpgradev20 + 32
        0x10001732:    4ab9        .J      LDR      r2,[pc,#740] ; [0x10001a18] = 0x20003174
        0x10001734:    7911        .y      LDRB     r1,[r2,#4]
        0x10001736:    3a20         :      SUBS     r2,r2,#0x20
        0x10001738:    6a12        .j      LDR      r2,[r2,#0x20]
        0x1000173a:    0150        P.      LSLS     r0,r2,#5
        0x1000173c:    4ab6        .J      LDR      r2,[pc,#728] ; [0x10001a18] = 0x20003174
        0x1000173e:    3a20         :      SUBS     r2,r2,#0x20
        0x10001740:    f003f8c6    ....    BL       CodeWrite ; 0x100048d0
        0x10001744:    bf00        ..      NOP      
        0x10001746:    4628        (F      MOV      r0,r5
        0x10001748:    f003fdf4    ....    BL       __aeabi_uread4 ; 0x10005334
        0x1000174c:    4606        .F      MOV      r6,r0
        0x1000174e:    7968        hy      LDRB     r0,[r5,#5]
        0x10001750:    7929        )y      LDRB     r1,[r5,#4]
        0x10001752:    0200        ..      LSLS     r0,r0,#8
        0x10001754:    4308        .C      ORRS     r0,r0,r1
        0x10001756:    4603        .F      MOV      r3,r0
        0x10001758:    4632        2F      MOV      r2,r6
        0x1000175a:    a1b0        ..      ADR      r1,{pc}+0x2c2 ; 0x10001a1c
        0x1000175c:    2000        .       MOVS     r0,#0
        0x1000175e:    f000fe9b    ....    BL       SEGGER_RTT_printf ; 0x10002498
        0x10001762:    bf00        ..      NOP      
        0x10001764:    4628        (F      MOV      r0,r5
        0x10001766:    f003fde5    ....    BL       __aeabi_uread4 ; 0x10005334
        0x1000176a:    4606        .F      MOV      r6,r0
        0x1000176c:    7968        hy      LDRB     r0,[r5,#5]
        0x1000176e:    7929        )y      LDRB     r1,[r5,#4]
        0x10001770:    0200        ..      LSLS     r0,r0,#8
        0x10001772:    4308        .C      ORRS     r0,r0,r1
        0x10001774:    4603        .F      MOV      r3,r0
        0x10001776:    4632        2F      MOV      r2,r6
        0x10001778:    2100        .!      MOVS     r1,#0
        0x1000177a:    4608        .F      MOV      r0,r1
        0x1000177c:    f003f8b8    ....    BL       CodeUpdate ; 0x100048f0
        0x10001780:    4604        .F      MOV      r4,r0
        0x10001782:    bf00        ..      NOP      
        0x10001784:    4622        "F      MOV      r2,r4
        0x10001786:    a1ab        ..      ADR      r1,{pc}+0x2ae ; 0x10001a34
        0x10001788:    2000        .       MOVS     r0,#0
        0x1000178a:    f000fe85    ....    BL       SEGGER_RTT_printf ; 0x10002498
        0x1000178e:    bf00        ..      NOP      
        0x10001790:    2c00        .,      CMP      r4,#0
        0x10001792:    d102        ..      BNE      0x1000179a ; CmdFwUpgradev20 + 118
        0x10001794:    2001        .       MOVS     r0,#1
        0x10001796:    9000        ..      STR      r0,[sp,#0]
        0x10001798:    e001        ..      B        0x1000179e ; CmdFwUpgradev20 + 122
        0x1000179a:    2000        .       MOVS     r0,#0
        0x1000179c:    9000        ..      STR      r0,[sp,#0]
        0x1000179e:    2201        ."      MOVS     r2,#1
        0x100017a0:    4669        iF      MOV      r1,sp
        0x100017a2:    2018        .       MOVS     r0,#0x18
        0x100017a4:    f7ffff26    ..&.    BL       EvtCommandComplete ; 0x100015f4
        0x100017a8:    bdf8        ..      POP      {r3-r7,pc}
    CmdFlashdataUpgradev30
        0x100017aa:    b5f8        ..      PUSH     {r3-r7,lr}
        0x100017ac:    4605        .F      MOV      r5,r0
        0x100017ae:    bf00        ..      NOP      
        0x100017b0:    bf00        ..      NOP      
        0x100017b2:    4628        (F      MOV      r0,r5
        0x100017b4:    f003fdbe    ....    BL       __aeabi_uread4 ; 0x10005334
        0x100017b8:    4606        .F      MOV      r6,r0
        0x100017ba:    7968        hy      LDRB     r0,[r5,#5]
        0x100017bc:    7929        )y      LDRB     r1,[r5,#4]
        0x100017be:    0200        ..      LSLS     r0,r0,#8
        0x100017c0:    4308        .C      ORRS     r0,r0,r1
        0x100017c2:    4603        .F      MOV      r3,r0
        0x100017c4:    4632        2F      MOV      r2,r6
        0x100017c6:    a195        ..      ADR      r1,{pc}+0x256 ; 0x10001a1c
        0x100017c8:    2000        .       MOVS     r0,#0
        0x100017ca:    f000fe65    ..e.    BL       SEGGER_RTT_printf ; 0x10002498
        0x100017ce:    bf00        ..      NOP      
        0x100017d0:    4628        (F      MOV      r0,r5
        0x100017d2:    f003fdaf    ....    BL       __aeabi_uread4 ; 0x10005334
        0x100017d6:    4606        .F      MOV      r6,r0
        0x100017d8:    7968        hy      LDRB     r0,[r5,#5]
        0x100017da:    792a        *y      LDRB     r2,[r5,#4]
        0x100017dc:    0200        ..      LSLS     r0,r0,#8
        0x100017de:    4310        .C      ORRS     r0,r0,r2
        0x100017e0:    4601        .F      MOV      r1,r0
        0x100017e2:    4630        0F      MOV      r0,r6
        0x100017e4:    f003f889    ....    BL       FlashDataUpdate ; 0x100048fa
        0x100017e8:    4604        .F      MOV      r4,r0
        0x100017ea:    bf00        ..      NOP      
        0x100017ec:    4622        "F      MOV      r2,r4
        0x100017ee:    a196        ..      ADR      r1,{pc}+0x25a ; 0x10001a48
        0x100017f0:    2000        .       MOVS     r0,#0
        0x100017f2:    f000fe51    ..Q.    BL       SEGGER_RTT_printf ; 0x10002498
        0x100017f6:    bf00        ..      NOP      
        0x100017f8:    2c00        .,      CMP      r4,#0
        0x100017fa:    d102        ..      BNE      0x10001802 ; CmdFlashdataUpgradev30 + 88
        0x100017fc:    2001        .       MOVS     r0,#1
        0x100017fe:    9000        ..      STR      r0,[sp,#0]
        0x10001800:    e001        ..      B        0x10001806 ; CmdFlashdataUpgradev30 + 92
        0x10001802:    2000        .       MOVS     r0,#0
        0x10001804:    9000        ..      STR      r0,[sp,#0]
        0x10001806:    2201        ."      MOVS     r2,#1
        0x10001808:    4669        iF      MOV      r1,sp
        0x1000180a:    2018        .       MOVS     r0,#0x18
        0x1000180c:    f7fffef2    ....    BL       EvtCommandComplete ; 0x100015f4
        0x10001810:    bdf8        ..      POP      {r3-r7,pc}
    ota_variable_clear
        0x10001812:    2800        .(      CMP      r0,#0
        0x10001814:    d004        ..      BEQ      0x10001820 ; ota_variable_clear + 14
        0x10001816:    2100        .!      MOVS     r1,#0
        0x10001818:    4a90        .J      LDR      r2,[pc,#576] ; [0x10001a5c] = 0x2000309c
        0x1000181a:    7011        .p      STRB     r1,[r2,#0]
        0x1000181c:    4a90        .J      LDR      r2,[pc,#576] ; [0x10001a60] = 0x2000309d
        0x1000181e:    7011        .p      STRB     r1,[r2,#0]
        0x10001820:    2100        .!      MOVS     r1,#0
        0x10001822:    4a90        .J      LDR      r2,[pc,#576] ; [0x10001a64] = 0x2000309e
        0x10001824:    8011        ..      STRH     r1,[r2,#0]
        0x10001826:    4a90        .J      LDR      r2,[pc,#576] ; [0x10001a68] = 0x200030a2
        0x10001828:    8011        ..      STRH     r1,[r2,#0]
        0x1000182a:    4a90        .J      LDR      r2,[pc,#576] ; [0x10001a6c] = 0x200030a0
        0x1000182c:    8011        ..      STRH     r1,[r2,#0]
        0x1000182e:    4a90        .J      LDR      r2,[pc,#576] ; [0x10001a70] = 0x200030a4
        0x10001830:    8011        ..      STRH     r1,[r2,#0]
        0x10001832:    4a90        .J      LDR      r2,[pc,#576] ; [0x10001a74] = 0x200030a8
        0x10001834:    6011        .`      STR      r1,[r2,#0]
        0x10001836:    4770        pG      BX       lr
    ota_cmd
        0x10001838:    b5f8        ..      PUSH     {r3-r7,lr}
        0x1000183a:    4605        .F      MOV      r5,r0
        0x1000183c:    460e        .F      MOV      r6,r1
        0x1000183e:    462c        ,F      MOV      r4,r5
        0x10001840:    4888        .H      LDR      r0,[pc,#544] ; [0x10001a64] = 0x2000309e
        0x10001842:    8800        ..      LDRH     r0,[r0,#0]
        0x10001844:    2800        .(      CMP      r0,#0
        0x10001846:    d003        ..      BEQ      0x10001850 ; ota_cmd + 24
        0x10001848:    4884        .H      LDR      r0,[pc,#528] ; [0x10001a5c] = 0x2000309c
        0x1000184a:    7800        .x      LDRB     r0,[r0,#0]
        0x1000184c:    2800        .(      CMP      r0,#0
        0x1000184e:    d177        w.      BNE      0x10001940 ; ota_cmd + 264
        0x10001850:    7820         x      LDRB     r0,[r4,#0]
        0x10001852:    2815        .(      CMP      r0,#0x15
        0x10001854:    d044        D.      BEQ      0x100018e0 ; ota_cmd + 168
        0x10001856:    dc08        ..      BGT      0x1000186a ; ota_cmd + 50
        0x10001858:    2811        .(      CMP      r0,#0x11
        0x1000185a:    d023        #.      BEQ      0x100018a4 ; ota_cmd + 108
        0x1000185c:    2812        .(      CMP      r0,#0x12
        0x1000185e:    d031        1.      BEQ      0x100018c4 ; ota_cmd + 140
        0x10001860:    2813        .(      CMP      r0,#0x13
        0x10001862:    d036        6.      BEQ      0x100018d2 ; ota_cmd + 154
        0x10001864:    2814        .(      CMP      r0,#0x14
        0x10001866:    d11c        ..      BNE      0x100018a2 ; ota_cmd + 106
        0x10001868:    e041        A.      B        0x100018ee ; ota_cmd + 182
        0x1000186a:    2816        .(      CMP      r0,#0x16
        0x1000186c:    d006        ..      BEQ      0x1000187c ; ota_cmd + 68
        0x1000186e:    2820         (      CMP      r0,#0x20
        0x10001870:    d068        h.      BEQ      0x10001944 ; ota_cmd + 268
        0x10001872:    2823        #(      CMP      r0,#0x23
        0x10001874:    d07b        {.      BEQ      0x1000196e ; ota_cmd + 310
        0x10001876:    2824        $(      CMP      r0,#0x24
        0x10001878:    d1f5        ..      BNE      0x10001866 ; ota_cmd + 46
        0x1000187a:    e0a1        ..      B        0x100019c0 ; ota_cmd + 392
        0x1000187c:    2000        .       MOVS     r0,#0
        0x1000187e:    f7fefc60    ..`.    BL       BLSetConnectionUpdate ; 0x10000142
        0x10001882:    bf00        ..      NOP      
        0x10001884:    a17c        |.      ADR      r1,{pc}+0x1f4 ; 0x10001a78
        0x10001886:    2000        .       MOVS     r0,#0
        0x10001888:    f000fe06    ....    BL       SEGGER_RTT_printf ; 0x10002498
        0x1000188c:    bf00        ..      NOP      
        0x1000188e:    2001        .       MOVS     r0,#1
        0x10001890:    0240        @.      LSLS     r0,r0,#9
        0x10001892:    f000ff5c    ..\.    BL       Timer_Evt_Start ; 0x1000274e
        0x10001896:    2001        .       MOVS     r0,#1
        0x10001898:    4970        pI      LDR      r1,[pc,#448] ; [0x10001a5c] = 0x2000309c
        0x1000189a:    7008        .p      STRB     r0,[r1,#0]
        0x1000189c:    2000        .       MOVS     r0,#0
        0x1000189e:    4975        uI      LDR      r1,[pc,#468] ; [0x10001a74] = 0x200030a8
        0x100018a0:    6008        .`      STR      r0,[r1,#0]
        0x100018a2:    e094        ..      B        0x100019ce ; ota_cmd + 406
        0x100018a4:    2000        .       MOVS     r0,#0
        0x100018a6:    f7fefc4c    ..L.    BL       BLSetConnectionUpdate ; 0x10000142
        0x100018aa:    bf00        ..      NOP      
        0x100018ac:    a176        v.      ADR      r1,{pc}+0x1dc ; 0x10001a88
        0x100018ae:    2000        .       MOVS     r0,#0
        0x100018b0:    f000fdf2    ....    BL       SEGGER_RTT_printf ; 0x10002498
        0x100018b4:    bf00        ..      NOP      
        0x100018b6:    2004        .       MOVS     r0,#4
        0x100018b8:    4968        hI      LDR      r1,[pc,#416] ; [0x10001a5c] = 0x2000309c
        0x100018ba:    7008        .p      STRB     r0,[r1,#0]
        0x100018bc:    2000        .       MOVS     r0,#0
        0x100018be:    496d        mI      LDR      r1,[pc,#436] ; [0x10001a74] = 0x200030a8
        0x100018c0:    6008        .`      STR      r0,[r1,#0]
        0x100018c2:    e084        ..      B        0x100019ce ; ota_cmd + 406
        0x100018c4:    1ca0        ..      ADDS     r0,r4,#2
        0x100018c6:    f7fffeb7    ....    BL       Cmd4KSETTINGWrite ; 0x10001638
        0x100018ca:    2005        .       MOVS     r0,#5
        0x100018cc:    4963        cI      LDR      r1,[pc,#396] ; [0x10001a5c] = 0x2000309c
        0x100018ce:    7008        .p      STRB     r0,[r1,#0]
        0x100018d0:    e07d        }.      B        0x100019ce ; ota_cmd + 406
        0x100018d2:    1ca0        ..      ADDS     r0,r4,#2
        0x100018d4:    f7fffefe    ....    BL       Cmd4KSETTINGUpgrade ; 0x100016d4
        0x100018d8:    2006        .       MOVS     r0,#6
        0x100018da:    4960        `I      LDR      r1,[pc,#384] ; [0x10001a5c] = 0x2000309c
        0x100018dc:    7008        .p      STRB     r0,[r1,#0]
        0x100018de:    e076        v.      B        0x100019ce ; ota_cmd + 406
        0x100018e0:    1ca0        ..      ADDS     r0,r4,#2
        0x100018e2:    f7ffff1f    ....    BL       CmdFwUpgradev20 ; 0x10001724
        0x100018e6:    2003        .       MOVS     r0,#3
        0x100018e8:    495c        \I      LDR      r1,[pc,#368] ; [0x10001a5c] = 0x2000309c
        0x100018ea:    7008        .p      STRB     r0,[r1,#0]
        0x100018ec:    e06f        o.      B        0x100019ce ; ota_cmd + 406
        0x100018ee:    79e1        .y      LDRB     r1,[r4,#7]
        0x100018f0:    79a2        .y      LDRB     r2,[r4,#6]
        0x100018f2:    0208        ..      LSLS     r0,r1,#8
        0x100018f4:    4310        .C      ORRS     r0,r0,r2
        0x100018f6:    495b        [I      LDR      r1,[pc,#364] ; [0x10001a64] = 0x2000309e
        0x100018f8:    8008        ..      STRH     r0,[r1,#0]
        0x100018fa:    7a61        az      LDRB     r1,[r4,#9]
        0x100018fc:    7a22        "z      LDRB     r2,[r4,#8]
        0x100018fe:    0208        ..      LSLS     r0,r1,#8
        0x10001900:    4310        .C      ORRS     r0,r0,r2
        0x10001902:    4959        YI      LDR      r1,[pc,#356] ; [0x10001a68] = 0x200030a2
        0x10001904:    8008        ..      STRH     r0,[r1,#0]
        0x10001906:    1ca0        ..      ADDS     r0,r4,#2
        0x10001908:    f003fd14    ....    BL       __aeabi_uread4 ; 0x10005334
        0x1000190c:    4959        YI      LDR      r1,[pc,#356] ; [0x10001a74] = 0x200030a8
        0x1000190e:    6008        .`      STR      r0,[r1,#0]
        0x10001910:    2000        .       MOVS     r0,#0
        0x10001912:    4956        VI      LDR      r1,[pc,#344] ; [0x10001a6c] = 0x200030a0
        0x10001914:    8008        ..      STRH     r0,[r1,#0]
        0x10001916:    4956        VI      LDR      r1,[pc,#344] ; [0x10001a70] = 0x200030a4
        0x10001918:    8008        ..      STRH     r0,[r1,#0]
        0x1000191a:    bf00        ..      NOP      
        0x1000191c:    1ca0        ..      ADDS     r0,r4,#2
        0x1000191e:    f003fd09    ....    BL       __aeabi_uread4 ; 0x10005334
        0x10001922:    4607        .F      MOV      r7,r0
        0x10001924:    7a61        az      LDRB     r1,[r4,#9]
        0x10001926:    7a22        "z      LDRB     r2,[r4,#8]
        0x10001928:    0208        ..      LSLS     r0,r1,#8
        0x1000192a:    4310        .C      ORRS     r0,r0,r2
        0x1000192c:    9000        ..      STR      r0,[sp,#0]
        0x1000192e:    484d        MH      LDR      r0,[pc,#308] ; [0x10001a64] = 0x2000309e
        0x10001930:    8803        ..      LDRH     r3,[r0,#0]
        0x10001932:    463a        :F      MOV      r2,r7
        0x10001934:    a159        Y.      ADR      r1,{pc}+0x168 ; 0x10001a9c
        0x10001936:    2000        .       MOVS     r0,#0
        0x10001938:    f000fdae    ....    BL       SEGGER_RTT_printf ; 0x10002498
        0x1000193c:    bf00        ..      NOP      
        0x1000193e:    e046        F.      B        0x100019ce ; ota_cmd + 406
        0x10001940:    e046        F.      B        0x100019d0 ; ota_cmd + 408
        0x10001942:    e7ff        ..      B        0x10001944 ; ota_cmd + 268
        0x10001944:    2000        .       MOVS     r0,#0
        0x10001946:    f7fefbfc    ....    BL       BLSetConnectionUpdate ; 0x10000142
        0x1000194a:    bf00        ..      NOP      
        0x1000194c:    a160        `.      ADR      r1,{pc}+0x184 ; 0x10001ad0
        0x1000194e:    2000        .       MOVS     r0,#0
        0x10001950:    f000fda2    ....    BL       SEGGER_RTT_printf ; 0x10002498
        0x10001954:    bf00        ..      NOP      
        0x10001956:    2001        .       MOVS     r0,#1
        0x10001958:    0240        @.      LSLS     r0,r0,#9
        0x1000195a:    f000fef8    ....    BL       Timer_Evt_Start ; 0x1000274e
        0x1000195e:    2007        .       MOVS     r0,#7
        0x10001960:    493e        >I      LDR      r1,[pc,#248] ; [0x10001a5c] = 0x2000309c
        0x10001962:    7008        .p      STRB     r0,[r1,#0]
        0x10001964:    2000        .       MOVS     r0,#0
        0x10001966:    4943        CI      LDR      r1,[pc,#268] ; [0x10001a74] = 0x200030a8
        0x10001968:    6008        .`      STR      r0,[r1,#0]
        0x1000196a:    e030        0.      B        0x100019ce ; ota_cmd + 406
        0x1000196c:    e7ff        ..      B        0x1000196e ; ota_cmd + 310
        0x1000196e:    79e1        .y      LDRB     r1,[r4,#7]
        0x10001970:    79a2        .y      LDRB     r2,[r4,#6]
        0x10001972:    0208        ..      LSLS     r0,r1,#8
        0x10001974:    4310        .C      ORRS     r0,r0,r2
        0x10001976:    493b        ;I      LDR      r1,[pc,#236] ; [0x10001a64] = 0x2000309e
        0x10001978:    8008        ..      STRH     r0,[r1,#0]
        0x1000197a:    7a61        az      LDRB     r1,[r4,#9]
        0x1000197c:    7a22        "z      LDRB     r2,[r4,#8]
        0x1000197e:    0208        ..      LSLS     r0,r1,#8
        0x10001980:    4310        .C      ORRS     r0,r0,r2
        0x10001982:    4939        9I      LDR      r1,[pc,#228] ; [0x10001a68] = 0x200030a2
        0x10001984:    8008        ..      STRH     r0,[r1,#0]
        0x10001986:    1ca0        ..      ADDS     r0,r4,#2
        0x10001988:    f003fcd4    ....    BL       __aeabi_uread4 ; 0x10005334
        0x1000198c:    4939        9I      LDR      r1,[pc,#228] ; [0x10001a74] = 0x200030a8
        0x1000198e:    6008        .`      STR      r0,[r1,#0]
        0x10001990:    2000        .       MOVS     r0,#0
        0x10001992:    4936        6I      LDR      r1,[pc,#216] ; [0x10001a6c] = 0x200030a0
        0x10001994:    8008        ..      STRH     r0,[r1,#0]
        0x10001996:    4936        6I      LDR      r1,[pc,#216] ; [0x10001a70] = 0x200030a4
        0x10001998:    8008        ..      STRH     r0,[r1,#0]
        0x1000199a:    bf00        ..      NOP      
        0x1000199c:    1ca0        ..      ADDS     r0,r4,#2
        0x1000199e:    f003fcc9    ....    BL       __aeabi_uread4 ; 0x10005334
        0x100019a2:    4607        .F      MOV      r7,r0
        0x100019a4:    7a61        az      LDRB     r1,[r4,#9]
        0x100019a6:    7a22        "z      LDRB     r2,[r4,#8]
        0x100019a8:    0208        ..      LSLS     r0,r1,#8
        0x100019aa:    4310        .C      ORRS     r0,r0,r2
        0x100019ac:    9000        ..      STR      r0,[sp,#0]
        0x100019ae:    482d        -H      LDR      r0,[pc,#180] ; [0x10001a64] = 0x2000309e
        0x100019b0:    8803        ..      LDRH     r3,[r0,#0]
        0x100019b2:    463a        :F      MOV      r2,r7
        0x100019b4:    a14b        K.      ADR      r1,{pc}+0x130 ; 0x10001ae4
        0x100019b6:    2000        .       MOVS     r0,#0
        0x100019b8:    f000fd6e    ..n.    BL       SEGGER_RTT_printf ; 0x10002498
        0x100019bc:    bf00        ..      NOP      
        0x100019be:    e006        ..      B        0x100019ce ; ota_cmd + 406
        0x100019c0:    1ca0        ..      ADDS     r0,r4,#2
        0x100019c2:    f7fffef2    ....    BL       CmdFlashdataUpgradev30 ; 0x100017aa
        0x100019c6:    2003        .       MOVS     r0,#3
        0x100019c8:    4924        $I      LDR      r1,[pc,#144] ; [0x10001a5c] = 0x2000309c
        0x100019ca:    7008        .p      STRB     r0,[r1,#0]
        0x100019cc:    bf00        ..      NOP      
        0x100019ce:    e13e        >.      B        0x10001c4e ; ota_cmd + 1046
        0x100019d0:    2000        .       MOVS     r0,#0
        0x100019d2:    4923        #I      LDR      r1,[pc,#140] ; [0x10001a60] = 0x2000309d
        0x100019d4:    7008        .p      STRB     r0,[r1,#0]
        0x100019d6:    2700        .'      MOVS     r7,#0
        0x100019d8:    e0a8        ..      B        0x10001b2c ; ota_cmd + 756
    $d
        0x100019da:    0000        ..      DCW    0
        0x100019dc:    200030b4    .0.     DCD    536883380
        0x100019e0:    2000074a    J..     DCD    536872778
        0x100019e4:    34646d63    cmd4    DCD    878996835
        0x100019e8:    5445534b    KSET    DCD    1413829451
        0x100019ec:    474e4954    TING    DCD    1196312916
        0x100019f0:    74697257    Writ    DCD    1953067607
        0x100019f4:    78252065    e %x    DCD    2015699045
        0x100019f8:    0d782520     %x.    DCD    225977632
        0x100019fc:    0000000a    ....    DCD    10
        0x10001a00:    65646f43    Code    DCD    1701080899
        0x10001a04:    61647055    Upda    DCD    1633972309
        0x10001a08:    253d6574    te=%    DCD    624780660
        0x10001a0c:    78252064    d %x    DCD    2015699044
        0x10001a10:    0d782520     %x.    DCD    225977632
        0x10001a14:    0000000a    ....    DCD    10
        0x10001a18:    20003174    t1.     DCD    536883572
        0x10001a1c:    2061746f    ota     DCD    543257711
        0x10001a20:    253a7a73    sz:%    DCD    624589427
        0x10001a24:    68632078    x ch    DCD    1751326840
        0x10001a28:    736b6365    ecks    DCD    1936417637
        0x10001a2c:    253a6d75    um:%    DCD    624586101
        0x10001a30:    00002078    x ..    DCD    8312
        0x10001a34:    65646f43    Code    DCD    1701080899
        0x10001a38:    61647055    Upda    DCD    1633972309
        0x10001a3c:    32766574    tev2    DCD    846620020
        0x10001a40:    64253d30    0=%d    DCD    1680162096
        0x10001a44:    00000a0d    ....    DCD    2573
        0x10001a48:    65646f43    Code    DCD    1701080899
        0x10001a4c:    61647055    Upda    DCD    1633972309
        0x10001a50:    33766574    tev3    DCD    863397236
        0x10001a54:    64253d30    0=%d    DCD    1680162096
        0x10001a58:    00000a0d    ....    DCD    2573
        0x10001a5c:    2000309c    .0.     DCD    536883356
        0x10001a60:    2000309d    .0.     DCD    536883357
        0x10001a64:    2000309e    .0.     DCD    536883358
        0x10001a68:    200030a2    .0.     DCD    536883362
        0x10001a6c:    200030a0    .0.     DCD    536883360
        0x10001a70:    200030a4    .0.     DCD    536883364
        0x10001a74:    200030a8    .0.     DCD    536883368
        0x10001a78:    5f444d43    CMD_    DCD    1598311747
        0x10001a7c:    455f5746    FW_E    DCD    1163876166
        0x10001a80:    45534152    RASE    DCD    1163084114
        0x10001a84:    00000a0d    ....    DCD    2573
        0x10001a88:    45534b34    4KSE    DCD    1163086644
        0x10001a8c:    4e495454    TTIN    DCD    1313428564
        0x10001a90:    52455f47    G_ER    DCD    1380278087
        0x10001a94:    20455341    ASE     DCD    541414209
        0x10001a98:    00000a0d    ....    DCD    2573
        0x10001a9c:    5f444d43    CMD_    DCD    1598311747
        0x10001aa0:    575f5746    FW_W    DCD    1465866054
        0x10001aa4:    45544952    RITE    DCD    1163151698
        0x10001aa8:    4154535f    _STA    DCD    1096045407
        0x10001aac:    6f205452    RT o    DCD    1864389714
        0x10001ab0:    65736666    ffse    DCD    1702061670
        0x10001ab4:    78253a74    t:%x    DCD    2015705716
        0x10001ab8:    7a69732c    ,siz    DCD    2053731116
        0x10001abc:    78253a65    e:%x    DCD    2015705701
        0x10001ac0:    65686320     che    DCD    1701339936
        0x10001ac4:    75736b63    cksu    DCD    1970498403
        0x10001ac8:    78253a6d    m:%x    DCD    2015705709
        0x10001acc:    00000a0d    ....    DCD    2573
        0x10001ad0:    53414c46    FLAS    DCD    1396788294
        0x10001ad4:    54414448    HDAT    DCD    1413563464
        0x10001ad8:    52455f41    A_ER    DCD    1380278081
        0x10001adc:    20455341    ASE     DCD    541414209
        0x10001ae0:    00000a0d    ....    DCD    2573
        0x10001ae4:    53414c46    FLAS    DCD    1396788294
        0x10001ae8:    54414448    HDAT    DCD    1413563464
        0x10001aec:    52575f41    A_WR    DCD    1381457729
        0x10001af0:    5f455449    ITE_    DCD    1598379081
        0x10001af4:    52415453    STAR    DCD    1380013139
        0x10001af8:    666f2054    T of    DCD    1718558804
        0x10001afc:    74657366    fset    DCD    1952805734
        0x10001b00:    2c78253a    :%x,    DCD    746071354
        0x10001b04:    657a6973    size    DCD    1702521203
        0x10001b08:    2078253a    :%x     DCD    544744762
        0x10001b0c:    63656863    chec    DCD    1667590243
        0x10001b10:    6d75736b    ksum    DCD    1836413803
        0x10001b14:    0d78253a    :%x.    DCD    225977658
        0x10001b18:    0000000a    ....    DCD    10
    $t
        0x10001b1c:    5de8        .]      LDRB     r0,[r5,r7]
        0x10001b1e:    4957        WI      LDR      r1,[pc,#348] ; [0x10001c7c] = 0x200030a4
        0x10001b20:    8809        ..      LDRH     r1,[r1,#0]
        0x10001b22:    1840        @.      ADDS     r0,r0,r1
        0x10001b24:    4955        UI      LDR      r1,[pc,#340] ; [0x10001c7c] = 0x200030a4
        0x10001b26:    8008        ..      STRH     r0,[r1,#0]
        0x10001b28:    1c78        x.      ADDS     r0,r7,#1
        0x10001b2a:    b287        ..      UXTH     r7,r0
        0x10001b2c:    42b7        .B      CMP      r7,r6
        0x10001b2e:    dbf5        ..      BLT      0x10001b1c ; ota_cmd + 740
        0x10001b30:    4628        (F      MOV      r0,r5
        0x10001b32:    17e9        ..      ASRS     r1,r5,#31
        0x10001b34:    0f89        ..      LSRS     r1,r1,#30
        0x10001b36:    1809        ..      ADDS     r1,r1,r0
        0x10001b38:    1089        ..      ASRS     r1,r1,#2
        0x10001b3a:    0089        ..      LSLS     r1,r1,#2
        0x10001b3c:    1a69        i.      SUBS     r1,r5,r1
        0x10001b3e:    d029        ).      BEQ      0x10001b94 ; ota_cmd + 860
        0x10001b40:    4632        2F      MOV      r2,r6
        0x10001b42:    4629        )F      MOV      r1,r5
        0x10001b44:    484e        NH      LDR      r0,[pc,#312] ; [0x10001c80] = 0x20003154
        0x10001b46:    f003fbbb    ....    BL       __aeabi_memcpy ; 0x100052c0
        0x10001b4a:    484e        NH      LDR      r0,[pc,#312] ; [0x10001c84] = 0x2000309c
        0x10001b4c:    7800        .x      LDRB     r0,[r0,#0]
        0x10001b4e:    2802        .(      CMP      r0,#2
        0x10001b50:    d003        ..      BEQ      0x10001b5a ; ota_cmd + 802
        0x10001b52:    484c        LH      LDR      r0,[pc,#304] ; [0x10001c84] = 0x2000309c
        0x10001b54:    7800        .x      LDRB     r0,[r0,#0]
        0x10001b56:    2801        .(      CMP      r0,#1
        0x10001b58:    d10a        ..      BNE      0x10001b70 ; ota_cmd + 824
        0x10001b5a:    494b        KI      LDR      r1,[pc,#300] ; [0x10001c88] = 0x200030a8
        0x10001b5c:    6809        .h      LDR      r1,[r1,#0]
        0x10001b5e:    4a4b        KJ      LDR      r2,[pc,#300] ; [0x10001c8c] = 0x200030a0
        0x10001b60:    8812        ..      LDRH     r2,[r2,#0]
        0x10001b62:    1888        ..      ADDS     r0,r1,r2
        0x10001b64:    4a46        FJ      LDR      r2,[pc,#280] ; [0x10001c80] = 0x20003154
        0x10001b66:    4631        1F      MOV      r1,r6
        0x10001b68:    f002feb2    ....    BL       CodeWrite ; 0x100048d0
        0x10001b6c:    4607        .F      MOV      r7,r0
        0x10001b6e:    e035        5.      B        0x10001bdc ; ota_cmd + 932
        0x10001b70:    4844        DH      LDR      r0,[pc,#272] ; [0x10001c84] = 0x2000309c
        0x10001b72:    7800        .x      LDRB     r0,[r0,#0]
        0x10001b74:    2808        .(      CMP      r0,#8
        0x10001b76:    d003        ..      BEQ      0x10001b80 ; ota_cmd + 840
        0x10001b78:    4842        BH      LDR      r0,[pc,#264] ; [0x10001c84] = 0x2000309c
        0x10001b7a:    7800        .x      LDRB     r0,[r0,#0]
        0x10001b7c:    2807        .(      CMP      r0,#7
        0x10001b7e:    d12d        -.      BNE      0x10001bdc ; ota_cmd + 932
        0x10001b80:    4941        AI      LDR      r1,[pc,#260] ; [0x10001c88] = 0x200030a8
        0x10001b82:    6809        .h      LDR      r1,[r1,#0]
        0x10001b84:    4a41        AJ      LDR      r2,[pc,#260] ; [0x10001c8c] = 0x200030a0
        0x10001b86:    8812        ..      LDRH     r2,[r2,#0]
        0x10001b88:    1888        ..      ADDS     r0,r1,r2
        0x10001b8a:    4a3d        =J      LDR      r2,[pc,#244] ; [0x10001c80] = 0x20003154
        0x10001b8c:    4631        1F      MOV      r1,r6
        0x10001b8e:    f002fe0f    ....    BL       WriteFlashData ; 0x100047b0
        0x10001b92:    e023        #.      B        0x10001bdc ; ota_cmd + 932
        0x10001b94:    483b        ;H      LDR      r0,[pc,#236] ; [0x10001c84] = 0x2000309c
        0x10001b96:    7800        .x      LDRB     r0,[r0,#0]
        0x10001b98:    2802        .(      CMP      r0,#2
        0x10001b9a:    d003        ..      BEQ      0x10001ba4 ; ota_cmd + 876
        0x10001b9c:    4839        9H      LDR      r0,[pc,#228] ; [0x10001c84] = 0x2000309c
        0x10001b9e:    7800        .x      LDRB     r0,[r0,#0]
        0x10001ba0:    2801        .(      CMP      r0,#1
        0x10001ba2:    d10a        ..      BNE      0x10001bba ; ota_cmd + 898
        0x10001ba4:    4938        8I      LDR      r1,[pc,#224] ; [0x10001c88] = 0x200030a8
        0x10001ba6:    6809        .h      LDR      r1,[r1,#0]
        0x10001ba8:    4a38        8J      LDR      r2,[pc,#224] ; [0x10001c8c] = 0x200030a0
        0x10001baa:    8812        ..      LDRH     r2,[r2,#0]
        0x10001bac:    1888        ..      ADDS     r0,r1,r2
        0x10001bae:    462a        *F      MOV      r2,r5
        0x10001bb0:    4631        1F      MOV      r1,r6
        0x10001bb2:    f002fe8d    ....    BL       CodeWrite ; 0x100048d0
        0x10001bb6:    4607        .F      MOV      r7,r0
        0x10001bb8:    e010        ..      B        0x10001bdc ; ota_cmd + 932
        0x10001bba:    4832        2H      LDR      r0,[pc,#200] ; [0x10001c84] = 0x2000309c
        0x10001bbc:    7800        .x      LDRB     r0,[r0,#0]
        0x10001bbe:    2808        .(      CMP      r0,#8
        0x10001bc0:    d003        ..      BEQ      0x10001bca ; ota_cmd + 914
        0x10001bc2:    4830        0H      LDR      r0,[pc,#192] ; [0x10001c84] = 0x2000309c
        0x10001bc4:    7800        .x      LDRB     r0,[r0,#0]
        0x10001bc6:    2807        .(      CMP      r0,#7
        0x10001bc8:    d108        ..      BNE      0x10001bdc ; ota_cmd + 932
        0x10001bca:    492f        /I      LDR      r1,[pc,#188] ; [0x10001c88] = 0x200030a8
        0x10001bcc:    6809        .h      LDR      r1,[r1,#0]
        0x10001bce:    4a2f        /J      LDR      r2,[pc,#188] ; [0x10001c8c] = 0x200030a0
        0x10001bd0:    8812        ..      LDRH     r2,[r2,#0]
        0x10001bd2:    1888        ..      ADDS     r0,r1,r2
        0x10001bd4:    462a        *F      MOV      r2,r5
        0x10001bd6:    4631        1F      MOV      r1,r6
        0x10001bd8:    f002fdea    ....    BL       WriteFlashData ; 0x100047b0
        0x10001bdc:    482b        +H      LDR      r0,[pc,#172] ; [0x10001c8c] = 0x200030a0
        0x10001bde:    8800        ..      LDRH     r0,[r0,#0]
        0x10001be0:    1980        ..      ADDS     r0,r0,r6
        0x10001be2:    492a        *I      LDR      r1,[pc,#168] ; [0x10001c8c] = 0x200030a0
        0x10001be4:    8008        ..      STRH     r0,[r1,#0]
        0x10001be6:    4608        .F      MOV      r0,r1
        0x10001be8:    8800        ..      LDRH     r0,[r0,#0]
        0x10001bea:    4929        )I      LDR      r1,[pc,#164] ; [0x10001c90] = 0x2000309e
        0x10001bec:    8809        ..      LDRH     r1,[r1,#0]
        0x10001bee:    4288        .B      CMP      r0,r1
        0x10001bf0:    db2c        ,.      BLT      0x10001c4c ; ota_cmd + 1044
        0x10001bf2:    4822        "H      LDR      r0,[pc,#136] ; [0x10001c7c] = 0x200030a4
        0x10001bf4:    8800        ..      LDRH     r0,[r0,#0]
        0x10001bf6:    4927        'I      LDR      r1,[pc,#156] ; [0x10001c94] = 0x200030a2
        0x10001bf8:    8809        ..      LDRH     r1,[r1,#0]
        0x10001bfa:    4288        .B      CMP      r0,r1
        0x10001bfc:    d10c        ..      BNE      0x10001c18 ; ota_cmd + 992
        0x10001bfe:    481f        .H      LDR      r0,[pc,#124] ; [0x10001c7c] = 0x200030a4
        0x10001c00:    8802        ..      LDRH     r2,[r0,#0]
        0x10001c02:    4822        "H      LDR      r0,[pc,#136] ; [0x10001c8c] = 0x200030a0
        0x10001c04:    8801        ..      LDRH     r1,[r0,#0]
        0x10001c06:    2000        .       MOVS     r0,#0
        0x10001c08:    f7fffd52    ..R.    BL       CmdFwWriteStart ; 0x100016b0
        0x10001c0c:    bf00        ..      NOP      
        0x10001c0e:    a122        ".      ADR      r1,{pc}+0x8a ; 0x10001c98
        0x10001c10:    2000        .       MOVS     r0,#0
        0x10001c12:    f000fc41    ..A.    BL       SEGGER_RTT_printf ; 0x10002498
        0x10001c16:    e00c        ..      B        0x10001c32 ; ota_cmd + 1018
        0x10001c18:    4818        .H      LDR      r0,[pc,#96] ; [0x10001c7c] = 0x200030a4
        0x10001c1a:    8802        ..      LDRH     r2,[r0,#0]
        0x10001c1c:    481b        .H      LDR      r0,[pc,#108] ; [0x10001c8c] = 0x200030a0
        0x10001c1e:    8801        ..      LDRH     r1,[r0,#0]
        0x10001c20:    2001        .       MOVS     r0,#1
        0x10001c22:    f7fffd45    ..E.    BL       CmdFwWriteStart ; 0x100016b0
        0x10001c26:    bf00        ..      NOP      
        0x10001c28:    a11f        ..      ADR      r1,{pc}+0x80 ; 0x10001ca8
        0x10001c2a:    2000        .       MOVS     r0,#0
        0x10001c2c:    f000fc34    ..4.    BL       SEGGER_RTT_printf ; 0x10002498
        0x10001c30:    bf00        ..      NOP      
        0x10001c32:    bf00        ..      NOP      
        0x10001c34:    4817        .H      LDR      r0,[pc,#92] ; [0x10001c94] = 0x200030a2
        0x10001c36:    8803        ..      LDRH     r3,[r0,#0]
        0x10001c38:    4810        .H      LDR      r0,[pc,#64] ; [0x10001c7c] = 0x200030a4
        0x10001c3a:    8802        ..      LDRH     r2,[r0,#0]
        0x10001c3c:    a11e        ..      ADR      r1,{pc}+0x7c ; 0x10001cb8
        0x10001c3e:    2000        .       MOVS     r0,#0
        0x10001c40:    f000fc2a    ..*.    BL       SEGGER_RTT_printf ; 0x10002498
        0x10001c44:    bf00        ..      NOP      
        0x10001c46:    2000        .       MOVS     r0,#0
        0x10001c48:    f7fffde3    ....    BL       ota_variable_clear ; 0x10001812
        0x10001c4c:    bf00        ..      NOP      
        0x10001c4e:    bdf8        ..      POP      {r3-r7,pc}
    ota_rsp
        0x10001c50:    b570        p.      PUSH     {r4-r6,lr}
        0x10001c52:    4605        .F      MOV      r5,r0
        0x10001c54:    460c        .F      MOV      r4,r1
        0x10001c56:    4823        #H      LDR      r0,[pc,#140] ; [0x10001ce4] = 0x200030b4
        0x10001c58:    6800        .h      LDR      r0,[r0,#0]
        0x10001c5a:    7840        @x      LDRB     r0,[r0,#1]
        0x10001c5c:    1c82        ..      ADDS     r2,r0,#2
        0x10001c5e:    4922        "I      LDR      r1,[pc,#136] ; [0x10001ce8] = 0x200030ac
        0x10001c60:    4628        (F      MOV      r0,r5
        0x10001c62:    f003fb2d    ..-.    BL       __aeabi_memcpy ; 0x100052c0
        0x10001c66:    481f        .H      LDR      r0,[pc,#124] ; [0x10001ce4] = 0x200030b4
        0x10001c68:    6800        .h      LDR      r0,[r0,#0]
        0x10001c6a:    7840        @x      LDRB     r0,[r0,#1]
        0x10001c6c:    1c80        ..      ADDS     r0,r0,#2
        0x10001c6e:    7020         p      STRB     r0,[r4,#0]
        0x10001c70:    481d        .H      LDR      r0,[pc,#116] ; [0x10001ce8] = 0x200030ac
        0x10001c72:    2100        .!      MOVS     r1,#0
        0x10001c74:    6001        .`      STR      r1,[r0,#0]
        0x10001c76:    6041        A`      STR      r1,[r0,#4]
        0x10001c78:    bd70        p.      POP      {r4-r6,pc}
    $d
        0x10001c7a:    0000        ..      DCW    0
        0x10001c7c:    200030a4    .0.     DCD    536883364
        0x10001c80:    20003154    T1.     DCD    536883540
        0x10001c84:    2000309c    .0.     DCD    536883356
        0x10001c88:    200030a8    .0.     DCD    536883368
        0x10001c8c:    200030a0    .0.     DCD    536883360
        0x10001c90:    2000309e    .0.     DCD    536883358
        0x10001c94:    200030a2    .0.     DCD    536883362
        0x10001c98:    74636573    sect    DCD    1952671091
        0x10001c9c:    206e6f69    ion     DCD    544108393
        0x10001ca0:    20214b4f    OK!     DCD    539052879
        0x10001ca4:    00000000    ....    DCD    0
        0x10001ca8:    74636573    sect    DCD    1952671091
        0x10001cac:    206e6f69    ion     DCD    544108393
        0x10001cb0:    6c696166    fail    DCD    1818845542
        0x10001cb4:    00202165    e! .    DCD    2105701
        0x10001cb8:    5f61746f    ota_    DCD    1600222319
        0x10001cbc:    65636572    rece    DCD    1701012850
        0x10001cc0:    5f657669    ive_    DCD    1600484969
        0x10001cc4:    63656863    chec    DCD    1667590243
        0x10001cc8:    78253a6b    k:%x    DCD    2015705707
        0x10001ccc:    61746f20     ota    DCD    1635020576
        0x10001cd0:    6365735f    _sec    DCD    1667593055
        0x10001cd4:    6e6f6974    tion    DCD    1852795252
        0x10001cd8:    6568635f    _che    DCD    1701339999
        0x10001cdc:    253a6b63    ck:%    DCD    624585571
        0x10001ce0:    000a0d78    x...    DCD    658808
        0x10001ce4:    200030b4    .0.     DCD    536883380
        0x10001ce8:    200030ac    .0.     DCD    536883372
    $t
    .text
    Timer_Evt_2s
        0x10001cec:    4810        .H      LDR      r0,[pc,#64] ; [0x10001d30] = 0x200030e0
        0x10001cee:    6800        .h      LDR      r0,[r0,#0]
        0x10001cf0:    21ff        .!      MOVS     r1,#0xff
        0x10001cf2:    3101        .1      ADDS     r1,#1
        0x10001cf4:    4308        .C      ORRS     r0,r0,r1
        0x10001cf6:    490e        .I      LDR      r1,[pc,#56] ; [0x10001d30] = 0x200030e0
        0x10001cf8:    6008        .`      STR      r0,[r1,#0]
        0x10001cfa:    4770        pG      BX       lr
    Timer_EVT_1S_OTA
        0x10001cfc:    480c        .H      LDR      r0,[pc,#48] ; [0x10001d30] = 0x200030e0
        0x10001cfe:    6800        .h      LDR      r0,[r0,#0]
        0x10001d00:    2101        .!      MOVS     r1,#1
        0x10001d02:    0249        I.      LSLS     r1,r1,#9
        0x10001d04:    4308        .C      ORRS     r0,r0,r1
        0x10001d06:    490a        .I      LDR      r1,[pc,#40] ; [0x10001d30] = 0x200030e0
        0x10001d08:    6008        .`      STR      r0,[r1,#0]
        0x10001d0a:    4770        pG      BX       lr
    Timer_Evt_List
        0x10001d0c:    b510        ..      PUSH     {r4,lr}
        0x10001d0e:    2300        .#      MOVS     r3,#0
        0x10001d10:    4a08        .J      LDR      r2,[pc,#32] ; [0x10001d34] = 0x10001ced
        0x10001d12:    217d        }!      MOVS     r1,#0x7d
        0x10001d14:    0109        ..      LSLS     r1,r1,#4
        0x10001d16:    20ff        .       MOVS     r0,#0xff
        0x10001d18:    3001        .0      ADDS     r0,#1
        0x10001d1a:    f000fc2d    ..-.    BL       Timer_Evt_Creat ; 0x10002578
        0x10001d1e:    2300        .#      MOVS     r3,#0
        0x10001d20:    4a05        .J      LDR      r2,[pc,#20] ; [0x10001d38] = 0x10001cfd
        0x10001d22:    217d        }!      MOVS     r1,#0x7d
        0x10001d24:    0109        ..      LSLS     r1,r1,#4
        0x10001d26:    2001        .       MOVS     r0,#1
        0x10001d28:    0240        @.      LSLS     r0,r0,#9
        0x10001d2a:    f000fc25    ..%.    BL       Timer_Evt_Creat ; 0x10002578
        0x10001d2e:    bd10        ..      POP      {r4,pc}
    $d
        0x10001d30:    200030e0    .0.     DCD    536883424
        0x10001d34:    10001ced    ....    DCD    268442861
        0x10001d38:    10001cfd    ....    DCD    268442877
    $t
    .text
    RTC_Evt_185s
        0x10001d3c:    4808        .H      LDR      r0,[pc,#32] ; [0x10001d60] = 0x200030f8
        0x10001d3e:    6800        .h      LDR      r0,[r0,#0]
        0x10001d40:    2104        .!      MOVS     r1,#4
        0x10001d42:    4308        .C      ORRS     r0,r0,r1
        0x10001d44:    4906        .I      LDR      r1,[pc,#24] ; [0x10001d60] = 0x200030f8
        0x10001d46:    6008        .`      STR      r0,[r1,#0]
        0x10001d48:    4770        pG      BX       lr
    RTC_Evt_List
        0x10001d4a:    b510        ..      PUSH     {r4,lr}
        0x10001d4c:    2300        .#      MOVS     r3,#0
        0x10001d4e:    4a05        .J      LDR      r2,[pc,#20] ; [0x10001d64] = 0x10001d3d
        0x10001d50:    21b9        .!      MOVS     r1,#0xb9
        0x10001d52:    2004        .       MOVS     r0,#4
        0x10001d54:    f000ff23    ..#.    BL       RTC_EVT_Creat ; 0x10002b9e
        0x10001d58:    2004        .       MOVS     r0,#4
        0x10001d5a:    f000ffcc    ....    BL       RTC_EVT_Start ; 0x10002cf6
        0x10001d5e:    bd10        ..      POP      {r4,pc}
    $d
        0x10001d60:    200030f8    .0.     DCD    536883448
        0x10001d64:    10001d3d    =...    DCD    268442941
    $t
    .text
    _DoInit
        0x10001d68:    b510        ..      PUSH     {r4,lr}
        0x10001d6a:    4c85        .L      LDR      r4,[pc,#532] ; [0x10001f80] = 0x200031c4
        0x10001d6c:    2001        .       MOVS     r0,#1
        0x10001d6e:    6120         a      STR      r0,[r4,#0x10]
        0x10001d70:    6160        `a      STR      r0,[r4,#0x14]
        0x10001d72:    a084        ..      ADR      r0,{pc}+0x212 ; 0x10001f84
        0x10001d74:    61a0        .a      STR      r0,[r4,#0x18]
        0x10001d76:    4986        .I      LDR      r1,[pc,#536] ; [0x10001f90] = 0x2000320c
        0x10001d78:    61e1        .a      STR      r1,[r4,#0x1c]
        0x10001d7a:    2101        .!      MOVS     r1,#1
        0x10001d7c:    0289        ..      LSLS     r1,r1,#10
        0x10001d7e:    6221        !b      STR      r1,[r4,#0x20]
        0x10001d80:    2100        .!      MOVS     r1,#0
        0x10001d82:    62a1        .b      STR      r1,[r4,#0x28]
        0x10001d84:    6261        ab      STR      r1,[r4,#0x24]
        0x10001d86:    62e1        .b      STR      r1,[r4,#0x2c]
        0x10001d88:    a07e        ~.      ADR      r0,{pc}+0x1fc ; 0x10001f84
        0x10001d8a:    6320         c      STR      r0,[r4,#0x30]
        0x10001d8c:    4981        .I      LDR      r1,[pc,#516] ; [0x10001f94] = 0x2000360c
        0x10001d8e:    6361        ac      STR      r1,[r4,#0x34]
        0x10001d90:    2110        .!      MOVS     r1,#0x10
        0x10001d92:    63a1        .c      STR      r1,[r4,#0x38]
        0x10001d94:    2100        .!      MOVS     r1,#0
        0x10001d96:    6421        !d      STR      r1,[r4,#0x40]
        0x10001d98:    63e1        .c      STR      r1,[r4,#0x3c]
        0x10001d9a:    6461        ad      STR      r1,[r4,#0x44]
        0x10001d9c:    a17e        ~.      ADR      r1,{pc}+0x1fc ; 0x10001f98
        0x10001d9e:    1de0        ..      ADDS     r0,r4,#7
        0x10001da0:    f003fabf    ....    BL       strcpy ; 0x10005322
        0x10001da4:    a17d        }.      ADR      r1,{pc}+0x1f8 ; 0x10001f9c
        0x10001da6:    4620         F      MOV      r0,r4
        0x10001da8:    f003fabb    ....    BL       strcpy ; 0x10005322
        0x10001dac:    2020                MOVS     r0,#0x20
        0x10001dae:    71a0        .q      STRB     r0,[r4,#6]
        0x10001db0:    bd10        ..      POP      {r4,pc}
    _WriteBlocking
        0x10001db2:    b5f7        ..      PUSH     {r0-r2,r4-r7,lr}
        0x10001db4:    b082        ..      SUB      sp,sp,#8
        0x10001db6:    4604        .F      MOV      r4,r0
        0x10001db8:    4617        .F      MOV      r7,r2
        0x10001dba:    2000        .       MOVS     r0,#0
        0x10001dbc:    9001        ..      STR      r0,[sp,#4]
        0x10001dbe:    68e5        .h      LDR      r5,[r4,#0xc]
        0x10001dc0:    bf00        ..      NOP      
        0x10001dc2:    6920         i      LDR      r0,[r4,#0x10]
        0x10001dc4:    9000        ..      STR      r0,[sp,#0]
        0x10001dc6:    9800        ..      LDR      r0,[sp,#0]
        0x10001dc8:    42a8        .B      CMP      r0,r5
        0x10001dca:    d903        ..      BLS      0x10001dd4 ; _WriteBlocking + 34
        0x10001dcc:    9800        ..      LDR      r0,[sp,#0]
        0x10001dce:    1b40        @.      SUBS     r0,r0,r5
        0x10001dd0:    1e46        F.      SUBS     r6,r0,#1
        0x10001dd2:    e004        ..      B        0x10001dde ; _WriteBlocking + 44
        0x10001dd4:    68a1        .h      LDR      r1,[r4,#8]
        0x10001dd6:    9800        ..      LDR      r0,[sp,#0]
        0x10001dd8:    1a28        (.      SUBS     r0,r5,r0
        0x10001dda:    1c40        @.      ADDS     r0,r0,#1
        0x10001ddc:    1a0e        ..      SUBS     r6,r1,r0
        0x10001dde:    68a0        .h      LDR      r0,[r4,#8]
        0x10001de0:    1b40        @.      SUBS     r0,r0,r5
        0x10001de2:    42b0        .B      CMP      r0,r6
        0x10001de4:    d901        ..      BLS      0x10001dea ; _WriteBlocking + 56
        0x10001de6:    4630        0F      MOV      r0,r6
        0x10001de8:    e001        ..      B        0x10001dee ; _WriteBlocking + 60
        0x10001dea:    68a0        .h      LDR      r0,[r4,#8]
        0x10001dec:    1b40        @.      SUBS     r0,r0,r5
        0x10001dee:    4606        .F      MOV      r6,r0
        0x10001df0:    42be        .B      CMP      r6,r7
        0x10001df2:    d201        ..      BCS      0x10001df8 ; _WriteBlocking + 70
        0x10001df4:    4630        0F      MOV      r0,r6
        0x10001df6:    e000        ..      B        0x10001dfa ; _WriteBlocking + 72
        0x10001df8:    4638        8F      MOV      r0,r7
        0x10001dfa:    4606        .F      MOV      r6,r0
        0x10001dfc:    6861        ah      LDR      r1,[r4,#4]
        0x10001dfe:    1948        H.      ADDS     r0,r1,r5
        0x10001e00:    4632        2F      MOV      r2,r6
        0x10001e02:    9903        ..      LDR      r1,[sp,#0xc]
        0x10001e04:    f003fa5c    ..\.    BL       __aeabi_memcpy ; 0x100052c0
        0x10001e08:    9801        ..      LDR      r0,[sp,#4]
        0x10001e0a:    1980        ..      ADDS     r0,r0,r6
        0x10001e0c:    9001        ..      STR      r0,[sp,#4]
        0x10001e0e:    9803        ..      LDR      r0,[sp,#0xc]
        0x10001e10:    1980        ..      ADDS     r0,r0,r6
        0x10001e12:    9003        ..      STR      r0,[sp,#0xc]
        0x10001e14:    1bbf        ..      SUBS     r7,r7,r6
        0x10001e16:    19ad        ..      ADDS     r5,r5,r6
        0x10001e18:    68a0        .h      LDR      r0,[r4,#8]
        0x10001e1a:    42a8        .B      CMP      r0,r5
        0x10001e1c:    d100        ..      BNE      0x10001e20 ; _WriteBlocking + 110
        0x10001e1e:    2500        .%      MOVS     r5,#0
        0x10001e20:    60e5        .`      STR      r5,[r4,#0xc]
        0x10001e22:    2f00        ./      CMP      r7,#0
        0x10001e24:    d1cd        ..      BNE      0x10001dc2 ; _WriteBlocking + 16
        0x10001e26:    9801        ..      LDR      r0,[sp,#4]
        0x10001e28:    b005        ..      ADD      sp,sp,#0x14
        0x10001e2a:    bdf0        ..      POP      {r4-r7,pc}
    _WriteNoCheck
        0x10001e2c:    b5f7        ..      PUSH     {r0-r2,r4-r7,lr}
        0x10001e2e:    b082        ..      SUB      sp,sp,#8
        0x10001e30:    4604        .F      MOV      r4,r0
        0x10001e32:    4615        .F      MOV      r5,r2
        0x10001e34:    68e6        .h      LDR      r6,[r4,#0xc]
        0x10001e36:    68a0        .h      LDR      r0,[r4,#8]
        0x10001e38:    1b87        ..      SUBS     r7,r0,r6
        0x10001e3a:    42af        .B      CMP      r7,r5
        0x10001e3c:    d908        ..      BLS      0x10001e50 ; _WriteNoCheck + 36
        0x10001e3e:    6861        ah      LDR      r1,[r4,#4]
        0x10001e40:    1988        ..      ADDS     r0,r1,r6
        0x10001e42:    462a        *F      MOV      r2,r5
        0x10001e44:    9903        ..      LDR      r1,[sp,#0xc]
        0x10001e46:    f003fa3b    ..;.    BL       __aeabi_memcpy ; 0x100052c0
        0x10001e4a:    1970        p.      ADDS     r0,r6,r5
        0x10001e4c:    60e0        .`      STR      r0,[r4,#0xc]
        0x10001e4e:    e010        ..      B        0x10001e72 ; _WriteNoCheck + 70
        0x10001e50:    9701        ..      STR      r7,[sp,#4]
        0x10001e52:    6861        ah      LDR      r1,[r4,#4]
        0x10001e54:    1988        ..      ADDS     r0,r1,r6
        0x10001e56:    9a01        ..      LDR      r2,[sp,#4]
        0x10001e58:    9903        ..      LDR      r1,[sp,#0xc]
        0x10001e5a:    f003fa31    ..1.    BL       __aeabi_memcpy ; 0x100052c0
        0x10001e5e:    1be8        ..      SUBS     r0,r5,r7
        0x10001e60:    9001        ..      STR      r0,[sp,#4]
        0x10001e62:    9a03        ..      LDR      r2,[sp,#0xc]
        0x10001e64:    19d1        ..      ADDS     r1,r2,r7
        0x10001e66:    6860        `h      LDR      r0,[r4,#4]
        0x10001e68:    9a01        ..      LDR      r2,[sp,#4]
        0x10001e6a:    f003fa29    ..).    BL       __aeabi_memcpy ; 0x100052c0
        0x10001e6e:    9801        ..      LDR      r0,[sp,#4]
        0x10001e70:    60e0        .`      STR      r0,[r4,#0xc]
        0x10001e72:    b005        ..      ADD      sp,sp,#0x14
        0x10001e74:    bdf0        ..      POP      {r4-r7,pc}
    _PostTerminalSwitch
        0x10001e76:    b538        8.      PUSH     {r3-r5,lr}
        0x10001e78:    4605        .F      MOV      r5,r0
        0x10001e7a:    460c        .F      MOV      r4,r1
        0x10001e7c:    21ff        .!      MOVS     r1,#0xff
        0x10001e7e:    4668        hF      MOV      r0,sp
        0x10001e80:    7001        .p      STRB     r1,[r0,#0]
        0x10001e82:    4848        HH      LDR      r0,[pc,#288] ; [0x10001fa4] = 0x200030bc
        0x10001e84:    5d01        .]      LDRB     r1,[r0,r4]
        0x10001e86:    4668        hF      MOV      r0,sp
        0x10001e88:    7041        Ap      STRB     r1,[r0,#1]
        0x10001e8a:    2202        ."      MOVS     r2,#2
        0x10001e8c:    4669        iF      MOV      r1,sp
        0x10001e8e:    4628        (F      MOV      r0,r5
        0x10001e90:    f7ffff8f    ....    BL       _WriteBlocking ; 0x10001db2
        0x10001e94:    bd38        8.      POP      {r3-r5,pc}
    _GetAvailWriteSpace
        0x10001e96:    b510        ..      PUSH     {r4,lr}
        0x10001e98:    4601        .F      MOV      r1,r0
        0x10001e9a:    690a        .i      LDR      r2,[r1,#0x10]
        0x10001e9c:    68cb        .h      LDR      r3,[r1,#0xc]
        0x10001e9e:    429a        .B      CMP      r2,r3
        0x10001ea0:    d804        ..      BHI      0x10001eac ; _GetAvailWriteSpace + 22
        0x10001ea2:    688c        .h      LDR      r4,[r1,#8]
        0x10001ea4:    1e64        d.      SUBS     r4,r4,#1
        0x10001ea6:    1ae4        ..      SUBS     r4,r4,r3
        0x10001ea8:    18a0        ..      ADDS     r0,r4,r2
        0x10001eaa:    e001        ..      B        0x10001eb0 ; _GetAvailWriteSpace + 26
        0x10001eac:    1ad4        ..      SUBS     r4,r2,r3
        0x10001eae:    1e60        `.      SUBS     r0,r4,#1
        0x10001eb0:    bd10        ..      POP      {r4,pc}
    SEGGER_RTT_WriteNoLock
        0x10001eb2:    b5f7        ..      PUSH     {r0-r2,r4-r7,lr}
        0x10001eb4:    b082        ..      SUB      sp,sp,#8
        0x10001eb6:    4607        .F      MOV      r7,r0
        0x10001eb8:    4616        .F      MOV      r6,r2
        0x10001eba:    9803        ..      LDR      r0,[sp,#0xc]
        0x10001ebc:    9001        ..      STR      r0,[sp,#4]
        0x10001ebe:    2018        .       MOVS     r0,#0x18
        0x10001ec0:    4378        xC      MULS     r0,r7,r0
        0x10001ec2:    492f        /I      LDR      r1,[pc,#188] ; [0x10001f80] = 0x200031c4
        0x10001ec4:    3118        .1      ADDS     r1,r1,#0x18
        0x10001ec6:    1840        @.      ADDS     r0,r0,r1
        0x10001ec8:    9000        ..      STR      r0,[sp,#0]
        0x10001eca:    9800        ..      LDR      r0,[sp,#0]
        0x10001ecc:    6940        @i      LDR      r0,[r0,#0x14]
        0x10001ece:    2800        .(      CMP      r0,#0
        0x10001ed0:    d004        ..      BEQ      0x10001edc ; SEGGER_RTT_WriteNoLock + 42
        0x10001ed2:    2801        .(      CMP      r0,#1
        0x10001ed4:    d011        ..      BEQ      0x10001efa ; SEGGER_RTT_WriteNoLock + 72
        0x10001ed6:    2802        .(      CMP      r0,#2
        0x10001ed8:    d126        &.      BNE      0x10001f28 ; SEGGER_RTT_WriteNoLock + 118
        0x10001eda:    e01e        ..      B        0x10001f1a ; SEGGER_RTT_WriteNoLock + 104
        0x10001edc:    9800        ..      LDR      r0,[sp,#0]
        0x10001ede:    f7ffffda    ....    BL       _GetAvailWriteSpace ; 0x10001e96
        0x10001ee2:    4605        .F      MOV      r5,r0
        0x10001ee4:    42b5        .B      CMP      r5,r6
        0x10001ee6:    d201        ..      BCS      0x10001eec ; SEGGER_RTT_WriteNoLock + 58
        0x10001ee8:    2400        .$      MOVS     r4,#0
        0x10001eea:    e005        ..      B        0x10001ef8 ; SEGGER_RTT_WriteNoLock + 70
        0x10001eec:    4634        4F      MOV      r4,r6
        0x10001eee:    4632        2F      MOV      r2,r6
        0x10001ef0:    9901        ..      LDR      r1,[sp,#4]
        0x10001ef2:    9800        ..      LDR      r0,[sp,#0]
        0x10001ef4:    f7ffff9a    ....    BL       _WriteNoCheck ; 0x10001e2c
        0x10001ef8:    e018        ..      B        0x10001f2c ; SEGGER_RTT_WriteNoLock + 122
        0x10001efa:    9800        ..      LDR      r0,[sp,#0]
        0x10001efc:    f7ffffcb    ....    BL       _GetAvailWriteSpace ; 0x10001e96
        0x10001f00:    4605        .F      MOV      r5,r0
        0x10001f02:    42b5        .B      CMP      r5,r6
        0x10001f04:    d201        ..      BCS      0x10001f0a ; SEGGER_RTT_WriteNoLock + 88
        0x10001f06:    4628        (F      MOV      r0,r5
        0x10001f08:    e000        ..      B        0x10001f0c ; SEGGER_RTT_WriteNoLock + 90
        0x10001f0a:    4630        0F      MOV      r0,r6
        0x10001f0c:    4604        .F      MOV      r4,r0
        0x10001f0e:    4622        "F      MOV      r2,r4
        0x10001f10:    9901        ..      LDR      r1,[sp,#4]
        0x10001f12:    9800        ..      LDR      r0,[sp,#0]
        0x10001f14:    f7ffff8a    ....    BL       _WriteNoCheck ; 0x10001e2c
        0x10001f18:    e008        ..      B        0x10001f2c ; SEGGER_RTT_WriteNoLock + 122
        0x10001f1a:    4632        2F      MOV      r2,r6
        0x10001f1c:    9901        ..      LDR      r1,[sp,#4]
        0x10001f1e:    9800        ..      LDR      r0,[sp,#0]
        0x10001f20:    f7ffff47    ..G.    BL       _WriteBlocking ; 0x10001db2
        0x10001f24:    4604        .F      MOV      r4,r0
        0x10001f26:    e001        ..      B        0x10001f2c ; SEGGER_RTT_WriteNoLock + 122
        0x10001f28:    2400        .$      MOVS     r4,#0
        0x10001f2a:    bf00        ..      NOP      
        0x10001f2c:    bf00        ..      NOP      
        0x10001f2e:    4620         F      MOV      r0,r4
        0x10001f30:    b005        ..      ADD      sp,sp,#0x14
        0x10001f32:    bdf0        ..      POP      {r4-r7,pc}
    SEGGER_RTT_Write
        0x10001f34:    b5f8        ..      PUSH     {r3-r7,lr}
        0x10001f36:    4604        .F      MOV      r4,r0
        0x10001f38:    460d        .F      MOV      r5,r1
        0x10001f3a:    4616        .F      MOV      r6,r2
        0x10001f3c:    bf00        ..      NOP      
        0x10001f3e:    4810        .H      LDR      r0,[pc,#64] ; [0x10001f80] = 0x200031c4
        0x10001f40:    7800        .x      LDRB     r0,[r0,#0]
        0x10001f42:    2800        .(      CMP      r0,#0
        0x10001f44:    d101        ..      BNE      0x10001f4a ; SEGGER_RTT_Write + 22
        0x10001f46:    f7ffff0f    ....    BL       _DoInit ; 0x10001d68
        0x10001f4a:    bf00        ..      NOP      
        0x10001f4c:    f3ef8010    ....    MRS      r0,PRIMASK
        0x10001f50:    4607        .F      MOV      r7,r0
        0x10001f52:    2001        .       MOVS     r0,#1
        0x10001f54:    f3808810    ....    MSR      PRIMASK,r0
        0x10001f58:    bf00        ..      NOP      
        0x10001f5a:    bf00        ..      NOP      
        0x10001f5c:    4632        2F      MOV      r2,r6
        0x10001f5e:    4629        )F      MOV      r1,r5
        0x10001f60:    4620         F      MOV      r0,r4
        0x10001f62:    f7ffffa6    ....    BL       SEGGER_RTT_WriteNoLock ; 0x10001eb2
        0x10001f66:    9000        ..      STR      r0,[sp,#0]
        0x10001f68:    b2f8        ..      UXTB     r0,r7
        0x10001f6a:    f3808810    ....    MSR      PRIMASK,r0
        0x10001f6e:    bf00        ..      NOP      
        0x10001f70:    bf00        ..      NOP      
        0x10001f72:    9800        ..      LDR      r0,[sp,#0]
        0x10001f74:    bdf8        ..      POP      {r3-r7,pc}
    SEGGER_RTT_Init
        0x10001f76:    b510        ..      PUSH     {r4,lr}
        0x10001f78:    f7fffef6    ....    BL       _DoInit ; 0x10001d68
        0x10001f7c:    bd10        ..      POP      {r4,pc}
    $d
        0x10001f7e:    0000        ..      DCW    0
        0x10001f80:    200031c4    .1.     DCD    536883652
        0x10001f84:    6d726554    Term    DCD    1836213588
        0x10001f88:    6c616e69    inal    DCD    1818324585
        0x10001f8c:    00000000    ....    DCD    0
        0x10001f90:    2000320c    .2.     DCD    536883724
        0x10001f94:    2000360c    .6.     DCD    536884748
        0x10001f98:    00545452    RTT.    DCD    5526610
        0x10001f9c:    47474553    SEGG    DCD    1195853139
        0x10001fa0:    00005245    ER..    DCD    21061
        0x10001fa4:    200030bc    .0.     DCD    536883388
    $t
    .text
    _StoreChar
        0x10001fa8:    b570        p.      PUSH     {r4-r6,lr}
        0x10001faa:    4604        .F      MOV      r4,r0
        0x10001fac:    460e        .F      MOV      r6,r1
        0x10001fae:    68a5        .h      LDR      r5,[r4,#8]
        0x10001fb0:    1c68        h.      ADDS     r0,r5,#1
        0x10001fb2:    6861        ah      LDR      r1,[r4,#4]
        0x10001fb4:    4281        .B      CMP      r1,r0
        0x10001fb6:    d306        ..      BCC      0x10001fc6 ; _StoreChar + 30
        0x10001fb8:    6820         h      LDR      r0,[r4,#0]
        0x10001fba:    5546        FU      STRB     r6,[r0,r5]
        0x10001fbc:    1c68        h.      ADDS     r0,r5,#1
        0x10001fbe:    60a0        .`      STR      r0,[r4,#8]
        0x10001fc0:    68e0        .h      LDR      r0,[r4,#0xc]
        0x10001fc2:    1c40        @.      ADDS     r0,r0,#1
        0x10001fc4:    60e0        .`      STR      r0,[r4,#0xc]
        0x10001fc6:    6861        ah      LDR      r1,[r4,#4]
        0x10001fc8:    68a0        .h      LDR      r0,[r4,#8]
        0x10001fca:    4288        .B      CMP      r0,r1
        0x10001fcc:    d10d        ..      BNE      0x10001fea ; _StoreChar + 66
        0x10001fce:    68a2        .h      LDR      r2,[r4,#8]
        0x10001fd0:    6821        !h      LDR      r1,[r4,#0]
        0x10001fd2:    6920         i      LDR      r0,[r4,#0x10]
        0x10001fd4:    f7ffffae    ....    BL       SEGGER_RTT_Write ; 0x10001f34
        0x10001fd8:    68a1        .h      LDR      r1,[r4,#8]
        0x10001fda:    4288        .B      CMP      r0,r1
        0x10001fdc:    d003        ..      BEQ      0x10001fe6 ; _StoreChar + 62
        0x10001fde:    2000        .       MOVS     r0,#0
        0x10001fe0:    43c0        .C      MVNS     r0,r0
        0x10001fe2:    60e0        .`      STR      r0,[r4,#0xc]
        0x10001fe4:    e001        ..      B        0x10001fea ; _StoreChar + 66
        0x10001fe6:    2000        .       MOVS     r0,#0
        0x10001fe8:    60a0        .`      STR      r0,[r4,#8]
        0x10001fea:    bd70        p.      POP      {r4-r6,pc}
    _PrintUnsigned
        0x10001fec:    b5ff        ..      PUSH     {r0-r7,lr}
        0x10001fee:    b085        ..      SUB      sp,sp,#0x14
        0x10001ff0:    4606        .F      MOV      r6,r0
        0x10001ff2:    4617        .F      MOV      r7,r2
        0x10001ff4:    461d        .F      MOV      r5,r3
        0x10001ff6:    9c0e        ..      LDR      r4,[sp,#0x38]
        0x10001ff8:    9806        ..      LDR      r0,[sp,#0x18]
        0x10001ffa:    9002        ..      STR      r0,[sp,#8]
        0x10001ffc:    2001        .       MOVS     r0,#1
        0x10001ffe:    9003        ..      STR      r0,[sp,#0xc]
        0x10002000:    9001        ..      STR      r0,[sp,#4]
        0x10002002:    e007        ..      B        0x10002014 ; _PrintUnsigned + 40
        0x10002004:    4639        9F      MOV      r1,r7
        0x10002006:    9802        ..      LDR      r0,[sp,#8]
        0x10002008:    f003f930    ..0.    BL       __aeabi_uidiv ; 0x1000526c
        0x1000200c:    9002        ..      STR      r0,[sp,#8]
        0x1000200e:    9801        ..      LDR      r0,[sp,#4]
        0x10002010:    1c40        @.      ADDS     r0,r0,#1
        0x10002012:    9001        ..      STR      r0,[sp,#4]
        0x10002014:    9802        ..      LDR      r0,[sp,#8]
        0x10002016:    42b8        .B      CMP      r0,r7
        0x10002018:    d2f4        ..      BCS      0x10002004 ; _PrintUnsigned + 24
        0x1000201a:    9801        ..      LDR      r0,[sp,#4]
        0x1000201c:    4285        .B      CMP      r5,r0
        0x1000201e:    d900        ..      BLS      0x10002022 ; _PrintUnsigned + 54
        0x10002020:    9501        ..      STR      r5,[sp,#4]
        0x10002022:    980f        ..      LDR      r0,[sp,#0x3c]
        0x10002024:    07c0        ..      LSLS     r0,r0,#31
        0x10002026:    0fc0        ..      LSRS     r0,r0,#31
        0x10002028:    2800        .(      CMP      r0,#0
        0x1000202a:    d11d        ..      BNE      0x10002068 ; _PrintUnsigned + 124
        0x1000202c:    2c00        .,      CMP      r4,#0
        0x1000202e:    d01b        ..      BEQ      0x10002068 ; _PrintUnsigned + 124
        0x10002030:    2102        .!      MOVS     r1,#2
        0x10002032:    980f        ..      LDR      r0,[sp,#0x3c]
        0x10002034:    4008        .@      ANDS     r0,r0,r1
        0x10002036:    2802        .(      CMP      r0,#2
        0x10002038:    d104        ..      BNE      0x10002044 ; _PrintUnsigned + 88
        0x1000203a:    2d00        .-      CMP      r5,#0
        0x1000203c:    d102        ..      BNE      0x10002044 ; _PrintUnsigned + 88
        0x1000203e:    2030        0       MOVS     r0,#0x30
        0x10002040:    9000        ..      STR      r0,[sp,#0]
        0x10002042:    e001        ..      B        0x10002048 ; _PrintUnsigned + 92
        0x10002044:    2020                MOVS     r0,#0x20
        0x10002046:    9000        ..      STR      r0,[sp,#0]
        0x10002048:    e008        ..      B        0x1000205c ; _PrintUnsigned + 112
        0x1000204a:    1e64        d.      SUBS     r4,r4,#1
        0x1000204c:    4630        0F      MOV      r0,r6
        0x1000204e:    9900        ..      LDR      r1,[sp,#0]
        0x10002050:    f7ffffaa    ....    BL       _StoreChar ; 0x10001fa8
        0x10002054:    68f0        .h      LDR      r0,[r6,#0xc]
        0x10002056:    2800        .(      CMP      r0,#0
        0x10002058:    da00        ..      BGE      0x1000205c ; _PrintUnsigned + 112
        0x1000205a:    e004        ..      B        0x10002066 ; _PrintUnsigned + 122
        0x1000205c:    2c00        .,      CMP      r4,#0
        0x1000205e:    d002        ..      BEQ      0x10002066 ; _PrintUnsigned + 122
        0x10002060:    9801        ..      LDR      r0,[sp,#4]
        0x10002062:    42a0        .B      CMP      r0,r4
        0x10002064:    d3f1        ..      BCC      0x1000204a ; _PrintUnsigned + 94
        0x10002066:    bf00        ..      NOP      
        0x10002068:    68f0        .h      LDR      r0,[r6,#0xc]
        0x1000206a:    2800        .(      CMP      r0,#0
        0x1000206c:    db48        H.      BLT      0x10002100 ; _PrintUnsigned + 276
        0x1000206e:    e00f        ..      B        0x10002090 ; _PrintUnsigned + 164
        0x10002070:    2d01        .-      CMP      r5,#1
        0x10002072:    d901        ..      BLS      0x10002078 ; _PrintUnsigned + 140
        0x10002074:    1e6d        m.      SUBS     r5,r5,#1
        0x10002076:    e008        ..      B        0x1000208a ; _PrintUnsigned + 158
        0x10002078:    9903        ..      LDR      r1,[sp,#0xc]
        0x1000207a:    9806        ..      LDR      r0,[sp,#0x18]
        0x1000207c:    f003f8f6    ....    BL       __aeabi_uidiv ; 0x1000526c
        0x10002080:    9004        ..      STR      r0,[sp,#0x10]
        0x10002082:    9804        ..      LDR      r0,[sp,#0x10]
        0x10002084:    42b8        .B      CMP      r0,r7
        0x10002086:    d200        ..      BCS      0x1000208a ; _PrintUnsigned + 158
        0x10002088:    e003        ..      B        0x10002092 ; _PrintUnsigned + 166
        0x1000208a:    9803        ..      LDR      r0,[sp,#0xc]
        0x1000208c:    4378        xC      MULS     r0,r7,r0
        0x1000208e:    9003        ..      STR      r0,[sp,#0xc]
        0x10002090:    e7ee        ..      B        0x10002070 ; _PrintUnsigned + 132
        0x10002092:    bf00        ..      NOP      
        0x10002094:    bf00        ..      NOP      
        0x10002096:    9903        ..      LDR      r1,[sp,#0xc]
        0x10002098:    9806        ..      LDR      r0,[sp,#0x18]
        0x1000209a:    f003f8e7    ....    BL       __aeabi_uidiv ; 0x1000526c
        0x1000209e:    9004        ..      STR      r0,[sp,#0x10]
        0x100020a0:    9903        ..      LDR      r1,[sp,#0xc]
        0x100020a2:    9804        ..      LDR      r0,[sp,#0x10]
        0x100020a4:    4348        HC      MULS     r0,r1,r0
        0x100020a6:    9906        ..      LDR      r1,[sp,#0x18]
        0x100020a8:    1a08        ..      SUBS     r0,r1,r0
        0x100020aa:    9006        ..      STR      r0,[sp,#0x18]
        0x100020ac:    4af7        .J      LDR      r2,[pc,#988] ; [0x1000248c] = 0x100063fe
        0x100020ae:    9804        ..      LDR      r0,[sp,#0x10]
        0x100020b0:    5c11        .\      LDRB     r1,[r2,r0]
        0x100020b2:    4630        0F      MOV      r0,r6
        0x100020b4:    f7ffff78    ..x.    BL       _StoreChar ; 0x10001fa8
        0x100020b8:    68f0        .h      LDR      r0,[r6,#0xc]
        0x100020ba:    2800        .(      CMP      r0,#0
        0x100020bc:    da00        ..      BGE      0x100020c0 ; _PrintUnsigned + 212
        0x100020be:    e007        ..      B        0x100020d0 ; _PrintUnsigned + 228
        0x100020c0:    4639        9F      MOV      r1,r7
        0x100020c2:    9803        ..      LDR      r0,[sp,#0xc]
        0x100020c4:    f003f8d2    ....    BL       __aeabi_uidiv ; 0x1000526c
        0x100020c8:    9003        ..      STR      r0,[sp,#0xc]
        0x100020ca:    9803        ..      LDR      r0,[sp,#0xc]
        0x100020cc:    2800        .(      CMP      r0,#0
        0x100020ce:    d1e2        ..      BNE      0x10002096 ; _PrintUnsigned + 170
        0x100020d0:    bf00        ..      NOP      
        0x100020d2:    980f        ..      LDR      r0,[sp,#0x3c]
        0x100020d4:    07c0        ..      LSLS     r0,r0,#31
        0x100020d6:    0fc0        ..      LSRS     r0,r0,#31
        0x100020d8:    2800        .(      CMP      r0,#0
        0x100020da:    d011        ..      BEQ      0x10002100 ; _PrintUnsigned + 276
        0x100020dc:    2c00        .,      CMP      r4,#0
        0x100020de:    d00f        ..      BEQ      0x10002100 ; _PrintUnsigned + 276
        0x100020e0:    e008        ..      B        0x100020f4 ; _PrintUnsigned + 264
        0x100020e2:    1e64        d.      SUBS     r4,r4,#1
        0x100020e4:    2120         !      MOVS     r1,#0x20
        0x100020e6:    4630        0F      MOV      r0,r6
        0x100020e8:    f7ffff5e    ..^.    BL       _StoreChar ; 0x10001fa8
        0x100020ec:    68f0        .h      LDR      r0,[r6,#0xc]
        0x100020ee:    2800        .(      CMP      r0,#0
        0x100020f0:    da00        ..      BGE      0x100020f4 ; _PrintUnsigned + 264
        0x100020f2:    e004        ..      B        0x100020fe ; _PrintUnsigned + 274
        0x100020f4:    2c00        .,      CMP      r4,#0
        0x100020f6:    d002        ..      BEQ      0x100020fe ; _PrintUnsigned + 274
        0x100020f8:    9801        ..      LDR      r0,[sp,#4]
        0x100020fa:    42a0        .B      CMP      r0,r4
        0x100020fc:    d3f1        ..      BCC      0x100020e2 ; _PrintUnsigned + 246
        0x100020fe:    bf00        ..      NOP      
        0x10002100:    b009        ..      ADD      sp,sp,#0x24
        0x10002102:    bdf0        ..      POP      {r4-r7,pc}
    _PrintInt
        0x10002104:    b5ff        ..      PUSH     {r0-r7,lr}
        0x10002106:    b085        ..      SUB      sp,sp,#0x14
        0x10002108:    4606        .F      MOV      r6,r0
        0x1000210a:    460f        .F      MOV      r7,r1
        0x1000210c:    9d0f        ..      LDR      r5,[sp,#0x3c]
        0x1000210e:    9c0e        ..      LDR      r4,[sp,#0x38]
        0x10002110:    2f00        ./      CMP      r7,#0
        0x10002112:    da01        ..      BGE      0x10002118 ; _PrintInt + 20
        0x10002114:    4278        xB      RSBS     r0,r7,#0
        0x10002116:    e000        ..      B        0x1000211a ; _PrintInt + 22
        0x10002118:    4638        8F      MOV      r0,r7
        0x1000211a:    9003        ..      STR      r0,[sp,#0xc]
        0x1000211c:    2001        .       MOVS     r0,#1
        0x1000211e:    9004        ..      STR      r0,[sp,#0x10]
        0x10002120:    e007        ..      B        0x10002132 ; _PrintInt + 46
        0x10002122:    9907        ..      LDR      r1,[sp,#0x1c]
        0x10002124:    9803        ..      LDR      r0,[sp,#0xc]
        0x10002126:    f003f8b7    ....    BL       __aeabi_idiv ; 0x10005298
        0x1000212a:    9003        ..      STR      r0,[sp,#0xc]
        0x1000212c:    9804        ..      LDR      r0,[sp,#0x10]
        0x1000212e:    1c40        @.      ADDS     r0,r0,#1
        0x10002130:    9004        ..      STR      r0,[sp,#0x10]
        0x10002132:    9907        ..      LDR      r1,[sp,#0x1c]
        0x10002134:    9803        ..      LDR      r0,[sp,#0xc]
        0x10002136:    4288        .B      CMP      r0,r1
        0x10002138:    daf3        ..      BGE      0x10002122 ; _PrintInt + 30
        0x1000213a:    9904        ..      LDR      r1,[sp,#0x10]
        0x1000213c:    9808        ..      LDR      r0,[sp,#0x20]
        0x1000213e:    4288        .B      CMP      r0,r1
        0x10002140:    d901        ..      BLS      0x10002146 ; _PrintInt + 66
        0x10002142:    9808        ..      LDR      r0,[sp,#0x20]
        0x10002144:    9004        ..      STR      r0,[sp,#0x10]
        0x10002146:    2c00        .,      CMP      r4,#0
        0x10002148:    d006        ..      BEQ      0x10002158 ; _PrintInt + 84
        0x1000214a:    2f00        ./      CMP      r7,#0
        0x1000214c:    db03        ..      BLT      0x10002156 ; _PrintInt + 82
        0x1000214e:    2004        .       MOVS     r0,#4
        0x10002150:    4028        (@      ANDS     r0,r0,r5
        0x10002152:    2804        .(      CMP      r0,#4
        0x10002154:    d100        ..      BNE      0x10002158 ; _PrintInt + 84
        0x10002156:    1e64        d.      SUBS     r4,r4,#1
        0x10002158:    2002        .       MOVS     r0,#2
        0x1000215a:    4028        (@      ANDS     r0,r0,r5
        0x1000215c:    2800        .(      CMP      r0,#0
        0x1000215e:    d002        ..      BEQ      0x10002166 ; _PrintInt + 98
        0x10002160:    9808        ..      LDR      r0,[sp,#0x20]
        0x10002162:    2800        .(      CMP      r0,#0
        0x10002164:    d015        ..      BEQ      0x10002192 ; _PrintInt + 142
        0x10002166:    07e8        ..      LSLS     r0,r5,#31
        0x10002168:    0fc0        ..      LSRS     r0,r0,#31
        0x1000216a:    2800        .(      CMP      r0,#0
        0x1000216c:    d111        ..      BNE      0x10002192 ; _PrintInt + 142
        0x1000216e:    2c00        .,      CMP      r4,#0
        0x10002170:    d00f        ..      BEQ      0x10002192 ; _PrintInt + 142
        0x10002172:    e008        ..      B        0x10002186 ; _PrintInt + 130
        0x10002174:    1e64        d.      SUBS     r4,r4,#1
        0x10002176:    2120         !      MOVS     r1,#0x20
        0x10002178:    4630        0F      MOV      r0,r6
        0x1000217a:    f7ffff15    ....    BL       _StoreChar ; 0x10001fa8
        0x1000217e:    68f0        .h      LDR      r0,[r6,#0xc]
        0x10002180:    2800        .(      CMP      r0,#0
        0x10002182:    da00        ..      BGE      0x10002186 ; _PrintInt + 130
        0x10002184:    e004        ..      B        0x10002190 ; _PrintInt + 140
        0x10002186:    2c00        .,      CMP      r4,#0
        0x10002188:    d002        ..      BEQ      0x10002190 ; _PrintInt + 140
        0x1000218a:    9804        ..      LDR      r0,[sp,#0x10]
        0x1000218c:    42a0        .B      CMP      r0,r4
        0x1000218e:    d3f1        ..      BCC      0x10002174 ; _PrintInt + 112
        0x10002190:    bf00        ..      NOP      
        0x10002192:    68f0        .h      LDR      r0,[r6,#0xc]
        0x10002194:    2800        .(      CMP      r0,#0
        0x10002196:    db3a        :.      BLT      0x1000220e ; _PrintInt + 266
        0x10002198:    2f00        ./      CMP      r7,#0
        0x1000219a:    da05        ..      BGE      0x100021a8 ; _PrintInt + 164
        0x1000219c:    427f        .B      RSBS     r7,r7,#0
        0x1000219e:    212d        -!      MOVS     r1,#0x2d
        0x100021a0:    4630        0F      MOV      r0,r6
        0x100021a2:    f7ffff01    ....    BL       _StoreChar ; 0x10001fa8
        0x100021a6:    e007        ..      B        0x100021b8 ; _PrintInt + 180
        0x100021a8:    2004        .       MOVS     r0,#4
        0x100021aa:    4028        (@      ANDS     r0,r0,r5
        0x100021ac:    2804        .(      CMP      r0,#4
        0x100021ae:    d103        ..      BNE      0x100021b8 ; _PrintInt + 180
        0x100021b0:    212b        +!      MOVS     r1,#0x2b
        0x100021b2:    4630        0F      MOV      r0,r6
        0x100021b4:    f7fffef8    ....    BL       _StoreChar ; 0x10001fa8
        0x100021b8:    68f0        .h      LDR      r0,[r6,#0xc]
        0x100021ba:    2800        .(      CMP      r0,#0
        0x100021bc:    db27        '.      BLT      0x1000220e ; _PrintInt + 266
        0x100021be:    2002        .       MOVS     r0,#2
        0x100021c0:    4028        (@      ANDS     r0,r0,r5
        0x100021c2:    2802        .(      CMP      r0,#2
        0x100021c4:    d118        ..      BNE      0x100021f8 ; _PrintInt + 244
        0x100021c6:    07e8        ..      LSLS     r0,r5,#31
        0x100021c8:    0fc0        ..      LSRS     r0,r0,#31
        0x100021ca:    2800        .(      CMP      r0,#0
        0x100021cc:    d114        ..      BNE      0x100021f8 ; _PrintInt + 244
        0x100021ce:    9808        ..      LDR      r0,[sp,#0x20]
        0x100021d0:    2800        .(      CMP      r0,#0
        0x100021d2:    d111        ..      BNE      0x100021f8 ; _PrintInt + 244
        0x100021d4:    2c00        .,      CMP      r4,#0
        0x100021d6:    d00f        ..      BEQ      0x100021f8 ; _PrintInt + 244
        0x100021d8:    e008        ..      B        0x100021ec ; _PrintInt + 232
        0x100021da:    1e64        d.      SUBS     r4,r4,#1
        0x100021dc:    2130        0!      MOVS     r1,#0x30
        0x100021de:    4630        0F      MOV      r0,r6
        0x100021e0:    f7fffee2    ....    BL       _StoreChar ; 0x10001fa8
        0x100021e4:    68f0        .h      LDR      r0,[r6,#0xc]
        0x100021e6:    2800        .(      CMP      r0,#0
        0x100021e8:    da00        ..      BGE      0x100021ec ; _PrintInt + 232
        0x100021ea:    e004        ..      B        0x100021f6 ; _PrintInt + 242
        0x100021ec:    2c00        .,      CMP      r4,#0
        0x100021ee:    d002        ..      BEQ      0x100021f6 ; _PrintInt + 242
        0x100021f0:    9804        ..      LDR      r0,[sp,#0x10]
        0x100021f2:    42a0        .B      CMP      r0,r4
        0x100021f4:    d3f1        ..      BCC      0x100021da ; _PrintInt + 214
        0x100021f6:    bf00        ..      NOP      
        0x100021f8:    68f0        .h      LDR      r0,[r6,#0xc]
        0x100021fa:    2800        .(      CMP      r0,#0
        0x100021fc:    db07        ..      BLT      0x1000220e ; _PrintInt + 266
        0x100021fe:    9501        ..      STR      r5,[sp,#4]
        0x10002200:    9400        ..      STR      r4,[sp,#0]
        0x10002202:    4639        9F      MOV      r1,r7
        0x10002204:    4630        0F      MOV      r0,r6
        0x10002206:    9b08        ..      LDR      r3,[sp,#0x20]
        0x10002208:    9a07        ..      LDR      r2,[sp,#0x1c]
        0x1000220a:    f7fffeef    ....    BL       _PrintUnsigned ; 0x10001fec
        0x1000220e:    b009        ..      ADD      sp,sp,#0x24
        0x10002210:    bdf0        ..      POP      {r4-r7,pc}
    SEGGER_RTT_vprintf
        0x10002212:    b5f7        ..      PUSH     {r0-r2,r4-r7,lr}
        0x10002214:    b09e        ..      SUB      sp,sp,#0x78
        0x10002216:    460d        .F      MOV      r5,r1
        0x10002218:    4614        .F      MOV      r4,r2
        0x1000221a:    a806        ..      ADD      r0,sp,#0x18
        0x1000221c:    9019        ..      STR      r0,[sp,#0x64]
        0x1000221e:    2040        @       MOVS     r0,#0x40
        0x10002220:    901a        ..      STR      r0,[sp,#0x68]
        0x10002222:    2000        .       MOVS     r0,#0
        0x10002224:    901b        ..      STR      r0,[sp,#0x6c]
        0x10002226:    981e        ..      LDR      r0,[sp,#0x78]
        0x10002228:    901d        ..      STR      r0,[sp,#0x74]
        0x1000222a:    2000        .       MOVS     r0,#0
        0x1000222c:    901c        ..      STR      r0,[sp,#0x70]
        0x1000222e:    bf00        ..      NOP      
        0x10002230:    782e        .x      LDRB     r6,[r5,#0]
        0x10002232:    1c6d        m.      ADDS     r5,r5,#1
        0x10002234:    2e00        ..      CMP      r6,#0
        0x10002236:    d100        ..      BNE      0x1000223a ; SEGGER_RTT_vprintf + 40
        0x10002238:    e115        ..      B        0x10002466 ; SEGGER_RTT_vprintf + 596
        0x1000223a:    2e25        %.      CMP      r6,#0x25
        0x1000223c:    d172        r.      BNE      0x10002324 ; SEGGER_RTT_vprintf + 274
        0x1000223e:    2700        .'      MOVS     r7,#0
        0x10002240:    2001        .       MOVS     r0,#1
        0x10002242:    9018        ..      STR      r0,[sp,#0x60]
        0x10002244:    bf00        ..      NOP      
        0x10002246:    782e        .x      LDRB     r6,[r5,#0]
        0x10002248:    2e23        #.      CMP      r6,#0x23
        0x1000224a:    d012        ..      BEQ      0x10002272 ; SEGGER_RTT_vprintf + 96
        0x1000224c:    2e2b        +.      CMP      r6,#0x2b
        0x1000224e:    d00c        ..      BEQ      0x1000226a ; SEGGER_RTT_vprintf + 88
        0x10002250:    2e2d        -.      CMP      r6,#0x2d
        0x10002252:    d002        ..      BEQ      0x1000225a ; SEGGER_RTT_vprintf + 72
        0x10002254:    2e30        0.      CMP      r6,#0x30
        0x10002256:    d110        ..      BNE      0x1000227a ; SEGGER_RTT_vprintf + 104
        0x10002258:    e003        ..      B        0x10002262 ; SEGGER_RTT_vprintf + 80
        0x1000225a:    2001        .       MOVS     r0,#1
        0x1000225c:    4307        .C      ORRS     r7,r7,r0
        0x1000225e:    1c6d        m.      ADDS     r5,r5,#1
        0x10002260:    e00e        ..      B        0x10002280 ; SEGGER_RTT_vprintf + 110
        0x10002262:    2002        .       MOVS     r0,#2
        0x10002264:    4307        .C      ORRS     r7,r7,r0
        0x10002266:    1c6d        m.      ADDS     r5,r5,#1
        0x10002268:    e00a        ..      B        0x10002280 ; SEGGER_RTT_vprintf + 110
        0x1000226a:    2004        .       MOVS     r0,#4
        0x1000226c:    4307        .C      ORRS     r7,r7,r0
        0x1000226e:    1c6d        m.      ADDS     r5,r5,#1
        0x10002270:    e006        ..      B        0x10002280 ; SEGGER_RTT_vprintf + 110
        0x10002272:    2008        .       MOVS     r0,#8
        0x10002274:    4307        .C      ORRS     r7,r7,r0
        0x10002276:    1c6d        m.      ADDS     r5,r5,#1
        0x10002278:    e002        ..      B        0x10002280 ; SEGGER_RTT_vprintf + 110
        0x1000227a:    2000        .       MOVS     r0,#0
        0x1000227c:    9018        ..      STR      r0,[sp,#0x60]
        0x1000227e:    bf00        ..      NOP      
        0x10002280:    bf00        ..      NOP      
        0x10002282:    9818        ..      LDR      r0,[sp,#0x60]
        0x10002284:    2800        .(      CMP      r0,#0
        0x10002286:    d1de        ..      BNE      0x10002246 ; SEGGER_RTT_vprintf + 52
        0x10002288:    9016        ..      STR      r0,[sp,#0x58]
        0x1000228a:    bf00        ..      NOP      
        0x1000228c:    782e        .x      LDRB     r6,[r5,#0]
        0x1000228e:    2e30        0.      CMP      r6,#0x30
        0x10002290:    db01        ..      BLT      0x10002296 ; SEGGER_RTT_vprintf + 132
        0x10002292:    2e39        9.      CMP      r6,#0x39
        0x10002294:    dd00        ..      BLE      0x10002298 ; SEGGER_RTT_vprintf + 134
        0x10002296:    e008        ..      B        0x100022aa ; SEGGER_RTT_vprintf + 152
        0x10002298:    1c6d        m.      ADDS     r5,r5,#1
        0x1000229a:    210a        .!      MOVS     r1,#0xa
        0x1000229c:    9816        ..      LDR      r0,[sp,#0x58]
        0x1000229e:    4348        HC      MULS     r0,r1,r0
        0x100022a0:    4631        1F      MOV      r1,r6
        0x100022a2:    3930        09      SUBS     r1,r1,#0x30
        0x100022a4:    1840        @.      ADDS     r0,r0,r1
        0x100022a6:    9016        ..      STR      r0,[sp,#0x58]
        0x100022a8:    e7f0        ..      B        0x1000228c ; SEGGER_RTT_vprintf + 122
        0x100022aa:    bf00        ..      NOP      
        0x100022ac:    2000        .       MOVS     r0,#0
        0x100022ae:    9017        ..      STR      r0,[sp,#0x5c]
        0x100022b0:    782e        .x      LDRB     r6,[r5,#0]
        0x100022b2:    2e2e        ..      CMP      r6,#0x2e
        0x100022b4:    d111        ..      BNE      0x100022da ; SEGGER_RTT_vprintf + 200
        0x100022b6:    1c6d        m.      ADDS     r5,r5,#1
        0x100022b8:    bf00        ..      NOP      
        0x100022ba:    782e        .x      LDRB     r6,[r5,#0]
        0x100022bc:    2e30        0.      CMP      r6,#0x30
        0x100022be:    db01        ..      BLT      0x100022c4 ; SEGGER_RTT_vprintf + 178
        0x100022c0:    2e39        9.      CMP      r6,#0x39
        0x100022c2:    dd00        ..      BLE      0x100022c6 ; SEGGER_RTT_vprintf + 180
        0x100022c4:    e008        ..      B        0x100022d8 ; SEGGER_RTT_vprintf + 198
        0x100022c6:    1c6d        m.      ADDS     r5,r5,#1
        0x100022c8:    210a        .!      MOVS     r1,#0xa
        0x100022ca:    9817        ..      LDR      r0,[sp,#0x5c]
        0x100022cc:    4348        HC      MULS     r0,r1,r0
        0x100022ce:    4631        1F      MOV      r1,r6
        0x100022d0:    3930        09      SUBS     r1,r1,#0x30
        0x100022d2:    1840        @.      ADDS     r0,r0,r1
        0x100022d4:    9017        ..      STR      r0,[sp,#0x5c]
        0x100022d6:    e7f0        ..      B        0x100022ba ; SEGGER_RTT_vprintf + 168
        0x100022d8:    bf00        ..      NOP      
        0x100022da:    782e        .x      LDRB     r6,[r5,#0]
        0x100022dc:    bf00        ..      NOP      
        0x100022de:    2e6c        l.      CMP      r6,#0x6c
        0x100022e0:    d001        ..      BEQ      0x100022e6 ; SEGGER_RTT_vprintf + 212
        0x100022e2:    2e68        h.      CMP      r6,#0x68
        0x100022e4:    d102        ..      BNE      0x100022ec ; SEGGER_RTT_vprintf + 218
        0x100022e6:    1c6d        m.      ADDS     r5,r5,#1
        0x100022e8:    782e        .x      LDRB     r6,[r5,#0]
        0x100022ea:    e000        ..      B        0x100022ee ; SEGGER_RTT_vprintf + 220
        0x100022ec:    e000        ..      B        0x100022f0 ; SEGGER_RTT_vprintf + 222
        0x100022ee:    e7f6        ..      B        0x100022de ; SEGGER_RTT_vprintf + 204
        0x100022f0:    bf00        ..      NOP      
        0x100022f2:    2e66        f.      CMP      r6,#0x66
        0x100022f4:    d052        R.      BEQ      0x1000239c ; SEGGER_RTT_vprintf + 394
        0x100022f6:    dc0c        ..      BGT      0x10002312 ; SEGGER_RTT_vprintf + 256
        0x100022f8:    2e58        X.      CMP      r6,#0x58
        0x100022fa:    d040        @.      BEQ      0x1000237e ; SEGGER_RTT_vprintf + 364
        0x100022fc:    dc04        ..      BGT      0x10002308 ; SEGGER_RTT_vprintf + 246
        0x100022fe:    2e25        %.      CMP      r6,#0x25
        0x10002300:    d075        u.      BEQ      0x100023ee ; SEGGER_RTT_vprintf + 476
        0x10002302:    2e46        F.      CMP      r6,#0x46
        0x10002304:    d174        t.      BNE      0x100023f0 ; SEGGER_RTT_vprintf + 478
        0x10002306:    e04a        J.      B        0x1000239e ; SEGGER_RTT_vprintf + 396
        0x10002308:    2e63        c.      CMP      r6,#0x63
        0x1000230a:    d00c        ..      BEQ      0x10002326 ; SEGGER_RTT_vprintf + 276
        0x1000230c:    2e64        d.      CMP      r6,#0x64
        0x1000230e:    d1f9        ..      BNE      0x10002304 ; SEGGER_RTT_vprintf + 242
        0x10002310:    e016        ..      B        0x10002340 ; SEGGER_RTT_vprintf + 302
        0x10002312:    2e70        p.      CMP      r6,#0x70
        0x10002314:    d06d        m.      BEQ      0x100023f2 ; SEGGER_RTT_vprintf + 480
        0x10002316:    2e73        s.      CMP      r6,#0x73
        0x10002318:    d06d        m.      BEQ      0x100023f6 ; SEGGER_RTT_vprintf + 484
        0x1000231a:    2e75        u.      CMP      r6,#0x75
        0x1000231c:    d01f        ..      BEQ      0x1000235e ; SEGGER_RTT_vprintf + 332
        0x1000231e:    2e78        x.      CMP      r6,#0x78
        0x10002320:    d1f0        ..      BNE      0x10002304 ; SEGGER_RTT_vprintf + 242
        0x10002322:    e02b        +.      B        0x1000237c ; SEGGER_RTT_vprintf + 362
        0x10002324:    e097        ..      B        0x10002456 ; SEGGER_RTT_vprintf + 580
        0x10002326:    6821        !h      LDR      r1,[r4,#0]
        0x10002328:    1d08        ..      ADDS     r0,r1,#4
        0x1000232a:    6020         `      STR      r0,[r4,#0]
        0x1000232c:    6808        .h      LDR      r0,[r1,#0]
        0x1000232e:    9018        ..      STR      r0,[sp,#0x60]
        0x10002330:    9818        ..      LDR      r0,[sp,#0x60]
        0x10002332:    b2c0        ..      UXTB     r0,r0
        0x10002334:    9005        ..      STR      r0,[sp,#0x14]
        0x10002336:    a819        ..      ADD      r0,sp,#0x64
        0x10002338:    9905        ..      LDR      r1,[sp,#0x14]
        0x1000233a:    f7fffe35    ..5.    BL       _StoreChar ; 0x10001fa8
        0x1000233e:    e087        ..      B        0x10002450 ; SEGGER_RTT_vprintf + 574
        0x10002340:    6821        !h      LDR      r1,[r4,#0]
        0x10002342:    1d08        ..      ADDS     r0,r1,#4
        0x10002344:    6020         `      STR      r0,[r4,#0]
        0x10002346:    6808        .h      LDR      r0,[r1,#0]
        0x10002348:    9018        ..      STR      r0,[sp,#0x60]
        0x1000234a:    9816        ..      LDR      r0,[sp,#0x58]
        0x1000234c:    9701        ..      STR      r7,[sp,#4]
        0x1000234e:    9000        ..      STR      r0,[sp,#0]
        0x10002350:    220a        ."      MOVS     r2,#0xa
        0x10002352:    a819        ..      ADD      r0,sp,#0x64
        0x10002354:    9b17        ..      LDR      r3,[sp,#0x5c]
        0x10002356:    9918        ..      LDR      r1,[sp,#0x60]
        0x10002358:    f7fffed4    ....    BL       _PrintInt ; 0x10002104
        0x1000235c:    e078        x.      B        0x10002450 ; SEGGER_RTT_vprintf + 574
        0x1000235e:    6821        !h      LDR      r1,[r4,#0]
        0x10002360:    1d08        ..      ADDS     r0,r1,#4
        0x10002362:    6020         `      STR      r0,[r4,#0]
        0x10002364:    6808        .h      LDR      r0,[r1,#0]
        0x10002366:    9018        ..      STR      r0,[sp,#0x60]
        0x10002368:    9816        ..      LDR      r0,[sp,#0x58]
        0x1000236a:    9701        ..      STR      r7,[sp,#4]
        0x1000236c:    9000        ..      STR      r0,[sp,#0]
        0x1000236e:    220a        ."      MOVS     r2,#0xa
        0x10002370:    a819        ..      ADD      r0,sp,#0x64
        0x10002372:    9b17        ..      LDR      r3,[sp,#0x5c]
        0x10002374:    9918        ..      LDR      r1,[sp,#0x60]
        0x10002376:    f7fffe39    ..9.    BL       _PrintUnsigned ; 0x10001fec
        0x1000237a:    e069        i.      B        0x10002450 ; SEGGER_RTT_vprintf + 574
        0x1000237c:    bf00        ..      NOP      
        0x1000237e:    6821        !h      LDR      r1,[r4,#0]
        0x10002380:    1d08        ..      ADDS     r0,r1,#4
        0x10002382:    6020         `      STR      r0,[r4,#0]
        0x10002384:    6808        .h      LDR      r0,[r1,#0]
        0x10002386:    9018        ..      STR      r0,[sp,#0x60]
        0x10002388:    9816        ..      LDR      r0,[sp,#0x58]
        0x1000238a:    9701        ..      STR      r7,[sp,#4]
        0x1000238c:    9000        ..      STR      r0,[sp,#0]
        0x1000238e:    2210        ."      MOVS     r2,#0x10
        0x10002390:    a819        ..      ADD      r0,sp,#0x64
        0x10002392:    9b17        ..      LDR      r3,[sp,#0x5c]
        0x10002394:    9918        ..      LDR      r1,[sp,#0x60]
        0x10002396:    f7fffe29    ..).    BL       _PrintUnsigned ; 0x10001fec
        0x1000239a:    e059        Y.      B        0x10002450 ; SEGGER_RTT_vprintf + 574
        0x1000239c:    bf00        ..      NOP      
        0x1000239e:    2000        .       MOVS     r0,#0
        0x100023a0:    9003        ..      STR      r0,[sp,#0xc]
        0x100023a2:    9004        ..      STR      r0,[sp,#0x10]
        0x100023a4:    9005        ..      STR      r0,[sp,#0x14]
        0x100023a6:    a803        ..      ADD      r0,sp,#0xc
        0x100023a8:    9002        ..      STR      r0,[sp,#8]
        0x100023aa:    6820         h      LDR      r0,[r4,#0]
        0x100023ac:    1dc0        ..      ADDS     r0,r0,#7
        0x100023ae:    08c0        ..      LSRS     r0,r0,#3
        0x100023b0:    00c0        ..      LSLS     r0,r0,#3
        0x100023b2:    4601        .F      MOV      r1,r0
        0x100023b4:    3008        .0      ADDS     r0,r0,#8
        0x100023b6:    6020         `      STR      r0,[r4,#0]
        0x100023b8:    c903        ..      LDM      r1,{r0,r1}
        0x100023ba:    9101        ..      STR      r1,[sp,#4]
        0x100023bc:    9000        ..      STR      r0,[sp,#0]
        0x100023be:    a134        4.      ADR      r1,{pc}+0xd2 ; 0x10002490
        0x100023c0:    a803        ..      ADD      r0,sp,#0xc
        0x100023c2:    9b01        ..      LDR      r3,[sp,#4]
        0x100023c4:    9a00        ..      LDR      r2,[sp,#0]
        0x100023c6:    f003fb85    ....    BL       __0sprintf ; 0x10005ad4
        0x100023ca:    bf00        ..      NOP      
        0x100023cc:    9802        ..      LDR      r0,[sp,#8]
        0x100023ce:    7806        .x      LDRB     r6,[r0,#0]
        0x100023d0:    9802        ..      LDR      r0,[sp,#8]
        0x100023d2:    1c40        @.      ADDS     r0,r0,#1
        0x100023d4:    9002        ..      STR      r0,[sp,#8]
        0x100023d6:    2e00        ..      CMP      r6,#0
        0x100023d8:    d100        ..      BNE      0x100023dc ; SEGGER_RTT_vprintf + 458
        0x100023da:    e006        ..      B        0x100023ea ; SEGGER_RTT_vprintf + 472
        0x100023dc:    4631        1F      MOV      r1,r6
        0x100023de:    a819        ..      ADD      r0,sp,#0x64
        0x100023e0:    f7fffde2    ....    BL       _StoreChar ; 0x10001fa8
        0x100023e4:    981c        ..      LDR      r0,[sp,#0x70]
        0x100023e6:    2800        .(      CMP      r0,#0
        0x100023e8:    daf0        ..      BGE      0x100023cc ; SEGGER_RTT_vprintf + 442
        0x100023ea:    bf00        ..      NOP      
        0x100023ec:    e030        0.      B        0x10002450 ; SEGGER_RTT_vprintf + 574
        0x100023ee:    e029        ).      B        0x10002444 ; SEGGER_RTT_vprintf + 562
        0x100023f0:    e02d        -.      B        0x1000244e ; SEGGER_RTT_vprintf + 572
        0x100023f2:    e017        ..      B        0x10002424 ; SEGGER_RTT_vprintf + 530
        0x100023f4:    e7ff        ..      B        0x100023f6 ; SEGGER_RTT_vprintf + 484
        0x100023f6:    6821        !h      LDR      r1,[r4,#0]
        0x100023f8:    1d08        ..      ADDS     r0,r1,#4
        0x100023fa:    6020         `      STR      r0,[r4,#0]
        0x100023fc:    6808        .h      LDR      r0,[r1,#0]
        0x100023fe:    9005        ..      STR      r0,[sp,#0x14]
        0x10002400:    bf00        ..      NOP      
        0x10002402:    9805        ..      LDR      r0,[sp,#0x14]
        0x10002404:    7806        .x      LDRB     r6,[r0,#0]
        0x10002406:    9805        ..      LDR      r0,[sp,#0x14]
        0x10002408:    1c40        @.      ADDS     r0,r0,#1
        0x1000240a:    9005        ..      STR      r0,[sp,#0x14]
        0x1000240c:    2e00        ..      CMP      r6,#0
        0x1000240e:    d100        ..      BNE      0x10002412 ; SEGGER_RTT_vprintf + 512
        0x10002410:    e006        ..      B        0x10002420 ; SEGGER_RTT_vprintf + 526
        0x10002412:    4631        1F      MOV      r1,r6
        0x10002414:    a819        ..      ADD      r0,sp,#0x64
        0x10002416:    f7fffdc7    ....    BL       _StoreChar ; 0x10001fa8
        0x1000241a:    981c        ..      LDR      r0,[sp,#0x70]
        0x1000241c:    2800        .(      CMP      r0,#0
        0x1000241e:    daf0        ..      BGE      0x10002402 ; SEGGER_RTT_vprintf + 496
        0x10002420:    bf00        ..      NOP      
        0x10002422:    e015        ..      B        0x10002450 ; SEGGER_RTT_vprintf + 574
        0x10002424:    6821        !h      LDR      r1,[r4,#0]
        0x10002426:    1d08        ..      ADDS     r0,r1,#4
        0x10002428:    6020         `      STR      r0,[r4,#0]
        0x1000242a:    6808        .h      LDR      r0,[r1,#0]
        0x1000242c:    9018        ..      STR      r0,[sp,#0x60]
        0x1000242e:    2000        .       MOVS     r0,#0
        0x10002430:    2108        .!      MOVS     r1,#8
        0x10002432:    460b        .F      MOV      r3,r1
        0x10002434:    2210        ."      MOVS     r2,#0x10
        0x10002436:    9100        ..      STR      r1,[sp,#0]
        0x10002438:    9001        ..      STR      r0,[sp,#4]
        0x1000243a:    a819        ..      ADD      r0,sp,#0x64
        0x1000243c:    9918        ..      LDR      r1,[sp,#0x60]
        0x1000243e:    f7fffdd5    ....    BL       _PrintUnsigned ; 0x10001fec
        0x10002442:    e005        ..      B        0x10002450 ; SEGGER_RTT_vprintf + 574
        0x10002444:    2125        %!      MOVS     r1,#0x25
        0x10002446:    a819        ..      ADD      r0,sp,#0x64
        0x10002448:    f7fffdae    ....    BL       _StoreChar ; 0x10001fa8
        0x1000244c:    e000        ..      B        0x10002450 ; SEGGER_RTT_vprintf + 574
        0x1000244e:    bf00        ..      NOP      
        0x10002450:    bf00        ..      NOP      
        0x10002452:    1c6d        m.      ADDS     r5,r5,#1
        0x10002454:    e003        ..      B        0x1000245e ; SEGGER_RTT_vprintf + 588
        0x10002456:    4631        1F      MOV      r1,r6
        0x10002458:    a819        ..      ADD      r0,sp,#0x64
        0x1000245a:    f7fffda5    ....    BL       _StoreChar ; 0x10001fa8
        0x1000245e:    981c        ..      LDR      r0,[sp,#0x70]
        0x10002460:    2800        .(      CMP      r0,#0
        0x10002462:    db00        ..      BLT      0x10002466 ; SEGGER_RTT_vprintf + 596
        0x10002464:    e6e4        ..      B        0x10002230 ; SEGGER_RTT_vprintf + 30
        0x10002466:    bf00        ..      NOP      
        0x10002468:    981c        ..      LDR      r0,[sp,#0x70]
        0x1000246a:    2800        .(      CMP      r0,#0
        0x1000246c:    dd0b        ..      BLE      0x10002486 ; SEGGER_RTT_vprintf + 628
        0x1000246e:    981b        ..      LDR      r0,[sp,#0x6c]
        0x10002470:    2800        .(      CMP      r0,#0
        0x10002472:    d004        ..      BEQ      0x1000247e ; SEGGER_RTT_vprintf + 620
        0x10002474:    a906        ..      ADD      r1,sp,#0x18
        0x10002476:    9a1b        ..      LDR      r2,[sp,#0x6c]
        0x10002478:    981e        ..      LDR      r0,[sp,#0x78]
        0x1000247a:    f7fffd5b    ..[.    BL       SEGGER_RTT_Write ; 0x10001f34
        0x1000247e:    991b        ..      LDR      r1,[sp,#0x6c]
        0x10002480:    981c        ..      LDR      r0,[sp,#0x70]
        0x10002482:    1840        @.      ADDS     r0,r0,r1
        0x10002484:    901c        ..      STR      r0,[sp,#0x70]
        0x10002486:    981c        ..      LDR      r0,[sp,#0x70]
        0x10002488:    b021        !.      ADD      sp,sp,#0x84
        0x1000248a:    bdf0        ..      POP      {r4-r7,pc}
    $d
        0x1000248c:    100063fe    .c..    DCD    268461054
        0x10002490:    332e3425    %4.3    DCD    858666021
        0x10002494:    00000066    f...    DCD    102
    $t
    SEGGER_RTT_printf
        0x10002498:    b40f        ..      PUSH     {r0-r3}
        0x1000249a:    b538        8.      PUSH     {r3-r5,lr}
        0x1000249c:    4604        .F      MOV      r4,r0
        0x1000249e:    a806        ..      ADD      r0,sp,#0x18
        0x100024a0:    9000        ..      STR      r0,[sp,#0]
        0x100024a2:    466a        jF      MOV      r2,sp
        0x100024a4:    4620         F      MOV      r0,r4
        0x100024a6:    9905        ..      LDR      r1,[sp,#0x14]
        0x100024a8:    f7fffeb3    ....    BL       SEGGER_RTT_vprintf ; 0x10002212
        0x100024ac:    4605        .F      MOV      r5,r0
        0x100024ae:    2000        .       MOVS     r0,#0
        0x100024b0:    9000        ..      STR      r0,[sp,#0]
        0x100024b2:    4628        (F      MOV      r0,r5
        0x100024b4:    bc38        8.      POP      {r3-r5}
        0x100024b6:    bc08        ..      POP      {r3}
        0x100024b8:    b004        ..      ADD      sp,sp,#0x10
        0x100024ba:    4718        .G      BX       r3
    SEGGER_RTT_hexdump
        0x100024bc:    b5ff        ..      PUSH     {r0-r7,lr}
        0x100024be:    b081        ..      SUB      sp,sp,#4
        0x100024c0:    460d        .F      MOV      r5,r1
        0x100024c2:    4616        .F      MOV      r6,r2
        0x100024c4:    461f        .F      MOV      r7,r3
        0x100024c6:    2400        .$      MOVS     r4,#0
        0x100024c8:    2d00        .-      CMP      r5,#0
        0x100024ca:    d003        ..      BEQ      0x100024d4 ; SEGGER_RTT_hexdump + 24
        0x100024cc:    4629        )F      MOV      r1,r5
        0x100024ce:    9801        ..      LDR      r0,[sp,#4]
        0x100024d0:    f7ffffe2    ....    BL       SEGGER_RTT_printf ; 0x10002498
        0x100024d4:    2400        .$      MOVS     r4,#0
        0x100024d6:    e01e        ..      B        0x10002516 ; SEGGER_RTT_hexdump + 90
        0x100024d8:    4620         F      MOV      r0,r4
        0x100024da:    17e1        ..      ASRS     r1,r4,#31
        0x100024dc:    0f49        I.      LSRS     r1,r1,#29
        0x100024de:    1809        ..      ADDS     r1,r1,r0
        0x100024e0:    10c9        ..      ASRS     r1,r1,#3
        0x100024e2:    00c9        ..      LSLS     r1,r1,#3
        0x100024e4:    1a61        a.      SUBS     r1,r4,r1
        0x100024e6:    d104        ..      BNE      0x100024f2 ; SEGGER_RTT_hexdump + 54
        0x100024e8:    b2a2        ..      UXTH     r2,r4
        0x100024ea:    a113        ..      ADR      r1,{pc}+0x4e ; 0x10002538
        0x100024ec:    9801        ..      LDR      r0,[sp,#4]
        0x100024ee:    f7ffffd3    ....    BL       SEGGER_RTT_printf ; 0x10002498
        0x100024f2:    5d32        2]      LDRB     r2,[r6,r4]
        0x100024f4:    a112        ..      ADR      r1,{pc}+0x4c ; 0x10002540
        0x100024f6:    9801        ..      LDR      r0,[sp,#4]
        0x100024f8:    f7ffffce    ....    BL       SEGGER_RTT_printf ; 0x10002498
        0x100024fc:    1c60        `.      ADDS     r0,r4,#1
        0x100024fe:    17c1        ..      ASRS     r1,r0,#31
        0x10002500:    0f49        I.      LSRS     r1,r1,#29
        0x10002502:    1809        ..      ADDS     r1,r1,r0
        0x10002504:    10c9        ..      ASRS     r1,r1,#3
        0x10002506:    00c9        ..      LSLS     r1,r1,#3
        0x10002508:    1a41        A.      SUBS     r1,r0,r1
        0x1000250a:    d103        ..      BNE      0x10002514 ; SEGGER_RTT_hexdump + 88
        0x1000250c:    a10e        ..      ADR      r1,{pc}+0x3c ; 0x10002548
        0x1000250e:    9801        ..      LDR      r0,[sp,#4]
        0x10002510:    f7ffffc2    ....    BL       SEGGER_RTT_printf ; 0x10002498
        0x10002514:    1c64        d.      ADDS     r4,r4,#1
        0x10002516:    42bc        .B      CMP      r4,r7
        0x10002518:    dbde        ..      BLT      0x100024d8 ; SEGGER_RTT_hexdump + 28
        0x1000251a:    4620         F      MOV      r0,r4
        0x1000251c:    17e1        ..      ASRS     r1,r4,#31
        0x1000251e:    0f49        I.      LSRS     r1,r1,#29
        0x10002520:    1809        ..      ADDS     r1,r1,r0
        0x10002522:    10c9        ..      ASRS     r1,r1,#3
        0x10002524:    00c9        ..      LSLS     r1,r1,#3
        0x10002526:    1a61        a.      SUBS     r1,r4,r1
        0x10002528:    d003        ..      BEQ      0x10002532 ; SEGGER_RTT_hexdump + 118
        0x1000252a:    a107        ..      ADR      r1,{pc}+0x1e ; 0x10002548
        0x1000252c:    9801        ..      LDR      r0,[sp,#4]
        0x1000252e:    f7ffffb3    ....    BL       SEGGER_RTT_printf ; 0x10002498
        0x10002532:    b005        ..      ADD      sp,sp,#0x14
        0x10002534:    bdf0        ..      POP      {r4-r7,pc}
    $d
        0x10002536:    0000        ..      DCW    0
        0x10002538:    3430255b    [%04    DCD    875570523
        0x1000253c:    00205d78    x] .    DCD    2121080
        0x10002540:    78323025    %02x    DCD    2016555045
        0x10002544:    00000020     ...    DCD    32
        0x10002548:    00000a0d    ....    DCD    2573
    $t
    .text
    Reset_Handler
        0x1000254c:    4804        .H      LDR      r0,[pc,#16] ; [0x10002560] = 0x10002569
        0x1000254e:    4780        .G      BLX      r0
        0x10002550:    4804        .H      LDR      r0,[pc,#16] ; [0x10002564] = 0x100000c1
        0x10002552:    4700        .G      BX       r0
    NMI_Handler
        0x10002554:    e7fe        ..      B        NMI_Handler ; 0x10002554
    HardFault_Handler
        0x10002556:    e7fe        ..      B        HardFault_Handler ; 0x10002556
    SVC_Handler
        0x10002558:    e7fe        ..      B        SVC_Handler ; 0x10002558
    PendSV_Handler
        0x1000255a:    e7fe        ..      B        PendSV_Handler ; 0x1000255a
    SysTick_Handler
        0x1000255c:    e7fe        ..      B        SysTick_Handler ; 0x1000255c
    CAP_IRQHandler
    GPADC_IRQHandler
    HID_IRQHandler
    HPWM_IRQHandler
    HTIMER_IRQHandler
    I2C0_IRQHandler
    I2C1_IRQHandler
    IR_Rx_IRQHandler
    IR_Tx_IRQHandler
    ISO_7816_IRQHandler
    LLC2_IRQHandler
    LLC_IRQHandler
    SPIM_IRQHandler
    SW_IRQHandler
    TIMER3_IRQHandler
    TOUCH_IRQHandler
        0x1000255e:    e7fe        ..      B        CAP_IRQHandler ; 0x1000255e
    $d
        0x10002560:    10002569    i%..    DCD    268445033
        0x10002564:    100000c1    ....    DCD    268435649
    $t
    .text
    SystemInit
        0x10002568:    4801        .H      LDR      r0,[pc,#4] ; [0x10002570] = 0xf42400
        0x1000256a:    4902        .I      LDR      r1,[pc,#8] ; [0x10002574] = 0x200030d0
        0x1000256c:    6008        .`      STR      r0,[r1,#0]
        0x1000256e:    4770        pG      BX       lr
    $d
        0x10002570:    00f42400    .$..    DCD    16000000
        0x10002574:    200030d0    .0.     DCD    536883408
    $t
    .text
    Timer_Evt_Creat
        0x10002578:    b570        p.      PUSH     {r4-r6,lr}
        0x1000257a:    461e        .F      MOV      r6,r3
        0x1000257c:    2900        .)      CMP      r1,#0
        0x1000257e:    d013        ..      BEQ      0x100025a8 ; Timer_Evt_Creat + 48
        0x10002580:    4dfe        .M      LDR      r5,[pc,#1016] ; [0x1000297c] = 0x200030d4
        0x10002582:    69ac        .i      LDR      r4,[r5,#0x18]
        0x10002584:    696b        ki      LDR      r3,[r5,#0x14]
        0x10002586:    429c        .B      CMP      r4,r3
        0x10002588:    d20e        ..      BCS      0x100025a8 ; Timer_Evt_Creat + 48
        0x1000258a:    c405        ..      STM      r4!,{r0,r2}
        0x1000258c:    4608        .F      MOV      r0,r1
        0x1000258e:    217d        }!      MOVS     r1,#0x7d
        0x10002590:    0149        I.      LSLS     r1,r1,#5
        0x10002592:    4348        HC      MULS     r0,r1,r0
        0x10002594:    217d        }!      MOVS     r1,#0x7d
        0x10002596:    3c08        .<      SUBS     r4,r4,#8
        0x10002598:    f002fe68    ..h.    BL       __aeabi_uidiv ; 0x1000526c
        0x1000259c:    60a0        .`      STR      r0,[r4,#8]
        0x1000259e:    7326        &s      STRB     r6,[r4,#0xc]
        0x100025a0:    2000        .       MOVS     r0,#0
        0x100025a2:    6160        `a      STR      r0,[r4,#0x14]
        0x100025a4:    3418        .4      ADDS     r4,r4,#0x18
        0x100025a6:    61ac        .a      STR      r4,[r5,#0x18]
        0x100025a8:    bd70        p.      POP      {r4-r6,pc}
    Min
        0x100025aa:    4288        .B      CMP      r0,r1
        0x100025ac:    d300        ..      BCC      0x100025b0 ; Min + 6
        0x100025ae:    4608        .F      MOV      r0,r1
        0x100025b0:    4770        pG      BX       lr
    timer_0_disable
        0x100025b2:    b510        ..      PUSH     {r4,lr}
        0x100025b4:    4cf1        .L      LDR      r4,[pc,#964] ; [0x1000297c] = 0x200030d4
        0x100025b6:    6860        `h      LDR      r0,[r4,#4]
        0x100025b8:    3020         0      ADDS     r0,r0,#0x20
        0x100025ba:    7c01        .|      LDRB     r1,[r0,#0x10]
        0x100025bc:    07c9        ..      LSLS     r1,r1,#31
        0x100025be:    d00f        ..      BEQ      0x100025e0 ; timer_0_disable + 46
        0x100025c0:    7c01        .|      LDRB     r1,[r0,#0x10]
        0x100025c2:    0849        I.      LSRS     r1,r1,#1
        0x100025c4:    0049        I.      LSLS     r1,r1,#1
        0x100025c6:    7401        .t      STRB     r1,[r0,#0x10]
        0x100025c8:    2008        .       MOVS     r0,#8
        0x100025ca:    f000fa2c    ..,.    BL       __NVIC_DisableIRQ ; 0x10002a26
        0x100025ce:    6860        `h      LDR      r0,[r4,#4]
        0x100025d0:    3020         0      ADDS     r0,r0,#0x20
        0x100025d2:    7c41        A|      LDRB     r1,[r0,#0x11]
        0x100025d4:    2201        ."      MOVS     r2,#1
        0x100025d6:    4311        .C      ORRS     r1,r1,r2
        0x100025d8:    7441        At      STRB     r1,[r0,#0x11]
        0x100025da:    2032        2       MOVS     r0,#0x32
        0x100025dc:    f002fabe    ....    BL       GAPBBDelayUS ; 0x10004b5c
        0x100025e0:    bd10        ..      POP      {r4,pc}
    timer_0_enable
        0x100025e2:    b570        p.      PUSH     {r4-r6,lr}
        0x100025e4:    4ce5        .L      LDR      r4,[pc,#916] ; [0x1000297c] = 0x200030d4
        0x100025e6:    4606        .F      MOV      r6,r0
        0x100025e8:    6860        `h      LDR      r0,[r4,#4]
        0x100025ea:    460d        .F      MOV      r5,r1
        0x100025ec:    3020         0      ADDS     r0,r0,#0x20
        0x100025ee:    7c01        .|      LDRB     r1,[r0,#0x10]
        0x100025f0:    07c9        ..      LSLS     r1,r1,#31
        0x100025f2:    d006        ..      BEQ      0x10002602 ; timer_0_enable + 32
        0x100025f4:    7c01        .|      LDRB     r1,[r0,#0x10]
        0x100025f6:    0849        I.      LSRS     r1,r1,#1
        0x100025f8:    0049        I.      LSLS     r1,r1,#1
        0x100025fa:    7401        .t      STRB     r1,[r0,#0x10]
        0x100025fc:    2032        2       MOVS     r0,#0x32
        0x100025fe:    f002faad    ....    BL       GAPBBDelayUS ; 0x10004b5c
        0x10002602:    6862        bh      LDR      r2,[r4,#4]
        0x10002604:    3220         2      ADDS     r2,r2,#0x20
        0x10002606:    7516        .u      STRB     r6,[r2,#0x14]
        0x10002608:    0a30        0.      LSRS     r0,r6,#8
        0x1000260a:    7550        Pu      STRB     r0,[r2,#0x15]
        0x1000260c:    0c30        0.      LSRS     r0,r6,#16
        0x1000260e:    7590        .u      STRB     r0,[r2,#0x16]
        0x10002610:    0e30        0.      LSRS     r0,r6,#24
        0x10002612:    75d0        .u      STRB     r0,[r2,#0x17]
        0x10002614:    7c10        .|      LDRB     r0,[r2,#0x10]
        0x10002616:    2110        .!      MOVS     r1,#0x10
        0x10002618:    4308        .C      ORRS     r0,r0,r1
        0x1000261a:    7410        .t      STRB     r0,[r2,#0x10]
        0x1000261c:    7c90        .|      LDRB     r0,[r2,#0x12]
        0x1000261e:    0840        @.      LSRS     r0,r0,#1
        0x10002620:    0040        @.      LSLS     r0,r0,#1
        0x10002622:    7490        .t      STRB     r0,[r2,#0x12]
        0x10002624:    48d6        .H      LDR      r0,[pc,#856] ; [0x10002980] = 0x2000361c
        0x10002626:    6005        .`      STR      r5,[r0,#0]
        0x10002628:    7c50        P|      LDRB     r0,[r2,#0x11]
        0x1000262a:    2501        .%      MOVS     r5,#1
        0x1000262c:    4328        (C      ORRS     r0,r0,r5
        0x1000262e:    7450        Pt      STRB     r0,[r2,#0x11]
        0x10002630:    2008        .       MOVS     r0,#8
        0x10002632:    f000f9ef    ....    BL       __NVIC_EnableIRQ ; 0x10002a14
        0x10002636:    6860        `h      LDR      r0,[r4,#4]
        0x10002638:    3020         0      ADDS     r0,r0,#0x20
        0x1000263a:    7c01        .|      LDRB     r1,[r0,#0x10]
        0x1000263c:    4329        )C      ORRS     r1,r1,r5
        0x1000263e:    7401        .t      STRB     r1,[r0,#0x10]
        0x10002640:    bd70        p.      POP      {r4-r6,pc}
    timer_0_start
        0x10002642:    e7ce        ..      B        timer_0_enable ; 0x100025e2
    Timer_Evt_Trigger
        0x10002644:    b570        p.      PUSH     {r4-r6,lr}
        0x10002646:    4dcd        .M      LDR      r5,[pc,#820] ; [0x1000297c] = 0x200030d4
        0x10002648:    2118        .!      MOVS     r1,#0x18
        0x1000264a:    7828        (x      LDRB     r0,[r5,#0]
        0x1000264c:    68ae        .h      LDR      r6,[r5,#8]
        0x1000264e:    4348        HC      MULS     r0,r1,r0
        0x10002650:    6969        ii      LDR      r1,[r5,#0x14]
        0x10002652:    1a0c        ..      SUBS     r4,r1,r0
        0x10002654:    6928        (i      LDR      r0,[r5,#0x10]
        0x10002656:    1980        ..      ADDS     r0,r0,r6
        0x10002658:    6128        (a      STR      r0,[r5,#0x10]
        0x1000265a:    2000        .       MOVS     r0,#0
        0x1000265c:    43c0        .C      MVNS     r0,r0
        0x1000265e:    60a8        .`      STR      r0,[r5,#8]
        0x10002660:    e018        ..      B        0x10002694 ; Timer_Evt_Trigger + 80
        0x10002662:    7b20         {      LDRB     r0,[r4,#0xc]
        0x10002664:    2800        .(      CMP      r0,#0
        0x10002666:    d014        ..      BEQ      0x10002692 ; Timer_Evt_Trigger + 78
        0x10002668:    6920         i      LDR      r0,[r4,#0x10]
        0x1000266a:    42b0        .B      CMP      r0,r6
        0x1000266c:    d104        ..      BNE      0x10002678 ; Timer_Evt_Trigger + 52
        0x1000266e:    6860        `h      LDR      r0,[r4,#4]
        0x10002670:    2800        .(      CMP      r0,#0
        0x10002672:    d007        ..      BEQ      0x10002684 ; Timer_Evt_Trigger + 64
        0x10002674:    4780        .G      BLX      r0
        0x10002676:    e005        ..      B        0x10002684 ; Timer_Evt_Trigger + 64
        0x10002678:    1b80        ..      SUBS     r0,r0,r6
        0x1000267a:    6120         a      STR      r0,[r4,#0x10]
        0x1000267c:    d002        ..      BEQ      0x10002684 ; Timer_Evt_Trigger + 64
        0x1000267e:    68a1        .h      LDR      r1,[r4,#8]
        0x10002680:    4288        .B      CMP      r0,r1
        0x10002682:    d901        ..      BLS      0x10002688 ; Timer_Evt_Trigger + 68
        0x10002684:    68a0        .h      LDR      r0,[r4,#8]
        0x10002686:    6120         a      STR      r0,[r4,#0x10]
        0x10002688:    68a9        .h      LDR      r1,[r5,#8]
        0x1000268a:    4288        .B      CMP      r0,r1
        0x1000268c:    d900        ..      BLS      0x10002690 ; Timer_Evt_Trigger + 76
        0x1000268e:    4608        .F      MOV      r0,r1
        0x10002690:    60a8        .`      STR      r0,[r5,#8]
        0x10002692:    3418        .4      ADDS     r4,r4,#0x18
        0x10002694:    6968        hi      LDR      r0,[r5,#0x14]
        0x10002696:    4284        .B      CMP      r4,r0
        0x10002698:    d3e3        ..      BCC      0x10002662 ; Timer_Evt_Trigger + 30
        0x1000269a:    68a8        .h      LDR      r0,[r5,#8]
        0x1000269c:    2800        .(      CMP      r0,#0
        0x1000269e:    d005        ..      BEQ      0x100026ac ; Timer_Evt_Trigger + 104
        0x100026a0:    1c41        A.      ADDS     r1,r0,#1
        0x100026a2:    d003        ..      BEQ      0x100026ac ; Timer_Evt_Trigger + 104
        0x100026a4:    49b7        .I      LDR      r1,[pc,#732] ; [0x10002984] = 0x10002645
        0x100026a6:    f7ffffcc    ....    BL       timer_0_start ; 0x10002642
        0x100026aa:    bd70        p.      POP      {r4-r6,pc}
        0x100026ac:    f7ffff81    ....    BL       timer_0_disable ; 0x100025b2
        0x100026b0:    bd70        p.      POP      {r4-r6,pc}
    Timer_Evt_Clr
        0x100026b2:    49b2        .I      LDR      r1,[pc,#712] ; [0x1000297c] = 0x200030d4
        0x100026b4:    68ca        .h      LDR      r2,[r1,#0xc]
        0x100026b6:    4382        .C      BICS     r2,r2,r0
        0x100026b8:    60ca        .`      STR      r2,[r1,#0xc]
        0x100026ba:    4770        pG      BX       lr
    timer_0_get
        0x100026bc:    48af        .H      LDR      r0,[pc,#700] ; [0x1000297c] = 0x200030d4
        0x100026be:    6840        @h      LDR      r0,[r0,#4]
        0x100026c0:    4601        .F      MOV      r1,r0
        0x100026c2:    3144        D1      ADDS     r1,r1,#0x44
        0x100026c4:    780a        .x      LDRB     r2,[r1,#0]
        0x100026c6:    4610        .F      MOV      r0,r2
        0x100026c8:    784a        Jx      LDRB     r2,[r1,#1]
        0x100026ca:    0212        ..      LSLS     r2,r2,#8
        0x100026cc:    4310        .C      ORRS     r0,r0,r2
        0x100026ce:    788a        .x      LDRB     r2,[r1,#2]
        0x100026d0:    78c9        .x      LDRB     r1,[r1,#3]
        0x100026d2:    0412        ..      LSLS     r2,r2,#16
        0x100026d4:    4310        .C      ORRS     r0,r0,r2
        0x100026d6:    0609        ..      LSLS     r1,r1,#24
        0x100026d8:    4308        .C      ORRS     r0,r0,r1
        0x100026da:    4770        pG      BX       lr
    Timer_Evt_Stop
        0x100026dc:    b5f8        ..      PUSH     {r3-r7,lr}
        0x100026de:    4605        .F      MOV      r5,r0
        0x100026e0:    f7ffffec    ....    BL       timer_0_get ; 0x100026bc
        0x100026e4:    4aa5        .J      LDR      r2,[pc,#660] ; [0x1000297c] = 0x200030d4
        0x100026e6:    6891        .h      LDR      r1,[r2,#8]
        0x100026e8:    1a0e        ..      SUBS     r6,r1,r0
        0x100026ea:    2000        .       MOVS     r0,#0
        0x100026ec:    43c0        .C      MVNS     r0,r0
        0x100026ee:    6116        .a      STR      r6,[r2,#0x10]
        0x100026f0:    6090        .`      STR      r0,[r2,#8]
        0x100026f2:    7810        .x      LDRB     r0,[r2,#0]
        0x100026f4:    2118        .!      MOVS     r1,#0x18
        0x100026f6:    6953        Si      LDR      r3,[r2,#0x14]
        0x100026f8:    4348        HC      MULS     r0,r1,r0
        0x100026fa:    1a19        ..      SUBS     r1,r3,r0
        0x100026fc:    2700        .'      MOVS     r7,#0
        0x100026fe:    e018        ..      B        0x10002732 ; Timer_Evt_Stop + 86
        0x10002700:    6808        .h      LDR      r0,[r1,#0]
        0x10002702:    42a8        .B      CMP      r0,r5
        0x10002704:    d102        ..      BNE      0x1000270c ; Timer_Evt_Stop + 48
        0x10002706:    730f        .s      STRB     r7,[r1,#0xc]
        0x10002708:    614f        Oa      STR      r7,[r1,#0x14]
        0x1000270a:    e011        ..      B        0x10002730 ; Timer_Evt_Stop + 84
        0x1000270c:    7b08        .{      LDRB     r0,[r1,#0xc]
        0x1000270e:    2800        .(      CMP      r0,#0
        0x10002710:    d00e        ..      BEQ      0x10002730 ; Timer_Evt_Stop + 84
        0x10002712:    6908        .i      LDR      r0,[r1,#0x10]
        0x10002714:    1b80        ..      SUBS     r0,r0,r6
        0x10002716:    6108        .a      STR      r0,[r1,#0x10]
        0x10002718:    d002        ..      BEQ      0x10002720 ; Timer_Evt_Stop + 68
        0x1000271a:    688c        .h      LDR      r4,[r1,#8]
        0x1000271c:    42a0        .B      CMP      r0,r4
        0x1000271e:    d901        ..      BLS      0x10002724 ; Timer_Evt_Stop + 72
        0x10002720:    6888        .h      LDR      r0,[r1,#8]
        0x10002722:    6108        .a      STR      r0,[r1,#0x10]
        0x10002724:    4604        .F      MOV      r4,r0
        0x10002726:    6890        .h      LDR      r0,[r2,#8]
        0x10002728:    4284        .B      CMP      r4,r0
        0x1000272a:    d800        ..      BHI      0x1000272e ; Timer_Evt_Stop + 82
        0x1000272c:    4620         F      MOV      r0,r4
        0x1000272e:    6090        .`      STR      r0,[r2,#8]
        0x10002730:    3118        .1      ADDS     r1,r1,#0x18
        0x10002732:    4299        .B      CMP      r1,r3
        0x10002734:    d3e4        ..      BCC      0x10002700 ; Timer_Evt_Stop + 36
        0x10002736:    6890        .h      LDR      r0,[r2,#8]
        0x10002738:    2800        .(      CMP      r0,#0
        0x1000273a:    d005        ..      BEQ      0x10002748 ; Timer_Evt_Stop + 108
        0x1000273c:    1c41        A.      ADDS     r1,r0,#1
        0x1000273e:    d003        ..      BEQ      0x10002748 ; Timer_Evt_Stop + 108
        0x10002740:    4990        .I      LDR      r1,[pc,#576] ; [0x10002984] = 0x10002645
        0x10002742:    f7ffff7e    ..~.    BL       timer_0_start ; 0x10002642
        0x10002746:    bdf8        ..      POP      {r3-r7,pc}
        0x10002748:    f7ffff33    ..3.    BL       timer_0_disable ; 0x100025b2
        0x1000274c:    bdf8        ..      POP      {r3-r7,pc}
    Timer_Evt_Start
        0x1000274e:    b5f8        ..      PUSH     {r3-r7,lr}
        0x10002750:    4b8a        .K      LDR      r3,[pc,#552] ; [0x1000297c] = 0x200030d4
        0x10002752:    4605        .F      MOV      r5,r0
        0x10002754:    7818        .x      LDRB     r0,[r3,#0]
        0x10002756:    2118        .!      MOVS     r1,#0x18
        0x10002758:    4348        HC      MULS     r0,r1,r0
        0x1000275a:    6959        Yi      LDR      r1,[r3,#0x14]
        0x1000275c:    1a08        ..      SUBS     r0,r1,r0
        0x1000275e:    e006        ..      B        0x1000276e ; Timer_Evt_Start + 32
        0x10002760:    6802        .h      LDR      r2,[r0,#0]
        0x10002762:    42aa        .B      CMP      r2,r5
        0x10002764:    d102        ..      BNE      0x1000276c ; Timer_Evt_Start + 30
        0x10002766:    7b02        .{      LDRB     r2,[r0,#0xc]
        0x10002768:    2a00        .*      CMP      r2,#0
        0x1000276a:    d134        4.      BNE      0x100027d6 ; Timer_Evt_Start + 136
        0x1000276c:    3018        .0      ADDS     r0,r0,#0x18
        0x1000276e:    4288        .B      CMP      r0,r1
        0x10002770:    d3f6        ..      BCC      0x10002760 ; Timer_Evt_Start + 18
        0x10002772:    f7ffffa3    ....    BL       timer_0_get ; 0x100026bc
        0x10002776:    6899        .h      LDR      r1,[r3,#8]
        0x10002778:    1a0e        ..      SUBS     r6,r1,r0
        0x1000277a:    2000        .       MOVS     r0,#0
        0x1000277c:    43c0        .C      MVNS     r0,r0
        0x1000277e:    611e        .a      STR      r6,[r3,#0x10]
        0x10002780:    6098        .`      STR      r0,[r3,#8]
        0x10002782:    7819        .x      LDRB     r1,[r3,#0]
        0x10002784:    2018        .       MOVS     r0,#0x18
        0x10002786:    4341        AC      MULS     r1,r0,r1
        0x10002788:    6958        Xi      LDR      r0,[r3,#0x14]
        0x1000278a:    1a41        A.      SUBS     r1,r0,r1
        0x1000278c:    2701        .'      MOVS     r7,#1
        0x1000278e:    e018        ..      B        0x100027c2 ; Timer_Evt_Start + 116
        0x10002790:    680a        .h      LDR      r2,[r1,#0]
        0x10002792:    42aa        .B      CMP      r2,r5
        0x10002794:    d103        ..      BNE      0x1000279e ; Timer_Evt_Start + 80
        0x10002796:    688a        .h      LDR      r2,[r1,#8]
        0x10002798:    610a        .a      STR      r2,[r1,#0x10]
        0x1000279a:    730f        .s      STRB     r7,[r1,#0xc]
        0x1000279c:    e00b        ..      B        0x100027b6 ; Timer_Evt_Start + 104
        0x1000279e:    7b0a        .{      LDRB     r2,[r1,#0xc]
        0x100027a0:    2a00        .*      CMP      r2,#0
        0x100027a2:    d00d        ..      BEQ      0x100027c0 ; Timer_Evt_Start + 114
        0x100027a4:    690a        .i      LDR      r2,[r1,#0x10]
        0x100027a6:    1b92        ..      SUBS     r2,r2,r6
        0x100027a8:    610a        .a      STR      r2,[r1,#0x10]
        0x100027aa:    d002        ..      BEQ      0x100027b2 ; Timer_Evt_Start + 100
        0x100027ac:    688c        .h      LDR      r4,[r1,#8]
        0x100027ae:    42a2        .B      CMP      r2,r4
        0x100027b0:    d901        ..      BLS      0x100027b6 ; Timer_Evt_Start + 104
        0x100027b2:    688a        .h      LDR      r2,[r1,#8]
        0x100027b4:    610a        .a      STR      r2,[r1,#0x10]
        0x100027b6:    689c        .h      LDR      r4,[r3,#8]
        0x100027b8:    42a2        .B      CMP      r2,r4
        0x100027ba:    d800        ..      BHI      0x100027be ; Timer_Evt_Start + 112
        0x100027bc:    4614        .F      MOV      r4,r2
        0x100027be:    609c        .`      STR      r4,[r3,#8]
        0x100027c0:    3118        .1      ADDS     r1,r1,#0x18
        0x100027c2:    4281        .B      CMP      r1,r0
        0x100027c4:    d3e4        ..      BCC      0x10002790 ; Timer_Evt_Start + 66
        0x100027c6:    6898        .h      LDR      r0,[r3,#8]
        0x100027c8:    2800        .(      CMP      r0,#0
        0x100027ca:    d005        ..      BEQ      0x100027d8 ; Timer_Evt_Start + 138
        0x100027cc:    1c41        A.      ADDS     r1,r0,#1
        0x100027ce:    d003        ..      BEQ      0x100027d8 ; Timer_Evt_Start + 138
        0x100027d0:    496c        lI      LDR      r1,[pc,#432] ; [0x10002984] = 0x10002645
        0x100027d2:    f7ffff36    ..6.    BL       timer_0_start ; 0x10002642
        0x100027d6:    bdf8        ..      POP      {r3-r7,pc}
        0x100027d8:    f7fffeeb    ....    BL       timer_0_disable ; 0x100025b2
        0x100027dc:    bdf8        ..      POP      {r3-r7,pc}
    Timer_Get_State
        0x100027de:    4967        gI      LDR      r1,[pc,#412] ; [0x1000297c] = 0x200030d4
        0x100027e0:    2218        ."      MOVS     r2,#0x18
        0x100027e2:    780b        .x      LDRB     r3,[r1,#0]
        0x100027e4:    4353        SC      MULS     r3,r2,r3
        0x100027e6:    694a        Ji      LDR      r2,[r1,#0x14]
        0x100027e8:    1ad1        ..      SUBS     r1,r2,r3
        0x100027ea:    e005        ..      B        0x100027f8 ; Timer_Get_State + 26
        0x100027ec:    680b        .h      LDR      r3,[r1,#0]
        0x100027ee:    4283        .B      CMP      r3,r0
        0x100027f0:    d101        ..      BNE      0x100027f6 ; Timer_Get_State + 24
        0x100027f2:    7b08        .{      LDRB     r0,[r1,#0xc]
        0x100027f4:    4770        pG      BX       lr
        0x100027f6:    3118        .1      ADDS     r1,r1,#0x18
        0x100027f8:    4291        .B      CMP      r1,r2
        0x100027fa:    d3f7        ..      BCC      0x100027ec ; Timer_Get_State + 14
        0x100027fc:    20ff        .       MOVS     r0,#0xff
        0x100027fe:    4770        pG      BX       lr
    SYD_Timer_Init
        0x10002800:    b570        p.      PUSH     {r4-r6,lr}
        0x10002802:    460d        .F      MOV      r5,r1
        0x10002804:    4604        .F      MOV      r4,r0
        0x10002806:    f002f903    ....    BL       syd52832_chip_confirm ; 0x10004a10
        0x1000280a:    2800        .(      CMP      r0,#0
        0x1000280c:    d008        ..      BEQ      0x10002820 ; SYD_Timer_Init + 32
        0x1000280e:    485b        [H      LDR      r0,[pc,#364] ; [0x1000297c] = 0x200030d4
        0x10002810:    2118        .!      MOVS     r1,#0x18
        0x10002812:    7004        .p      STRB     r4,[r0,#0]
        0x10002814:    434c        LC      MULS     r4,r1,r4
        0x10002816:    1961        a.      ADDS     r1,r4,r5
        0x10002818:    6185        .a      STR      r5,[r0,#0x18]
        0x1000281a:    6141        Aa      STR      r1,[r0,#0x14]
        0x1000281c:    f7fffec9    ....    BL       timer_0_disable ; 0x100025b2
        0x10002820:    bd70        p.      POP      {r4-r6,pc}
    timer_0_delay_32us
        0x10002822:    4956        VI      LDR      r1,[pc,#344] ; [0x1000297c] = 0x200030d4
        0x10002824:    684a        Jh      LDR      r2,[r1,#4]
        0x10002826:    4611        .F      MOV      r1,r2
        0x10002828:    3120         1      ADDS     r1,r1,#0x20
        0x1000282a:    7508        .u      STRB     r0,[r1,#0x14]
        0x1000282c:    0a03        ..      LSRS     r3,r0,#8
        0x1000282e:    754b        Ku      STRB     r3,[r1,#0x15]
        0x10002830:    0c03        ..      LSRS     r3,r0,#16
        0x10002832:    758b        .u      STRB     r3,[r1,#0x16]
        0x10002834:    0e00        ..      LSRS     r0,r0,#24
        0x10002836:    75c8        .u      STRB     r0,[r1,#0x17]
        0x10002838:    7c8b        .|      LDRB     r3,[r1,#0x12]
        0x1000283a:    2001        .       MOVS     r0,#1
        0x1000283c:    4303        .C      ORRS     r3,r3,r0
        0x1000283e:    748b        .t      STRB     r3,[r1,#0x12]
        0x10002840:    7c4b        K|      LDRB     r3,[r1,#0x11]
        0x10002842:    4303        .C      ORRS     r3,r3,r0
        0x10002844:    744b        Kt      STRB     r3,[r1,#0x11]
        0x10002846:    7c0b        .|      LDRB     r3,[r1,#0x10]
        0x10002848:    4303        .C      ORRS     r3,r3,r0
        0x1000284a:    740b        .t      STRB     r3,[r1,#0x10]
        0x1000284c:    3220         2      ADDS     r2,r2,#0x20
        0x1000284e:    7cd3        .|      LDRB     r3,[r2,#0x13]
        0x10002850:    07db        ..      LSLS     r3,r3,#31
        0x10002852:    d0fc        ..      BEQ      0x1000284e ; timer_0_delay_32us + 44
        0x10002854:    7c0a        .|      LDRB     r2,[r1,#0x10]
        0x10002856:    0852        R.      LSRS     r2,r2,#1
        0x10002858:    0052        R.      LSLS     r2,r2,#1
        0x1000285a:    740a        .t      STRB     r2,[r1,#0x10]
        0x1000285c:    7c4a        J|      LDRB     r2,[r1,#0x11]
        0x1000285e:    4302        .C      ORRS     r2,r2,r0
        0x10002860:    744a        Jt      STRB     r2,[r1,#0x11]
        0x10002862:    4770        pG      BX       lr
    TIMER0_IRQHandler
        0x10002864:    4845        EH      LDR      r0,[pc,#276] ; [0x1000297c] = 0x200030d4
        0x10002866:    6840        @h      LDR      r0,[r0,#4]
        0x10002868:    3020         0      ADDS     r0,r0,#0x20
        0x1000286a:    7cc1        .|      LDRB     r1,[r0,#0x13]
        0x1000286c:    07c9        ..      LSLS     r1,r1,#31
        0x1000286e:    d008        ..      BEQ      0x10002882 ; TIMER0_IRQHandler + 30
        0x10002870:    7c41        A|      LDRB     r1,[r0,#0x11]
        0x10002872:    2201        ."      MOVS     r2,#1
        0x10002874:    4311        .C      ORRS     r1,r1,r2
        0x10002876:    7441        At      STRB     r1,[r0,#0x11]
        0x10002878:    4841        AH      LDR      r0,[pc,#260] ; [0x10002980] = 0x2000361c
        0x1000287a:    6800        .h      LDR      r0,[r0,#0]
        0x1000287c:    2800        .(      CMP      r0,#0
        0x1000287e:    d000        ..      BEQ      0x10002882 ; TIMER0_IRQHandler + 30
        0x10002880:    4700        .G      BX       r0
        0x10002882:    4770        pG      BX       lr
    timer_1_enable
        0x10002884:    b5f8        ..      PUSH     {r3-r7,lr}
        0x10002886:    4c3d        =L      LDR      r4,[pc,#244] ; [0x1000297c] = 0x200030d4
        0x10002888:    4607        .F      MOV      r7,r0
        0x1000288a:    6860        `h      LDR      r0,[r4,#4]
        0x1000288c:    460e        .F      MOV      r6,r1
        0x1000288e:    3020         0      ADDS     r0,r0,#0x20
        0x10002890:    7c01        .|      LDRB     r1,[r0,#0x10]
        0x10002892:    25fd        .%      MOVS     r5,#0xfd
        0x10002894:    0789        ..      LSLS     r1,r1,#30
        0x10002896:    2900        .)      CMP      r1,#0
        0x10002898:    da05        ..      BGE      0x100028a6 ; timer_1_enable + 34
        0x1000289a:    7c01        .|      LDRB     r1,[r0,#0x10]
        0x1000289c:    4029        )@      ANDS     r1,r1,r5
        0x1000289e:    7401        .t      STRB     r1,[r0,#0x10]
        0x100028a0:    2032        2       MOVS     r0,#0x32
        0x100028a2:    f002f95b    ..[.    BL       GAPBBDelayUS ; 0x10004b5c
        0x100028a6:    6860        `h      LDR      r0,[r4,#4]
        0x100028a8:    3020         0      ADDS     r0,r0,#0x20
        0x100028aa:    7607        .v      STRB     r7,[r0,#0x18]
        0x100028ac:    0a39        9.      LSRS     r1,r7,#8
        0x100028ae:    7641        Av      STRB     r1,[r0,#0x19]
        0x100028b0:    0c39        9.      LSRS     r1,r7,#16
        0x100028b2:    7681        .v      STRB     r1,[r0,#0x1a]
        0x100028b4:    0e39        9.      LSRS     r1,r7,#24
        0x100028b6:    76c1        .v      STRB     r1,[r0,#0x1b]
        0x100028b8:    7c01        .|      LDRB     r1,[r0,#0x10]
        0x100028ba:    2220         "      MOVS     r2,#0x20
        0x100028bc:    4311        .C      ORRS     r1,r1,r2
        0x100028be:    7401        .t      STRB     r1,[r0,#0x10]
        0x100028c0:    7c81        .|      LDRB     r1,[r0,#0x12]
        0x100028c2:    4029        )@      ANDS     r1,r1,r5
        0x100028c4:    7481        .t      STRB     r1,[r0,#0x12]
        0x100028c6:    492e        .I      LDR      r1,[pc,#184] ; [0x10002980] = 0x2000361c
        0x100028c8:    604e        N`      STR      r6,[r1,#4]
        0x100028ca:    7c41        A|      LDRB     r1,[r0,#0x11]
        0x100028cc:    2502        .%      MOVS     r5,#2
        0x100028ce:    4329        )C      ORRS     r1,r1,r5
        0x100028d0:    7441        At      STRB     r1,[r0,#0x11]
        0x100028d2:    2009        .       MOVS     r0,#9
        0x100028d4:    f000f89e    ....    BL       __NVIC_EnableIRQ ; 0x10002a14
        0x100028d8:    6860        `h      LDR      r0,[r4,#4]
        0x100028da:    3020         0      ADDS     r0,r0,#0x20
        0x100028dc:    7c01        .|      LDRB     r1,[r0,#0x10]
        0x100028de:    4329        )C      ORRS     r1,r1,r5
        0x100028e0:    7401        .t      STRB     r1,[r0,#0x10]
        0x100028e2:    bdf8        ..      POP      {r3-r7,pc}
    timer_1_disable
        0x100028e4:    b510        ..      PUSH     {r4,lr}
        0x100028e6:    4c25        %L      LDR      r4,[pc,#148] ; [0x1000297c] = 0x200030d4
        0x100028e8:    6860        `h      LDR      r0,[r4,#4]
        0x100028ea:    3020         0      ADDS     r0,r0,#0x20
        0x100028ec:    7c01        .|      LDRB     r1,[r0,#0x10]
        0x100028ee:    0789        ..      LSLS     r1,r1,#30
        0x100028f0:    d50f        ..      BPL      0x10002912 ; timer_1_disable + 46
        0x100028f2:    7c01        .|      LDRB     r1,[r0,#0x10]
        0x100028f4:    22fd        ."      MOVS     r2,#0xfd
        0x100028f6:    4011        .@      ANDS     r1,r1,r2
        0x100028f8:    7401        .t      STRB     r1,[r0,#0x10]
        0x100028fa:    2009        .       MOVS     r0,#9
        0x100028fc:    f000f893    ....    BL       __NVIC_DisableIRQ ; 0x10002a26
        0x10002900:    6860        `h      LDR      r0,[r4,#4]
        0x10002902:    3020         0      ADDS     r0,r0,#0x20
        0x10002904:    7c41        A|      LDRB     r1,[r0,#0x11]
        0x10002906:    2202        ."      MOVS     r2,#2
        0x10002908:    4311        .C      ORRS     r1,r1,r2
        0x1000290a:    7441        At      STRB     r1,[r0,#0x11]
        0x1000290c:    2032        2       MOVS     r0,#0x32
        0x1000290e:    f002f925    ..%.    BL       GAPBBDelayUS ; 0x10004b5c
        0x10002912:    bd10        ..      POP      {r4,pc}
    TIMER1_IRQHandler
        0x10002914:    4819        .H      LDR      r0,[pc,#100] ; [0x1000297c] = 0x200030d4
        0x10002916:    6840        @h      LDR      r0,[r0,#4]
        0x10002918:    3020         0      ADDS     r0,r0,#0x20
        0x1000291a:    7cc1        .|      LDRB     r1,[r0,#0x13]
        0x1000291c:    0789        ..      LSLS     r1,r1,#30
        0x1000291e:    d508        ..      BPL      0x10002932 ; TIMER1_IRQHandler + 30
        0x10002920:    7c41        A|      LDRB     r1,[r0,#0x11]
        0x10002922:    2202        ."      MOVS     r2,#2
        0x10002924:    4311        .C      ORRS     r1,r1,r2
        0x10002926:    7441        At      STRB     r1,[r0,#0x11]
        0x10002928:    4815        .H      LDR      r0,[pc,#84] ; [0x10002980] = 0x2000361c
        0x1000292a:    6840        @h      LDR      r0,[r0,#4]
        0x1000292c:    2800        .(      CMP      r0,#0
        0x1000292e:    d000        ..      BEQ      0x10002932 ; TIMER1_IRQHandler + 30
        0x10002930:    4700        .G      BX       r0
        0x10002932:    4770        pG      BX       lr
    timer_2_enable
        0x10002934:    b5f8        ..      PUSH     {r3-r7,lr}
        0x10002936:    4c11        .L      LDR      r4,[pc,#68] ; [0x1000297c] = 0x200030d4
        0x10002938:    4607        .F      MOV      r7,r0
        0x1000293a:    6860        `h      LDR      r0,[r4,#4]
        0x1000293c:    460e        .F      MOV      r6,r1
        0x1000293e:    3020         0      ADDS     r0,r0,#0x20
        0x10002940:    7c01        .|      LDRB     r1,[r0,#0x10]
        0x10002942:    25fb        .%      MOVS     r5,#0xfb
        0x10002944:    0749        I.      LSLS     r1,r1,#29
        0x10002946:    2900        .)      CMP      r1,#0
        0x10002948:    da05        ..      BGE      0x10002956 ; timer_2_enable + 34
        0x1000294a:    7c01        .|      LDRB     r1,[r0,#0x10]
        0x1000294c:    4029        )@      ANDS     r1,r1,r5
        0x1000294e:    7401        .t      STRB     r1,[r0,#0x10]
        0x10002950:    2032        2       MOVS     r0,#0x32
        0x10002952:    f002f903    ....    BL       GAPBBDelayUS ; 0x10004b5c
        0x10002956:    6860        `h      LDR      r0,[r4,#4]
        0x10002958:    3020         0      ADDS     r0,r0,#0x20
        0x1000295a:    7707        .w      STRB     r7,[r0,#0x1c]
        0x1000295c:    0a39        9.      LSRS     r1,r7,#8
        0x1000295e:    7741        Aw      STRB     r1,[r0,#0x1d]
        0x10002960:    0c39        9.      LSRS     r1,r7,#16
        0x10002962:    7781        .w      STRB     r1,[r0,#0x1e]
        0x10002964:    0e39        9.      LSRS     r1,r7,#24
        0x10002966:    77c1        .w      STRB     r1,[r0,#0x1f]
        0x10002968:    7c01        .|      LDRB     r1,[r0,#0x10]
        0x1000296a:    2240        @"      MOVS     r2,#0x40
        0x1000296c:    4311        .C      ORRS     r1,r1,r2
        0x1000296e:    7401        .t      STRB     r1,[r0,#0x10]
        0x10002970:    7c81        .|      LDRB     r1,[r0,#0x12]
        0x10002972:    4029        )@      ANDS     r1,r1,r5
        0x10002974:    7481        .t      STRB     r1,[r0,#0x12]
        0x10002976:    4902        .I      LDR      r1,[pc,#8] ; [0x10002980] = 0x2000361c
        0x10002978:    608e        .`      STR      r6,[r1,#8]
        0x1000297a:    e005        ..      B        0x10002988 ; timer_2_enable + 84
    $d
        0x1000297c:    200030d4    .0.     DCD    536883412
        0x10002980:    2000361c    .6.     DCD    536884764
        0x10002984:    10002645    E&..    DCD    268445253
    $t
        0x10002988:    7c41        A|      LDRB     r1,[r0,#0x11]
        0x1000298a:    2504        .%      MOVS     r5,#4
        0x1000298c:    4329        )C      ORRS     r1,r1,r5
        0x1000298e:    7441        At      STRB     r1,[r0,#0x11]
        0x10002990:    200a        .       MOVS     r0,#0xa
        0x10002992:    f000f83f    ..?.    BL       __NVIC_EnableIRQ ; 0x10002a14
        0x10002996:    6860        `h      LDR      r0,[r4,#4]
        0x10002998:    3020         0      ADDS     r0,r0,#0x20
        0x1000299a:    7c01        .|      LDRB     r1,[r0,#0x10]
        0x1000299c:    4329        )C      ORRS     r1,r1,r5
        0x1000299e:    7401        .t      STRB     r1,[r0,#0x10]
        0x100029a0:    bdf8        ..      POP      {r3-r7,pc}
    timer_2_get_val
        0x100029a2:    4828        (H      LDR      r0,[pc,#160] ; [0x10002a44] = 0x200030d4
        0x100029a4:    210c        .!      MOVS     r1,#0xc
        0x100029a6:    6840        @h      LDR      r0,[r0,#4]
        0x100029a8:    3040        @0      ADDS     r0,r0,#0x40
        0x100029aa:    1841        A.      ADDS     r1,r0,r1
        0x100029ac:    780a        .x      LDRB     r2,[r1,#0]
        0x100029ae:    4610        .F      MOV      r0,r2
        0x100029b0:    784a        Jx      LDRB     r2,[r1,#1]
        0x100029b2:    0212        ..      LSLS     r2,r2,#8
        0x100029b4:    4310        .C      ORRS     r0,r0,r2
        0x100029b6:    788a        .x      LDRB     r2,[r1,#2]
        0x100029b8:    78c9        .x      LDRB     r1,[r1,#3]
        0x100029ba:    0412        ..      LSLS     r2,r2,#16
        0x100029bc:    4310        .C      ORRS     r0,r0,r2
        0x100029be:    0609        ..      LSLS     r1,r1,#24
        0x100029c0:    4308        .C      ORRS     r0,r0,r1
        0x100029c2:    4770        pG      BX       lr
    timer_2_disable
        0x100029c4:    b510        ..      PUSH     {r4,lr}
        0x100029c6:    4c1f        .L      LDR      r4,[pc,#124] ; [0x10002a44] = 0x200030d4
        0x100029c8:    6860        `h      LDR      r0,[r4,#4]
        0x100029ca:    3020         0      ADDS     r0,r0,#0x20
        0x100029cc:    7c01        .|      LDRB     r1,[r0,#0x10]
        0x100029ce:    0749        I.      LSLS     r1,r1,#29
        0x100029d0:    d50f        ..      BPL      0x100029f2 ; timer_2_disable + 46
        0x100029d2:    7c01        .|      LDRB     r1,[r0,#0x10]
        0x100029d4:    22fb        ."      MOVS     r2,#0xfb
        0x100029d6:    4011        .@      ANDS     r1,r1,r2
        0x100029d8:    7401        .t      STRB     r1,[r0,#0x10]
        0x100029da:    200a        .       MOVS     r0,#0xa
        0x100029dc:    f000f823    ..#.    BL       __NVIC_DisableIRQ ; 0x10002a26
        0x100029e0:    6860        `h      LDR      r0,[r4,#4]
        0x100029e2:    3020         0      ADDS     r0,r0,#0x20
        0x100029e4:    7c41        A|      LDRB     r1,[r0,#0x11]
        0x100029e6:    2204        ."      MOVS     r2,#4
        0x100029e8:    4311        .C      ORRS     r1,r1,r2
        0x100029ea:    7441        At      STRB     r1,[r0,#0x11]
        0x100029ec:    2032        2       MOVS     r0,#0x32
        0x100029ee:    f002f8b5    ....    BL       GAPBBDelayUS ; 0x10004b5c
        0x100029f2:    bd10        ..      POP      {r4,pc}
    TIMER2_IRQHandler
        0x100029f4:    4813        .H      LDR      r0,[pc,#76] ; [0x10002a44] = 0x200030d4
        0x100029f6:    6840        @h      LDR      r0,[r0,#4]
        0x100029f8:    3020         0      ADDS     r0,r0,#0x20
        0x100029fa:    7cc1        .|      LDRB     r1,[r0,#0x13]
        0x100029fc:    0749        I.      LSLS     r1,r1,#29
        0x100029fe:    d508        ..      BPL      0x10002a12 ; TIMER2_IRQHandler + 30
        0x10002a00:    7c41        A|      LDRB     r1,[r0,#0x11]
        0x10002a02:    2204        ."      MOVS     r2,#4
        0x10002a04:    4311        .C      ORRS     r1,r1,r2
        0x10002a06:    7441        At      STRB     r1,[r0,#0x11]
        0x10002a08:    480f        .H      LDR      r0,[pc,#60] ; [0x10002a48] = 0x2000361c
        0x10002a0a:    6880        .h      LDR      r0,[r0,#8]
        0x10002a0c:    2800        .(      CMP      r0,#0
        0x10002a0e:    d000        ..      BEQ      0x10002a12 ; TIMER2_IRQHandler + 30
        0x10002a10:    4700        .G      BX       r0
        0x10002a12:    4770        pG      BX       lr
    __NVIC_EnableIRQ
        0x10002a14:    2800        .(      CMP      r0,#0
        0x10002a16:    db05        ..      BLT      0x10002a24 ; __NVIC_EnableIRQ + 16
        0x10002a18:    06c1        ..      LSLS     r1,r0,#27
        0x10002a1a:    0ec9        ..      LSRS     r1,r1,#27
        0x10002a1c:    2001        .       MOVS     r0,#1
        0x10002a1e:    4088        .@      LSLS     r0,r0,r1
        0x10002a20:    490a        .I      LDR      r1,[pc,#40] ; [0x10002a4c] = 0xe000e100
        0x10002a22:    6008        .`      STR      r0,[r1,#0]
        0x10002a24:    4770        pG      BX       lr
    __NVIC_DisableIRQ
        0x10002a26:    2800        .(      CMP      r0,#0
        0x10002a28:    db0a        ..      BLT      0x10002a40 ; __NVIC_DisableIRQ + 26
        0x10002a2a:    06c1        ..      LSLS     r1,r0,#27
        0x10002a2c:    0ec9        ..      LSRS     r1,r1,#27
        0x10002a2e:    2001        .       MOVS     r0,#1
        0x10002a30:    4088        .@      LSLS     r0,r0,r1
        0x10002a32:    4906        .I      LDR      r1,[pc,#24] ; [0x10002a4c] = 0xe000e100
        0x10002a34:    3180        .1      ADDS     r1,r1,#0x80
        0x10002a36:    6008        .`      STR      r0,[r1,#0]
        0x10002a38:    f3bf8f4f    ..O.    DSB      
        0x10002a3c:    f3bf8f6f    ..o.    ISB      
        0x10002a40:    4770        pG      BX       lr
    $d
        0x10002a42:    0000        ..      DCW    0
        0x10002a44:    200030d4    .0.     DCD    536883412
        0x10002a48:    2000361c    .6.     DCD    536884764
        0x10002a4c:    e000e100    ....    DCD    3758153984
    $t
    .text
    rtc_get_calendar
        0x10002a50:    b518        ..      PUSH     {r3,r4,lr}
        0x10002a52:    48f8        .H      LDR      r0,[pc,#992] ; [0x10002e34] = 0x500010c0
        0x10002a54:    6800        .h      LDR      r0,[r0,#0]
        0x10002a56:    9000        ..      STR      r0,[sp,#0]
        0x10002a58:    2000        .       MOVS     r0,#0
        0x10002a5a:    4669        iF      MOV      r1,sp
        0x10002a5c:    5c0b        .\      LDRB     r3,[r1,r0]
        0x10002a5e:    240a        .$      MOVS     r4,#0xa
        0x10002a60:    091a        ..      LSRS     r2,r3,#4
        0x10002a62:    4362        bC      MULS     r2,r4,r2
        0x10002a64:    071b        ..      LSLS     r3,r3,#28
        0x10002a66:    540a        .T      STRB     r2,[r1,r0]
        0x10002a68:    0f1b        ..      LSRS     r3,r3,#28
        0x10002a6a:    18d2        ..      ADDS     r2,r2,r3
        0x10002a6c:    540a        .T      STRB     r2,[r1,r0]
        0x10002a6e:    1c40        @.      ADDS     r0,r0,#1
        0x10002a70:    2803        .(      CMP      r0,#3
        0x10002a72:    dbf3        ..      BLT      0x10002a5c ; rtc_get_calendar + 12
        0x10002a74:    9800        ..      LDR      r0,[sp,#0]
        0x10002a76:    bd18        ..      POP      {r3,r4,pc}
    RTC_RUN
        0x10002a78:    b508        ..      PUSH     {r3,lr}
        0x10002a7a:    f7ffffe9    ....    BL       rtc_get_calendar ; 0x10002a50
        0x10002a7e:    9000        ..      STR      r0,[sp,#0]
        0x10002a80:    4668        hF      MOV      r0,sp
        0x10002a82:    7801        .x      LDRB     r1,[r0,#0]
        0x10002a84:    78c0        .x      LDRB     r0,[r0,#3]
        0x10002a86:    4aec        .J      LDR      r2,[pc,#944] ; [0x10002e38] = 0x15180
        0x10002a88:    1e40        @.      SUBS     r0,r0,#1
        0x10002a8a:    4350        PC      MULS     r0,r2,r0
        0x10002a8c:    180a        ..      ADDS     r2,r1,r0
        0x10002a8e:    4668        hF      MOV      r0,sp
        0x10002a90:    7881        .x      LDRB     r1,[r0,#2]
        0x10002a92:    20e1        .       MOVS     r0,#0xe1
        0x10002a94:    0100        ..      LSLS     r0,r0,#4
        0x10002a96:    4341        AC      MULS     r1,r0,r1
        0x10002a98:    4668        hF      MOV      r0,sp
        0x10002a9a:    7840        @x      LDRB     r0,[r0,#1]
        0x10002a9c:    233c        <#      MOVS     r3,#0x3c
        0x10002a9e:    4358        XC      MULS     r0,r3,r0
        0x10002aa0:    1808        ..      ADDS     r0,r1,r0
        0x10002aa2:    1811        ..      ADDS     r1,r2,r0
        0x10002aa4:    4ae5        .J      LDR      r2,[pc,#916] ; [0x10002e3c] = 0x200030f0
        0x10002aa6:    6910        .i      LDR      r0,[r2,#0x10]
        0x10002aa8:    4281        .B      CMP      r1,r0
        0x10002aaa:    d301        ..      BCC      0x10002ab0 ; RTC_RUN + 56
        0x10002aac:    1a08        ..      SUBS     r0,r1,r0
        0x10002aae:    e002        ..      B        0x10002ab6 ; RTC_RUN + 62
        0x10002ab0:    4be3        .K      LDR      r3,[pc,#908] ; [0x10002e40] = 0x93a80
        0x10002ab2:    1a08        ..      SUBS     r0,r1,r0
        0x10002ab4:    18c0        ..      ADDS     r0,r0,r3
        0x10002ab6:    6111        .a      STR      r1,[r2,#0x10]
        0x10002ab8:    bd08        ..      POP      {r3,pc}
    rtc_set_compare
        0x10002aba:    b570        p.      PUSH     {r4-r6,lr}
        0x10002abc:    460d        .F      MOV      r5,r1
        0x10002abe:    2800        .(      CMP      r0,#0
        0x10002ac0:    d002        ..      BEQ      0x10002ac8 ; rtc_set_compare + 14
        0x10002ac2:    4edc        .N      LDR      r6,[pc,#880] ; [0x10002e34] = 0x500010c0
        0x10002ac4:    3e08        .>      SUBS     r6,r6,#8
        0x10002ac6:    e001        ..      B        0x10002acc ; rtc_set_compare + 18
        0x10002ac8:    4eda        .N      LDR      r6,[pc,#872] ; [0x10002e34] = 0x500010c0
        0x10002aca:    3e0c        .>      SUBS     r6,r6,#0xc
        0x10002acc:    2400        .$      MOVS     r4,#0
        0x10002ace:    5d28        (]      LDRB     r0,[r5,r4]
        0x10002ad0:    210a        .!      MOVS     r1,#0xa
        0x10002ad2:    f002fbcb    ....    BL       __aeabi_uidiv ; 0x1000526c
        0x10002ad6:    0100        ..      LSLS     r0,r0,#4
        0x10002ad8:    4301        .C      ORRS     r1,r1,r0
        0x10002ada:    5529        )U      STRB     r1,[r5,r4]
        0x10002adc:    1c64        d.      ADDS     r4,r4,#1
        0x10002ade:    2c03        .,      CMP      r4,#3
        0x10002ae0:    dbf5        ..      BLT      0x10002ace ; rtc_set_compare + 20
        0x10002ae2:    4628        (F      MOV      r0,r5
        0x10002ae4:    f002fc26    ..&.    BL       __aeabi_uread4 ; 0x10005334
        0x10002ae8:    6030        0`      STR      r0,[r6,#0]
        0x10002aea:    2064        d       MOVS     r0,#0x64
        0x10002aec:    f002f836    ..6.    BL       GAPBBDelayUS ; 0x10004b5c
        0x10002af0:    48d0        .H      LDR      r0,[pc,#832] ; [0x10002e34] = 0x500010c0
        0x10002af2:    3820         8      SUBS     r0,r0,#0x20
        0x10002af4:    7ac1        .z      LDRB     r1,[r0,#0xb]
        0x10002af6:    2208        ."      MOVS     r2,#8
        0x10002af8:    4311        .C      ORRS     r1,r1,r2
        0x10002afa:    72c1        .r      STRB     r1,[r0,#0xb]
        0x10002afc:    bd70        p.      POP      {r4-r6,pc}
    RTC_SET
        0x10002afe:    b538        8.      PUSH     {r3-r5,lr}
        0x10002b00:    49ce        .I      LDR      r1,[pc,#824] ; [0x10002e3c] = 0x200030f0
        0x10002b02:    6909        .i      LDR      r1,[r1,#0x10]
        0x10002b04:    1844        D.      ADDS     r4,r0,r1
        0x10002b06:    49cc        .I      LDR      r1,[pc,#816] ; [0x10002e38] = 0x15180
        0x10002b08:    4620         F      MOV      r0,r4
        0x10002b0a:    f002fbaf    ....    BL       __aeabi_uidiv ; 0x1000526c
        0x10002b0e:    1c42        B.      ADDS     r2,r0,#1
        0x10002b10:    4668        hF      MOV      r0,sp
        0x10002b12:    70c2        .p      STRB     r2,[r0,#3]
        0x10002b14:    25e1        .%      MOVS     r5,#0xe1
        0x10002b16:    4608        .F      MOV      r0,r1
        0x10002b18:    012d        -.      LSLS     r5,r5,#4
        0x10002b1a:    4629        )F      MOV      r1,r5
        0x10002b1c:    f002fba6    ....    BL       __aeabi_uidiv ; 0x1000526c
        0x10002b20:    4602        .F      MOV      r2,r0
        0x10002b22:    4668        hF      MOV      r0,sp
        0x10002b24:    7082        .p      STRB     r2,[r0,#2]
        0x10002b26:    4629        )F      MOV      r1,r5
        0x10002b28:    4620         F      MOV      r0,r4
        0x10002b2a:    f002fb9f    ....    BL       __aeabi_uidiv ; 0x1000526c
        0x10002b2e:    4608        .F      MOV      r0,r1
        0x10002b30:    213c        <!      MOVS     r1,#0x3c
        0x10002b32:    f002fb9b    ....    BL       __aeabi_uidiv ; 0x1000526c
        0x10002b36:    4601        .F      MOV      r1,r0
        0x10002b38:    4668        hF      MOV      r0,sp
        0x10002b3a:    7041        Ap      STRB     r1,[r0,#1]
        0x10002b3c:    213c        <!      MOVS     r1,#0x3c
        0x10002b3e:    4620         F      MOV      r0,r4
        0x10002b40:    f002fb94    ....    BL       __aeabi_uidiv ; 0x1000526c
        0x10002b44:    4668        hF      MOV      r0,sp
        0x10002b46:    7001        .p      STRB     r1,[r0,#0]
        0x10002b48:    4669        iF      MOV      r1,sp
        0x10002b4a:    2000        .       MOVS     r0,#0
        0x10002b4c:    f7ffffb5    ....    BL       rtc_set_compare ; 0x10002aba
        0x10002b50:    bd38        8.      POP      {r3-r5,pc}
    RTC_Refressh
        0x10002b52:    b538        8.      PUSH     {r3-r5,lr}
        0x10002b54:    f7ffff7c    ..|.    BL       rtc_get_calendar ; 0x10002a50
        0x10002b58:    9000        ..      STR      r0,[sp,#0]
        0x10002b5a:    4668        hF      MOV      r0,sp
        0x10002b5c:    7801        .x      LDRB     r1,[r0,#0]
        0x10002b5e:    78c0        .x      LDRB     r0,[r0,#3]
        0x10002b60:    4ab5        .J      LDR      r2,[pc,#724] ; [0x10002e38] = 0x15180
        0x10002b62:    1e40        @.      SUBS     r0,r0,#1
        0x10002b64:    4350        PC      MULS     r0,r2,r0
        0x10002b66:    180a        ..      ADDS     r2,r1,r0
        0x10002b68:    4668        hF      MOV      r0,sp
        0x10002b6a:    7881        .x      LDRB     r1,[r0,#2]
        0x10002b6c:    20e1        .       MOVS     r0,#0xe1
        0x10002b6e:    0100        ..      LSLS     r0,r0,#4
        0x10002b70:    4341        AC      MULS     r1,r0,r1
        0x10002b72:    4668        hF      MOV      r0,sp
        0x10002b74:    7840        @x      LDRB     r0,[r0,#1]
        0x10002b76:    233c        <#      MOVS     r3,#0x3c
        0x10002b78:    4358        XC      MULS     r0,r3,r0
        0x10002b7a:    1808        ..      ADDS     r0,r1,r0
        0x10002b7c:    1811        ..      ADDS     r1,r2,r0
        0x10002b7e:    4baf        .K      LDR      r3,[pc,#700] ; [0x10002e3c] = 0x200030f0
        0x10002b80:    48b0        .H      LDR      r0,[pc,#704] ; [0x10002e44] = 0x200030b8
        0x10002b82:    6a5a        Zj      LDR      r2,[r3,#0x24]
        0x10002b84:    6804        .h      LDR      r4,[r0,#0]
        0x10002b86:    4291        .B      CMP      r1,r2
        0x10002b88:    d301        ..      BCC      0x10002b8e ; RTC_Refressh + 60
        0x10002b8a:    1a8a        ..      SUBS     r2,r1,r2
        0x10002b8c:    e002        ..      B        0x10002b94 ; RTC_Refressh + 66
        0x10002b8e:    4dac        .M      LDR      r5,[pc,#688] ; [0x10002e40] = 0x93a80
        0x10002b90:    1a8a        ..      SUBS     r2,r1,r2
        0x10002b92:    1952        R.      ADDS     r2,r2,r5
        0x10002b94:    18a2        ..      ADDS     r2,r4,r2
        0x10002b96:    6002        .`      STR      r2,[r0,#0]
        0x10002b98:    4610        .F      MOV      r0,r2
        0x10002b9a:    6259        Yb      STR      r1,[r3,#0x24]
        0x10002b9c:    bd38        8.      POP      {r3-r5,pc}
    RTC_EVT_Creat
        0x10002b9e:    b570        p.      PUSH     {r4-r6,lr}
        0x10002ba0:    2900        .)      CMP      r1,#0
        0x10002ba2:    d00b        ..      BEQ      0x10002bbc ; RTC_EVT_Creat + 30
        0x10002ba4:    4da5        .M      LDR      r5,[pc,#660] ; [0x10002e3c] = 0x200030f0
        0x10002ba6:    696e        ni      LDR      r6,[r5,#0x14]
        0x10002ba8:    69ac        .i      LDR      r4,[r5,#0x18]
        0x10002baa:    42b4        .B      CMP      r4,r6
        0x10002bac:    d206        ..      BCS      0x10002bbc ; RTC_EVT_Creat + 30
        0x10002bae:    60a1        .`      STR      r1,[r4,#8]
        0x10002bb0:    c405        ..      STM      r4!,{r0,r2}
        0x10002bb2:    7123        #q      STRB     r3,[r4,#4]
        0x10002bb4:    2000        .       MOVS     r0,#0
        0x10002bb6:    60e0        .`      STR      r0,[r4,#0xc]
        0x10002bb8:    3410        .4      ADDS     r4,r4,#0x10
        0x10002bba:    61ac        .a      STR      r4,[r5,#0x18]
        0x10002bbc:    bd70        p.      POP      {r4-r6,pc}
    Min_RTC
        0x10002bbe:    4288        .B      CMP      r0,r1
        0x10002bc0:    d300        ..      BCC      0x10002bc4 ; Min_RTC + 6
        0x10002bc2:    4608        .F      MOV      r0,r1
        0x10002bc4:    4770        pG      BX       lr
    rtc_int_disable
        0x10002bc6:    499b        .I      LDR      r1,[pc,#620] ; [0x10002e34] = 0x500010c0
        0x10002bc8:    3920         9      SUBS     r1,r1,#0x20
        0x10002bca:    7a8a        .z      LDRB     r2,[r1,#0xa]
        0x10002bcc:    230f        .#      MOVS     r3,#0xf
        0x10002bce:    4383        .C      BICS     r3,r3,r0
        0x10002bd0:    7a88        .z      LDRB     r0,[r1,#0xa]
        0x10002bd2:    401a        .@      ANDS     r2,r2,r3
        0x10002bd4:    0900        ..      LSRS     r0,r0,#4
        0x10002bd6:    0100        ..      LSLS     r0,r0,#4
        0x10002bd8:    4310        .C      ORRS     r0,r0,r2
        0x10002bda:    7288        .r      STRB     r0,[r1,#0xa]
        0x10002bdc:    4770        pG      BX       lr
    Timer_RTCEVT_Trigger
        0x10002bde:    b570        p.      PUSH     {r4-r6,lr}
        0x10002be0:    4604        .F      MOV      r4,r0
        0x10002be2:    0740        @.      LSLS     r0,r0,#29
        0x10002be4:    d501        ..      BPL      0x10002bea ; Timer_RTCEVT_Trigger + 12
        0x10002be6:    f7ffff33    ..3.    BL       rtc_get_calendar ; 0x10002a50
        0x10002bea:    07e0        ..      LSLS     r0,r4,#31
        0x10002bec:    d041        A.      BEQ      0x10002c72 ; Timer_RTCEVT_Trigger + 148
        0x10002bee:    4c93        .L      LDR      r4,[pc,#588] ; [0x10002e3c] = 0x200030f0
        0x10002bf0:    2118        .!      MOVS     r1,#0x18
        0x10002bf2:    7860        `x      LDRB     r0,[r4,#1]
        0x10002bf4:    6866        fh      LDR      r6,[r4,#4]
        0x10002bf6:    4348        HC      MULS     r0,r1,r0
        0x10002bf8:    6961        ai      LDR      r1,[r4,#0x14]
        0x10002bfa:    1a08        ..      SUBS     r0,r1,r0
        0x10002bfc:    e003        ..      B        0x10002c06 ; Timer_RTCEVT_Trigger + 40
        0x10002bfe:    7b02        .{      LDRB     r2,[r0,#0xc]
        0x10002c00:    2a00        .*      CMP      r2,#0
        0x10002c02:    d102        ..      BNE      0x10002c0a ; Timer_RTCEVT_Trigger + 44
        0x10002c04:    3018        .0      ADDS     r0,r0,#0x18
        0x10002c06:    4288        .B      CMP      r0,r1
        0x10002c08:    d3f9        ..      BCC      0x10002bfe ; Timer_RTCEVT_Trigger + 32
        0x10002c0a:    4288        .B      CMP      r0,r1
        0x10002c0c:    d231        1.      BCS      0x10002c72 ; Timer_RTCEVT_Trigger + 148
        0x10002c0e:    f7ffff33    ..3.    BL       RTC_RUN ; 0x10002a78
        0x10002c12:    6861        ah      LDR      r1,[r4,#4]
        0x10002c14:    68e0        .h      LDR      r0,[r4,#0xc]
        0x10002c16:    1840        @.      ADDS     r0,r0,r1
        0x10002c18:    60e0        .`      STR      r0,[r4,#0xc]
        0x10002c1a:    2000        .       MOVS     r0,#0
        0x10002c1c:    43c0        .C      MVNS     r0,r0
        0x10002c1e:    6060        ``      STR      r0,[r4,#4]
        0x10002c20:    7860        `x      LDRB     r0,[r4,#1]
        0x10002c22:    2118        .!      MOVS     r1,#0x18
        0x10002c24:    4348        HC      MULS     r0,r1,r0
        0x10002c26:    6961        ai      LDR      r1,[r4,#0x14]
        0x10002c28:    1a0d        ..      SUBS     r5,r1,r0
        0x10002c2a:    e018        ..      B        0x10002c5e ; Timer_RTCEVT_Trigger + 128
        0x10002c2c:    7b28        ({      LDRB     r0,[r5,#0xc]
        0x10002c2e:    2800        .(      CMP      r0,#0
        0x10002c30:    d014        ..      BEQ      0x10002c5c ; Timer_RTCEVT_Trigger + 126
        0x10002c32:    6928        (i      LDR      r0,[r5,#0x10]
        0x10002c34:    42b0        .B      CMP      r0,r6
        0x10002c36:    d104        ..      BNE      0x10002c42 ; Timer_RTCEVT_Trigger + 100
        0x10002c38:    6868        hh      LDR      r0,[r5,#4]
        0x10002c3a:    2800        .(      CMP      r0,#0
        0x10002c3c:    d007        ..      BEQ      0x10002c4e ; Timer_RTCEVT_Trigger + 112
        0x10002c3e:    4780        .G      BLX      r0
        0x10002c40:    e005        ..      B        0x10002c4e ; Timer_RTCEVT_Trigger + 112
        0x10002c42:    1b80        ..      SUBS     r0,r0,r6
        0x10002c44:    6128        (a      STR      r0,[r5,#0x10]
        0x10002c46:    d002        ..      BEQ      0x10002c4e ; Timer_RTCEVT_Trigger + 112
        0x10002c48:    68a9        .h      LDR      r1,[r5,#8]
        0x10002c4a:    4288        .B      CMP      r0,r1
        0x10002c4c:    d901        ..      BLS      0x10002c52 ; Timer_RTCEVT_Trigger + 116
        0x10002c4e:    68a8        .h      LDR      r0,[r5,#8]
        0x10002c50:    6128        (a      STR      r0,[r5,#0x10]
        0x10002c52:    6861        ah      LDR      r1,[r4,#4]
        0x10002c54:    4288        .B      CMP      r0,r1
        0x10002c56:    d900        ..      BLS      0x10002c5a ; Timer_RTCEVT_Trigger + 124
        0x10002c58:    4608        .F      MOV      r0,r1
        0x10002c5a:    6060        ``      STR      r0,[r4,#4]
        0x10002c5c:    3518        .5      ADDS     r5,r5,#0x18
        0x10002c5e:    6960        `i      LDR      r0,[r4,#0x14]
        0x10002c60:    4285        .B      CMP      r5,r0
        0x10002c62:    d3e3        ..      BCC      0x10002c2c ; Timer_RTCEVT_Trigger + 78
        0x10002c64:    6860        `h      LDR      r0,[r4,#4]
        0x10002c66:    2800        .(      CMP      r0,#0
        0x10002c68:    d004        ..      BEQ      0x10002c74 ; Timer_RTCEVT_Trigger + 150
        0x10002c6a:    1c41        A.      ADDS     r1,r0,#1
        0x10002c6c:    d002        ..      BEQ      0x10002c74 ; Timer_RTCEVT_Trigger + 150
        0x10002c6e:    f7ffff46    ..F.    BL       RTC_SET ; 0x10002afe
        0x10002c72:    bd70        p.      POP      {r4-r6,pc}
        0x10002c74:    2001        .       MOVS     r0,#1
        0x10002c76:    f7ffffa6    ....    BL       rtc_int_disable ; 0x10002bc6
        0x10002c7a:    bd70        p.      POP      {r4-r6,pc}
    RTC_EVT_Clr
        0x10002c7c:    496f        oI      LDR      r1,[pc,#444] ; [0x10002e3c] = 0x200030f0
        0x10002c7e:    688a        .h      LDR      r2,[r1,#8]
        0x10002c80:    4382        .C      BICS     r2,r2,r0
        0x10002c82:    608a        .`      STR      r2,[r1,#8]
        0x10002c84:    4770        pG      BX       lr
    RTC_EVT_Stop
        0x10002c86:    b5f8        ..      PUSH     {r3-r7,lr}
        0x10002c88:    4604        .F      MOV      r4,r0
        0x10002c8a:    f7fffef5    ....    BL       RTC_RUN ; 0x10002a78
        0x10002c8e:    4a6b        kJ      LDR      r2,[pc,#428] ; [0x10002e3c] = 0x200030f0
        0x10002c90:    60d0        .`      STR      r0,[r2,#0xc]
        0x10002c92:    b672        r.      CPSID    i
        0x10002c94:    2100        .!      MOVS     r1,#0
        0x10002c96:    43c9        .C      MVNS     r1,r1
        0x10002c98:    6051        Q`      STR      r1,[r2,#4]
        0x10002c9a:    7851        Qx      LDRB     r1,[r2,#1]
        0x10002c9c:    2318        .#      MOVS     r3,#0x18
        0x10002c9e:    4359        YC      MULS     r1,r3,r1
        0x10002ca0:    6953        Si      LDR      r3,[r2,#0x14]
        0x10002ca2:    1a59        Y.      SUBS     r1,r3,r1
        0x10002ca4:    2700        .'      MOVS     r7,#0
        0x10002ca6:    e017        ..      B        0x10002cd8 ; RTC_EVT_Stop + 82
        0x10002ca8:    680d        .h      LDR      r5,[r1,#0]
        0x10002caa:    42a5        .B      CMP      r5,r4
        0x10002cac:    d102        ..      BNE      0x10002cb4 ; RTC_EVT_Stop + 46
        0x10002cae:    730f        .s      STRB     r7,[r1,#0xc]
        0x10002cb0:    614f        Oa      STR      r7,[r1,#0x14]
        0x10002cb2:    e010        ..      B        0x10002cd6 ; RTC_EVT_Stop + 80
        0x10002cb4:    7b0d        .{      LDRB     r5,[r1,#0xc]
        0x10002cb6:    2d00        .-      CMP      r5,#0
        0x10002cb8:    d00d        ..      BEQ      0x10002cd6 ; RTC_EVT_Stop + 80
        0x10002cba:    690d        .i      LDR      r5,[r1,#0x10]
        0x10002cbc:    1a2d        -.      SUBS     r5,r5,r0
        0x10002cbe:    610d        .a      STR      r5,[r1,#0x10]
        0x10002cc0:    d002        ..      BEQ      0x10002cc8 ; RTC_EVT_Stop + 66
        0x10002cc2:    688e        .h      LDR      r6,[r1,#8]
        0x10002cc4:    42b5        .B      CMP      r5,r6
        0x10002cc6:    d901        ..      BLS      0x10002ccc ; RTC_EVT_Stop + 70
        0x10002cc8:    688d        .h      LDR      r5,[r1,#8]
        0x10002cca:    610d        .a      STR      r5,[r1,#0x10]
        0x10002ccc:    6856        Vh      LDR      r6,[r2,#4]
        0x10002cce:    42b5        .B      CMP      r5,r6
        0x10002cd0:    d900        ..      BLS      0x10002cd4 ; RTC_EVT_Stop + 78
        0x10002cd2:    4635        5F      MOV      r5,r6
        0x10002cd4:    6055        U`      STR      r5,[r2,#4]
        0x10002cd6:    3118        .1      ADDS     r1,r1,#0x18
        0x10002cd8:    4299        .B      CMP      r1,r3
        0x10002cda:    d3e5        ..      BCC      0x10002ca8 ; RTC_EVT_Stop + 34
        0x10002cdc:    6850        Ph      LDR      r0,[r2,#4]
        0x10002cde:    2800        .(      CMP      r0,#0
        0x10002ce0:    d004        ..      BEQ      0x10002cec ; RTC_EVT_Stop + 102
        0x10002ce2:    1c41        A.      ADDS     r1,r0,#1
        0x10002ce4:    d002        ..      BEQ      0x10002cec ; RTC_EVT_Stop + 102
        0x10002ce6:    f7ffff0a    ....    BL       RTC_SET ; 0x10002afe
        0x10002cea:    e002        ..      B        0x10002cf2 ; RTC_EVT_Stop + 108
        0x10002cec:    2001        .       MOVS     r0,#1
        0x10002cee:    f7ffff6a    ..j.    BL       rtc_int_disable ; 0x10002bc6
        0x10002cf2:    b662        b.      CPSIE    i
        0x10002cf4:    bdf8        ..      POP      {r3-r7,pc}
    RTC_EVT_Start
        0x10002cf6:    b5f8        ..      PUSH     {r3-r7,lr}
        0x10002cf8:    4c50        PL      LDR      r4,[pc,#320] ; [0x10002e3c] = 0x200030f0
        0x10002cfa:    4605        .F      MOV      r5,r0
        0x10002cfc:    7860        `x      LDRB     r0,[r4,#1]
        0x10002cfe:    2118        .!      MOVS     r1,#0x18
        0x10002d00:    4348        HC      MULS     r0,r1,r0
        0x10002d02:    6961        ai      LDR      r1,[r4,#0x14]
        0x10002d04:    1a08        ..      SUBS     r0,r1,r0
        0x10002d06:    e006        ..      B        0x10002d16 ; RTC_EVT_Start + 32
        0x10002d08:    6802        .h      LDR      r2,[r0,#0]
        0x10002d0a:    42aa        .B      CMP      r2,r5
        0x10002d0c:    d102        ..      BNE      0x10002d14 ; RTC_EVT_Start + 30
        0x10002d0e:    7b02        .{      LDRB     r2,[r0,#0xc]
        0x10002d10:    2a00        .*      CMP      r2,#0
        0x10002d12:    d138        8.      BNE      0x10002d86 ; RTC_EVT_Start + 144
        0x10002d14:    3018        .0      ADDS     r0,r0,#0x18
        0x10002d16:    4288        .B      CMP      r0,r1
        0x10002d18:    d3f6        ..      BCC      0x10002d08 ; RTC_EVT_Start + 18
        0x10002d1a:    f7fffead    ....    BL       RTC_RUN ; 0x10002a78
        0x10002d1e:    60e0        .`      STR      r0,[r4,#0xc]
        0x10002d20:    b672        r.      CPSID    i
        0x10002d22:    2100        .!      MOVS     r1,#0
        0x10002d24:    43c9        .C      MVNS     r1,r1
        0x10002d26:    6061        a`      STR      r1,[r4,#4]
        0x10002d28:    7861        ax      LDRB     r1,[r4,#1]
        0x10002d2a:    2218        ."      MOVS     r2,#0x18
        0x10002d2c:    6966        fi      LDR      r6,[r4,#0x14]
        0x10002d2e:    4351        QC      MULS     r1,r2,r1
        0x10002d30:    1a71        q.      SUBS     r1,r6,r1
        0x10002d32:    2701        .'      MOVS     r7,#1
        0x10002d34:    e019        ..      B        0x10002d6a ; RTC_EVT_Start + 116
        0x10002d36:    680a        .h      LDR      r2,[r1,#0]
        0x10002d38:    42aa        .B      CMP      r2,r5
        0x10002d3a:    d103        ..      BNE      0x10002d44 ; RTC_EVT_Start + 78
        0x10002d3c:    688a        .h      LDR      r2,[r1,#8]
        0x10002d3e:    610a        .a      STR      r2,[r1,#0x10]
        0x10002d40:    730f        .s      STRB     r7,[r1,#0xc]
        0x10002d42:    e00b        ..      B        0x10002d5c ; RTC_EVT_Start + 102
        0x10002d44:    7b0a        .{      LDRB     r2,[r1,#0xc]
        0x10002d46:    2a00        .*      CMP      r2,#0
        0x10002d48:    d00e        ..      BEQ      0x10002d68 ; RTC_EVT_Start + 114
        0x10002d4a:    690a        .i      LDR      r2,[r1,#0x10]
        0x10002d4c:    1a12        ..      SUBS     r2,r2,r0
        0x10002d4e:    610a        .a      STR      r2,[r1,#0x10]
        0x10002d50:    d002        ..      BEQ      0x10002d58 ; RTC_EVT_Start + 98
        0x10002d52:    688b        .h      LDR      r3,[r1,#8]
        0x10002d54:    429a        .B      CMP      r2,r3
        0x10002d56:    d901        ..      BLS      0x10002d5c ; RTC_EVT_Start + 102
        0x10002d58:    688a        .h      LDR      r2,[r1,#8]
        0x10002d5a:    610a        .a      STR      r2,[r1,#0x10]
        0x10002d5c:    4613        .F      MOV      r3,r2
        0x10002d5e:    6862        bh      LDR      r2,[r4,#4]
        0x10002d60:    4293        .B      CMP      r3,r2
        0x10002d62:    d800        ..      BHI      0x10002d66 ; RTC_EVT_Start + 112
        0x10002d64:    461a        .F      MOV      r2,r3
        0x10002d66:    6062        b`      STR      r2,[r4,#4]
        0x10002d68:    3118        .1      ADDS     r1,r1,#0x18
        0x10002d6a:    42b1        .B      CMP      r1,r6
        0x10002d6c:    d3e3        ..      BCC      0x10002d36 ; RTC_EVT_Start + 64
        0x10002d6e:    6860        `h      LDR      r0,[r4,#4]
        0x10002d70:    2800        .(      CMP      r0,#0
        0x10002d72:    d004        ..      BEQ      0x10002d7e ; RTC_EVT_Start + 136
        0x10002d74:    1c41        A.      ADDS     r1,r0,#1
        0x10002d76:    d002        ..      BEQ      0x10002d7e ; RTC_EVT_Start + 136
        0x10002d78:    f7fffec1    ....    BL       RTC_SET ; 0x10002afe
        0x10002d7c:    e002        ..      B        0x10002d84 ; RTC_EVT_Start + 142
        0x10002d7e:    2001        .       MOVS     r0,#1
        0x10002d80:    f7ffff21    ..!.    BL       rtc_int_disable ; 0x10002bc6
        0x10002d84:    b662        b.      CPSIE    i
        0x10002d86:    bdf8        ..      POP      {r3-r7,pc}
    RTC_EVT_whole_minute_setid
        0x10002d88:    492c        ,I      LDR      r1,[pc,#176] ; [0x10002e3c] = 0x200030f0
        0x10002d8a:    61c8        .a      STR      r0,[r1,#0x1c]
        0x10002d8c:    4770        pG      BX       lr
    RTC_EVT_whole_minute_adj
        0x10002d8e:    b5f1        ..      PUSH     {r0,r4-r7,lr}
        0x10002d90:    b082        ..      SUB      sp,sp,#8
        0x10002d92:    f7fffe71    ..q.    BL       RTC_RUN ; 0x10002a78
        0x10002d96:    4d29        )M      LDR      r5,[pc,#164] ; [0x10002e3c] = 0x200030f0
        0x10002d98:    60e8        .`      STR      r0,[r5,#0xc]
        0x10002d9a:    b672        r.      CPSID    i
        0x10002d9c:    2100        .!      MOVS     r1,#0
        0x10002d9e:    43c9        .C      MVNS     r1,r1
        0x10002da0:    6069        i`      STR      r1,[r5,#4]
        0x10002da2:    7869        ix      LDRB     r1,[r5,#1]
        0x10002da4:    696e        ni      LDR      r6,[r5,#0x14]
        0x10002da6:    2218        ."      MOVS     r2,#0x18
        0x10002da8:    4351        QC      MULS     r1,r2,r1
        0x10002daa:    9000        ..      STR      r0,[sp,#0]
        0x10002dac:    1a74        t.      SUBS     r4,r6,r1
        0x10002dae:    69ef        .i      LDR      r7,[r5,#0x1c]
        0x10002db0:    e020         .      B        0x10002df4 ; RTC_EVT_whole_minute_adj + 102
        0x10002db2:    6820         h      LDR      r0,[r4,#0]
        0x10002db4:    42b8        .B      CMP      r0,r7
        0x10002db6:    d109        ..      BNE      0x10002dcc ; RTC_EVT_whole_minute_adj + 62
        0x10002db8:    213c        <!      MOVS     r1,#0x3c
        0x10002dba:    9802        ..      LDR      r0,[sp,#8]
        0x10002dbc:    f002fa56    ..V.    BL       __aeabi_uidiv ; 0x1000526c
        0x10002dc0:    203c        <       MOVS     r0,#0x3c
        0x10002dc2:    1a40        @.      SUBS     r0,r0,r1
        0x10002dc4:    6120         a      STR      r0,[r4,#0x10]
        0x10002dc6:    2001        .       MOVS     r0,#1
        0x10002dc8:    7320         s      STRB     r0,[r4,#0xc]
        0x10002dca:    e00c        ..      B        0x10002de6 ; RTC_EVT_whole_minute_adj + 88
        0x10002dcc:    7b20         {      LDRB     r0,[r4,#0xc]
        0x10002dce:    2800        .(      CMP      r0,#0
        0x10002dd0:    d00f        ..      BEQ      0x10002df2 ; RTC_EVT_whole_minute_adj + 100
        0x10002dd2:    6921        !i      LDR      r1,[r4,#0x10]
        0x10002dd4:    9800        ..      LDR      r0,[sp,#0]
        0x10002dd6:    1a08        ..      SUBS     r0,r1,r0
        0x10002dd8:    6120         a      STR      r0,[r4,#0x10]
        0x10002dda:    d002        ..      BEQ      0x10002de2 ; RTC_EVT_whole_minute_adj + 84
        0x10002ddc:    68a1        .h      LDR      r1,[r4,#8]
        0x10002dde:    4288        .B      CMP      r0,r1
        0x10002de0:    d901        ..      BLS      0x10002de6 ; RTC_EVT_whole_minute_adj + 88
        0x10002de2:    68a0        .h      LDR      r0,[r4,#8]
        0x10002de4:    6120         a      STR      r0,[r4,#0x10]
        0x10002de6:    6920         i      LDR      r0,[r4,#0x10]
        0x10002de8:    6869        ih      LDR      r1,[r5,#4]
        0x10002dea:    4288        .B      CMP      r0,r1
        0x10002dec:    d900        ..      BLS      0x10002df0 ; RTC_EVT_whole_minute_adj + 98
        0x10002dee:    4608        .F      MOV      r0,r1
        0x10002df0:    6068        h`      STR      r0,[r5,#4]
        0x10002df2:    3418        .4      ADDS     r4,r4,#0x18
        0x10002df4:    42b4        .B      CMP      r4,r6
        0x10002df6:    d3dc        ..      BCC      0x10002db2 ; RTC_EVT_whole_minute_adj + 36
        0x10002df8:    6868        hh      LDR      r0,[r5,#4]
        0x10002dfa:    2800        .(      CMP      r0,#0
        0x10002dfc:    d004        ..      BEQ      0x10002e08 ; RTC_EVT_whole_minute_adj + 122
        0x10002dfe:    1c41        A.      ADDS     r1,r0,#1
        0x10002e00:    d002        ..      BEQ      0x10002e08 ; RTC_EVT_whole_minute_adj + 122
        0x10002e02:    f7fffe7c    ..|.    BL       RTC_SET ; 0x10002afe
        0x10002e06:    e002        ..      B        0x10002e0e ; RTC_EVT_whole_minute_adj + 128
        0x10002e08:    2001        .       MOVS     r0,#1
        0x10002e0a:    f7fffedc    ....    BL       rtc_int_disable ; 0x10002bc6
        0x10002e0e:    b662        b.      CPSIE    i
        0x10002e10:    bdfe        ..      POP      {r1-r7,pc}
    RTC_Get_State
        0x10002e12:    490a        .I      LDR      r1,[pc,#40] ; [0x10002e3c] = 0x200030f0
        0x10002e14:    2218        ."      MOVS     r2,#0x18
        0x10002e16:    784b        Kx      LDRB     r3,[r1,#1]
        0x10002e18:    4353        SC      MULS     r3,r2,r3
        0x10002e1a:    694a        Ji      LDR      r2,[r1,#0x14]
        0x10002e1c:    1ad1        ..      SUBS     r1,r2,r3
        0x10002e1e:    e005        ..      B        0x10002e2c ; RTC_Get_State + 26
        0x10002e20:    680b        .h      LDR      r3,[r1,#0]
        0x10002e22:    4283        .B      CMP      r3,r0
        0x10002e24:    d101        ..      BNE      0x10002e2a ; RTC_Get_State + 24
        0x10002e26:    7b08        .{      LDRB     r0,[r1,#0xc]
        0x10002e28:    4770        pG      BX       lr
        0x10002e2a:    3118        .1      ADDS     r1,r1,#0x18
        0x10002e2c:    4291        .B      CMP      r1,r2
        0x10002e2e:    d3f7        ..      BCC      0x10002e20 ; RTC_Get_State + 14
        0x10002e30:    20ff        .       MOVS     r0,#0xff
        0x10002e32:    4770        pG      BX       lr
    $d
        0x10002e34:    500010c0    ...P    DCD    1342181568
        0x10002e38:    00015180    .Q..    DCD    86400
        0x10002e3c:    200030f0    .0.     DCD    536883440
        0x10002e40:    00093a80    .:..    DCD    604800
        0x10002e44:    200030b8    .0.     DCD    536883384
    $t
    rtc_start
        0x10002e48:    4971        qI      LDR      r1,[pc,#452] ; [0x10003010] = 0x200030f0
        0x10002e4a:    7808        .x      LDRB     r0,[r1,#0]
        0x10002e4c:    2800        .(      CMP      r0,#0
        0x10002e4e:    d1f0        ..      BNE      0x10002e32 ; RTC_Get_State + 32
        0x10002e50:    4870        pH      LDR      r0,[pc,#448] ; [0x10003014] = 0x500010a0
        0x10002e52:    7ac3        .z      LDRB     r3,[r0,#0xb]
        0x10002e54:    2201        ."      MOVS     r2,#1
        0x10002e56:    4313        .C      ORRS     r3,r3,r2
        0x10002e58:    72c3        .r      STRB     r3,[r0,#0xb]
        0x10002e5a:    7ac3        .z      LDRB     r3,[r0,#0xb]
        0x10002e5c:    07db        ..      LSLS     r3,r3,#31
        0x10002e5e:    d1fc        ..      BNE      0x10002e5a ; rtc_start + 18
        0x10002e60:    700a        .p      STRB     r2,[r1,#0]
        0x10002e62:    e7e6        ..      B        0x10002e32 ; RTC_Get_State + 32
    rtc_set_interrupt_callback
        0x10002e64:    496a        jI      LDR      r1,[pc,#424] ; [0x10003010] = 0x200030f0
        0x10002e66:    6208        .b      STR      r0,[r1,#0x20]
        0x10002e68:    e7e3        ..      B        0x10002e32 ; RTC_Get_State + 32
    rtc_int_enable
        0x10002e6a:    496a        jI      LDR      r1,[pc,#424] ; [0x10003014] = 0x500010a0
        0x10002e6c:    7a8a        .z      LDRB     r2,[r1,#0xa]
        0x10002e6e:    4302        .C      ORRS     r2,r2,r0
        0x10002e70:    0710        ..      LSLS     r0,r2,#28
        0x10002e72:    7a8a        .z      LDRB     r2,[r1,#0xa]
        0x10002e74:    0f00        ..      LSRS     r0,r0,#28
        0x10002e76:    0912        ..      LSRS     r2,r2,#4
        0x10002e78:    0112        ..      LSLS     r2,r2,#4
        0x10002e7a:    4302        .C      ORRS     r2,r2,r0
        0x10002e7c:    728a        .r      STRB     r2,[r1,#0xa]
        0x10002e7e:    e7d8        ..      B        0x10002e32 ; RTC_Get_State + 32
    rtc_int_clear
        0x10002e80:    4964        dI      LDR      r1,[pc,#400] ; [0x10003014] = 0x500010a0
        0x10002e82:    7a8a        .z      LDRB     r2,[r1,#0xa]
        0x10002e84:    0912        ..      LSRS     r2,r2,#4
        0x10002e86:    4302        .C      ORRS     r2,r2,r0
        0x10002e88:    0110        ..      LSLS     r0,r2,#4
        0x10002e8a:    7a8a        .z      LDRB     r2,[r1,#0xa]
        0x10002e8c:    0712        ..      LSLS     r2,r2,#28
        0x10002e8e:    0f12        ..      LSRS     r2,r2,#28
        0x10002e90:    4302        .C      ORRS     r2,r2,r0
        0x10002e92:    728a        .r      STRB     r2,[r1,#0xa]
        0x10002e94:    e7cd        ..      B        0x10002e32 ; RTC_Get_State + 32
    rtc_set_calendar
        0x10002e96:    b570        p.      PUSH     {r4-r6,lr}
        0x10002e98:    4605        .F      MOV      r5,r0
        0x10002e9a:    2400        .$      MOVS     r4,#0
        0x10002e9c:    5d28        (]      LDRB     r0,[r5,r4]
        0x10002e9e:    210a        .!      MOVS     r1,#0xa
        0x10002ea0:    f002f9e4    ....    BL       __aeabi_uidiv ; 0x1000526c
        0x10002ea4:    0100        ..      LSLS     r0,r0,#4
        0x10002ea6:    4301        .C      ORRS     r1,r1,r0
        0x10002ea8:    5529        )U      STRB     r1,[r5,r4]
        0x10002eaa:    1c64        d.      ADDS     r4,r4,#1
        0x10002eac:    2c03        .,      CMP      r4,#3
        0x10002eae:    dbf5        ..      BLT      0x10002e9c ; rtc_set_calendar + 6
        0x10002eb0:    4628        (F      MOV      r0,r5
        0x10002eb2:    f002fa3f    ..?.    BL       __aeabi_uread4 ; 0x10005334
        0x10002eb6:    4957        WI      LDR      r1,[pc,#348] ; [0x10003014] = 0x500010a0
        0x10002eb8:    3920         9      SUBS     r1,r1,#0x20
        0x10002eba:    63c8        .c      STR      r0,[r1,#0x3c]
        0x10002ebc:    bd70        p.      POP      {r4-r6,pc}
    rtc_set_prescaler
        0x10002ebe:    4a55        UJ      LDR      r2,[pc,#340] ; [0x10003014] = 0x500010a0
        0x10002ec0:    8a13        ..      LDRH     r3,[r2,#0x10]
        0x10002ec2:    1e40        @.      SUBS     r0,r0,#1
        0x10002ec4:    0bdb        ..      LSRS     r3,r3,#15
        0x10002ec6:    03db        ..      LSLS     r3,r3,#15
        0x10002ec8:    0440        @.      LSLS     r0,r0,#17
        0x10002eca:    0c40        @.      LSRS     r0,r0,#17
        0x10002ecc:    4303        .C      ORRS     r3,r3,r0
        0x10002ece:    8213        ..      STRH     r3,[r2,#0x10]
        0x10002ed0:    7c90        .|      LDRB     r0,[r2,#0x12]
        0x10002ed2:    0709        ..      LSLS     r1,r1,#28
        0x10002ed4:    0900        ..      LSRS     r0,r0,#4
        0x10002ed6:    0100        ..      LSLS     r0,r0,#4
        0x10002ed8:    0f09        ..      LSRS     r1,r1,#28
        0x10002eda:    4308        .C      ORRS     r0,r0,r1
        0x10002edc:    7490        .t      STRB     r0,[r2,#0x12]
        0x10002ede:    e7a8        ..      B        0x10002e32 ; RTC_Get_State + 32
    rtc_clear
        0x10002ee0:    484c        LH      LDR      r0,[pc,#304] ; [0x10003014] = 0x500010a0
        0x10002ee2:    7ac1        .z      LDRB     r1,[r0,#0xb]
        0x10002ee4:    2204        ."      MOVS     r2,#4
        0x10002ee6:    4311        .C      ORRS     r1,r1,r2
        0x10002ee8:    72c1        .r      STRB     r1,[r0,#0xb]
        0x10002eea:    7ac1        .z      LDRB     r1,[r0,#0xb]
        0x10002eec:    0749        I.      LSLS     r1,r1,#29
        0x10002eee:    d4fc        ..      BMI      0x10002eea ; rtc_clear + 10
        0x10002ef0:    e79f        ..      B        0x10002e32 ; RTC_Get_State + 32
    rtc_stop
        0x10002ef2:    4947        GI      LDR      r1,[pc,#284] ; [0x10003010] = 0x200030f0
        0x10002ef4:    7808        .x      LDRB     r0,[r1,#0]
        0x10002ef6:    2801        .(      CMP      r0,#1
        0x10002ef8:    d19b        ..      BNE      0x10002e32 ; RTC_Get_State + 32
        0x10002efa:    4846        FH      LDR      r0,[pc,#280] ; [0x10003014] = 0x500010a0
        0x10002efc:    7ac2        .z      LDRB     r2,[r0,#0xb]
        0x10002efe:    2302        .#      MOVS     r3,#2
        0x10002f00:    431a        .C      ORRS     r2,r2,r3
        0x10002f02:    72c2        .r      STRB     r2,[r0,#0xb]
        0x10002f04:    7ac2        .z      LDRB     r2,[r0,#0xb]
        0x10002f06:    0792        ..      LSLS     r2,r2,#30
        0x10002f08:    d4fc        ..      BMI      0x10002f04 ; rtc_stop + 18
        0x10002f0a:    2000        .       MOVS     r0,#0
        0x10002f0c:    7008        .p      STRB     r0,[r1,#0]
        0x10002f0e:    e790        ..      B        0x10002e32 ; RTC_Get_State + 32
    rtc_init
        0x10002f10:    b5f3        ..      PUSH     {r0,r1,r4-r7,lr}
        0x10002f12:    b081        ..      SUB      sp,sp,#4
        0x10002f14:    f7ffffed    ....    BL       rtc_stop ; 0x10002ef2
        0x10002f18:    f7ffffe2    ....    BL       rtc_clear ; 0x10002ee0
        0x10002f1c:    2001        .       MOVS     r0,#1
        0x10002f1e:    2100        .!      MOVS     r1,#0
        0x10002f20:    03c0        ..      LSLS     r0,r0,#15
        0x10002f22:    f7ffffcc    ....    BL       rtc_set_prescaler ; 0x10002ebe
        0x10002f26:    2064        d       MOVS     r0,#0x64
        0x10002f28:    f001fe18    ....    BL       GAPBBDelayUS ; 0x10004b5c
        0x10002f2c:    2101        .!      MOVS     r1,#1
        0x10002f2e:    4668        hF      MOV      r0,sp
        0x10002f30:    70c1        .p      STRB     r1,[r0,#3]
        0x10002f32:    2400        .$      MOVS     r4,#0
        0x10002f34:    7084        .p      STRB     r4,[r0,#2]
        0x10002f36:    7044        Dp      STRB     r4,[r0,#1]
        0x10002f38:    7004        .p      STRB     r4,[r0,#0]
        0x10002f3a:    f7ffffac    ....    BL       rtc_set_calendar ; 0x10002e96
        0x10002f3e:    4d34        4M      LDR      r5,[pc,#208] ; [0x10003010] = 0x200030f0
        0x10002f40:    2607        .&      MOVS     r6,#7
        0x10002f42:    612c        ,a      STR      r4,[r5,#0x10]
        0x10002f44:    4668        hF      MOV      r0,sp
        0x10002f46:    70c6        .p      STRB     r6,[r0,#3]
        0x10002f48:    2717        .'      MOVS     r7,#0x17
        0x10002f4a:    7087        .p      STRB     r7,[r0,#2]
        0x10002f4c:    243b        ;$      MOVS     r4,#0x3b
        0x10002f4e:    7044        Dp      STRB     r4,[r0,#1]
        0x10002f50:    7004        .p      STRB     r4,[r0,#0]
        0x10002f52:    4669        iF      MOV      r1,sp
        0x10002f54:    2001        .       MOVS     r0,#1
        0x10002f56:    f7fffdb0    ....    BL       rtc_set_compare ; 0x10002aba
        0x10002f5a:    4668        hF      MOV      r0,sp
        0x10002f5c:    70c6        .p      STRB     r6,[r0,#3]
        0x10002f5e:    7087        .p      STRB     r7,[r0,#2]
        0x10002f60:    7044        Dp      STRB     r4,[r0,#1]
        0x10002f62:    7004        .p      STRB     r4,[r0,#0]
        0x10002f64:    4669        iF      MOV      r1,sp
        0x10002f66:    2000        .       MOVS     r0,#0
        0x10002f68:    f7fffda7    ....    BL       rtc_set_compare ; 0x10002aba
        0x10002f6c:    200f        .       MOVS     r0,#0xf
        0x10002f6e:    f7ffff87    ....    BL       rtc_int_clear ; 0x10002e80
        0x10002f72:    200f        .       MOVS     r0,#0xf
        0x10002f74:    f7fffe27    ..'.    BL       rtc_int_disable ; 0x10002bc6
        0x10002f78:    2001        .       MOVS     r0,#1
        0x10002f7a:    f7ffff76    ..v.    BL       rtc_int_enable ; 0x10002e6a
        0x10002f7e:    9802        ..      LDR      r0,[sp,#8]
        0x10002f80:    6228        (b      STR      r0,[r5,#0x20]
        0x10002f82:    f7ffff61    ..a.    BL       rtc_start ; 0x10002e48
        0x10002f86:    4924        $I      LDR      r1,[pc,#144] ; [0x10003018] = 0xe000e100
        0x10002f88:    2004        .       MOVS     r0,#4
        0x10002f8a:    6008        .`      STR      r0,[r1,#0]
        0x10002f8c:    bdfe        ..      POP      {r1-r7,pc}
    SYD_RTC_Init
        0x10002f8e:    b570        p.      PUSH     {r4-r6,lr}
        0x10002f90:    460d        .F      MOV      r5,r1
        0x10002f92:    4604        .F      MOV      r4,r0
        0x10002f94:    f001fd3c    ..<.    BL       syd52832_chip_confirm ; 0x10004a10
        0x10002f98:    2800        .(      CMP      r0,#0
        0x10002f9a:    d00b        ..      BEQ      0x10002fb4 ; SYD_RTC_Init + 38
        0x10002f9c:    481c        .H      LDR      r0,[pc,#112] ; [0x10003010] = 0x200030f0
        0x10002f9e:    2118        .!      MOVS     r1,#0x18
        0x10002fa0:    7044        Dp      STRB     r4,[r0,#1]
        0x10002fa2:    434c        LC      MULS     r4,r1,r4
        0x10002fa4:    1961        a.      ADDS     r1,r4,r5
        0x10002fa6:    6185        .a      STR      r5,[r0,#0x18]
        0x10002fa8:    6141        Aa      STR      r1,[r0,#0x14]
        0x10002faa:    2001        .       MOVS     r0,#1
        0x10002fac:    491b        .I      LDR      r1,[pc,#108] ; [0x1000301c] = 0x10002bdf
        0x10002fae:    03c0        ..      LSLS     r0,r0,#15
        0x10002fb0:    f7ffffae    ....    BL       rtc_init ; 0x10002f10
        0x10002fb4:    bd70        p.      POP      {r4-r6,pc}
    RTC_IRQHandler
        0x10002fb6:    b510        ..      PUSH     {r4,lr}
        0x10002fb8:    4816        .H      LDR      r0,[pc,#88] ; [0x10003014] = 0x500010a0
        0x10002fba:    7a40        @z      LDRB     r0,[r0,#9]
        0x10002fbc:    0703        ..      LSLS     r3,r0,#28
        0x10002fbe:    0f1b        ..      LSRS     r3,r3,#28
        0x10002fc0:    4618        .F      MOV      r0,r3
        0x10002fc2:    f7ffff5d    ..].    BL       rtc_int_clear ; 0x10002e80
        0x10002fc6:    4812        .H      LDR      r0,[pc,#72] ; [0x10003010] = 0x200030f0
        0x10002fc8:    6a01        .j      LDR      r1,[r0,#0x20]
        0x10002fca:    2900        .)      CMP      r1,#0
        0x10002fcc:    d001        ..      BEQ      0x10002fd2 ; RTC_IRQHandler + 28
        0x10002fce:    4618        .F      MOV      r0,r3
        0x10002fd0:    4788        .G      BLX      r1
        0x10002fd2:    bd10        ..      POP      {r4,pc}
    rtc_status
        0x10002fd4:    480e        .H      LDR      r0,[pc,#56] ; [0x10003010] = 0x200030f0
        0x10002fd6:    7800        .x      LDRB     r0,[r0,#0]
        0x10002fd8:    e72b        +.      B        0x10002e32 ; RTC_Get_State + 32
    rtc_get_compare
        0x10002fda:    b518        ..      PUSH     {r3,r4,lr}
        0x10002fdc:    2800        .(      CMP      r0,#0
        0x10002fde:    d002        ..      BEQ      0x10002fe6 ; rtc_get_compare + 12
        0x10002fe0:    480c        .H      LDR      r0,[pc,#48] ; [0x10003014] = 0x500010a0
        0x10002fe2:    3018        .0      ADDS     r0,r0,#0x18
        0x10002fe4:    e001        ..      B        0x10002fea ; rtc_get_compare + 16
        0x10002fe6:    480b        .H      LDR      r0,[pc,#44] ; [0x10003014] = 0x500010a0
        0x10002fe8:    3014        .0      ADDS     r0,r0,#0x14
        0x10002fea:    6800        .h      LDR      r0,[r0,#0]
        0x10002fec:    9000        ..      STR      r0,[sp,#0]
        0x10002fee:    2000        .       MOVS     r0,#0
        0x10002ff0:    4669        iF      MOV      r1,sp
        0x10002ff2:    5c0b        .\      LDRB     r3,[r1,r0]
        0x10002ff4:    240a        .$      MOVS     r4,#0xa
        0x10002ff6:    091a        ..      LSRS     r2,r3,#4
        0x10002ff8:    4362        bC      MULS     r2,r4,r2
        0x10002ffa:    071b        ..      LSLS     r3,r3,#28
        0x10002ffc:    540a        .T      STRB     r2,[r1,r0]
        0x10002ffe:    0f1b        ..      LSRS     r3,r3,#28
        0x10003000:    18d2        ..      ADDS     r2,r2,r3
        0x10003002:    540a        .T      STRB     r2,[r1,r0]
        0x10003004:    1c40        @.      ADDS     r0,r0,#1
        0x10003006:    2803        .(      CMP      r0,#3
        0x10003008:    dbf3        ..      BLT      0x10002ff2 ; rtc_get_compare + 24
        0x1000300a:    9800        ..      LDR      r0,[sp,#0]
        0x1000300c:    bd18        ..      POP      {r3,r4,pc}
    $d
        0x1000300e:    0000        ..      DCW    0
        0x10003010:    200030f0    .0.     DCD    536883440
        0x10003014:    500010a0    ...P    DCD    1342181536
        0x10003018:    e000e100    ....    DCD    3758153984
        0x1000301c:    10002bdf    .+..    DCD    268446687
    $t
    .text
    _LCDisConnect
        0x10003020:    b5f1        ..      PUSH     {r0,r4-r7,lr}
        0x10003022:    48f8        .H      LDR      r0,[pc,#992] ; [0x10003404] = 0x65bf
        0x10003024:    4780        .G      BLX      r0
        0x10003026:    4607        .F      MOV      r7,r0
        0x10003028:    48f7        .H      LDR      r0,[pc,#988] ; [0x10003408] = 0x6a77
        0x1000302a:    4780        .G      BLX      r0
        0x1000302c:    4606        .F      MOV      r6,r0
        0x1000302e:    4cf5        .L      LDR      r4,[pc,#980] ; [0x10003404] = 0x65bf
        0x10003030:    2001        .       MOVS     r0,#1
        0x10003032:    3c18        .<      SUBS     r4,r4,#0x18
        0x10003034:    47a0        .G      BLX      r4
        0x10003036:    4df4        .M      LDR      r5,[pc,#976] ; [0x10003408] = 0x6a77
        0x10003038:    2000        .       MOVS     r0,#0
        0x1000303a:    350c        .5      ADDS     r5,r5,#0xc
        0x1000303c:    47a8        .G      BLX      r5
        0x1000303e:    49f3        .I      LDR      r1,[pc,#972] ; [0x1000340c] = 0x16cf
        0x10003040:    9800        ..      LDR      r0,[sp,#0]
        0x10003042:    4788        .G      BLX      r1
        0x10003044:    4630        0F      MOV      r0,r6
        0x10003046:    47a8        .G      BLX      r5
        0x10003048:    4638        8F      MOV      r0,r7
        0x1000304a:    47a0        .G      BLX      r4
        0x1000304c:    bdf8        ..      POP      {r3-r7,pc}
    _LCTimer_Handler
        0x1000304e:    b5f0        ..      PUSH     {r4-r7,lr}
        0x10003050:    4def        .M      LDR      r5,[pc,#956] ; [0x10003410] = 0x20003118
        0x10003052:    48f0        .H      LDR      r0,[pc,#960] ; [0x10003414] = 0x3ce
        0x10003054:    68e9        .h      LDR      r1,[r5,#0xc]
        0x10003056:    b085        ..      SUB      sp,sp,#0x14
        0x10003058:    1808        ..      ADDS     r0,r1,r0
        0x1000305a:    4604        .F      MOV      r4,r0
        0x1000305c:    f002f96a    ..j.    BL       __aeabi_uread4 ; 0x10005334
        0x10003060:    4621        !F      MOV      r1,r4
        0x10003062:    1c40        @.      ADDS     r0,r0,#1
        0x10003064:    f002f970    ..p.    BL       __aeabi_uwrite4 ; 0x10005348
        0x10003068:    2400        .$      MOVS     r4,#0
        0x1000306a:    48e9        .H      LDR      r0,[pc,#932] ; [0x10003410] = 0x20003118
        0x1000306c:    2501        .%      MOVS     r5,#1
        0x1000306e:    68c6        .h      LDR      r6,[r0,#0xc]
        0x10003070:    48e8        .H      LDR      r0,[pc,#928] ; [0x10003414] = 0x3ce
        0x10003072:    380c        .8      SUBS     r0,r0,#0xc
        0x10003074:    1831        1.      ADDS     r1,r6,r0
        0x10003076:    9103        ..      STR      r1,[sp,#0xc]
        0x10003078:    7c48        H|      LDRB     r0,[r1,#0x11]
        0x1000307a:    7c09        .|      LDRB     r1,[r1,#0x10]
        0x1000307c:    0200        ..      LSLS     r0,r0,#8
        0x1000307e:    4308        .C      ORRS     r0,r0,r1
        0x10003080:    40a5        .@      LSLS     r5,r5,r4
        0x10003082:    4228        (B      TST      r0,r5
        0x10003084:    9002        ..      STR      r0,[sp,#8]
        0x10003086:    d03b        ;.      BEQ      0x10003100 ; _LCTimer_Handler + 178
        0x10003088:    200b        .       MOVS     r0,#0xb
        0x1000308a:    4360        `C      MULS     r0,r4,r0
        0x1000308c:    1981        ..      ADDS     r1,r0,r6
        0x1000308e:    48e1        .H      LDR      r0,[pc,#900] ; [0x10003414] = 0x3ce
        0x10003090:    9100        ..      STR      r1,[sp,#0]
        0x10003092:    3009        .0      ADDS     r0,r0,#9
        0x10003094:    1808        ..      ADDS     r0,r1,r0
        0x10003096:    9001        ..      STR      r0,[sp,#4]
        0x10003098:    f002f94c    ..L.    BL       __aeabi_uread4 ; 0x10005334
        0x1000309c:    4607        .F      MOV      r7,r0
        0x1000309e:    48dd        .H      LDR      r0,[pc,#884] ; [0x10003414] = 0x3ce
        0x100030a0:    1830        0.      ADDS     r0,r6,r0
        0x100030a2:    f002f947    ..G.    BL       __aeabi_uread4 ; 0x10005334
        0x100030a6:    4287        .B      CMP      r7,r0
        0x100030a8:    d12a        *.      BNE      0x10003100 ; _LCTimer_Handler + 178
        0x100030aa:    210f        .!      MOVS     r1,#0xf
        0x100030ac:    9800        ..      LDR      r0,[sp,#0]
        0x100030ae:    0189        ..      LSLS     r1,r1,#6
        0x100030b0:    1840        @.      ADDS     r0,r0,r1
        0x100030b2:    7d00        .}      LDRB     r0,[r0,#0x14]
        0x100030b4:    2800        .(      CMP      r0,#0
        0x100030b6:    d00c        ..      BEQ      0x100030d2 ; _LCTimer_Handler + 132
        0x100030b8:    4ad6        .J      LDR      r2,[pc,#856] ; [0x10003414] = 0x3ce
        0x100030ba:    9900        ..      LDR      r1,[sp,#0]
        0x100030bc:    3a0d        .:      SUBS     r2,r2,#0xd
        0x100030be:    188a        ..      ADDS     r2,r1,r2
        0x100030c0:    7d51        Q}      LDRB     r1,[r2,#0x15]
        0x100030c2:    7d12        .}      LDRB     r2,[r2,#0x14]
        0x100030c4:    0209        ..      LSLS     r1,r1,#8
        0x100030c6:    4311        .C      ORRS     r1,r1,r2
        0x100030c8:    1878        x.      ADDS     r0,r7,r1
        0x100030ca:    9901        ..      LDR      r1,[sp,#4]
        0x100030cc:    f002f93c    ..<.    BL       __aeabi_uwrite4 ; 0x10005348
        0x100030d0:    e005        ..      B        0x100030de ; _LCTimer_Handler + 144
        0x100030d2:    9802        ..      LDR      r0,[sp,#8]
        0x100030d4:    9903        ..      LDR      r1,[sp,#0xc]
        0x100030d6:    43a8        .C      BICS     r0,r0,r5
        0x100030d8:    7408        .t      STRB     r0,[r1,#0x10]
        0x100030da:    0a00        ..      LSRS     r0,r0,#8
        0x100030dc:    7448        Ht      STRB     r0,[r1,#0x11]
        0x100030de:    48cd        .H      LDR      r0,[pc,#820] ; [0x10003414] = 0x3ce
        0x100030e0:    9900        ..      LDR      r1,[sp,#0]
        0x100030e2:    300d        .0      ADDS     r0,r0,#0xd
        0x100030e4:    1808        ..      ADDS     r0,r1,r0
        0x100030e6:    f002f925    ..%.    BL       __aeabi_uread4 ; 0x10005334
        0x100030ea:    2800        .(      CMP      r0,#0
        0x100030ec:    d008        ..      BEQ      0x10003100 ; _LCTimer_Handler + 178
        0x100030ee:    2d02        .-      CMP      r5,#2
        0x100030f0:    d019        ..      BEQ      0x10003126 ; _LCTimer_Handler + 216
        0x100030f2:    2d04        .-      CMP      r5,#4
        0x100030f4:    d017        ..      BEQ      0x10003126 ; _LCTimer_Handler + 216
        0x100030f6:    2d08        .-      CMP      r5,#8
        0x100030f8:    d015        ..      BEQ      0x10003126 ; _LCTimer_Handler + 216
        0x100030fa:    2d10        .-      CMP      r5,#0x10
        0x100030fc:    d01a        ..      BEQ      0x10003134 ; _LCTimer_Handler + 230
        0x100030fe:    4780        .G      BLX      r0
        0x10003100:    1c64        d.      ADDS     r4,r4,#1
        0x10003102:    b2e4        ..      UXTB     r4,r4
        0x10003104:    2c0a        .,      CMP      r4,#0xa
        0x10003106:    d3b0        ..      BCC      0x1000306a ; _LCTimer_Handler + 28
        0x10003108:    48c1        .H      LDR      r0,[pc,#772] ; [0x10003410] = 0x20003118
        0x1000310a:    68c1        .h      LDR      r1,[r0,#0xc]
        0x1000310c:    48c1        .H      LDR      r0,[pc,#772] ; [0x10003414] = 0x3ce
        0x1000310e:    380c        .8      SUBS     r0,r0,#0xc
        0x10003110:    1809        ..      ADDS     r1,r1,r0
        0x10003112:    7c48        H|      LDRB     r0,[r1,#0x11]
        0x10003114:    7c09        .|      LDRB     r1,[r1,#0x10]
        0x10003116:    0200        ..      LSLS     r0,r0,#8
        0x10003118:    4308        .C      ORRS     r0,r0,r1
        0x1000311a:    0580        ..      LSLS     r0,r0,#22
        0x1000311c:    d101        ..      BNE      0x10003122 ; _LCTimer_Handler + 212
        0x1000311e:    48be        .H      LDR      r0,[pc,#760] ; [0x10003418] = 0x1201
        0x10003120:    4780        .G      BLX      r0
        0x10003122:    b005        ..      ADD      sp,sp,#0x14
        0x10003124:    bdf0        ..      POP      {r4-r7,pc}
        0x10003126:    49bd        .I      LDR      r1,[pc,#756] ; [0x1000341c] = 0xaf5
        0x10003128:    2001        .       MOVS     r0,#1
        0x1000312a:    4788        .G      BLX      r1
        0x1000312c:    2800        .(      CMP      r0,#0
        0x1000312e:    d0e7        ..      BEQ      0x10003100 ; _LCTimer_Handler + 178
        0x10003130:    2022        "       MOVS     r0,#0x22
        0x10003132:    e005        ..      B        0x10003140 ; _LCTimer_Handler + 242
        0x10003134:    49b9        .I      LDR      r1,[pc,#740] ; [0x1000341c] = 0xaf5
        0x10003136:    2001        .       MOVS     r0,#1
        0x10003138:    4788        .G      BLX      r1
        0x1000313a:    2800        .(      CMP      r0,#0
        0x1000313c:    d0e0        ..      BEQ      0x10003100 ; _LCTimer_Handler + 178
        0x1000313e:    203b        ;       MOVS     r0,#0x3b
        0x10003140:    f7ffff6e    ..n.    BL       _LCDisConnect ; 0x10003020
        0x10003144:    e7dc        ..      B        0x10003100 ; _LCTimer_Handler + 178
    _LCRxPkt_Handler
        0x10003146:    b5fe        ..      PUSH     {r1-r7,lr}
        0x10003148:    2000        .       MOVS     r0,#0
        0x1000314a:    4669        iF      MOV      r1,sp
        0x1000314c:    7108        .q      STRB     r0,[r1,#4]
        0x1000314e:    7008        .p      STRB     r0,[r1,#0]
        0x10003150:    4fb3        .O      LDR      r7,[pc,#716] ; [0x10003420] = 0x5749
        0x10003152:    7208        .r      STRB     r0,[r1,#8]
        0x10003154:    4eb3        .N      LDR      r6,[pc,#716] ; [0x10003424] = 0x1979
        0x10003156:    4cae        .L      LDR      r4,[pc,#696] ; [0x10003410] = 0x20003118
        0x10003158:    47b8        .G      BLX      r7
        0x1000315a:    7120         q      STRB     r0,[r4,#4]
        0x1000315c:    ab02        ..      ADD      r3,sp,#8
        0x1000315e:    466a        jF      MOV      r2,sp
        0x10003160:    a901        ..      ADD      r1,sp,#4
        0x10003162:    6960        `i      LDR      r0,[r4,#0x14]
        0x10003164:    f001ffdc    ....    BL       _BBRXFIFORead ; 0x10005120
        0x10003168:    2800        .(      CMP      r0,#0
        0x1000316a:    d036        6.      BEQ      0x100031da ; _LCRxPkt_Handler + 148
        0x1000316c:    2008        .       MOVS     r0,#8
        0x1000316e:    47b0        .G      BLX      r6
        0x10003170:    2800        .(      CMP      r0,#0
        0x10003172:    d003        ..      BEQ      0x1000317c ; _LCRxPkt_Handler + 54
        0x10003174:    2002        .       MOVS     r0,#2
        0x10003176:    47b0        .G      BLX      r6
        0x10003178:    2800        .(      CMP      r0,#0
        0x1000317a:    d00f        ..      BEQ      0x1000319c ; _LCRxPkt_Handler + 86
        0x1000317c:    4668        hF      MOV      r0,sp
        0x1000317e:    7800        .x      LDRB     r0,[r0,#0]
        0x10003180:    2801        .(      CMP      r0,#1
        0x10003182:    d011        ..      BEQ      0x100031a8 ; _LCRxPkt_Handler + 98
        0x10003184:    68e0        .h      LDR      r0,[r4,#0xc]
        0x10003186:    6965        ei      LDR      r5,[r4,#0x14]
        0x10003188:    7a40        @z      LDRB     r0,[r0,#9]
        0x1000318a:    2801        .(      CMP      r0,#1
        0x1000318c:    d026        &.      BEQ      0x100031dc ; _LCRxPkt_Handler + 150
        0x1000318e:    2802        .(      CMP      r0,#2
        0x10003190:    d1e2        ..      BNE      0x10003158 ; _LCRxPkt_Handler + 18
        0x10003192:    4aa5        .J      LDR      r2,[pc,#660] ; [0x10003428] = 0x1e8b
        0x10003194:    7921        !y      LDRB     r1,[r4,#4]
        0x10003196:    4628        (F      MOV      r0,r5
        0x10003198:    4790        .G      BLX      r2
        0x1000319a:    e7dd        ..      B        0x10003158 ; _LCRxPkt_Handler + 18
        0x1000319c:    2101        .!      MOVS     r1,#1
        0x1000319e:    4668        hF      MOV      r0,sp
        0x100031a0:    7001        .p      STRB     r1,[r0,#0]
        0x100031a2:    7a00        .z      LDRB     r0,[r0,#8]
        0x100031a4:    2800        .(      CMP      r0,#0
        0x100031a6:    d015        ..      BEQ      0x100031d4 ; _LCRxPkt_Handler + 142
        0x100031a8:    2125        %!      MOVS     r1,#0x25
        0x100031aa:    68e0        .h      LDR      r0,[r4,#0xc]
        0x100031ac:    0149        I.      LSLS     r1,r1,#5
        0x100031ae:    1841        A.      ADDS     r1,r0,r1
        0x100031b0:    7b49        I{      LDRB     r1,[r1,#0xd]
        0x100031b2:    2900        .)      CMP      r1,#0
        0x100031b4:    d008        ..      BEQ      0x100031c8 ; _LCRxPkt_Handler + 130
        0x100031b6:    4997        .I      LDR      r1,[pc,#604] ; [0x10003414] = 0x3ce
        0x100031b8:    31d4        .1      ADDS     r1,r1,#0xd4
        0x100031ba:    1840        @.      ADDS     r0,r0,r1
        0x100031bc:    7b41        A{      LDRB     r1,[r0,#0xd]
        0x100031be:    7b02        .{      LDRB     r2,[r0,#0xc]
        0x100031c0:    0208        ..      LSLS     r0,r1,#8
        0x100031c2:    499a        .I      LDR      r1,[pc,#616] ; [0x1000342c] = 0x622b
        0x100031c4:    4310        .C      ORRS     r0,r0,r2
        0x100031c6:    4788        .G      BLX      r1
        0x100031c8:    4668        hF      MOV      r0,sp
        0x100031ca:    4a97        .J      LDR      r2,[pc,#604] ; [0x10003428] = 0x1e8b
        0x100031cc:    7901        .y      LDRB     r1,[r0,#4]
        0x100031ce:    3296        .2      ADDS     r2,r2,#0x96
        0x100031d0:    6960        `i      LDR      r0,[r4,#0x14]
        0x100031d2:    e7e1        ..      B        0x10003198 ; _LCRxPkt_Handler + 82
        0x100031d4:    203d        =       MOVS     r0,#0x3d
        0x100031d6:    f7ffff23    ..#.    BL       _LCDisConnect ; 0x10003020
        0x100031da:    bdfe        ..      POP      {r1-r7,pc}
        0x100031dc:    7828        (x      LDRB     r0,[r5,#0]
        0x100031de:    0700        ..      LSLS     r0,r0,#28
        0x100031e0:    0f00        ..      LSRS     r0,r0,#28
        0x100031e2:    2805        .(      CMP      r0,#5
        0x100031e4:    d1b8        ..      BNE      0x10003158 ; _LCRxPkt_Handler + 18
        0x100031e6:    498e        .I      LDR      r1,[pc,#568] ; [0x10003420] = 0x5749
        0x100031e8:    31ee        .1      ADDS     r1,r1,#0xee
        0x100031ea:    1ca8        ..      ADDS     r0,r5,#2
        0x100031ec:    4788        .G      BLX      r1
        0x100031ee:    7828        (x      LDRB     r0,[r5,#0]
        0x100031f0:    2287        ."      MOVS     r2,#0x87
        0x100031f2:    0640        @.      LSLS     r0,r0,#25
        0x100031f4:    0fc1        ..      LSRS     r1,r0,#31
        0x100031f6:    68e0        .h      LDR      r0,[r4,#0xc]
        0x100031f8:    5411        .T      STRB     r1,[r2,r0]
        0x100031fa:    2206        ."      MOVS     r2,#6
        0x100031fc:    1ca9        ..      ADDS     r1,r5,#2
        0x100031fe:    3088        .0      ADDS     r0,r0,#0x88
        0x10003200:    f002f85e    ..^.    BL       __aeabi_memcpy ; 0x100052c0
        0x10003204:    2137        7!      MOVS     r1,#0x37
        0x10003206:    6920         i      LDR      r0,[r4,#0x10]
        0x10003208:    f002f873    ..s.    BL       __aeabi_memclr ; 0x100052f2
        0x1000320c:    e7a4        ..      B        0x10003158 ; _LCRxPkt_Handler + 18
    _LCTxPkt_Handler
        0x1000320e:    b5f0        ..      PUSH     {r4-r7,lr}
        0x10003210:    4982        .I      LDR      r1,[pc,#520] ; [0x1000341c] = 0xaf5
        0x10003212:    b099        ..      SUB      sp,sp,#0x64
        0x10003214:    2004        .       MOVS     r0,#4
        0x10003216:    4788        .G      BLX      r1
        0x10003218:    2800        .(      CMP      r0,#0
        0x1000321a:    d00e        ..      BEQ      0x1000323a ; _LCTxPkt_Handler + 44
        0x1000321c:    497f        .I      LDR      r1,[pc,#508] ; [0x1000341c] = 0xaf5
        0x1000321e:    2004        .       MOVS     r0,#4
        0x10003220:    311a        .1      ADDS     r1,r1,#0x1a
        0x10003222:    4788        .G      BLX      r1
        0x10003224:    497c        |I      LDR      r1,[pc,#496] ; [0x10003418] = 0x1201
        0x10003226:    201f        .       MOVS     r0,#0x1f
        0x10003228:    31ac        .1      ADDS     r1,r1,#0xac
        0x1000322a:    4788        .G      BLX      r1
        0x1000322c:    4880        .H      LDR      r0,[pc,#512] ; [0x10003430] = 0x60bd
        0x1000322e:    4780        .G      BLX      r0
        0x10003230:    2016        .       MOVS     r0,#0x16
        0x10003232:    f7fffef5    ....    BL       _LCDisConnect ; 0x10003020
        0x10003236:    b019        ..      ADD      sp,sp,#0x64
        0x10003238:    bdf0        ..      POP      {r4-r7,pc}
        0x1000323a:    487e        ~H      LDR      r0,[pc,#504] ; [0x10003434] = 0x4e05
        0x1000323c:    4780        .G      BLX      r0
        0x1000323e:    2800        .(      CMP      r0,#0
        0x10003240:    d010        ..      BEQ      0x10003264 ; _LCTxPkt_Handler + 86
        0x10003242:    4d73        sM      LDR      r5,[pc,#460] ; [0x10003410] = 0x20003118
        0x10003244:    68ec        .h      LDR      r4,[r5,#0xc]
        0x10003246:    79a1        .y      LDRB     r1,[r4,#6]
        0x10003248:    0708        ..      LSLS     r0,r1,#28
        0x1000324a:    d5f4        ..      BPL      0x10003236 ; _LCTxPkt_Handler + 40
        0x1000324c:    79e0        .y      LDRB     r0,[r4,#7]
        0x1000324e:    07c2        ..      LSLS     r2,r0,#31
        0x10003250:    d01c        ..      BEQ      0x1000328c ; _LCTxPkt_Handler + 126
        0x10003252:    4979        yI      LDR      r1,[pc,#484] ; [0x10003438] = 0x2627
        0x10003254:    4620         F      MOV      r0,r4
        0x10003256:    3098        .0      ADDS     r0,r0,#0x98
        0x10003258:    4788        .G      BLX      r1
        0x1000325a:    68e8        .h      LDR      r0,[r5,#0xc]
        0x1000325c:    79c1        .y      LDRB     r1,[r0,#7]
        0x1000325e:    0849        I.      LSRS     r1,r1,#1
        0x10003260:    0049        I.      LSLS     r1,r1,#1
        0x10003262:    e01f        ..      B        0x100032a4 ; _LCTxPkt_Handler + 150
        0x10003264:    4e73        sN      LDR      r6,[pc,#460] ; [0x10003434] = 0x4e05
        0x10003266:    4f72        rO      LDR      r7,[pc,#456] ; [0x10003430] = 0x60bd
        0x10003268:    4d71        qM      LDR      r5,[pc,#452] ; [0x10003430] = 0x60bd
        0x1000326a:    36b2        .6      ADDS     r6,r6,#0xb2
        0x1000326c:    371c        .7      ADDS     r7,r7,#0x1c
        0x1000326e:    466c        lF      MOV      r4,sp
        0x10003270:    3510        .5      ADDS     r5,r5,#0x10
        0x10003272:    e007        ..      B        0x10003284 ; _LCTxPkt_Handler + 118
        0x10003274:    4668        hF      MOV      r0,sp
        0x10003276:    47b0        .G      BLX      r6
        0x10003278:    2801        .(      CMP      r0,#1
        0x1000327a:    d1dc        ..      BNE      0x10003236 ; _LCTxPkt_Handler + 40
        0x1000327c:    4668        hF      MOV      r0,sp
        0x1000327e:    7801        .x      LDRB     r1,[r0,#0]
        0x10003280:    1c60        `.      ADDS     r0,r4,#1
        0x10003282:    47b8        .G      BLX      r7
        0x10003284:    47a8        .G      BLX      r5
        0x10003286:    2800        .(      CMP      r0,#0
        0x10003288:    d0f4        ..      BEQ      0x10003274 ; _LCTxPkt_Handler + 102
        0x1000328a:    e7d4        ..      B        0x10003236 ; _LCTxPkt_Handler + 40
        0x1000328c:    0782        ..      LSLS     r2,r0,#30
        0x1000328e:    d50b        ..      BPL      0x100032a8 ; _LCTxPkt_Handler + 154
        0x10003290:    4a69        iJ      LDR      r2,[pc,#420] ; [0x10003438] = 0x2627
        0x10003292:    4620         F      MOV      r0,r4
        0x10003294:    321c        .2      ADDS     r2,r2,#0x1c
        0x10003296:    308e        .0      ADDS     r0,r0,#0x8e
        0x10003298:    1c81        ..      ADDS     r1,r0,#2
        0x1000329a:    4790        .G      BLX      r2
        0x1000329c:    68e8        .h      LDR      r0,[r5,#0xc]
        0x1000329e:    22fd        ."      MOVS     r2,#0xfd
        0x100032a0:    79c1        .y      LDRB     r1,[r0,#7]
        0x100032a2:    e023        #.      B        0x100032ec ; _LCTxPkt_Handler + 222
        0x100032a4:    71c1        .q      STRB     r1,[r0,#7]
        0x100032a6:    e7c6        ..      B        0x10003236 ; _LCTxPkt_Handler + 40
        0x100032a8:    0742        B.      LSLS     r2,r0,#29
        0x100032aa:    d508        ..      BPL      0x100032be ; _LCTxPkt_Handler + 176
        0x100032ac:    4962        bI      LDR      r1,[pc,#392] ; [0x10003438] = 0x2627
        0x100032ae:    4620         F      MOV      r0,r4
        0x100032b0:    3160        `1      ADDS     r1,r1,#0x60
        0x100032b2:    30a8        .0      ADDS     r0,r0,#0xa8
        0x100032b4:    4788        .G      BLX      r1
        0x100032b6:    68e8        .h      LDR      r0,[r5,#0xc]
        0x100032b8:    22fb        ."      MOVS     r2,#0xfb
        0x100032ba:    79c1        .y      LDRB     r1,[r0,#7]
        0x100032bc:    e016        ..      B        0x100032ec ; _LCTxPkt_Handler + 222
        0x100032be:    0702        ..      LSLS     r2,r0,#28
        0x100032c0:    26f7        .&      MOVS     r6,#0xf7
        0x100032c2:    2a00        .*      CMP      r2,#0
        0x100032c4:    da09        ..      BGE      0x100032da ; _LCTxPkt_Handler + 204
        0x100032c6:    4a5c        \J      LDR      r2,[pc,#368] ; [0x10003438] = 0x2627
        0x100032c8:    4621        !F      MOV      r1,r4
        0x100032ca:    3242        B2      ADDS     r2,r2,#0x42
        0x100032cc:    7aa0        .z      LDRB     r0,[r4,#0xa]
        0x100032ce:    310b        .1      ADDS     r1,r1,#0xb
        0x100032d0:    4790        .G      BLX      r2
        0x100032d2:    68e8        .h      LDR      r0,[r5,#0xc]
        0x100032d4:    79c1        .y      LDRB     r1,[r0,#7]
        0x100032d6:    4031        1@      ANDS     r1,r1,r6
        0x100032d8:    e7e4        ..      B        0x100032a4 ; _LCTxPkt_Handler + 150
        0x100032da:    06c0        ..      LSLS     r0,r0,#27
        0x100032dc:    d508        ..      BPL      0x100032f0 ; _LCTxPkt_Handler + 226
        0x100032de:    4956        VI      LDR      r1,[pc,#344] ; [0x10003438] = 0x2627
        0x100032e0:    4668        hF      MOV      r0,sp
        0x100032e2:    317c        |1      ADDS     r1,r1,#0x7c
        0x100032e4:    4788        .G      BLX      r1
        0x100032e6:    68e8        .h      LDR      r0,[r5,#0xc]
        0x100032e8:    22ef        ."      MOVS     r2,#0xef
        0x100032ea:    79c1        .y      LDRB     r1,[r0,#7]
        0x100032ec:    4011        .@      ANDS     r1,r1,r2
        0x100032ee:    e7d9        ..      B        0x100032a4 ; _LCTxPkt_Handler + 150
        0x100032f0:    4620         F      MOV      r0,r4
        0x100032f2:    4031        1@      ANDS     r1,r1,r6
        0x100032f4:    30ff        .0      ADDS     r0,r0,#0xff
        0x100032f6:    71a1        .q      STRB     r1,[r4,#6]
        0x100032f8:    3021        !0      ADDS     r0,r0,#0x21
        0x100032fa:    7d01        .}      LDRB     r1,[r0,#0x14]
        0x100032fc:    2600        .&      MOVS     r6,#0
        0x100032fe:    2900        .)      CMP      r1,#0
        0x10003300:    d010        ..      BEQ      0x10003324 ; _LCTxPkt_Handler + 278
        0x10003302:    7506        .u      STRB     r6,[r0,#0x14]
        0x10003304:    4621        !F      MOV      r1,r4
        0x10003306:    2207        ."      MOVS     r2,#7
        0x10003308:    3187        .1      ADDS     r1,r1,#0x87
        0x1000330a:    a80c        ..      ADD      r0,sp,#0x30
        0x1000330c:    f001ffd8    ....    BL       __aeabi_memcpy ; 0x100052c0
        0x10003310:    4621        !F      MOV      r1,r4
        0x10003312:    a80d        ..      ADD      r0,sp,#0x34
        0x10003314:    222a        *"      MOVS     r2,#0x2a
        0x10003316:    318e        .1      ADDS     r1,r1,#0x8e
        0x10003318:    3003        .0      ADDS     r0,#3
        0x1000331a:    f001ffd1    ....    BL       __aeabi_memcpy ; 0x100052c0
        0x1000331e:    4947        GI      LDR      r1,[pc,#284] ; [0x1000343c] = 0x47df
        0x10003320:    a80c        ..      ADD      r0,sp,#0x30
        0x10003322:    4788        .G      BLX      r1
        0x10003324:    2001        .       MOVS     r0,#1
        0x10003326:    4669        iF      MOV      r1,sp
        0x10003328:    7008        .p      STRB     r0,[r1,#0]
        0x1000332a:    7048        Hp      STRB     r0,[r1,#1]
        0x1000332c:    708e        .p      STRB     r6,[r1,#2]
        0x1000332e:    68e9        .h      LDR      r1,[r5,#0xc]
        0x10003330:    a800        ..      ADD      r0,sp,#0
        0x10003332:    222a        *"      MOVS     r2,#0x2a
        0x10003334:    3003        .0      ADDS     r0,#3
        0x10003336:    318e        .1      ADDS     r1,r1,#0x8e
        0x10003338:    f001ffc2    ....    BL       __aeabi_memcpy ; 0x100052c0
        0x1000333c:    222d        -"      MOVS     r2,#0x2d
        0x1000333e:    2108        .!      MOVS     r1,#8
        0x10003340:    4c3f        ?L      LDR      r4,[pc,#252] ; [0x10003440] = 0x3ea1
        0x10003342:    466b        kF      MOV      r3,sp
        0x10003344:    2000        .       MOVS     r0,#0
        0x10003346:    47a0        .G      BLX      r4
        0x10003348:    e775        u.      B        0x10003236 ; _LCTxPkt_Handler + 40
    _BBGetMask
        0x1000334a:    4931        1I      LDR      r1,[pc,#196] ; [0x10003410] = 0x20003118
        0x1000334c:    2801        .(      CMP      r0,#1
        0x1000334e:    6a89        .j      LDR      r1,[r1,#0x28]
        0x10003350:    d00f        ..      BEQ      0x10003372 ; _BBGetMask + 40
        0x10003352:    2802        .(      CMP      r0,#2
        0x10003354:    d011        ..      BEQ      0x1000337a ; _BBGetMask + 48
        0x10003356:    2804        .(      CMP      r0,#4
        0x10003358:    d012        ..      BEQ      0x10003380 ; _BBGetMask + 54
        0x1000335a:    2808        .(      CMP      r0,#8
        0x1000335c:    d013        ..      BEQ      0x10003386 ; _BBGetMask + 60
        0x1000335e:    2810        .(      CMP      r0,#0x10
        0x10003360:    d014        ..      BEQ      0x1000338c ; _BBGetMask + 66
        0x10003362:    2820         (      CMP      r0,#0x20
        0x10003364:    d015        ..      BEQ      0x10003392 ; _BBGetMask + 72
        0x10003366:    2840        @(      CMP      r0,#0x40
        0x10003368:    d016        ..      BEQ      0x10003398 ; _BBGetMask + 78
        0x1000336a:    2880        .(      CMP      r0,#0x80
        0x1000336c:    d018        ..      BEQ      0x100033a0 ; _BBGetMask + 86
        0x1000336e:    2001        .       MOVS     r0,#1
        0x10003370:    4770        pG      BX       lr
        0x10003372:    7888        .x      LDRB     r0,[r1,#2]
        0x10003374:    07c0        ..      LSLS     r0,r0,#31
        0x10003376:    0fc0        ..      LSRS     r0,r0,#31
        0x10003378:    4770        pG      BX       lr
        0x1000337a:    7888        .x      LDRB     r0,[r1,#2]
        0x1000337c:    0780        ..      LSLS     r0,r0,#30
        0x1000337e:    e00d        ..      B        0x1000339c ; _BBGetMask + 82
        0x10003380:    7888        .x      LDRB     r0,[r1,#2]
        0x10003382:    0740        @.      LSLS     r0,r0,#29
        0x10003384:    e00a        ..      B        0x1000339c ; _BBGetMask + 82
        0x10003386:    7888        .x      LDRB     r0,[r1,#2]
        0x10003388:    0700        ..      LSLS     r0,r0,#28
        0x1000338a:    e007        ..      B        0x1000339c ; _BBGetMask + 82
        0x1000338c:    7888        .x      LDRB     r0,[r1,#2]
        0x1000338e:    06c0        ..      LSLS     r0,r0,#27
        0x10003390:    e004        ..      B        0x1000339c ; _BBGetMask + 82
        0x10003392:    7888        .x      LDRB     r0,[r1,#2]
        0x10003394:    0680        ..      LSLS     r0,r0,#26
        0x10003396:    e001        ..      B        0x1000339c ; _BBGetMask + 82
        0x10003398:    7888        .x      LDRB     r0,[r1,#2]
        0x1000339a:    0640        @.      LSLS     r0,r0,#25
        0x1000339c:    0fc0        ..      LSRS     r0,r0,#31
        0x1000339e:    4770        pG      BX       lr
        0x100033a0:    7888        .x      LDRB     r0,[r1,#2]
        0x100033a2:    09c0        ..      LSRS     r0,r0,#7
        0x100033a4:    4770        pG      BX       lr
    Lib_LLEvtCallback
        0x100033a6:    b510        ..      PUSH     {r4,lr}
        0x100033a8:    7801        .x      LDRB     r1,[r0,#0]
        0x100033aa:    2901        .)      CMP      r1,#1
        0x100033ac:    d120         .      BNE      0x100033f0 ; Lib_LLEvtCallback + 74
        0x100033ae:    1c40        @.      ADDS     r0,r0,#1
        0x100033b0:    f001ffc0    ....    BL       __aeabi_uread4 ; 0x10005334
        0x100033b4:    4a16        .J      LDR      r2,[pc,#88] ; [0x10003410] = 0x20003118
        0x100033b6:    2810        .(      CMP      r0,#0x10
        0x100033b8:    d05c        \.      BEQ      0x10003474 ; Lib_LLEvtCallback + 206
        0x100033ba:    dc0e        ..      BGT      0x100033da ; Lib_LLEvtCallback + 52
        0x100033bc:    2801        .(      CMP      r0,#1
        0x100033be:    d018        ..      BEQ      0x100033f2 ; Lib_LLEvtCallback + 76
        0x100033c0:    2802        .(      CMP      r0,#2
        0x100033c2:    d03f        ?.      BEQ      0x10003444 ; Lib_LLEvtCallback + 158
        0x100033c4:    2804        .(      CMP      r0,#4
        0x100033c6:    d045        E.      BEQ      0x10003454 ; Lib_LLEvtCallback + 174
        0x100033c8:    2808        .(      CMP      r0,#8
        0x100033ca:    d111        ..      BNE      0x100033f0 ; Lib_LLEvtCallback + 74
        0x100033cc:    f7ffffbd    ....    BL       _BBGetMask ; 0x1000334a
        0x100033d0:    2800        .(      CMP      r0,#0
        0x100033d2:    d10d        ..      BNE      0x100033f0 ; Lib_LLEvtCallback + 74
        0x100033d4:    480d        .H      LDR      r0,[pc,#52] ; [0x1000340c] = 0x16cf
        0x100033d6:    3856        V8      SUBS     r0,r0,#0x56
        0x100033d8:    e009        ..      B        0x100033ee ; Lib_LLEvtCallback + 72
        0x100033da:    2820         (      CMP      r0,#0x20
        0x100033dc:    d05a        Z.      BEQ      0x10003494 ; Lib_LLEvtCallback + 238
        0x100033de:    2840        @(      CMP      r0,#0x40
        0x100033e0:    d106        ..      BNE      0x100033f0 ; Lib_LLEvtCallback + 74
        0x100033e2:    f7ffffb2    ....    BL       _BBGetMask ; 0x1000334a
        0x100033e6:    2800        .(      CMP      r0,#0
        0x100033e8:    d102        ..      BNE      0x100033f0 ; Lib_LLEvtCallback + 74
        0x100033ea:    4808        .H      LDR      r0,[pc,#32] ; [0x1000340c] = 0x16cf
        0x100033ec:    1e80        ..      SUBS     r0,r0,#2
        0x100033ee:    4780        .G      BLX      r0
        0x100033f0:    bd10        ..      POP      {r4,pc}
        0x100033f2:    2001        .       MOVS     r0,#1
        0x100033f4:    f7ffffa9    ....    BL       _BBGetMask ; 0x1000334a
        0x100033f8:    2800        .(      CMP      r0,#0
        0x100033fa:    d1f9        ..      BNE      0x100033f0 ; Lib_LLEvtCallback + 74
        0x100033fc:    f7ffff07    ....    BL       _LCTxPkt_Handler ; 0x1000320e
        0x10003400:    bd10        ..      POP      {r4,pc}
    $d
        0x10003402:    0000        ..      DCW    0
        0x10003404:    000065bf    .e..    DCD    26047
        0x10003408:    00006a77    wj..    DCD    27255
        0x1000340c:    000016cf    ....    DCD    5839
        0x10003410:    20003118    .1.     DCD    536883480
        0x10003414:    000003ce    ....    DCD    974
        0x10003418:    00001201    ....    DCD    4609
        0x1000341c:    00000af5    ....    DCD    2805
        0x10003420:    00005749    IW..    DCD    22345
        0x10003424:    00001979    y...    DCD    6521
        0x10003428:    00001e8b    ....    DCD    7819
        0x1000342c:    0000622b    +b..    DCD    25131
        0x10003430:    000060bd    .`..    DCD    24765
        0x10003434:    00004e05    .N..    DCD    19973
        0x10003438:    00002627    '&..    DCD    9767
        0x1000343c:    000047df    .G..    DCD    18399
        0x10003440:    00003ea1    .>..    DCD    16033
    $t
        0x10003444:    2002        .       MOVS     r0,#2
        0x10003446:    f7ffff80    ....    BL       _BBGetMask ; 0x1000334a
        0x1000344a:    2800        .(      CMP      r0,#0
        0x1000344c:    d1d8        ..      BNE      0x10003400 ; Lib_LLEvtCallback + 90
        0x1000344e:    f7fffe7a    ..z.    BL       _LCRxPkt_Handler ; 0x10003146
        0x10003452:    bd10        ..      POP      {r4,pc}
        0x10003454:    2004        .       MOVS     r0,#4
        0x10003456:    f7ffff78    ..x.    BL       _BBGetMask ; 0x1000334a
        0x1000345a:    2800        .(      CMP      r0,#0
        0x1000345c:    d1f9        ..      BNE      0x10003452 ; Lib_LLEvtCallback + 172
        0x1000345e:    68d0        .h      LDR      r0,[r2,#0xc]
        0x10003460:    7a40        @z      LDRB     r0,[r0,#9]
        0x10003462:    2801        .(      CMP      r0,#1
        0x10003464:    d003        ..      BEQ      0x1000346e ; Lib_LLEvtCallback + 200
        0x10003466:    2802        .(      CMP      r0,#2
        0x10003468:    d1f3        ..      BNE      0x10003452 ; Lib_LLEvtCallback + 172
        0x1000346a:    48fe        .H      LDR      r0,[pc,#1016] ; [0x10003864] = 0x1527
        0x1000346c:    e7bf        ..      B        0x100033ee ; Lib_LLEvtCallback + 72
        0x1000346e:    48fd        .H      LDR      r0,[pc,#1012] ; [0x10003864] = 0x1527
        0x10003470:    38ae        .8      SUBS     r0,r0,#0xae
        0x10003472:    e7bc        ..      B        0x100033ee ; Lib_LLEvtCallback + 72
        0x10003474:    2010        .       MOVS     r0,#0x10
        0x10003476:    f7ffff68    ..h.    BL       _BBGetMask ; 0x1000334a
        0x1000347a:    2800        .(      CMP      r0,#0
        0x1000347c:    d1e9        ..      BNE      0x10003452 ; Lib_LLEvtCallback + 172
        0x1000347e:    6a90        .j      LDR      r0,[r2,#0x28]
        0x10003480:    3020         0      ADDS     r0,r0,#0x20
        0x10003482:    7d40        @}      LDRB     r0,[r0,#0x15]
        0x10003484:    0740        @.      LSLS     r0,r0,#29
        0x10003486:    d501        ..      BPL      0x1000348c ; Lib_LLEvtCallback + 230
        0x10003488:    203e        >       MOVS     r0,#0x3e
        0x1000348a:    e000        ..      B        0x1000348e ; Lib_LLEvtCallback + 232
        0x1000348c:    2008        .       MOVS     r0,#8
        0x1000348e:    f7fffdc7    ....    BL       _LCDisConnect ; 0x10003020
        0x10003492:    bd10        ..      POP      {r4,pc}
        0x10003494:    2020                MOVS     r0,#0x20
        0x10003496:    f7ffff58    ..X.    BL       _BBGetMask ; 0x1000334a
        0x1000349a:    2800        .(      CMP      r0,#0
        0x1000349c:    d1f9        ..      BNE      0x10003492 ; Lib_LLEvtCallback + 236
        0x1000349e:    48f2        .H      LDR      r0,[pc,#968] ; [0x10003868] = 0x16c1
        0x100034a0:    e7a5        ..      B        0x100033ee ; Lib_LLEvtCallback + 72
    ConnectionLatencyMode
        0x100034a2:    b570        p.      PUSH     {r4-r6,lr}
        0x100034a4:    2510        .%      MOVS     r5,#0x10
        0x100034a6:    2608        .&      MOVS     r6,#8
        0x100034a8:    4cf0        .L      LDR      r4,[pc,#960] ; [0x1000386c] = 0x20003118
        0x100034aa:    2800        .(      CMP      r0,#0
        0x100034ac:    d021        !.      BEQ      0x100034f2 ; ConnectionLatencyMode + 80
        0x100034ae:    6aa0        .j      LDR      r0,[r4,#0x28]
        0x100034b0:    7e81        .~      LDRB     r1,[r0,#0x1a]
        0x100034b2:    4331        1C      ORRS     r1,r1,r6
        0x100034b4:    7681        .v      STRB     r1,[r0,#0x1a]
        0x100034b6:    4601        .F      MOV      r1,r0
        0x100034b8:    3160        `1      ADDS     r1,r1,#0x60
        0x100034ba:    7e0a        .~      LDRB     r2,[r1,#0x18]
        0x100034bc:    7863        cx      LDRB     r3,[r4,#1]
        0x100034be:    0952        R.      LSRS     r2,r2,#5
        0x100034c0:    0152        R.      LSLS     r2,r2,#5
        0x100034c2:    06db        ..      LSLS     r3,r3,#27
        0x100034c4:    0edb        ..      LSRS     r3,r3,#27
        0x100034c6:    431a        .C      ORRS     r2,r2,r3
        0x100034c8:    760a        .v      STRB     r2,[r1,#0x18]
        0x100034ca:    3020         0      ADDS     r0,r0,#0x20
        0x100034cc:    7b42        B{      LDRB     r2,[r0,#0xd]
        0x100034ce:    7b06        .{      LDRB     r6,[r0,#0xc]
        0x100034d0:    0213        ..      LSLS     r3,r2,#8
        0x100034d2:    68e2        .h      LDR      r2,[r4,#0xc]
        0x100034d4:    4333        3C      ORRS     r3,r3,r6
        0x100034d6:    3223        #2      ADDS     r2,r2,#0x23
        0x100034d8:    7c54        T|      LDRB     r4,[r2,#0x11]
        0x100034da:    7c16        .|      LDRB     r6,[r2,#0x10]
        0x100034dc:    0222        ".      LSLS     r2,r4,#8
        0x100034de:    4332        2C      ORRS     r2,r2,r6
        0x100034e0:    4293        .B      CMP      r3,r2
        0x100034e2:    d014        ..      BEQ      0x1000350e ; ConnectionLatencyMode + 108
        0x100034e4:    7302        .s      STRB     r2,[r0,#0xc]
        0x100034e6:    0a12        ..      LSRS     r2,r2,#8
        0x100034e8:    7342        Bs      STRB     r2,[r0,#0xd]
        0x100034ea:    7dc8        .}      LDRB     r0,[r1,#0x17]
        0x100034ec:    4328        (C      ORRS     r0,r0,r5
        0x100034ee:    75c8        .u      STRB     r0,[r1,#0x17]
        0x100034f0:    e00d        ..      B        0x1000350e ; ConnectionLatencyMode + 108
        0x100034f2:    f001fe02    ....    BL       WaitLLCOverSlpth ; 0x100050fa
        0x100034f6:    6aa0        .j      LDR      r0,[r4,#0x28]
        0x100034f8:    2200        ."      MOVS     r2,#0
        0x100034fa:    4601        .F      MOV      r1,r0
        0x100034fc:    3120         1      ADDS     r1,r1,#0x20
        0x100034fe:    730a        .s      STRB     r2,[r1,#0xc]
        0x10003500:    734a        Js      STRB     r2,[r1,#0xd]
        0x10003502:    3060        `0      ADDS     r0,r0,#0x60
        0x10003504:    7dc1        .}      LDRB     r1,[r0,#0x17]
        0x10003506:    4329        )C      ORRS     r1,r1,r5
        0x10003508:    75c1        .u      STRB     r1,[r0,#0x17]
        0x1000350a:    48d9        .H      LDR      r0,[pc,#868] ; [0x10003870] = 0x40020020
        0x1000350c:    7706        .w      STRB     r6,[r0,#0x1c]
        0x1000350e:    2001        .       MOVS     r0,#1
        0x10003510:    bd70        p.      POP      {r4-r6,pc}
    sw_timer_latency_callback
        0x10003512:    48d6        .H      LDR      r0,[pc,#856] ; [0x1000386c] = 0x20003118
        0x10003514:    68c0        .h      LDR      r0,[r0,#0xc]
        0x10003516:    3023        #0      ADDS     r0,r0,#0x23
        0x10003518:    7c41        A|      LDRB     r1,[r0,#0x11]
        0x1000351a:    7c02        .|      LDRB     r2,[r0,#0x10]
        0x1000351c:    0208        ..      LSLS     r0,r1,#8
        0x1000351e:    4310        .C      ORRS     r0,r0,r2
        0x10003520:    d00b        ..      BEQ      0x1000353a ; sw_timer_latency_callback + 40
        0x10003522:    49d4        .I      LDR      r1,[pc,#848] ; [0x10003874] = 0x2000367f
        0x10003524:    7848        Hx      LDRB     r0,[r1,#1]
        0x10003526:    780a        .x      LDRB     r2,[r1,#0]
        0x10003528:    0200        ..      LSLS     r0,r0,#8
        0x1000352a:    4310        .C      ORRS     r0,r0,r2
        0x1000352c:    2203        ."      MOVS     r2,#3
        0x1000352e:    4310        .C      ORRS     r0,r0,r2
        0x10003530:    7008        .p      STRB     r0,[r1,#0]
        0x10003532:    0a00        ..      LSRS     r0,r0,#8
        0x10003534:    7048        Hp      STRB     r0,[r1,#1]
        0x10003536:    2001        .       MOVS     r0,#1
        0x10003538:    e7b3        ..      B        ConnectionLatencyMode ; 0x100034a2
        0x1000353a:    4770        pG      BX       lr
    TimerStart
        0x1000353c:    b430        0.      PUSH     {r4,r5}
        0x1000353e:    4cce        .L      LDR      r4,[pc,#824] ; [0x10003878] = 0x44ab
        0x10003540:    46a4        .F      MOV      r12,r4
        0x10003542:    bc30        0.      POP      {r4,r5}
        0x10003544:    4760        `G      BX       r12
    smart_latency_start
        0x10003546:    b5f8        ..      PUSH     {r3-r7,lr}
        0x10003548:    48ca        .H      LDR      r0,[pc,#808] ; [0x10003874] = 0x2000367f
        0x1000354a:    7a40        @z      LDRB     r0,[r0,#9]
        0x1000354c:    0600        ..      LSLS     r0,r0,#24
        0x1000354e:    d563        c.      BPL      0x10003618 ; smart_latency_start + 210
        0x10003550:    48c6        .H      LDR      r0,[pc,#792] ; [0x1000386c] = 0x20003118
        0x10003552:    68c6        .h      LDR      r6,[r0,#0xc]
        0x10003554:    4630        0F      MOV      r0,r6
        0x10003556:    3023        #0      ADDS     r0,r0,#0x23
        0x10003558:    7c41        A|      LDRB     r1,[r0,#0x11]
        0x1000355a:    7c00        .|      LDRB     r0,[r0,#0x10]
        0x1000355c:    020f        ..      LSLS     r7,r1,#8
        0x1000355e:    49c5        .I      LDR      r1,[pc,#788] ; [0x10003874] = 0x2000367f
        0x10003560:    4307        .C      ORRS     r7,r7,r0
        0x10003562:    7848        Hx      LDRB     r0,[r1,#1]
        0x10003564:    7809        .x      LDRB     r1,[r1,#0]
        0x10003566:    0204        ..      LSLS     r4,r0,#8
        0x10003568:    430c        .C      ORRS     r4,r4,r1
        0x1000356a:    2f00        ./      CMP      r7,#0
        0x1000356c:    d101        ..      BNE      0x10003572 ; smart_latency_start + 44
        0x1000356e:    0760        `.      LSLS     r0,r4,#29
        0x10003570:    d552        R.      BPL      0x10003618 ; smart_latency_start + 210
        0x10003572:    4dc0        .M      LDR      r5,[pc,#768] ; [0x10003874] = 0x2000367f
        0x10003574:    7ba8        .{      LDRB     r0,[r5,#0xe]
        0x10003576:    7b69        i{      LDRB     r1,[r5,#0xd]
        0x10003578:    0200        ..      LSLS     r0,r0,#8
        0x1000357a:    1c6d        m.      ADDS     r5,r5,#1
        0x1000357c:    4308        .C      ORRS     r0,r0,r1
        0x1000357e:    d04b        K.      BEQ      0x10003618 ; smart_latency_start + 210
        0x10003580:    2f00        ./      CMP      r7,#0
        0x10003582:    d049        I.      BEQ      0x10003618 ; smart_latency_start + 210
        0x10003584:    7968        hy      LDRB     r0,[r5,#5]
        0x10003586:    7929        )y      LDRB     r1,[r5,#4]
        0x10003588:    0200        ..      LSLS     r0,r0,#8
        0x1000358a:    4308        .C      ORRS     r0,r0,r1
        0x1000358c:    d12e        ..      BNE      0x100035ec ; smart_latency_start + 166
        0x1000358e:    3621        !6      ADDS     r6,r6,#0x21
        0x10003590:    7c70        p|      LDRB     r0,[r6,#0x11]
        0x10003592:    7c31        1|      LDRB     r1,[r6,#0x10]
        0x10003594:    0200        ..      LSLS     r0,r0,#8
        0x10003596:    4308        .C      ORRS     r0,r0,r1
        0x10003598:    f002f8e6    ....    BL       __aeabi_ui2d ; 0x10005768
        0x1000359c:    2200        ."      MOVS     r2,#0
        0x1000359e:    4bb7        .K      LDR      r3,[pc,#732] ; [0x1000387c] = 0x3ff40000
        0x100035a0:    f001ffe6    ....    BL       __aeabi_dmul ; 0x10005570
        0x100035a4:    f002f8ee    ....    BL       __aeabi_d2uiz ; 0x10005784
        0x100035a8:    b280        ..      UXTH     r0,r0
        0x100035aa:    4378        xC      MULS     r0,r7,r0
        0x100035ac:    2164        d!      MOVS     r1,#0x64
        0x100035ae:    f001fe73    ..s.    BL       __aeabi_idiv ; 0x10005298
        0x100035b2:    0440        @.      LSLS     r0,r0,#17
        0x100035b4:    0c01        ..      LSRS     r1,r0,#16
        0x100035b6:    7129        )q      STRB     r1,[r5,#4]
        0x100035b8:    0a08        ..      LSRS     r0,r1,#8
        0x100035ba:    7168        hq      STRB     r0,[r5,#5]
        0x100035bc:    200a        .       MOVS     r0,#0xa
        0x100035be:    4341        AC      MULS     r1,r0,r1
        0x100035c0:    7d70        p}      LDRB     r0,[r6,#0x15]
        0x100035c2:    7d32        2}      LDRB     r2,[r6,#0x14]
        0x100035c4:    0200        ..      LSLS     r0,r0,#8
        0x100035c6:    4310        .C      ORRS     r0,r0,r2
        0x100035c8:    4281        .B      CMP      r1,r0
        0x100035ca:    d306        ..      BCC      0x100035da ; smart_latency_start + 148
        0x100035cc:    210a        .!      MOVS     r1,#0xa
        0x100035ce:    1e40        @.      SUBS     r0,r0,#1
        0x100035d0:    f001fe62    ..b.    BL       __aeabi_idiv ; 0x10005298
        0x100035d4:    7128        (q      STRB     r0,[r5,#4]
        0x100035d6:    0a00        ..      LSRS     r0,r0,#8
        0x100035d8:    7168        hq      STRB     r0,[r5,#5]
        0x100035da:    7968        hy      LDRB     r0,[r5,#5]
        0x100035dc:    7929        )y      LDRB     r1,[r5,#4]
        0x100035de:    0200        ..      LSLS     r0,r0,#8
        0x100035e0:    4308        .C      ORRS     r0,r0,r1
        0x100035e2:    d103        ..      BNE      0x100035ec ; smart_latency_start + 166
        0x100035e4:    2001        .       MOVS     r0,#1
        0x100035e6:    7128        (q      STRB     r0,[r5,#4]
        0x100035e8:    2000        .       MOVS     r0,#0
        0x100035ea:    7168        hq      STRB     r0,[r5,#5]
        0x100035ec:    48a1        .H      LDR      r0,[pc,#644] ; [0x10003874] = 0x2000367f
        0x100035ee:    07a1        ..      LSLS     r1,r4,#30
        0x100035f0:    d509        ..      BPL      0x10003606 ; smart_latency_start + 192
        0x100035f2:    2102        .!      MOVS     r1,#2
        0x100035f4:    438c        .C      BICS     r4,r4,r1
        0x100035f6:    2101        .!      MOVS     r1,#1
        0x100035f8:    430c        .C      ORRS     r4,r4,r1
        0x100035fa:    7004        .p      STRB     r4,[r0,#0]
        0x100035fc:    0a21        !.      LSRS     r1,r4,#8
        0x100035fe:    7041        Ap      STRB     r1,[r0,#1]
        0x10003600:    2000        .       MOVS     r0,#0
        0x10003602:    f7ffff4e    ..N.    BL       ConnectionLatencyMode ; 0x100034a2
        0x10003606:    7968        hy      LDRB     r0,[r5,#5]
        0x10003608:    792a        *y      LDRB     r2,[r5,#4]
        0x1000360a:    0201        ..      LSLS     r1,r0,#8
        0x1000360c:    4311        .C      ORRS     r1,r1,r2
        0x1000360e:    4b9c        .K      LDR      r3,[pc,#624] ; [0x10003880] = 0x10003513
        0x10003610:    2200        ."      MOVS     r2,#0
        0x10003612:    2040        @       MOVS     r0,#0x40
        0x10003614:    f7ffff92    ....    BL       TimerStart ; 0x1000353c
        0x10003618:    bdf8        ..      POP      {r3-r7,pc}
    smart_update_latency_updatersp
        0x1000361a:    b51c        ..      PUSH     {r2-r4,lr}
        0x1000361c:    4995        .I      LDR      r1,[pc,#596] ; [0x10003874] = 0x2000367f
        0x1000361e:    7a4a        Jz      LDRB     r2,[r1,#9]
        0x10003620:    2a00        .*      CMP      r2,#0
        0x10003622:    d03a        :.      BEQ      0x1000369a ; smart_update_latency_updatersp + 128
        0x10003624:    784a        Jx      LDRB     r2,[r1,#1]
        0x10003626:    780b        .x      LDRB     r3,[r1,#0]
        0x10003628:    0212        ..      LSLS     r2,r2,#8
        0x1000362a:    431a        .C      ORRS     r2,r2,r3
        0x1000362c:    06d3        ..      LSLS     r3,r2,#27
        0x1000362e:    d434        4.      BMI      0x1000369a ; smart_update_latency_updatersp + 128
        0x10003630:    7843        Cx      LDRB     r3,[r0,#1]
        0x10003632:    7804        .x      LDRB     r4,[r0,#0]
        0x10003634:    0218        ..      LSLS     r0,r3,#8
        0x10003636:    4320         C      ORRS     r0,r0,r4
        0x10003638:    2801        .(      CMP      r0,#1
        0x1000363a:    d12e        ..      BNE      0x1000369a ; smart_update_latency_updatersp + 128
        0x1000363c:    78c8        .x      LDRB     r0,[r1,#3]
        0x1000363e:    1e40        @.      SUBS     r0,r0,#1
        0x10003640:    0600        ..      LSLS     r0,r0,#24
        0x10003642:    0e00        ..      LSRS     r0,r0,#24
        0x10003644:    70c8        .p      STRB     r0,[r1,#3]
        0x10003646:    d029        ).      BEQ      0x1000369c ; smart_update_latency_updatersp + 130
        0x10003648:    4608        .F      MOV      r0,r1
        0x1000364a:    788b        .x      LDRB     r3,[r1,#2]
        0x1000364c:    7a01        .z      LDRB     r1,[r0,#8]
        0x1000364e:    79c2        .y      LDRB     r2,[r0,#7]
        0x10003650:    0209        ..      LSLS     r1,r1,#8
        0x10003652:    4311        .C      ORRS     r1,r1,r2
        0x10003654:    7b02        .{      LDRB     r2,[r0,#0xc]
        0x10003656:    7ac4        .z      LDRB     r4,[r0,#0xb]
        0x10003658:    0212        ..      LSLS     r2,r2,#8
        0x1000365a:    4322        "C      ORRS     r2,r2,r4
        0x1000365c:    1cc0        ..      ADDS     r0,r0,#3
        0x1000365e:    2b01        .+      CMP      r3,#1
        0x10003660:    d024        $.      BEQ      0x100036ac ; smart_update_latency_updatersp + 146
        0x10003662:    1a52        R.      SUBS     r2,r2,r1
        0x10003664:    7202        .r      STRB     r2,[r0,#8]
        0x10003666:    0a12        ..      LSRS     r2,r2,#8
        0x10003668:    7242        Br      STRB     r2,[r0,#9]
        0x1000366a:    0612        ..      LSLS     r2,r2,#24
        0x1000366c:    7a03        .z      LDRB     r3,[r0,#8]
        0x1000366e:    0c12        ..      LSRS     r2,r2,#16
        0x10003670:    431a        .C      ORRS     r2,r2,r3
        0x10003672:    1a53        S.      SUBS     r3,r2,r1
        0x10003674:    4669        iF      MOV      r1,sp
        0x10003676:    800b        ..      STRH     r3,[r1,#0]
        0x10003678:    804a        J.      STRH     r2,[r1,#2]
        0x1000367a:    497e        ~I      LDR      r1,[pc,#504] ; [0x10003874] = 0x2000367f
        0x1000367c:    7b8a        .{      LDRB     r2,[r1,#0xe]
        0x1000367e:    7b49        I{      LDRB     r1,[r1,#0xd]
        0x10003680:    0212        ..      LSLS     r2,r2,#8
        0x10003682:    430a        .C      ORRS     r2,r2,r1
        0x10003684:    4669        iF      MOV      r1,sp
        0x10003686:    808a        ..      STRH     r2,[r1,#4]
        0x10003688:    7b41        A{      LDRB     r1,[r0,#0xd]
        0x1000368a:    7b02        .{      LDRB     r2,[r0,#0xc]
        0x1000368c:    0208        ..      LSLS     r0,r1,#8
        0x1000368e:    4310        .C      ORRS     r0,r0,r2
        0x10003690:    4669        iF      MOV      r1,sp
        0x10003692:    80c8        ..      STRH     r0,[r1,#6]
        0x10003694:    497b        {I      LDR      r1,[pc,#492] ; [0x10003884] = 0x4233
        0x10003696:    4668        hF      MOV      r0,sp
        0x10003698:    4788        .G      BLX      r1
        0x1000369a:    bd1c        ..      POP      {r2-r4,pc}
        0x1000369c:    7a88        .z      LDRB     r0,[r1,#0xa]
        0x1000369e:    70c8        .p      STRB     r0,[r1,#3]
        0x100036a0:    2040        @       MOVS     r0,#0x40
        0x100036a2:    4302        .C      ORRS     r2,r2,r0
        0x100036a4:    700a        .p      STRB     r2,[r1,#0]
        0x100036a6:    0a10        ..      LSRS     r0,r2,#8
        0x100036a8:    7048        Hp      STRB     r0,[r1,#1]
        0x100036aa:    bd1c        ..      POP      {r2-r4,pc}
        0x100036ac:    1852        R.      ADDS     r2,r2,r1
        0x100036ae:    e7d9        ..      B        0x10003664 ; smart_update_latency_updatersp + 74
    BBRFRead
        0x100036b0:    4a75        uJ      LDR      r2,[pc,#468] ; [0x10003888] = 0x61c5
        0x100036b2:    4710        .G      BX       r2
    BBRFWrite
        0x100036b4:    4a74        tJ      LDR      r2,[pc,#464] ; [0x10003888] = 0x61c5
        0x100036b6:    3220         2      ADDS     r2,r2,#0x20
        0x100036b8:    4710        .G      BX       r2
    RCOSCCalibration
        0x100036ba:    b538        8.      PUSH     {r3-r5,lr}
        0x100036bc:    2400        .$      MOVS     r4,#0
        0x100036be:    4669        iF      MOV      r1,sp
        0x100036c0:    700c        .p      STRB     r4,[r1,#0]
        0x100036c2:    4621        !F      MOV      r1,r4
        0x100036c4:    207f        .       MOVS     r0,#0x7f
        0x100036c6:    f7fffff5    ....    BL       BBRFWrite ; 0x100036b4
        0x100036ca:    2100        .!      MOVS     r1,#0
        0x100036cc:    203b        ;       MOVS     r0,#0x3b
        0x100036ce:    f7fffff1    ....    BL       BBRFWrite ; 0x100036b4
        0x100036d2:    2129        )!      MOVS     r1,#0x29
        0x100036d4:    203b        ;       MOVS     r0,#0x3b
        0x100036d6:    f7ffffed    ....    BL       BBRFWrite ; 0x100036b4
        0x100036da:    4669        iF      MOV      r1,sp
        0x100036dc:    203b        ;       MOVS     r0,#0x3b
        0x100036de:    f7ffffe7    ....    BL       BBRFRead ; 0x100036b0
        0x100036e2:    4668        hF      MOV      r0,sp
        0x100036e4:    7800        .x      LDRB     r0,[r0,#0]
        0x100036e6:    0780        ..      LSLS     r0,r0,#30
        0x100036e8:    d501        ..      BPL      0x100036ee ; RCOSCCalibration + 52
        0x100036ea:    2001        .       MOVS     r0,#1
        0x100036ec:    bd38        8.      POP      {r3-r5,pc}
        0x100036ee:    1c64        d.      ADDS     r4,r4,#1
        0x100036f0:    b2a4        ..      UXTH     r4,r4
        0x100036f2:    2cff        .,      CMP      r4,#0xff
        0x100036f4:    d9f1        ..      BLS      0x100036da ; RCOSCCalibration + 32
        0x100036f6:    2000        .       MOVS     r0,#0
        0x100036f8:    bd38        8.      POP      {r3-r5,pc}
    RFSleep
        0x100036fa:    b510        ..      PUSH     {r4,lr}
        0x100036fc:    4863        cH      LDR      r0,[pc,#396] ; [0x1000388c] = 0x4707
        0x100036fe:    4780        .G      BLX      r0
        0x10003700:    2001        .       MOVS     r0,#1
        0x10003702:    bd10        ..      POP      {r4,pc}
    UartEn
        0x10003704:    b510        ..      PUSH     {r4,lr}
        0x10003706:    4959        YI      LDR      r1,[pc,#356] ; [0x1000386c] = 0x20003118
        0x10003708:    4a61        aJ      LDR      r2,[pc,#388] ; [0x10003890] = 0x65a7
        0x1000370a:    7088        .p      STRB     r0,[r1,#2]
        0x1000370c:    2800        .(      CMP      r0,#0
        0x1000370e:    d107        ..      BNE      0x10003720 ; UartEn + 28
        0x10003710:    68c8        .h      LDR      r0,[r1,#0xc]
        0x10003712:    7880        .x      LDRB     r0,[r0,#2]
        0x10003714:    2802        .(      CMP      r0,#2
        0x10003716:    d003        ..      BEQ      0x10003720 ; UartEn + 28
        0x10003718:    2000        .       MOVS     r0,#0
        0x1000371a:    4790        .G      BLX      r2
        0x1000371c:    2001        .       MOVS     r0,#1
        0x1000371e:    bd10        ..      POP      {r4,pc}
        0x10003720:    2001        .       MOVS     r0,#1
        0x10003722:    e7fa        ..      B        0x1000371a ; UartEn + 22
    _SYS32kClockSwitch
        0x10003724:    b510        ..      PUSH     {r4,lr}
        0x10003726:    4c51        QL      LDR      r4,[pc,#324] ; [0x1000386c] = 0x20003118
        0x10003728:    2801        .(      CMP      r0,#1
        0x1000372a:    68e1        .h      LDR      r1,[r4,#0xc]
        0x1000372c:    7088        .p      STRB     r0,[r1,#2]
        0x1000372e:    d004        ..      BEQ      0x1000373a ; _SYS32kClockSwitch + 22
        0x10003730:    2800        .(      CMP      r0,#0
        0x10003732:    d036        6.      BEQ      0x100037a2 ; _SYS32kClockSwitch + 126
        0x10003734:    2802        .(      CMP      r0,#2
        0x10003736:    d04b        K.      BEQ      0x100037d0 ; _SYS32kClockSwitch + 172
        0x10003738:    e05e        ^.      B        0x100037f8 ; _SYS32kClockSwitch + 212
        0x1000373a:    6b20         k      LDR      r0,[r4,#0x30]
        0x1000373c:    4601        .F      MOV      r1,r0
        0x1000373e:    3120         1      ADDS     r1,r1,#0x20
        0x10003740:    780a        .x      LDRB     r2,[r1,#0]
        0x10003742:    0852        R.      LSRS     r2,r2,#1
        0x10003744:    0052        R.      LSLS     r2,r2,#1
        0x10003746:    700a        .p      STRB     r2,[r1,#0]
        0x10003748:    780a        .x      LDRB     r2,[r1,#0]
        0x1000374a:    23fd        .#      MOVS     r3,#0xfd
        0x1000374c:    401a        .@      ANDS     r2,r2,r3
        0x1000374e:    700a        .p      STRB     r2,[r1,#0]
        0x10003750:    7801        .x      LDRB     r1,[r0,#0]
        0x10003752:    0989        ..      LSRS     r1,r1,#6
        0x10003754:    0189        ..      LSLS     r1,r1,#6
        0x10003756:    311c        .1      ADDS     r1,r1,#0x1c
        0x10003758:    7001        .p      STRB     r1,[r0,#0]
        0x1000375a:    7841        Ax      LDRB     r1,[r0,#1]
        0x1000375c:    0989        ..      LSRS     r1,r1,#6
        0x1000375e:    0189        ..      LSLS     r1,r1,#6
        0x10003760:    311c        .1      ADDS     r1,r1,#0x1c
        0x10003762:    7041        Ap      STRB     r1,[r0,#1]
        0x10003764:    2100        .!      MOVS     r1,#0
        0x10003766:    207f        .       MOVS     r0,#0x7f
        0x10003768:    f7ffffa4    ....    BL       BBRFWrite ; 0x100036b4
        0x1000376c:    2103        .!      MOVS     r1,#3
        0x1000376e:    2021        !       MOVS     r0,#0x21
        0x10003770:    f7ffffa0    ....    BL       BBRFWrite ; 0x100036b4
        0x10003774:    211f        .!      MOVS     r1,#0x1f
        0x10003776:    2003        .       MOVS     r0,#3
        0x10003778:    f7ffff9c    ....    BL       BBRFWrite ; 0x100036b4
        0x1000377c:    207d        }       MOVS     r0,#0x7d
        0x1000377e:    4942        BI      LDR      r1,[pc,#264] ; [0x10003888] = 0x61c5
        0x10003780:    00c0        ..      LSLS     r0,r0,#3
        0x10003782:    3180        .1      ADDS     r1,r1,#0x80
        0x10003784:    4788        .G      BLX      r1
        0x10003786:    2102        .!      MOVS     r1,#2
        0x10003788:    207f        .       MOVS     r0,#0x7f
        0x1000378a:    f7ffff93    ....    BL       BBRFWrite ; 0x100036b4
        0x1000378e:    2101        .!      MOVS     r1,#1
        0x10003790:    2000        .       MOVS     r0,#0
        0x10003792:    f7ffff8f    ....    BL       BBRFWrite ; 0x100036b4
        0x10003796:    2100        .!      MOVS     r1,#0
        0x10003798:    207f        .       MOVS     r0,#0x7f
        0x1000379a:    f7ffff8b    ....    BL       BBRFWrite ; 0x100036b4
        0x1000379e:    210f        .!      MOVS     r1,#0xf
        0x100037a0:    e027        '.      B        0x100037f2 ; _SYS32kClockSwitch + 206
        0x100037a2:    2100        .!      MOVS     r1,#0
        0x100037a4:    207f        .       MOVS     r0,#0x7f
        0x100037a6:    f7ffff85    ....    BL       BBRFWrite ; 0x100036b4
        0x100037aa:    2100        .!      MOVS     r1,#0
        0x100037ac:    2004        .       MOVS     r0,#4
        0x100037ae:    f7ffff81    ....    BL       BBRFWrite ; 0x100036b4
        0x100037b2:    2102        .!      MOVS     r1,#2
        0x100037b4:    207f        .       MOVS     r0,#0x7f
        0x100037b6:    f7ffff7d    ..}.    BL       BBRFWrite ; 0x100036b4
        0x100037ba:    2100        .!      MOVS     r1,#0
        0x100037bc:    4608        .F      MOV      r0,r1
        0x100037be:    f7ffff79    ..y.    BL       BBRFWrite ; 0x100036b4
        0x100037c2:    2100        .!      MOVS     r1,#0
        0x100037c4:    207f        .       MOVS     r0,#0x7f
        0x100037c6:    f7ffff75    ..u.    BL       BBRFWrite ; 0x100036b4
        0x100037ca:    2100        .!      MOVS     r1,#0
        0x100037cc:    2003        .       MOVS     r0,#3
        0x100037ce:    e011        ..      B        0x100037f4 ; _SYS32kClockSwitch + 208
        0x100037d0:    2102        .!      MOVS     r1,#2
        0x100037d2:    207f        .       MOVS     r0,#0x7f
        0x100037d4:    f7ffff6e    ..n.    BL       BBRFWrite ; 0x100036b4
        0x100037d8:    2103        .!      MOVS     r1,#3
        0x100037da:    2000        .       MOVS     r0,#0
        0x100037dc:    f7ffff6a    ..j.    BL       BBRFWrite ; 0x100036b4
        0x100037e0:    2100        .!      MOVS     r1,#0
        0x100037e2:    207f        .       MOVS     r0,#0x7f
        0x100037e4:    f7ffff66    ..f.    BL       BBRFWrite ; 0x100036b4
        0x100037e8:    2100        .!      MOVS     r1,#0
        0x100037ea:    2003        .       MOVS     r0,#3
        0x100037ec:    f7ffff62    ..b.    BL       BBRFWrite ; 0x100036b4
        0x100037f0:    2100        .!      MOVS     r1,#0
        0x100037f2:    2004        .       MOVS     r0,#4
        0x100037f4:    f7ffff5e    ..^.    BL       BBRFWrite ; 0x100036b4
        0x100037f8:    78a0        .x      LDRB     r0,[r4,#2]
        0x100037fa:    f7ffff83    ....    BL       UartEn ; 0x10003704
        0x100037fe:    2001        .       MOVS     r0,#1
        0x10003800:    bd10        ..      POP      {r4,pc}
    ClockSwitch
        0x10003802:    b510        ..      PUSH     {r4,lr}
        0x10003804:    f7ffff8e    ....    BL       _SYS32kClockSwitch ; 0x10003724
        0x10003808:    2001        .       MOVS     r0,#1
        0x1000380a:    bd10        ..      POP      {r4,pc}
    RFWakeup
        0x1000380c:    481f        .H      LDR      r0,[pc,#124] ; [0x1000388c] = 0x4707
        0x1000380e:    b510        ..      PUSH     {r4,lr}
        0x10003810:    300c        .0      ADDS     r0,r0,#0xc
        0x10003812:    4780        .G      BLX      r0
        0x10003814:    4815        .H      LDR      r0,[pc,#84] ; [0x1000386c] = 0x20003118
        0x10003816:    6ac0        .j      LDR      r0,[r0,#0x2c]
        0x10003818:    7a01        .z      LDRB     r1,[r0,#8]
        0x1000381a:    22df        ."      MOVS     r2,#0xdf
        0x1000381c:    4011        .@      ANDS     r1,r1,r2
        0x1000381e:    7201        .r      STRB     r1,[r0,#8]
        0x10003820:    2001        .       MOVS     r0,#1
        0x10003822:    bd10        ..      POP      {r4,pc}
    LPOCalibration
        0x10003824:    b5fe        ..      PUSH     {r1-r7,lr}
        0x10003826:    481a        .H      LDR      r0,[pc,#104] ; [0x10003890] = 0x65a7
        0x10003828:    3018        .0      ADDS     r0,r0,#0x18
        0x1000382a:    4780        .G      BLX      r0
        0x1000382c:    4c0f        .L      LDR      r4,[pc,#60] ; [0x1000386c] = 0x20003118
        0x1000382e:    9001        ..      STR      r0,[sp,#4]
        0x10003830:    6ae0        .j      LDR      r0,[r4,#0x2c]
        0x10003832:    7a81        .z      LDRB     r1,[r0,#0xa]
        0x10003834:    7a00        .z      LDRB     r0,[r0,#8]
        0x10003836:    07cf        ..      LSLS     r7,r1,#31
        0x10003838:    0fff        ..      LSRS     r7,r7,#31
        0x1000383a:    2600        .&      MOVS     r6,#0
        0x1000383c:    0780        ..      LSLS     r0,r0,#30
        0x1000383e:    d002        ..      BEQ      0x10003846 ; LPOCalibration + 34
        0x10003840:    2601        .&      MOVS     r6,#1
        0x10003842:    f7ffffe3    ....    BL       RFWakeup ; 0x1000380c
        0x10003846:    4809        .H      LDR      r0,[pc,#36] ; [0x1000386c] = 0x20003118
        0x10003848:    6ac0        .j      LDR      r0,[r0,#0x2c]
        0x1000384a:    7a81        .z      LDRB     r1,[r0,#0xa]
        0x1000384c:    0849        I.      LSRS     r1,r1,#1
        0x1000384e:    0049        I.      LSLS     r1,r1,#1
        0x10003850:    7281        .r      STRB     r1,[r0,#0xa]
        0x10003852:    490f        .I      LDR      r1,[pc,#60] ; [0x10003890] = 0x65a7
        0x10003854:    2001        .       MOVS     r0,#1
        0x10003856:    4788        .G      BLX      r1
        0x10003858:    2002        .       MOVS     r0,#2
        0x1000385a:    f7ffff63    ..c.    BL       _SYS32kClockSwitch ; 0x10003724
        0x1000385e:    2064        d       MOVS     r0,#0x64
        0x10003860:    4909        .I      LDR      r1,[pc,#36] ; [0x10003888] = 0x61c5
        0x10003862:    e017        ..      B        0x10003894 ; LPOCalibration + 112
    $d
        0x10003864:    00001527    '...    DCD    5415
        0x10003868:    000016c1    ....    DCD    5825
        0x1000386c:    20003118    .1.     DCD    536883480
        0x10003870:    40020020     ..@    DCD    1073872928
        0x10003874:    2000367f    .6.     DCD    536884863
        0x10003878:    000044ab    .D..    DCD    17579
        0x1000387c:    3ff40000    ...?    DCD    1072955392
        0x10003880:    10003513    .5..    DCD    268449043
        0x10003884:    00004233    3B..    DCD    16947
        0x10003888:    000061c5    .a..    DCD    25029
        0x1000388c:    00004707    .G..    DCD    18183
        0x10003890:    000065a7    .e..    DCD    26023
    $t
        0x10003894:    3166        f1      ADDS     r1,r1,#0x66
        0x10003896:    4788        .G      BLX      r1
        0x10003898:    2400        .$      MOVS     r4,#0
        0x1000389a:    4669        iF      MOV      r1,sp
        0x1000389c:    700c        .p      STRB     r4,[r1,#0]
        0x1000389e:    4625        %F      MOV      r5,r4
        0x100038a0:    2101        .!      MOVS     r1,#1
        0x100038a2:    207f        .       MOVS     r0,#0x7f
        0x100038a4:    f7ffff06    ....    BL       BBRFWrite ; 0x100036b4
        0x100038a8:    2100        .!      MOVS     r1,#0
        0x100038aa:    200a        .       MOVS     r0,#0xa
        0x100038ac:    f7ffff02    ....    BL       BBRFWrite ; 0x100036b4
        0x100038b0:    2122        "!      MOVS     r1,#0x22
        0x100038b2:    200a        .       MOVS     r0,#0xa
        0x100038b4:    f7fffefe    ....    BL       BBRFWrite ; 0x100036b4
        0x100038b8:    4669        iF      MOV      r1,sp
        0x100038ba:    200a        .       MOVS     r0,#0xa
        0x100038bc:    f7fffef8    ....    BL       BBRFRead ; 0x100036b0
        0x100038c0:    4668        hF      MOV      r0,sp
        0x100038c2:    7800        .x      LDRB     r0,[r0,#0]
        0x100038c4:    0740        @.      LSLS     r0,r0,#29
        0x100038c6:    d4ef        ..      BMI      0x100038a8 ; LPOCalibration + 132
        0x100038c8:    4669        iF      MOV      r1,sp
        0x100038ca:    200a        .       MOVS     r0,#0xa
        0x100038cc:    f7fffef0    ....    BL       BBRFRead ; 0x100036b0
        0x100038d0:    4668        hF      MOV      r0,sp
        0x100038d2:    7800        .x      LDRB     r0,[r0,#0]
        0x100038d4:    0740        @.      LSLS     r0,r0,#29
        0x100038d6:    d505        ..      BPL      0x100038e4 ; LPOCalibration + 192
        0x100038d8:    4668        hF      MOV      r0,sp
        0x100038da:    7800        .x      LDRB     r0,[r0,#0]
        0x100038dc:    0700        ..      LSLS     r0,r0,#28
        0x100038de:    d406        ..      BMI      0x100038ee ; LPOCalibration + 202
        0x100038e0:    2501        .%      MOVS     r5,#1
        0x100038e2:    e004        ..      B        0x100038ee ; LPOCalibration + 202
        0x100038e4:    1c64        d.      ADDS     r4,r4,#1
        0x100038e6:    48ff        .H      LDR      r0,[pc,#1020] ; [0x10003ce4] = 0xffff
        0x100038e8:    b2a4        ..      UXTH     r4,r4
        0x100038ea:    4284        .B      CMP      r4,r0
        0x100038ec:    d3ec        ..      BCC      0x100038c8 ; LPOCalibration + 164
        0x100038ee:    49fe        .I      LDR      r1,[pc,#1016] ; [0x10003ce8] = 0x622b
        0x100038f0:    2064        d       MOVS     r0,#0x64
        0x100038f2:    4788        .G      BLX      r1
        0x100038f4:    2000        .       MOVS     r0,#0
        0x100038f6:    f7ffff15    ....    BL       _SYS32kClockSwitch ; 0x10003724
        0x100038fa:    49fc        .I      LDR      r1,[pc,#1008] ; [0x10003cec] = 0x65a7
        0x100038fc:    9801        ..      LDR      r0,[sp,#4]
        0x100038fe:    4788        .G      BLX      r1
        0x10003900:    48fb        .H      LDR      r0,[pc,#1004] ; [0x10003cf0] = 0x20003118
        0x10003902:    6ac0        .j      LDR      r0,[r0,#0x2c]
        0x10003904:    7a81        .z      LDRB     r1,[r0,#0xa]
        0x10003906:    0849        I.      LSRS     r1,r1,#1
        0x10003908:    0049        I.      LSLS     r1,r1,#1
        0x1000390a:    4339        9C      ORRS     r1,r1,r7
        0x1000390c:    7281        .r      STRB     r1,[r0,#0xa]
        0x1000390e:    2e00        ..      CMP      r6,#0
        0x10003910:    d001        ..      BEQ      0x10003916 ; LPOCalibration + 242
        0x10003912:    48f8        .H      LDR      r0,[pc,#992] ; [0x10003cf4] = 0x4707
        0x10003914:    4780        .G      BLX      r0
        0x10003916:    2d00        .-      CMP      r5,#0
        0x10003918:    d001        ..      BEQ      0x1000391e ; LPOCalibration + 250
        0x1000391a:    2001        .       MOVS     r0,#1
        0x1000391c:    bdfe        ..      POP      {r1-r7,pc}
        0x1000391e:    2000        .       MOVS     r0,#0
        0x10003920:    bdfe        ..      POP      {r1-r7,pc}
    smart_latency_clear
        0x10003922:    b510        ..      PUSH     {r4,lr}
        0x10003924:    2111        .!      MOVS     r1,#0x11
        0x10003926:    48f4        .H      LDR      r0,[pc,#976] ; [0x10003cf8] = 0x2000367f
        0x10003928:    f001fce3    ....    BL       __aeabi_memclr ; 0x100052f2
        0x1000392c:    bd10        ..      POP      {r4,pc}
    Lib_EvtCallback
        0x1000392e:    b570        p.      PUSH     {r4-r6,lr}
        0x10003930:    4604        .F      MOV      r4,r0
        0x10003932:    1c40        @.      ADDS     r0,r0,#1
        0x10003934:    f001fcfe    ....    BL       __aeabi_uread4 ; 0x10005334
        0x10003938:    2802        .(      CMP      r0,#2
        0x1000393a:    d018        ..      BEQ      0x1000396e ; Lib_EvtCallback + 64
        0x1000393c:    2804        .(      CMP      r0,#4
        0x1000393e:    d019        ..      BEQ      0x10003974 ; Lib_EvtCallback + 70
        0x10003940:    2101        .!      MOVS     r1,#1
        0x10003942:    0449        I.      LSLS     r1,r1,#17
        0x10003944:    4288        .B      CMP      r0,r1
        0x10003946:    d147        G.      BNE      0x100039d8 ; Lib_EvtCallback + 170
        0x10003948:    4625        %F      MOV      r5,r4
        0x1000394a:    3520         5      ADDS     r5,r5,#0x20
        0x1000394c:    7b68        h{      LDRB     r0,[r5,#0xd]
        0x1000394e:    2309        .#      MOVS     r3,#9
        0x10003950:    0701        ..      LSLS     r1,r0,#28
        0x10003952:    0902        ..      LSRS     r2,r0,#4
        0x10003954:    0f09        ..      LSRS     r1,r1,#28
        0x10003956:    2000        .       MOVS     r0,#0
        0x10003958:    2a07        .*      CMP      r2,#7
        0x1000395a:    d01c        ..      BEQ      0x10003996 ; Lib_EvtCallback + 104
        0x1000395c:    2a03        .*      CMP      r2,#3
        0x1000395e:    d020         .      BEQ      0x100039a2 ; Lib_EvtCallback + 116
        0x10003960:    2a02        .*      CMP      r2,#2
        0x10003962:    d025        %.      BEQ      0x100039b0 ; Lib_EvtCallback + 130
        0x10003964:    2a01        .*      CMP      r2,#1
        0x10003966:    d029        ).      BEQ      0x100039bc ; Lib_EvtCallback + 142
        0x10003968:    2a00        .*      CMP      r2,#0
        0x1000396a:    d02d        -.      BEQ      0x100039c8 ; Lib_EvtCallback + 154
        0x1000396c:    e032        2.      B        0x100039d4 ; Lib_EvtCallback + 166
        0x1000396e:    f7ffffd8    ....    BL       smart_latency_clear ; 0x10003922
        0x10003972:    e03a        :.      B        0x100039ea ; Lib_EvtCallback + 188
        0x10003974:    4dde        .M      LDR      r5,[pc,#888] ; [0x10003cf0] = 0x20003118
        0x10003976:    2101        .!      MOVS     r1,#1
        0x10003978:    68e8        .h      LDR      r0,[r5,#0xc]
        0x1000397a:    30ff        .0      ADDS     r0,r0,#0xff
        0x1000397c:    3021        !0      ADDS     r0,r0,#0x21
        0x1000397e:    7501        .u      STRB     r1,[r0,#0x14]
        0x10003980:    f001fc13    ....    BL       STKSetRand ; 0x100051aa
        0x10003984:    68e8        .h      LDR      r0,[r5,#0xc]
        0x10003986:    7880        .x      LDRB     r0,[r0,#2]
        0x10003988:    2800        .(      CMP      r0,#0
        0x1000398a:    d101        ..      BNE      0x10003990 ; Lib_EvtCallback + 98
        0x1000398c:    f7ffff4a    ..J.    BL       LPOCalibration ; 0x10003824
        0x10003990:    f7fffe93    ....    BL       RCOSCCalibration ; 0x100036ba
        0x10003994:    e029        ).      B        0x100039ea ; Lib_EvtCallback + 188
        0x10003996:    1a58        X.      SUBS     r0,r3,r1
        0x10003998:    2106        .!      MOVS     r1,#6
        0x1000399a:    4348        HC      MULS     r0,r1,r0
        0x1000399c:    2141        A!      MOVS     r1,#0x41
        0x1000399e:    43c9        .C      MVNS     r1,r1
        0x100039a0:    e004        ..      B        0x100039ac ; Lib_EvtCallback + 126
        0x100039a2:    1a58        X.      SUBS     r0,r3,r1
        0x100039a4:    2106        .!      MOVS     r1,#6
        0x100039a6:    4348        HC      MULS     r0,r1,r0
        0x100039a8:    2135        5!      MOVS     r1,#0x35
        0x100039aa:    43c9        .C      MVNS     r1,r1
        0x100039ac:    1a08        ..      SUBS     r0,r1,r0
        0x100039ae:    e010        ..      B        0x100039d2 ; Lib_EvtCallback + 164
        0x100039b0:    1a58        X.      SUBS     r0,r3,r1
        0x100039b2:    2106        .!      MOVS     r1,#6
        0x100039b4:    4348        HC      MULS     r0,r1,r0
        0x100039b6:    2123        #!      MOVS     r1,#0x23
        0x100039b8:    43c9        .C      MVNS     r1,r1
        0x100039ba:    e7f7        ..      B        0x100039ac ; Lib_EvtCallback + 126
        0x100039bc:    1a58        X.      SUBS     r0,r3,r1
        0x100039be:    2106        .!      MOVS     r1,#6
        0x100039c0:    4348        HC      MULS     r0,r1,r0
        0x100039c2:    2117        .!      MOVS     r1,#0x17
        0x100039c4:    43c9        .C      MVNS     r1,r1
        0x100039c6:    e7f1        ..      B        0x100039ac ; Lib_EvtCallback + 126
        0x100039c8:    1a58        X.      SUBS     r0,r3,r1
        0x100039ca:    2106        .!      MOVS     r1,#6
        0x100039cc:    4348        HC      MULS     r0,r1,r0
        0x100039ce:    1d80        ..      ADDS     r0,r0,#6
        0x100039d0:    4240        @B      RSBS     r0,r0,#0
        0x100039d2:    b240        @.      SXTB     r0,r0
        0x100039d4:    7368        hs      STRB     r0,[r5,#0xd]
        0x100039d6:    e008        ..      B        0x100039ea ; Lib_EvtCallback + 188
        0x100039d8:    2840        @(      CMP      r0,#0x40
        0x100039da:    d01d        ..      BEQ      0x10003a18 ; Lib_EvtCallback + 234
        0x100039dc:    2101        .!      MOVS     r1,#1
        0x100039de:    03c9        ..      LSLS     r1,r1,#15
        0x100039e0:    4288        .B      CMP      r0,r1
        0x100039e2:    d102        ..      BNE      0x100039ea ; Lib_EvtCallback + 188
        0x100039e4:    1d60        `.      ADDS     r0,r4,#5
        0x100039e6:    f7fffe18    ....    BL       smart_update_latency_updatersp ; 0x1000361a
        0x100039ea:    49c3        .I      LDR      r1,[pc,#780] ; [0x10003cf8] = 0x2000367f
        0x100039ec:    7848        Hx      LDRB     r0,[r1,#1]
        0x100039ee:    7809        .x      LDRB     r1,[r1,#0]
        0x100039f0:    0200        ..      LSLS     r0,r0,#8
        0x100039f2:    4308        .C      ORRS     r0,r0,r1
        0x100039f4:    0680        ..      LSLS     r0,r0,#26
        0x100039f6:    d507        ..      BPL      0x10003a08 ; Lib_EvtCallback + 218
        0x100039f8:    1c60        `.      ADDS     r0,r4,#1
        0x100039fa:    f001fc9b    ....    BL       __aeabi_uread4 ; 0x10005334
        0x100039fe:    0500        ..      LSLS     r0,r0,#20
        0x10003a00:    0f00        ..      LSRS     r0,r0,#28
        0x10003a02:    d001        ..      BEQ      0x10003a08 ; Lib_EvtCallback + 218
        0x10003a04:    f7fffd9f    ....    BL       smart_latency_start ; 0x10003546
        0x10003a08:    48b9        .H      LDR      r0,[pc,#740] ; [0x10003cf0] = 0x20003118
        0x10003a0a:    3038        80      ADDS     r0,r0,#0x38
        0x10003a0c:    f001fc92    ....    BL       __aeabi_uread4 ; 0x10005334
        0x10003a10:    4601        .F      MOV      r1,r0
        0x10003a12:    4620         F      MOV      r0,r4
        0x10003a14:    4788        .G      BLX      r1
        0x10003a16:    bd70        p.      POP      {r4-r6,pc}
        0x10003a18:    48b5        .H      LDR      r0,[pc,#724] ; [0x10003cf0] = 0x20003118
        0x10003a1a:    3034        40      ADDS     r0,r0,#0x34
        0x10003a1c:    f001fc8a    ....    BL       __aeabi_uread4 ; 0x10005334
        0x10003a20:    0640        @.      LSLS     r0,r0,#25
        0x10003a22:    d5e2        ..      BPL      0x100039ea ; Lib_EvtCallback + 188
        0x10003a24:    bd70        p.      POP      {r4-r6,pc}
    _BMGetNextBondDevice
        0x10003a26:    b5f0        ..      PUSH     {r4-r7,lr}
        0x10003a28:    4cb1        .L      LDR      r4,[pc,#708] ; [0x10003cf0] = 0x20003118
        0x10003a2a:    4606        .F      MOV      r6,r0
        0x10003a2c:    68e0        .h      LDR      r0,[r4,#0xc]
        0x10003a2e:    b08d        ..      SUB      sp,sp,#0x34
        0x10003a30:    30ff        .0      ADDS     r0,r0,#0xff
        0x10003a32:    3021        !0      ADDS     r0,r0,#0x21
        0x10003a34:    7c40        @|      LDRB     r0,[r0,#0x11]
        0x10003a36:    460d        .F      MOV      r5,r1
        0x10003a38:    2800        .(      CMP      r0,#0
        0x10003a3a:    d029        ).      BEQ      0x10003a90 ; _BMGetNextBondDevice + 106
        0x10003a3c:    2d00        .-      CMP      r5,#0
        0x10003a3e:    d026        &.      BEQ      0x10003a8e ; _BMGetNextBondDevice + 104
        0x10003a40:    b672        r.      CPSID    i
        0x10003a42:    68a0        .h      LDR      r0,[r4,#8]
        0x10003a44:    3018        .0      ADDS     r0,r0,#0x18
        0x10003a46:    f001fc75    ..u.    BL       __aeabi_uread4 ; 0x10005334
        0x10003a4a:    68e1        .h      LDR      r1,[r4,#0xc]
        0x10003a4c:    2232        2"      MOVS     r2,#0x32
        0x10003a4e:    31ff        .1      ADDS     r1,r1,#0xff
        0x10003a50:    3121        !1      ADDS     r1,r1,#0x21
        0x10003a52:    7c89        .|      LDRB     r1,[r1,#0x12]
        0x10003a54:    4ba9        .K      LDR      r3,[pc,#676] ; [0x10003cfc] = 0x5359
        0x10003a56:    4351        QC      MULS     r1,r2,r1
        0x10003a58:    1840        @.      ADDS     r0,r0,r1
        0x10003a5a:    466a        jF      MOV      r2,sp
        0x10003a5c:    2132        2!      MOVS     r1,#0x32
        0x10003a5e:    4798        .G      BLX      r3
        0x10003a60:    b662        b.      CPSIE    i
        0x10003a62:    2e00        ..      CMP      r6,#0
        0x10003a64:    d004        ..      BEQ      0x10003a70 ; _BMGetNextBondDevice + 74
        0x10003a66:    68e0        .h      LDR      r0,[r4,#0xc]
        0x10003a68:    30ff        .0      ADDS     r0,r0,#0xff
        0x10003a6a:    3021        !0      ADDS     r0,r0,#0x21
        0x10003a6c:    7c80        .|      LDRB     r0,[r0,#0x12]
        0x10003a6e:    7030        0p      STRB     r0,[r6,#0]
        0x10003a70:    68e7        .h      LDR      r7,[r4,#0xc]
        0x10003a72:    210a        .!      MOVS     r1,#0xa
        0x10003a74:    37ff        .7      ADDS     r7,r7,#0xff
        0x10003a76:    3721        !7      ADDS     r7,r7,#0x21
        0x10003a78:    7cb8        .|      LDRB     r0,[r7,#0x12]
        0x10003a7a:    1c40        @.      ADDS     r0,r0,#1
        0x10003a7c:    f001fbf6    ....    BL       __aeabi_uidiv ; 0x1000526c
        0x10003a80:    74b9        .t      STRB     r1,[r7,#0x12]
        0x10003a82:    78e0        .x      LDRB     r0,[r4,#3]
        0x10003a84:    1c40        @.      ADDS     r0,r0,#1
        0x10003a86:    b2c0        ..      UXTB     r0,r0
        0x10003a88:    70e0        .p      STRB     r0,[r4,#3]
        0x10003a8a:    280a        .(      CMP      r0,#0xa
        0x10003a8c:    d902        ..      BLS      0x10003a94 ; _BMGetNextBondDevice + 110
        0x10003a8e:    2000        .       MOVS     r0,#0
        0x10003a90:    b00d        ..      ADD      sp,sp,#0x34
        0x10003a92:    bdf0        ..      POP      {r4-r7,pc}
        0x10003a94:    4668        hF      MOV      r0,sp
        0x10003a96:    7800        .x      LDRB     r0,[r0,#0]
        0x10003a98:    2801        .(      CMP      r0,#1
        0x10003a9a:    d1d1        ..      BNE      0x10003a40 ; _BMGetNextBondDevice + 26
        0x10003a9c:    a900        ..      ADD      r1,sp,#0
        0x10003a9e:    2207        ."      MOVS     r2,#7
        0x10003aa0:    4628        (F      MOV      r0,r5
        0x10003aa2:    3101        .1      ADDS     r1,#1
        0x10003aa4:    f001fc0c    ....    BL       __aeabi_memcpy ; 0x100052c0
        0x10003aa8:    222a        *"      MOVS     r2,#0x2a
        0x10003aaa:    1de8        ..      ADDS     r0,r5,#7
        0x10003aac:    a902        ..      ADD      r1,sp,#8
        0x10003aae:    f001fc07    ....    BL       __aeabi_memcpy ; 0x100052c0
        0x10003ab2:    2001        .       MOVS     r0,#1
        0x10003ab4:    e7ec        ..      B        0x10003a90 ; _BMGetNextBondDevice + 106
    _LLENCReq
        0x10003ab6:    b5f0        ..      PUSH     {r4-r7,lr}
        0x10003ab8:    4605        .F      MOV      r5,r0
        0x10003aba:    4991        .I      LDR      r1,[pc,#580] ; [0x10003d00] = 0xb05
        0x10003abc:    b08d        ..      SUB      sp,sp,#0x34
        0x10003abe:    2020                MOVS     r0,#0x20
        0x10003ac0:    4788        .G      BLX      r1
        0x10003ac2:    4c8b        .L      LDR      r4,[pc,#556] ; [0x10003cf0] = 0x20003118
        0x10003ac4:    2604        .&      MOVS     r6,#4
        0x10003ac6:    68e1        .h      LDR      r1,[r4,#0xc]
        0x10003ac8:    6920         i      LDR      r0,[r4,#0x10]
        0x10003aca:    460f        .F      MOV      r7,r1
        0x10003acc:    7086        .p      STRB     r6,[r0,#2]
        0x10003ace:    2208        ."      MOVS     r2,#8
        0x10003ad0:    1cc0        ..      ADDS     r0,r0,#3
        0x10003ad2:    31c9        .1      ADDS     r1,r1,#0xc9
        0x10003ad4:    37bd        .7      ADDS     r7,r7,#0xbd
        0x10003ad6:    f001fbf3    ....    BL       __aeabi_memcpy ; 0x100052c0
        0x10003ada:    6920         i      LDR      r0,[r4,#0x10]
        0x10003adc:    2204        ."      MOVS     r2,#4
        0x10003ade:    4639        9F      MOV      r1,r7
        0x10003ae0:    300b        .0      ADDS     r0,r0,#0xb
        0x10003ae2:    f001fbed    ....    BL       __aeabi_memcpy ; 0x100052c0
        0x10003ae6:    210d        .!      MOVS     r1,#0xd
        0x10003ae8:    4a86        .J      LDR      r2,[pc,#536] ; [0x10003d04] = 0x114d
        0x10003aea:    2003        .       MOVS     r0,#3
        0x10003aec:    4790        .G      BLX      r2
        0x10003aee:    68e0        .h      LDR      r0,[r4,#0xc]
        0x10003af0:    4629        )F      MOV      r1,r5
        0x10003af2:    2208        ."      MOVS     r2,#8
        0x10003af4:    310a        .1      ADDS     r1,r1,#0xa
        0x10003af6:    30c1        .0      ADDS     r0,r0,#0xc1
        0x10003af8:    f001fbe2    ....    BL       __aeabi_memcpy ; 0x100052c0
        0x10003afc:    68e0        .h      LDR      r0,[r4,#0xc]
        0x10003afe:    4629        )F      MOV      r1,r5
        0x10003b00:    2204        ."      MOVS     r2,#4
        0x10003b02:    3112        .1      ADDS     r1,r1,#0x12
        0x10003b04:    30b9        .0      ADDS     r0,r0,#0xb9
        0x10003b06:    f001fbdb    ....    BL       __aeabi_memcpy ; 0x100052c0
        0x10003b0a:    7a28        (z      LDRB     r0,[r5,#8]
        0x10003b0c:    4f7e        ~O      LDR      r7,[pc,#504] ; [0x10003d08] = 0x2219
        0x10003b0e:    2800        .(      CMP      r0,#0
        0x10003b10:    d102        ..      BNE      0x10003b18 ; _LLENCReq + 98
        0x10003b12:    7a68        hz      LDRB     r0,[r5,#9]
        0x10003b14:    2800        .(      CMP      r0,#0
        0x10003b16:    d01f        ..      BEQ      0x10003b58 ; _LLENCReq + 162
        0x10003b18:    2000        .       MOVS     r0,#0
        0x10003b1a:    70e0        .p      STRB     r0,[r4,#3]
        0x10003b1c:    68e0        .h      LDR      r0,[r4,#0xc]
        0x10003b1e:    7a2a        *z      LDRB     r2,[r5,#8]
        0x10003b20:    4601        .F      MOV      r1,r0
        0x10003b22:    3080        .0      ADDS     r0,r0,#0x80
        0x10003b24:    7b83        .{      LDRB     r3,[r0,#0xe]
        0x10003b26:    429a        .B      CMP      r2,r3
        0x10003b28:    d10a        ..      BNE      0x10003b40 ; _LLENCReq + 138
        0x10003b2a:    7a6a        jz      LDRB     r2,[r5,#9]
        0x10003b2c:    7bc0        .{      LDRB     r0,[r0,#0xf]
        0x10003b2e:    4282        .B      CMP      r2,r0
        0x10003b30:    d106        ..      BNE      0x10003b40 ; _LLENCReq + 138
        0x10003b32:    2208        ."      MOVS     r2,#8
        0x10003b34:    4628        (F      MOV      r0,r5
        0x10003b36:    3190        .1      ADDS     r1,r1,#0x90
        0x10003b38:    f001fbe6    ....    BL       memcmp ; 0x10005308
        0x10003b3c:    2800        .(      CMP      r0,#0
        0x10003b3e:    d017        ..      BEQ      0x10003b70 ; _LLENCReq + 186
        0x10003b40:    4669        iF      MOV      r1,sp
        0x10003b42:    2000        .       MOVS     r0,#0
        0x10003b44:    f7ffff6f    ..o.    BL       _BMGetNextBondDevice ; 0x10003a26
        0x10003b48:    2801        .(      CMP      r0,#1
        0x10003b4a:    d026        &.      BEQ      0x10003b9a ; _LLENCReq + 228
        0x10003b4c:    2206        ."      MOVS     r2,#6
        0x10003b4e:    2100        .!      MOVS     r1,#0
        0x10003b50:    4b6e        nK      LDR      r3,[pc,#440] ; [0x10003d0c] = 0x19d9
        0x10003b52:    2001        .       MOVS     r0,#1
        0x10003b54:    4798        .G      BLX      r3
        0x10003b56:    e79b        ..      B        0x10003a90 ; _BMGetNextBondDevice + 106
        0x10003b58:    68e0        .h      LDR      r0,[r4,#0xc]
        0x10003b5a:    2202        ."      MOVS     r2,#2
        0x10003b5c:    7981        .y      LDRB     r1,[r0,#6]
        0x10003b5e:    4311        .C      ORRS     r1,r1,r2
        0x10003b60:    4602        .F      MOV      r2,r0
        0x10003b62:    7181        .q      STRB     r1,[r0,#6]
        0x10003b64:    32c1        .2      ADDS     r2,r2,#0xc1
        0x10003b66:    30ff        .0      ADDS     r0,r0,#0xff
        0x10003b68:    4611        .F      MOV      r1,r2
        0x10003b6a:    3010        .0      ADDS     r0,r0,#0x10
        0x10003b6c:    47b8        .G      BLX      r7
        0x10003b6e:    e010        ..      B        0x10003b92 ; _LLENCReq + 220
        0x10003b70:    68e0        .h      LDR      r0,[r4,#0xc]
        0x10003b72:    7981        .y      LDRB     r1,[r0,#6]
        0x10003b74:    4602        .F      MOV      r2,r0
        0x10003b76:    4331        1C      ORRS     r1,r1,r6
        0x10003b78:    7181        .q      STRB     r1,[r0,#6]
        0x10003b7a:    32c1        .2      ADDS     r2,r2,#0xc1
        0x10003b7c:    4611        .F      MOV      r1,r2
        0x10003b7e:    3098        .0      ADDS     r0,r0,#0x98
        0x10003b80:    47b8        .G      BLX      r7
        0x10003b82:    68e0        .h      LDR      r0,[r4,#0xc]
        0x10003b84:    3080        .0      ADDS     r0,r0,#0x80
        0x10003b86:    7980        .y      LDRB     r0,[r0,#6]
        0x10003b88:    2801        .(      CMP      r0,#1
        0x10003b8a:    d102        ..      BNE      0x10003b92 ; _LLENCReq + 220
        0x10003b8c:    495c        \I      LDR      r1,[pc,#368] ; [0x10003d00] = 0xb05
        0x10003b8e:    2002        .       MOVS     r0,#2
        0x10003b90:    4788        .G      BLX      r1
        0x10003b92:    485e        ^H      LDR      r0,[pc,#376] ; [0x10003d0c] = 0x19d9
        0x10003b94:    30a0        .0      ADDS     r0,r0,#0xa0
        0x10003b96:    4780        .G      BLX      r0
        0x10003b98:    e77a        z.      B        0x10003a90 ; _BMGetNextBondDevice + 106
        0x10003b9a:    68e0        .h      LDR      r0,[r4,#0xc]
        0x10003b9c:    a901        ..      ADD      r1,sp,#4
        0x10003b9e:    222a        *"      MOVS     r2,#0x2a
        0x10003ba0:    308e        .0      ADDS     r0,r0,#0x8e
        0x10003ba2:    3103        .1      ADDS     r1,#3
        0x10003ba4:    f001fb8c    ....    BL       __aeabi_memcpy ; 0x100052c0
        0x10003ba8:    e7b8        ..      B        0x10003b1c ; _LLENCReq + 102
    TimerStop
        0x10003baa:    4959        YI      LDR      r1,[pc,#356] ; [0x10003d10] = 0x44b3
        0x10003bac:    4708        .G      BX       r1
    smart_update_retry
        0x10003bae:    b51c        ..      PUSH     {r2-r4,lr}
        0x10003bb0:    4851        QH      LDR      r0,[pc,#324] ; [0x10003cf8] = 0x2000367f
        0x10003bb2:    2108        .!      MOVS     r1,#8
        0x10003bb4:    7001        .p      STRB     r1,[r0,#0]
        0x10003bb6:    2100        .!      MOVS     r1,#0
        0x10003bb8:    7041        Ap      STRB     r1,[r0,#1]
        0x10003bba:    4601        .F      MOV      r1,r0
        0x10003bbc:    7b08        .{      LDRB     r0,[r1,#0xc]
        0x10003bbe:    7aca        .z      LDRB     r2,[r1,#0xb]
        0x10003bc0:    0200        ..      LSLS     r0,r0,#8
        0x10003bc2:    1cc9        ..      ADDS     r1,r1,#3
        0x10003bc4:    4310        .C      ORRS     r0,r0,r2
        0x10003bc6:    d02f        /.      BEQ      0x10003c28 ; smart_update_retry + 122
        0x10003bc8:    794a        Jy      LDRB     r2,[r1,#5]
        0x10003bca:    790b        .y      LDRB     r3,[r1,#4]
        0x10003bcc:    0212        ..      LSLS     r2,r2,#8
        0x10003bce:    431a        .C      ORRS     r2,r2,r3
        0x10003bd0:    1a82        ..      SUBS     r2,r0,r2
        0x10003bd2:    b292        ..      UXTH     r2,r2
        0x10003bd4:    466b        kF      MOV      r3,sp
        0x10003bd6:    801a        ..      STRH     r2,[r3,#0]
        0x10003bd8:    8058        X.      STRH     r0,[r3,#2]
        0x10003bda:    2306        .#      MOVS     r3,#6
        0x10003bdc:    2a06        .*      CMP      r2,#6
        0x10003bde:    d201        ..      BCS      0x10003be4 ; smart_update_retry + 54
        0x10003be0:    466a        jF      MOV      r2,sp
        0x10003be2:    8013        ..      STRH     r3,[r2,#0]
        0x10003be4:    2806        .(      CMP      r0,#6
        0x10003be6:    d201        ..      BCS      0x10003bec ; smart_update_retry + 62
        0x10003be8:    4668        hF      MOV      r0,sp
        0x10003bea:    8043        C.      STRH     r3,[r0,#2]
        0x10003bec:    7b48        H{      LDRB     r0,[r1,#0xd]
        0x10003bee:    7b09        .{      LDRB     r1,[r1,#0xc]
        0x10003bf0:    0200        ..      LSLS     r0,r0,#8
        0x10003bf2:    4308        .C      ORRS     r0,r0,r1
        0x10003bf4:    4669        iF      MOV      r1,sp
        0x10003bf6:    80c8        ..      STRH     r0,[r1,#6]
        0x10003bf8:    483f        ?H      LDR      r0,[pc,#252] ; [0x10003cf8] = 0x2000367f
        0x10003bfa:    7b81        .{      LDRB     r1,[r0,#0xe]
        0x10003bfc:    7b42        B{      LDRB     r2,[r0,#0xd]
        0x10003bfe:    0208        ..      LSLS     r0,r1,#8
        0x10003c00:    4310        .C      ORRS     r0,r0,r2
        0x10003c02:    4669        iF      MOV      r1,sp
        0x10003c04:    8088        ..      STRH     r0,[r1,#4]
        0x10003c06:    483a        :H      LDR      r0,[pc,#232] ; [0x10003cf0] = 0x20003118
        0x10003c08:    68c0        .h      LDR      r0,[r0,#0xc]
        0x10003c0a:    3023        #0      ADDS     r0,r0,#0x23
        0x10003c0c:    7c41        A|      LDRB     r1,[r0,#0x11]
        0x10003c0e:    7c02        .|      LDRB     r2,[r0,#0x10]
        0x10003c10:    0208        ..      LSLS     r0,r1,#8
        0x10003c12:    4310        .C      ORRS     r0,r0,r2
        0x10003c14:    d002        ..      BEQ      0x10003c1c ; smart_update_retry + 110
        0x10003c16:    2000        .       MOVS     r0,#0
        0x10003c18:    f7fffc43    ..C.    BL       ConnectionLatencyMode ; 0x100034a2
        0x10003c1c:    493d        =I      LDR      r1,[pc,#244] ; [0x10003d14] = 0x4233
        0x10003c1e:    4668        hF      MOV      r0,sp
        0x10003c20:    4788        .G      BLX      r1
        0x10003c22:    493b        ;I      LDR      r1,[pc,#236] ; [0x10003d10] = 0x44b3
        0x10003c24:    2040        @       MOVS     r0,#0x40
        0x10003c26:    4788        .G      BLX      r1
        0x10003c28:    bd1c        ..      POP      {r2-r4,pc}
    sw_timer_update_callback
        0x10003c2a:    4933        3I      LDR      r1,[pc,#204] ; [0x10003cf8] = 0x2000367f
        0x10003c2c:    7848        Hx      LDRB     r0,[r1,#1]
        0x10003c2e:    780a        .x      LDRB     r2,[r1,#0]
        0x10003c30:    0200        ..      LSLS     r0,r0,#8
        0x10003c32:    4310        .C      ORRS     r0,r0,r2
        0x10003c34:    05c2        ..      LSLS     r2,r0,#23
        0x10003c36:    d50c        ..      BPL      0x10003c52 ; sw_timer_update_callback + 40
        0x10003c38:    22ff        ."      MOVS     r2,#0xff
        0x10003c3a:    3201        .2      ADDS     r2,#1
        0x10003c3c:    4390        .C      BICS     r0,r0,r2
        0x10003c3e:    7008        .p      STRB     r0,[r1,#0]
        0x10003c40:    0a00        ..      LSRS     r0,r0,#8
        0x10003c42:    7048        Hp      STRB     r0,[r1,#1]
        0x10003c44:    7908        .y      LDRB     r0,[r1,#4]
        0x10003c46:    1e40        @.      SUBS     r0,r0,#1
        0x10003c48:    0600        ..      LSLS     r0,r0,#24
        0x10003c4a:    0e00        ..      LSRS     r0,r0,#24
        0x10003c4c:    7108        .q      STRB     r0,[r1,#4]
        0x10003c4e:    d009        ..      BEQ      0x10003c64 ; sw_timer_update_callback + 58
        0x10003c50:    e7ad        ..      B        smart_update_retry ; 0x10003bae
        0x10003c52:    2220         "      MOVS     r2,#0x20
        0x10003c54:    4310        .C      ORRS     r0,r0,r2
        0x10003c56:    2210        ."      MOVS     r2,#0x10
        0x10003c58:    4390        .C      BICS     r0,r0,r2
        0x10003c5a:    2204        ."      MOVS     r2,#4
        0x10003c5c:    4310        .C      ORRS     r0,r0,r2
        0x10003c5e:    7008        .p      STRB     r0,[r1,#0]
        0x10003c60:    0a00        ..      LSRS     r0,r0,#8
        0x10003c62:    7048        Hp      STRB     r0,[r1,#1]
        0x10003c64:    4770        pG      BX       lr
    smart_update_latency_updatareq
        0x10003c66:    b5fe        ..      PUSH     {r1-r7,lr}
        0x10003c68:    4d23        #M      LDR      r5,[pc,#140] ; [0x10003cf8] = 0x2000367f
        0x10003c6a:    4604        .F      MOV      r4,r0
        0x10003c6c:    7868        hx      LDRB     r0,[r5,#1]
        0x10003c6e:    7829        )x      LDRB     r1,[r5,#0]
        0x10003c70:    0200        ..      LSLS     r0,r0,#8
        0x10003c72:    4308        .C      ORRS     r0,r0,r1
        0x10003c74:    0700        ..      LSLS     r0,r0,#28
        0x10003c76:    d576        v.      BPL      0x10003d66 ; smart_update_latency_updatareq + 256
        0x10003c78:    4827        'H      LDR      r0,[pc,#156] ; [0x10003d18] = 0x55bf
        0x10003c7a:    4780        .G      BLX      r0
        0x10003c7c:    7869        ix      LDRB     r1,[r5,#1]
        0x10003c7e:    782a        *x      LDRB     r2,[r5,#0]
        0x10003c80:    0209        ..      LSLS     r1,r1,#8
        0x10003c82:    4311        .C      ORRS     r1,r1,r2
        0x10003c84:    2208        ."      MOVS     r2,#8
        0x10003c86:    4391        .C      BICS     r1,r1,r2
        0x10003c88:    7029        )p      STRB     r1,[r5,#0]
        0x10003c8a:    0a0a        ..      LSRS     r2,r1,#8
        0x10003c8c:    706a        jp      STRB     r2,[r5,#1]
        0x10003c8e:    7a6b        kz      LDRB     r3,[r5,#9]
        0x10003c90:    4606        .F      MOV      r6,r0
        0x10003c92:    4628        (F      MOV      r0,r5
        0x10003c94:    061a        ..      LSLS     r2,r3,#24
        0x10003c96:    d567        g.      BPL      0x10003d68 ; smart_update_latency_updatareq + 258
        0x10003c98:    79a2        .y      LDRB     r2,[r4,#6]
        0x10003c9a:    7967        gy      LDRB     r7,[r4,#5]
        0x10003c9c:    0212        ..      LSLS     r2,r2,#8
        0x10003c9e:    1c65        e.      ADDS     r5,r4,#1
        0x10003ca0:    433a        :C      ORRS     r2,r2,r7
        0x10003ca2:    4f13        .O      LDR      r7,[pc,#76] ; [0x10003cf0] = 0x20003118
        0x10003ca4:    1ce4        ..      ADDS     r4,r4,#3
        0x10003ca6:    2a00        .*      CMP      r2,#0
        0x10003ca8:    d07e        ~.      BEQ      0x10003da8 ; smart_update_latency_updatareq + 322
        0x10003caa:    2210        ."      MOVS     r2,#0x10
        0x10003cac:    4311        .C      ORRS     r1,r1,r2
        0x10003cae:    7001        .p      STRB     r1,[r0,#0]
        0x10003cb0:    0a0a        ..      LSRS     r2,r1,#8
        0x10003cb2:    7042        Bp      STRB     r2,[r0,#1]
        0x10003cb4:    0688        ..      LSLS     r0,r1,#26
        0x10003cb6:    d457        W.      BMI      0x10003d68 ; smart_update_latency_updatareq + 258
        0x10003cb8:    7968        hy      LDRB     r0,[r5,#5]
        0x10003cba:    7929        )y      LDRB     r1,[r5,#4]
        0x10003cbc:    0200        ..      LSLS     r0,r0,#8
        0x10003cbe:    4308        .C      ORRS     r0,r0,r1
        0x10003cc0:    d053        S.      BEQ      0x10003d6a ; smart_update_latency_updatareq + 260
        0x10003cc2:    f001fd51    ..Q.    BL       __aeabi_ui2d ; 0x10005768
        0x10003cc6:    9101        ..      STR      r1,[sp,#4]
        0x10003cc8:    9000        ..      STR      r0,[sp,#0]
        0x10003cca:    7860        `x      LDRB     r0,[r4,#1]
        0x10003ccc:    7821        !x      LDRB     r1,[r4,#0]
        0x10003cce:    0200        ..      LSLS     r0,r0,#8
        0x10003cd0:    4308        .C      ORRS     r0,r0,r1
        0x10003cd2:    f001fd49    ..I.    BL       __aeabi_ui2d ; 0x10005768
        0x10003cd6:    4c11        .L      LDR      r4,[pc,#68] ; [0x10003d1c] = 0x3ff40000
        0x10003cd8:    2200        ."      MOVS     r2,#0
        0x10003cda:    4623        #F      MOV      r3,r4
        0x10003cdc:    f001fc48    ..H.    BL       __aeabi_dmul ; 0x10005570
        0x10003ce0:    9b01        ..      LDR      r3,[sp,#4]
        0x10003ce2:    e01d        ..      B        0x10003d20 ; smart_update_latency_updatareq + 186
    $d
        0x10003ce4:    0000ffff    ....    DCD    65535
        0x10003ce8:    0000622b    +b..    DCD    25131
        0x10003cec:    000065a7    .e..    DCD    26023
        0x10003cf0:    20003118    .1.     DCD    536883480
        0x10003cf4:    00004707    .G..    DCD    18183
        0x10003cf8:    2000367f    .6.     DCD    536884863
        0x10003cfc:    00005359    YS..    DCD    21337
        0x10003d00:    00000b05    ....    DCD    2821
        0x10003d04:    0000114d    M...    DCD    4429
        0x10003d08:    00002219    ."..    DCD    8729
        0x10003d0c:    000019d9    ....    DCD    6617
        0x10003d10:    000044b3    .D..    DCD    17587
        0x10003d14:    00004233    3B..    DCD    16947
        0x10003d18:    000055bf    .U..    DCD    21951
        0x10003d1c:    3ff40000    ...?    DCD    1072955392
    $t
        0x10003d20:    9a00        ..      LDR      r2,[sp,#0]
        0x10003d22:    f001fc25    ..%.    BL       __aeabi_dmul ; 0x10005570
        0x10003d26:    9101        ..      STR      r1,[sp,#4]
        0x10003d28:    9000        ..      STR      r0,[sp,#0]
        0x10003d2a:    68f8        .h      LDR      r0,[r7,#0xc]
        0x10003d2c:    3021        !0      ADDS     r0,r0,#0x21
        0x10003d2e:    7c41        A|      LDRB     r1,[r0,#0x11]
        0x10003d30:    7c02        .|      LDRB     r2,[r0,#0x10]
        0x10003d32:    0208        ..      LSLS     r0,r1,#8
        0x10003d34:    4310        .C      ORRS     r0,r0,r2
        0x10003d36:    f001fd17    ....    BL       __aeabi_ui2d ; 0x10005768
        0x10003d3a:    2200        ."      MOVS     r2,#0
        0x10003d3c:    4623        #F      MOV      r3,r4
        0x10003d3e:    f001fc17    ....    BL       __aeabi_dmul ; 0x10005570
        0x10003d42:    4607        .F      MOV      r7,r0
        0x10003d44:    460c        .F      MOV      r4,r1
        0x10003d46:    7a68        hz      LDRB     r0,[r5,#9]
        0x10003d48:    7a29        )z      LDRB     r1,[r5,#8]
        0x10003d4a:    0200        ..      LSLS     r0,r0,#8
        0x10003d4c:    4308        .C      ORRS     r0,r0,r1
        0x10003d4e:    1b80        ..      SUBS     r0,r0,r6
        0x10003d50:    f001fcf6    ....    BL       __aeabi_i2d ; 0x10005740
        0x10003d54:    463a        :F      MOV      r2,r7
        0x10003d56:    4623        #F      MOV      r3,r4
        0x10003d58:    f001fc0a    ....    BL       __aeabi_dmul ; 0x10005570
        0x10003d5c:    9b01        ..      LDR      r3,[sp,#4]
        0x10003d5e:    9a00        ..      LDR      r2,[sp,#0]
        0x10003d60:    f001fb54    ..T.    BL       __aeabi_dadd ; 0x1000540c
        0x10003d64:    e028        (.      B        0x10003db8 ; smart_update_latency_updatareq + 338
        0x10003d66:    e094        ..      B        0x10003e92 ; smart_update_latency_updatareq + 556
        0x10003d68:    e08a        ..      B        0x10003e80 ; smart_update_latency_updatareq + 538
        0x10003d6a:    7860        `x      LDRB     r0,[r4,#1]
        0x10003d6c:    7821        !x      LDRB     r1,[r4,#0]
        0x10003d6e:    0200        ..      LSLS     r0,r0,#8
        0x10003d70:    4308        .C      ORRS     r0,r0,r1
        0x10003d72:    f001fcdd    ....    BL       __aeabi_ui2f ; 0x10005730
        0x10003d76:    4604        .F      MOV      r4,r0
        0x10003d78:    68f8        .h      LDR      r0,[r7,#0xc]
        0x10003d7a:    3021        !0      ADDS     r0,r0,#0x21
        0x10003d7c:    7c41        A|      LDRB     r1,[r0,#0x11]
        0x10003d7e:    7c02        .|      LDRB     r2,[r0,#0x10]
        0x10003d80:    0208        ..      LSLS     r0,r1,#8
        0x10003d82:    4310        .C      ORRS     r0,r0,r2
        0x10003d84:    f001fcd4    ....    BL       __aeabi_ui2f ; 0x10005730
        0x10003d88:    4621        !F      MOV      r1,r4
        0x10003d8a:    f001fae6    ....    BL       __aeabi_fadd ; 0x1000535a
        0x10003d8e:    f001fd17    ....    BL       __aeabi_f2d ; 0x100057c0
        0x10003d92:    2200        ."      MOVS     r2,#0
        0x10003d94:    4bfc        .K      LDR      r3,[pc,#1008] ; [0x10004188] = 0x3ff40000
        0x10003d96:    f001fbeb    ....    BL       __aeabi_dmul ; 0x10005570
        0x10003d9a:    4607        .F      MOV      r7,r0
        0x10003d9c:    460c        .F      MOV      r4,r1
        0x10003d9e:    7a68        hz      LDRB     r0,[r5,#9]
        0x10003da0:    7a29        )z      LDRB     r1,[r5,#8]
        0x10003da2:    0200        ..      LSLS     r0,r0,#8
        0x10003da4:    4308        .C      ORRS     r0,r0,r1
        0x10003da6:    e000        ..      B        0x10003daa ; smart_update_latency_updatareq + 324
        0x10003da8:    e016        ..      B        0x10003dd8 ; smart_update_latency_updatareq + 370
        0x10003daa:    1b80        ..      SUBS     r0,r0,r6
        0x10003dac:    f001fcc8    ....    BL       __aeabi_i2d ; 0x10005740
        0x10003db0:    463a        :F      MOV      r2,r7
        0x10003db2:    4623        #F      MOV      r3,r4
        0x10003db4:    f001fbdc    ....    BL       __aeabi_dmul ; 0x10005570
        0x10003db8:    2200        ."      MOVS     r2,#0
        0x10003dba:    4bf4        .K      LDR      r3,[pc,#976] ; [0x1000418c] = 0x40590000
        0x10003dbc:    f001fc40    ..@.    BL       __aeabi_ddiv ; 0x10005640
        0x10003dc0:    f001fce0    ....    BL       __aeabi_d2uiz ; 0x10005784
        0x10003dc4:    0401        ..      LSLS     r1,r0,#16
        0x10003dc6:    0c09        ..      LSRS     r1,r1,#16
        0x10003dc8:    d100        ..      BNE      0x10003dcc ; smart_update_latency_updatareq + 358
        0x10003dca:    2101        .!      MOVS     r1,#1
        0x10003dcc:    4bf0        .K      LDR      r3,[pc,#960] ; [0x10004190] = 0x10003c2b
        0x10003dce:    2200        ."      MOVS     r2,#0
        0x10003dd0:    2080        .       MOVS     r0,#0x80
        0x10003dd2:    f7fffbb3    ....    BL       TimerStart ; 0x1000353c
        0x10003dd6:    e053        S.      B        0x10003e80 ; smart_update_latency_updatareq + 538
        0x10003dd8:    069a        ..      LSLS     r2,r3,#26
        0x10003dda:    d551        Q.      BPL      0x10003e80 ; smart_update_latency_updatareq + 538
        0x10003ddc:    7882        .x      LDRB     r2,[r0,#2]
        0x10003dde:    2a01        .*      CMP      r2,#1
        0x10003de0:    d14e        N.      BNE      0x10003e80 ; smart_update_latency_updatareq + 538
        0x10003de2:    068a        ..      LSLS     r2,r1,#26
        0x10003de4:    d44c        L.      BMI      0x10003e80 ; smart_update_latency_updatareq + 538
        0x10003de6:    22ff        ."      MOVS     r2,#0xff
        0x10003de8:    48ea        .H      LDR      r0,[pc,#936] ; [0x10004194] = 0x2000367f
        0x10003dea:    3201        .2      ADDS     r2,#1
        0x10003dec:    4311        .C      ORRS     r1,r1,r2
        0x10003dee:    7001        .p      STRB     r1,[r0,#0]
        0x10003df0:    0a09        ..      LSRS     r1,r1,#8
        0x10003df2:    7041        Ap      STRB     r1,[r0,#1]
        0x10003df4:    7860        `x      LDRB     r0,[r4,#1]
        0x10003df6:    7821        !x      LDRB     r1,[r4,#0]
        0x10003df8:    0200        ..      LSLS     r0,r0,#8
        0x10003dfa:    4308        .C      ORRS     r0,r0,r1
        0x10003dfc:    49e5        .I      LDR      r1,[pc,#916] ; [0x10004194] = 0x2000367f
        0x10003dfe:    7b0a        .{      LDRB     r2,[r1,#0xc]
        0x10003e00:    7acb        .z      LDRB     r3,[r1,#0xb]
        0x10003e02:    0211        ..      LSLS     r1,r2,#8
        0x10003e04:    4319        .C      ORRS     r1,r1,r3
        0x10003e06:    4288        .B      CMP      r0,r1
        0x10003e08:    d93a        :.      BLS      0x10003e80 ; smart_update_latency_updatareq + 538
        0x10003e0a:    f001fc91    ....    BL       __aeabi_ui2f ; 0x10005730
        0x10003e0e:    4604        .F      MOV      r4,r0
        0x10003e10:    68f8        .h      LDR      r0,[r7,#0xc]
        0x10003e12:    3021        !0      ADDS     r0,r0,#0x21
        0x10003e14:    7c41        A|      LDRB     r1,[r0,#0x11]
        0x10003e16:    7c02        .|      LDRB     r2,[r0,#0x10]
        0x10003e18:    0208        ..      LSLS     r0,r1,#8
        0x10003e1a:    4310        .C      ORRS     r0,r0,r2
        0x10003e1c:    f001fc88    ....    BL       __aeabi_ui2f ; 0x10005730
        0x10003e20:    4621        !F      MOV      r1,r4
        0x10003e22:    f001fa9a    ....    BL       __aeabi_fadd ; 0x1000535a
        0x10003e26:    f001fccb    ....    BL       __aeabi_f2d ; 0x100057c0
        0x10003e2a:    2200        ."      MOVS     r2,#0
        0x10003e2c:    4bd6        .K      LDR      r3,[pc,#856] ; [0x10004188] = 0x3ff40000
        0x10003e2e:    f001fb9f    ....    BL       __aeabi_dmul ; 0x10005570
        0x10003e32:    4607        .F      MOV      r7,r0
        0x10003e34:    460c        .F      MOV      r4,r1
        0x10003e36:    7a68        hz      LDRB     r0,[r5,#9]
        0x10003e38:    7a29        )z      LDRB     r1,[r5,#8]
        0x10003e3a:    0200        ..      LSLS     r0,r0,#8
        0x10003e3c:    4308        .C      ORRS     r0,r0,r1
        0x10003e3e:    1b80        ..      SUBS     r0,r0,r6
        0x10003e40:    f001fc7e    ..~.    BL       __aeabi_i2d ; 0x10005740
        0x10003e44:    463a        :F      MOV      r2,r7
        0x10003e46:    4623        #F      MOV      r3,r4
        0x10003e48:    f001fb92    ....    BL       __aeabi_dmul ; 0x10005570
        0x10003e4c:    2200        ."      MOVS     r2,#0
        0x10003e4e:    4bcf        .K      LDR      r3,[pc,#828] ; [0x1000418c] = 0x40590000
        0x10003e50:    f001fbf6    ....    BL       __aeabi_ddiv ; 0x10005640
        0x10003e54:    f001fc96    ....    BL       __aeabi_d2uiz ; 0x10005784
        0x10003e58:    0401        ..      LSLS     r1,r0,#16
        0x10003e5a:    0c09        ..      LSRS     r1,r1,#16
        0x10003e5c:    d100        ..      BNE      0x10003e60 ; smart_update_latency_updatareq + 506
        0x10003e5e:    2101        .!      MOVS     r1,#1
        0x10003e60:    4bcb        .K      LDR      r3,[pc,#812] ; [0x10004190] = 0x10003c2b
        0x10003e62:    2200        ."      MOVS     r2,#0
        0x10003e64:    2080        .       MOVS     r0,#0x80
        0x10003e66:    f7fffb69    ..i.    BL       TimerStart ; 0x1000353c
        0x10003e6a:    48ca        .H      LDR      r0,[pc,#808] ; [0x10004194] = 0x2000367f
        0x10003e6c:    7841        Ax      LDRB     r1,[r0,#1]
        0x10003e6e:    7802        .x      LDRB     r2,[r0,#0]
        0x10003e70:    0209        ..      LSLS     r1,r1,#8
        0x10003e72:    4311        .C      ORRS     r1,r1,r2
        0x10003e74:    22ff        ."      MOVS     r2,#0xff
        0x10003e76:    3201        .2      ADDS     r2,#1
        0x10003e78:    4311        .C      ORRS     r1,r1,r2
        0x10003e7a:    7001        .p      STRB     r1,[r0,#0]
        0x10003e7c:    0a09        ..      LSRS     r1,r1,#8
        0x10003e7e:    7041        Ap      STRB     r1,[r0,#1]
        0x10003e80:    2003        .       MOVS     r0,#3
        0x10003e82:    4669        iF      MOV      r1,sp
        0x10003e84:    8108        ..      STRH     r0,[r1,#8]
        0x10003e86:    2202        ."      MOVS     r2,#2
        0x10003e88:    0391        ..      LSLS     r1,r2,#14
        0x10003e8a:    4cc3        .L      LDR      r4,[pc,#780] ; [0x10004198] = 0x3ea1
        0x10003e8c:    ab02        ..      ADD      r3,sp,#8
        0x10003e8e:    2000        .       MOVS     r0,#0
        0x10003e90:    47a0        .G      BLX      r4
        0x10003e92:    bdfe        ..      POP      {r1-r7,pc}
    Lib_ProtocolHookCallback
        0x10003e94:    b510        ..      PUSH     {r4,lr}
        0x10003e96:    4604        .F      MOV      r4,r0
        0x10003e98:    7800        .x      LDRB     r0,[r0,#0]
        0x10003e9a:    2800        .(      CMP      r0,#0
        0x10003e9c:    d10b        ..      BNE      0x10003eb6 ; Lib_ProtocolHookCallback + 34
        0x10003e9e:    78a1        .x      LDRB     r1,[r4,#2]
        0x10003ea0:    7862        bx      LDRB     r2,[r4,#1]
        0x10003ea2:    0208        ..      LSLS     r0,r1,#8
        0x10003ea4:    4310        .C      ORRS     r0,r0,r2
        0x10003ea6:    d007        ..      BEQ      0x10003eb8 ; Lib_ProtocolHookCallback + 36
        0x10003ea8:    2801        .(      CMP      r0,#1
        0x10003eaa:    d01c        ..      BEQ      0x10003ee6 ; Lib_ProtocolHookCallback + 82
        0x10003eac:    2803        .(      CMP      r0,#3
        0x10003eae:    d102        ..      BNE      0x10003eb6 ; Lib_ProtocolHookCallback + 34
        0x10003eb0:    1d20         .      ADDS     r0,r4,#4
        0x10003eb2:    f7fffe00    ....    BL       _LLENCReq ; 0x10003ab6
        0x10003eb6:    bd10        ..      POP      {r4,pc}
        0x10003eb8:    f001f91f    ....    BL       WaitLLCOverSlpth ; 0x100050fa
        0x10003ebc:    49b7        .I      LDR      r1,[pc,#732] ; [0x1000419c] = 0x5b5d
        0x10003ebe:    1d20         .      ADDS     r0,r4,#4
        0x10003ec0:    4788        .G      BLX      r1
        0x10003ec2:    2800        .(      CMP      r0,#0
        0x10003ec4:    d102        ..      BNE      0x10003ecc ; Lib_ProtocolHookCallback + 56
        0x10003ec6:    2028        (       MOVS     r0,#0x28
        0x10003ec8:    f7fff8aa    ....    BL       _LCDisConnect ; 0x10003020
        0x10003ecc:    1d20         .      ADDS     r0,r4,#4
        0x10003ece:    f7fffeca    ....    BL       smart_update_latency_updatareq ; 0x10003c66
        0x10003ed2:    48b3        .H      LDR      r0,[pc,#716] ; [0x100041a0] = 0x20003118
        0x10003ed4:    2101        .!      MOVS     r1,#1
        0x10003ed6:    68c3        .h      LDR      r3,[r0,#0xc]
        0x10003ed8:    2206        ."      MOVS     r2,#6
        0x10003eda:    0409        ..      LSLS     r1,r1,#16
        0x10003edc:    2000        .       MOVS     r0,#0
        0x10003ede:    4cae        .L      LDR      r4,[pc,#696] ; [0x10004198] = 0x3ea1
        0x10003ee0:    3331        13      ADDS     r3,r3,#0x31
        0x10003ee2:    47a0        .G      BLX      r4
        0x10003ee4:    bd10        ..      POP      {r4,pc}
        0x10003ee6:    f001f908    ....    BL       WaitLLCOverSlpth ; 0x100050fa
        0x10003eea:    49ae        .I      LDR      r1,[pc,#696] ; [0x100041a4] = 0x5f47
        0x10003eec:    1d20         .      ADDS     r0,r4,#4
        0x10003eee:    4788        .G      BLX      r1
        0x10003ef0:    2800        .(      CMP      r0,#0
        0x10003ef2:    d1f7        ..      BNE      0x10003ee4 ; Lib_ProtocolHookCallback + 80
        0x10003ef4:    2028        (       MOVS     r0,#0x28
        0x10003ef6:    f7fff893    ....    BL       _LCDisConnect ; 0x10003020
        0x10003efa:    bd10        ..      POP      {r4,pc}
    Lib_MiscCallback
        0x10003efc:    b510        ..      PUSH     {r4,lr}
        0x10003efe:    7800        .x      LDRB     r0,[r0,#0]
        0x10003f00:    2801        .(      CMP      r0,#1
        0x10003f02:    d101        ..      BNE      0x10003f08 ; Lib_MiscCallback + 12
        0x10003f04:    f7fff8a3    ....    BL       _LCTimer_Handler ; 0x1000304e
        0x10003f08:    bd10        ..      POP      {r4,pc}
    BleInit
        0x10003f0a:    b570        p.      PUSH     {r4-r6,lr}
        0x10003f0c:    48a6        .H      LDR      r0,[pc,#664] ; [0x100041a8] = 0x3d79
        0x10003f0e:    b086        ..      SUB      sp,sp,#0x18
        0x10003f10:    4780        .G      BLX      r0
        0x10003f12:    2101        .!      MOVS     r1,#1
        0x10003f14:    207f        .       MOVS     r0,#0x7f
        0x10003f16:    f7fffbcd    ....    BL       BBRFWrite ; 0x100036b4
        0x10003f1a:    4669        iF      MOV      r1,sp
        0x10003f1c:    2050        P       MOVS     r0,#0x50
        0x10003f1e:    f7fffbc7    ....    BL       BBRFRead ; 0x100036b0
        0x10003f22:    4668        hF      MOV      r0,sp
        0x10003f24:    7800        .x      LDRB     r0,[r0,#0]
        0x10003f26:    2804        .(      CMP      r0,#4
        0x10003f28:    d001        ..      BEQ      0x10003f2e ; BleInit + 36
        0x10003f2a:    48a0        .H      LDR      r0,[pc,#640] ; [0x100041ac] = 0x46f7
        0x10003f2c:    4780        .G      BLX      r0
        0x10003f2e:    f7fffc79    ..y.    BL       LPOCalibration ; 0x10003824
        0x10003f32:    f7fffbc2    ....    BL       RCOSCCalibration ; 0x100036ba
        0x10003f36:    2401        .$      MOVS     r4,#1
        0x10003f38:    4668        hF      MOV      r0,sp
        0x10003f3a:    8044        D.      STRH     r4,[r0,#2]
        0x10003f3c:    8004        ..      STRH     r4,[r0,#0]
        0x10003f3e:    489c        .H      LDR      r0,[pc,#624] ; [0x100041b0] = 0x10003efd
        0x10003f40:    9001        ..      STR      r0,[sp,#4]
        0x10003f42:    499c        .I      LDR      r1,[pc,#624] ; [0x100041b4] = 0x442f
        0x10003f44:    4668        hF      MOV      r0,sp
        0x10003f46:    4788        .G      BLX      r1
        0x10003f48:    4668        hF      MOV      r0,sp
        0x10003f4a:    7004        .p      STRB     r4,[r0,#0]
        0x10003f4c:    7044        Dp      STRB     r4,[r0,#1]
        0x10003f4e:    2400        .$      MOVS     r4,#0
        0x10003f50:    8044        D.      STRH     r4,[r0,#2]
        0x10003f52:    4899        .H      LDR      r0,[pc,#612] ; [0x100041b8] = 0x100033a7
        0x10003f54:    4d92        .M      LDR      r5,[pc,#584] ; [0x100041a0] = 0x20003118
        0x10003f56:    9001        ..      STR      r0,[sp,#4]
        0x10003f58:    4b98        .K      LDR      r3,[pc,#608] ; [0x100041bc] = 0x2ce
        0x10003f5a:    68e8        .h      LDR      r0,[r5,#0xc]
        0x10003f5c:    2208        ."      MOVS     r2,#8
        0x10003f5e:    4669        iF      MOV      r1,sp
        0x10003f60:    18c0        ..      ADDS     r0,r0,r3
        0x10003f62:    f001f9ad    ....    BL       __aeabi_memcpy ; 0x100052c0
        0x10003f66:    2101        .!      MOVS     r1,#1
        0x10003f68:    4e95        .N      LDR      r6,[pc,#596] ; [0x100041c0] = 0x5561
        0x10003f6a:    2040        @       MOVS     r0,#0x40
        0x10003f6c:    47b0        .G      BLX      r6
        0x10003f6e:    2101        .!      MOVS     r1,#1
        0x10003f70:    2080        .       MOVS     r0,#0x80
        0x10003f72:    47b0        .G      BLX      r6
        0x10003f74:    2101        .!      MOVS     r1,#1
        0x10003f76:    2020                MOVS     r0,#0x20
        0x10003f78:    47b0        .G      BLX      r6
        0x10003f7a:    210b        .!      MOVS     r1,#0xb
        0x10003f7c:    4668        hF      MOV      r0,sp
        0x10003f7e:    8001        ..      STRH     r1,[r0,#0]
        0x10003f80:    8041        A.      STRH     r1,[r0,#2]
        0x10003f82:    8084        ..      STRH     r4,[r0,#4]
        0x10003f84:    80c4        ..      STRH     r4,[r0,#6]
        0x10003f86:    8104        ..      STRH     r4,[r0,#8]
        0x10003f88:    8144        D.      STRH     r4,[r0,#0xa]
        0x10003f8a:    8184        ..      STRH     r4,[r0,#0xc]
        0x10003f8c:    81c4        ..      STRH     r4,[r0,#0xe]
        0x10003f8e:    488d        .H      LDR      r0,[pc,#564] ; [0x100041c4] = 0x10003e95
        0x10003f90:    4988        .I      LDR      r1,[pc,#544] ; [0x100041b4] = 0x442f
        0x10003f92:    9004        ..      STR      r0,[sp,#0x10]
        0x10003f94:    4668        hF      MOV      r0,sp
        0x10003f96:    39a2        .9      SUBS     r1,r1,#0xa2
        0x10003f98:    4788        .G      BLX      r1
        0x10003f9a:    68a8        .h      LDR      r0,[r5,#8]
        0x10003f9c:    300a        .0      ADDS     r0,r0,#0xa
        0x10003f9e:    f001f9c9    ....    BL       __aeabi_uread4 ; 0x10005334
        0x10003fa2:    4a7c        |J      LDR      r2,[pc,#496] ; [0x10004194] = 0x2000367f
        0x10003fa4:    4b88        .K      LDR      r3,[pc,#544] ; [0x100041c8] = 0x5359
        0x10003fa6:    3a57        W:      SUBS     r2,r2,#0x57
        0x10003fa8:    2157        W!      MOVS     r1,#0x57
        0x10003faa:    4798        .G      BLX      r3
        0x10003fac:    f001f8fd    ....    BL       STKSetRand ; 0x100051aa
        0x10003fb0:    2001        .       MOVS     r0,#1
        0x10003fb2:    b006        ..      ADD      sp,sp,#0x18
        0x10003fb4:    bd70        p.      POP      {r4-r6,pc}
    DisConnect
        0x10003fb6:    487c        |H      LDR      r0,[pc,#496] ; [0x100041a8] = 0x3d79
        0x10003fb8:    b510        ..      PUSH     {r4,lr}
        0x10003fba:    300a        .0      ADDS     r0,r0,#0xa
        0x10003fbc:    4780        .G      BLX      r0
        0x10003fbe:    2001        .       MOVS     r0,#1
        0x10003fc0:    bd10        ..      POP      {r4,pc}
    SetDevAddr
        0x10003fc2:    4979        yI      LDR      r1,[pc,#484] ; [0x100041a8] = 0x3d79
        0x10003fc4:    b510        ..      PUSH     {r4,lr}
        0x10003fc6:    3128        (1      ADDS     r1,r1,#0x28
        0x10003fc8:    4788        .G      BLX      r1
        0x10003fca:    2001        .       MOVS     r0,#1
        0x10003fcc:    bd10        ..      POP      {r4,pc}
    GetDevAddr
        0x10003fce:    4976        vI      LDR      r1,[pc,#472] ; [0x100041a8] = 0x3d79
        0x10003fd0:    b510        ..      PUSH     {r4,lr}
        0x10003fd2:    315e        ^1      ADDS     r1,r1,#0x5e
        0x10003fd4:    4788        .G      BLX      r1
        0x10003fd6:    2001        .       MOVS     r0,#1
        0x10003fd8:    bd10        ..      POP      {r4,pc}
    SetLEFeature
        0x10003fda:    4973        sI      LDR      r1,[pc,#460] ; [0x100041a8] = 0x3d79
        0x10003fdc:    b510        ..      PUSH     {r4,lr}
        0x10003fde:    316a        j1      ADDS     r1,r1,#0x6a
        0x10003fe0:    4788        .G      BLX      r1
        0x10003fe2:    2001        .       MOVS     r0,#1
        0x10003fe4:    bd10        ..      POP      {r4,pc}
    SetAdvAccCode
        0x10003fe6:    4970        pI      LDR      r1,[pc,#448] ; [0x100041a8] = 0x3d79
        0x10003fe8:    b510        ..      PUSH     {r4,lr}
        0x10003fea:    3178        x1      ADDS     r1,r1,#0x78
        0x10003fec:    4788        .G      BLX      r1
        0x10003fee:    2001        .       MOVS     r0,#1
        0x10003ff0:    bd10        ..      POP      {r4,pc}
    SetAdvParams
        0x10003ff2:    496d        mI      LDR      r1,[pc,#436] ; [0x100041a8] = 0x3d79
        0x10003ff4:    b510        ..      PUSH     {r4,lr}
        0x10003ff6:    3188        .1      ADDS     r1,r1,#0x88
        0x10003ff8:    4788        .G      BLX      r1
        0x10003ffa:    2001        .       MOVS     r0,#1
        0x10003ffc:    bd10        ..      POP      {r4,pc}
    SetAdvData
        0x10003ffe:    b510        ..      PUSH     {r4,lr}
        0x10004000:    4c65        eL      LDR      r4,[pc,#404] ; [0x10004198] = 0x3ea1
        0x10004002:    3c38        8<      SUBS     r4,r4,#0x38
        0x10004004:    47a0        .G      BLX      r4
        0x10004006:    2001        .       MOVS     r0,#1
        0x10004008:    bd10        ..      POP      {r4,pc}
    _GAPStartAdv
        0x1000400a:    b5f8        ..      PUSH     {r3-r7,lr}
        0x1000400c:    4c64        dL      LDR      r4,[pc,#400] ; [0x100041a0] = 0x20003118
        0x1000400e:    496f        oI      LDR      r1,[pc,#444] ; [0x100041cc] = 0x57b1
        0x10004010:    68e0        .h      LDR      r0,[r4,#0xc]
        0x10004012:    3037        70      ADDS     r0,r0,#0x37
        0x10004014:    4788        .G      BLX      r1
        0x10004016:    6920         i      LDR      r0,[r4,#0x10]
        0x10004018:    233b        ;#      MOVS     r3,#0x3b
        0x1000401a:    7801        .x      LDRB     r1,[r0,#0]
        0x1000401c:    25bf        .%      MOVS     r5,#0xbf
        0x1000401e:    090a        ..      LSRS     r2,r1,#4
        0x10004020:    68e1        .h      LDR      r1,[r4,#0xc]
        0x10004022:    0112        ..      LSLS     r2,r2,#4
        0x10004024:    5c5b        [\      LDRB     r3,[r3,r1]
        0x10004026:    071b        ..      LSLS     r3,r3,#28
        0x10004028:    0f1b        ..      LSRS     r3,r3,#28
        0x1000402a:    431a        .C      ORRS     r2,r2,r3
        0x1000402c:    7002        .p      STRB     r2,[r0,#0]
        0x1000402e:    0712        ..      LSLS     r2,r2,#28
        0x10004030:    0f12        ..      LSRS     r2,r2,#28
        0x10004032:    2a01        .*      CMP      r2,#1
        0x10004034:    d079        y.      BEQ      0x1000412a ; _GAPStartAdv + 288
        0x10004036:    460b        .F      MOV      r3,r1
        0x10004038:    3340        @3      ADDS     r3,r3,#0x40
        0x1000403a:    785a        Zx      LDRB     r2,[r3,#1]
        0x1000403c:    781b        .x      LDRB     r3,[r3,#0]
        0x1000403e:    0212        ..      LSLS     r2,r2,#8
        0x10004040:    431a        .C      ORRS     r2,r2,r3
        0x10004042:    460b        .F      MOV      r3,r1
        0x10004044:    3342        B3      ADDS     r3,r3,#0x42
        0x10004046:    701a        .p      STRB     r2,[r3,#0]
        0x10004048:    0a12        ..      LSRS     r2,r2,#8
        0x1000404a:    705a        Zp      STRB     r2,[r3,#1]
        0x1000404c:    7802        .x      LDRB     r2,[r0,#0]
        0x1000404e:    7a8b        .z      LDRB     r3,[r1,#0xa]
        0x10004050:    402a        *@      ANDS     r2,r2,r5
        0x10004052:    019b        ..      LSLS     r3,r3,#6
        0x10004054:    431a        .C      ORRS     r2,r2,r3
        0x10004056:    0652        R.      LSLS     r2,r2,#25
        0x10004058:    0e52        R.      LSRS     r2,r2,#25
        0x1000405a:    7002        .p      STRB     r2,[r0,#0]
        0x1000405c:    2366        f#      MOVS     r3,#0x66
        0x1000405e:    5c5b        [\      LDRB     r3,[r3,r1]
        0x10004060:    7842        Bx      LDRB     r2,[r0,#1]
        0x10004062:    1d9b        ..      ADDS     r3,r3,#6
        0x10004064:    0992        ..      LSRS     r2,r2,#6
        0x10004066:    069b        ..      LSLS     r3,r3,#26
        0x10004068:    0192        ..      LSLS     r2,r2,#6
        0x1000406a:    0e9b        ..      LSRS     r3,r3,#26
        0x1000406c:    431a        .C      ORRS     r2,r2,r3
        0x1000406e:    7042        Bp      STRB     r2,[r0,#1]
        0x10004070:    2206        ."      MOVS     r2,#6
        0x10004072:    1c80        ..      ADDS     r0,r0,#2
        0x10004074:    310b        .1      ADDS     r1,r1,#0xb
        0x10004076:    f001f923    ..#.    BL       __aeabi_memcpy ; 0x100052c0
        0x1000407a:    68e1        .h      LDR      r1,[r4,#0xc]
        0x1000407c:    2066        f       MOVS     r0,#0x66
        0x1000407e:    5c42        B\      LDRB     r2,[r0,r1]
        0x10004080:    2a00        .*      CMP      r2,#0
        0x10004082:    d004        ..      BEQ      0x1000408e ; _GAPStartAdv + 132
        0x10004084:    6920         i      LDR      r0,[r4,#0x10]
        0x10004086:    3167        g1      ADDS     r1,r1,#0x67
        0x10004088:    3008        .0      ADDS     r0,r0,#8
        0x1000408a:    f001f919    ....    BL       __aeabi_memcpy ; 0x100052c0
        0x1000408e:    68e0        .h      LDR      r0,[r4,#0xc]
        0x10004090:    2100        .!      MOVS     r1,#0
        0x10004092:    3020         0      ADDS     r0,r0,#0x20
        0x10004094:    7741        Aw      STRB     r1,[r0,#0x1d]
        0x10004096:    6920         i      LDR      r0,[r4,#0x10]
        0x10004098:    4a4d        MJ      LDR      r2,[pc,#308] ; [0x100041d0] = 0x60d9
        0x1000409a:    7841        Ax      LDRB     r1,[r0,#1]
        0x1000409c:    0689        ..      LSLS     r1,r1,#26
        0x1000409e:    0e89        ..      LSRS     r1,r1,#26
        0x100040a0:    1c89        ..      ADDS     r1,r1,#2
        0x100040a2:    4790        .G      BLX      r2
        0x100040a4:    6920         i      LDR      r0,[r4,#0x10]
        0x100040a6:    7801        .x      LDRB     r1,[r0,#0]
        0x100040a8:    090a        ..      LSRS     r2,r1,#4
        0x100040aa:    0112        ..      LSLS     r2,r2,#4
        0x100040ac:    1d12        ..      ADDS     r2,r2,#4
        0x100040ae:    7002        .p      STRB     r2,[r0,#0]
        0x100040b0:    68e1        .h      LDR      r1,[r4,#0xc]
        0x100040b2:    402a        *@      ANDS     r2,r2,r5
        0x100040b4:    7a8b        .z      LDRB     r3,[r1,#0xa]
        0x100040b6:    07db        ..      LSLS     r3,r3,#31
        0x100040b8:    0e5b        [.      LSRS     r3,r3,#25
        0x100040ba:    431a        .C      ORRS     r2,r2,r3
        0x100040bc:    7002        .p      STRB     r2,[r0,#0]
        0x100040be:    2346        F#      MOVS     r3,#0x46
        0x100040c0:    5c5b        [\      LDRB     r3,[r3,r1]
        0x100040c2:    7842        Bx      LDRB     r2,[r0,#1]
        0x100040c4:    1d9b        ..      ADDS     r3,r3,#6
        0x100040c6:    0992        ..      LSRS     r2,r2,#6
        0x100040c8:    069b        ..      LSLS     r3,r3,#26
        0x100040ca:    0192        ..      LSLS     r2,r2,#6
        0x100040cc:    0e9b        ..      LSRS     r3,r3,#26
        0x100040ce:    431a        .C      ORRS     r2,r2,r3
        0x100040d0:    7042        Bp      STRB     r2,[r0,#1]
        0x100040d2:    2206        ."      MOVS     r2,#6
        0x100040d4:    1c80        ..      ADDS     r0,r0,#2
        0x100040d6:    310b        .1      ADDS     r1,r1,#0xb
        0x100040d8:    f001f8f2    ....    BL       __aeabi_memcpy ; 0x100052c0
        0x100040dc:    68e1        .h      LDR      r1,[r4,#0xc]
        0x100040de:    2046        F       MOVS     r0,#0x46
        0x100040e0:    5c42        B\      LDRB     r2,[r0,r1]
        0x100040e2:    2a00        .*      CMP      r2,#0
        0x100040e4:    d004        ..      BEQ      0x100040f0 ; _GAPStartAdv + 230
        0x100040e6:    6920         i      LDR      r0,[r4,#0x10]
        0x100040e8:    3147        G1      ADDS     r1,r1,#0x47
        0x100040ea:    3008        .0      ADDS     r0,r0,#8
        0x100040ec:    f001f8e8    ....    BL       __aeabi_memcpy ; 0x100052c0
        0x100040f0:    6920         i      LDR      r0,[r4,#0x10]
        0x100040f2:    4a37        7J      LDR      r2,[pc,#220] ; [0x100041d0] = 0x60d9
        0x100040f4:    7841        Ax      LDRB     r1,[r0,#1]
        0x100040f6:    322c        ,2      ADDS     r2,r2,#0x2c
        0x100040f8:    0689        ..      LSLS     r1,r1,#26
        0x100040fa:    0e89        ..      LSRS     r1,r1,#26
        0x100040fc:    1c89        ..      ADDS     r1,r1,#2
        0x100040fe:    4790        .G      BLX      r2
        0x10004100:    68e5        .h      LDR      r5,[r4,#0xc]
        0x10004102:    2701        .'      MOVS     r7,#1
        0x10004104:    462e        .F      MOV      r6,r5
        0x10004106:    3620         6      ADDS     r6,r6,#0x20
        0x10004108:    7ef0        .~      LDRB     r0,[r6,#0x1b]
        0x1000410a:    2801        .(      CMP      r0,#1
        0x1000410c:    d062        b.      BEQ      0x100041d4 ; _GAPStartAdv + 458
        0x1000410e:    2800        .(      CMP      r0,#0
        0x10004110:    d074        t.      BEQ      0x100041fc ; _GAPStartAdv + 498
        0x10004112:    2802        .(      CMP      r0,#2
        0x10004114:    d072        r.      BEQ      0x100041fc ; _GAPStartAdv + 498
        0x10004116:    2806        .(      CMP      r0,#6
        0x10004118:    d070        p.      BEQ      0x100041fc ; _GAPStartAdv + 498
        0x1000411a:    2300        .#      MOVS     r3,#0
        0x1000411c:    4c1e        .L      LDR      r4,[pc,#120] ; [0x10004198] = 0x3ea1
        0x1000411e:    461a        .F      MOV      r2,r3
        0x10004120:    2101        .!      MOVS     r1,#1
        0x10004122:    4618        .F      MOV      r0,r3
        0x10004124:    47a0        .G      BLX      r4
        0x10004126:    bdf8        ..      POP      {r3-r7,pc}
        0x10004128:    e7ff        ..      B        0x1000412a ; _GAPStartAdv + 288
        0x1000412a:    460a        .F      MOV      r2,r1
        0x1000412c:    3240        @2      ADDS     r2,r2,#0x40
        0x1000412e:    7913        .y      LDRB     r3,[r2,#4]
        0x10004130:    7153        Sq      STRB     r3,[r2,#5]
        0x10004132:    7a8b        .z      LDRB     r3,[r1,#0xa]
        0x10004134:    7802        .x      LDRB     r2,[r0,#0]
        0x10004136:    07db        ..      LSLS     r3,r3,#31
        0x10004138:    402a        *@      ANDS     r2,r2,r5
        0x1000413a:    0e5b        [.      LSRS     r3,r3,#25
        0x1000413c:    431a        .C      ORRS     r2,r2,r3
        0x1000413e:    7002        .p      STRB     r2,[r0,#0]
        0x10004140:    2387        .#      MOVS     r3,#0x87
        0x10004142:    5c5b        [\      LDRB     r3,[r3,r1]
        0x10004144:    0652        R.      LSLS     r2,r2,#25
        0x10004146:    0e52        R.      LSRS     r2,r2,#25
        0x10004148:    01db        ..      LSLS     r3,r3,#7
        0x1000414a:    431a        .C      ORRS     r2,r2,r3
        0x1000414c:    7002        .p      STRB     r2,[r0,#0]
        0x1000414e:    7842        Bx      LDRB     r2,[r0,#1]
        0x10004150:    310b        .1      ADDS     r1,r1,#0xb
        0x10004152:    0992        ..      LSRS     r2,r2,#6
        0x10004154:    0192        ..      LSLS     r2,r2,#6
        0x10004156:    320c        .2      ADDS     r2,r2,#0xc
        0x10004158:    7042        Bp      STRB     r2,[r0,#1]
        0x1000415a:    2206        ."      MOVS     r2,#6
        0x1000415c:    1c80        ..      ADDS     r0,r0,#2
        0x1000415e:    f001f8af    ....    BL       __aeabi_memcpy ; 0x100052c0
        0x10004162:    6920         i      LDR      r0,[r4,#0x10]
        0x10004164:    68e1        .h      LDR      r1,[r4,#0xc]
        0x10004166:    2206        ."      MOVS     r2,#6
        0x10004168:    3008        .0      ADDS     r0,r0,#8
        0x1000416a:    3188        .1      ADDS     r1,r1,#0x88
        0x1000416c:    f001f8a8    ....    BL       __aeabi_memcpy ; 0x100052c0
        0x10004170:    68e1        .h      LDR      r1,[r4,#0xc]
        0x10004172:    2203        ."      MOVS     r2,#3
        0x10004174:    203d        =       MOVS     r0,#0x3d
        0x10004176:    5442        BT      STRB     r2,[r0,r1]
        0x10004178:    4a14        .J      LDR      r2,[pc,#80] ; [0x100041cc] = 0x57b1
        0x1000417a:    2087        .       MOVS     r0,#0x87
        0x1000417c:    5c40        @\      LDRB     r0,[r0,r1]
        0x1000417e:    3a32        2:      SUBS     r2,r2,#0x32
        0x10004180:    3188        .1      ADDS     r1,r1,#0x88
        0x10004182:    4790        .G      BLX      r2
        0x10004184:    e787        ..      B        0x10004096 ; _GAPStartAdv + 140
        0x10004186:    e025        %.      B        0x100041d4 ; _GAPStartAdv + 458
    $d
        0x10004188:    3ff40000    ...?    DCD    1072955392
        0x1000418c:    40590000    ..Y@    DCD    1079574528
        0x10004190:    10003c2b    +<..    DCD    268450859
        0x10004194:    2000367f    .6.     DCD    536884863
        0x10004198:    00003ea1    .>..    DCD    16033
        0x1000419c:    00005b5d    ][..    DCD    23389
        0x100041a0:    20003118    .1.     DCD    536883480
        0x100041a4:    00005f47    G_..    DCD    24391
        0x100041a8:    00003d79    y=..    DCD    15737
        0x100041ac:    000046f7    .F..    DCD    18167
        0x100041b0:    10003efd    .>..    DCD    268451581
        0x100041b4:    0000442f    /D..    DCD    17455
        0x100041b8:    100033a7    .3..    DCD    268448679
        0x100041bc:    000002ce    ....    DCD    718
        0x100041c0:    00005561    aU..    DCD    21857
        0x100041c4:    10003e95    .>..    DCD    268451477
        0x100041c8:    00005359    YS..    DCD    21337
        0x100041cc:    000057b1    .W..    DCD    22449
        0x100041d0:    000060d9    .`..    DCD    24793
    $t
        0x100041d4:    3540        @5      ADDS     r5,r5,#0x40
        0x100041d6:    7968        hy      LDRB     r0,[r5,#5]
        0x100041d8:    2800        .(      CMP      r0,#0
        0x100041da:    d00b        ..      BEQ      0x100041f4 ; _GAPStartAdv + 490
        0x100041dc:    2028        (       MOVS     r0,#0x28
        0x100041de:    2106        .!      MOVS     r1,#6
        0x100041e0:    6aa2        .j      LDR      r2,[r4,#0x28]
        0x100041e2:    7e93        .~      LDRB     r3,[r2,#0x1a]
        0x100041e4:    24fd        .$      MOVS     r4,#0xfd
        0x100041e6:    4023        #@      ANDS     r3,r3,r4
        0x100041e8:    7693        .v      STRB     r3,[r2,#0x1a]
        0x100041ea:    7517        .u      STRB     r7,[r2,#0x14]
        0x100041ec:    7f73        s.      LDRB     r3,[r6,#0x1d]
        0x100041ee:    7f32        2.      LDRB     r2,[r6,#0x1c]
        0x100041f0:    e03b        ;.      B        0x1000426a ; _GAPStartAdv + 608
        0x100041f2:    e003        ..      B        0x100041fc ; _GAPStartAdv + 498
        0x100041f4:    2001        .       MOVS     r0,#1
        0x100041f6:    716f        oq      STRB     r7,[r5,#5]
        0x100041f8:    4601        .F      MOV      r1,r0
        0x100041fa:    e7f1        ..      B        0x100041e0 ; _GAPStartAdv + 470
        0x100041fc:    462c        ,F      MOV      r4,r5
        0x100041fe:    3442        B4      ADDS     r4,r4,#0x42
        0x10004200:    7860        `x      LDRB     r0,[r4,#1]
        0x10004202:    7821        !x      LDRB     r1,[r4,#0]
        0x10004204:    0202        ..      LSLS     r2,r0,#8
        0x10004206:    430a        .C      ORRS     r2,r2,r1
        0x10004208:    d016        ..      BEQ      0x10004238 ; _GAPStartAdv + 558
        0x1000420a:    3522        "5      ADDS     r5,r5,#0x22
        0x1000420c:    7f69        i.      LDRB     r1,[r5,#0x1d]
        0x1000420e:    2019        .       MOVS     r0,#0x19
        0x10004210:    7f2b        +.      LDRB     r3,[r5,#0x1c]
        0x10004212:    0180        ..      LSLS     r0,r0,#6
        0x10004214:    0209        ..      LSLS     r1,r1,#8
        0x10004216:    4342        BC      MULS     r2,r0,r2
        0x10004218:    4319        .C      ORRS     r1,r1,r3
        0x1000421a:    2001        .       MOVS     r0,#1
        0x1000421c:    0489        ..      LSLS     r1,r1,#18
        0x1000421e:    0c89        ..      LSRS     r1,r1,#18
        0x10004220:    9100        ..      STR      r1,[sp,#0]
        0x10004222:    d005        ..      BEQ      0x10004230 ; _GAPStartAdv + 550
        0x10004224:    4610        .F      MOV      r0,r2
        0x10004226:    f001f821    ..!.    BL       __aeabi_uidiv ; 0x1000526c
        0x1000422a:    1c40        @.      ADDS     r0,r0,#1
        0x1000422c:    287f        .(      CMP      r0,#0x7f
        0x1000422e:    d809        ..      BHI      0x10004244 ; _GAPStartAdv + 570
        0x10004230:    b2c5        ..      UXTB     r5,r0
        0x10004232:    7027        'p      STRB     r7,[r4,#0]
        0x10004234:    0a38        8.      LSRS     r0,r7,#8
        0x10004236:    e00c        ..      B        0x10004252 ; _GAPStartAdv + 584
        0x10004238:    0a38        8.      LSRS     r0,r7,#8
        0x1000423a:    7027        'p      STRB     r7,[r4,#0]
        0x1000423c:    7060        `p      STRB     r0,[r4,#1]
        0x1000423e:    2501        .%      MOVS     r5,#1
        0x10004240:    9500        ..      STR      r5,[sp,#0]
        0x10004242:    e007        ..      B        0x10004254 ; _GAPStartAdv + 586
        0x10004244:    257f        .%      MOVS     r5,#0x7f
        0x10004246:    4629        )F      MOV      r1,r5
        0x10004248:    307e        ~0      ADDS     r0,r0,#0x7e
        0x1000424a:    f001f80f    ....    BL       __aeabi_uidiv ; 0x1000526c
        0x1000424e:    7020         p      STRB     r0,[r4,#0]
        0x10004250:    0a00        ..      LSRS     r0,r0,#8
        0x10004252:    7060        `p      STRB     r0,[r4,#1]
        0x10004254:    48f8        .H      LDR      r0,[pc,#992] ; [0x10004638] = 0x20003118
        0x10004256:    6a80        .j      LDR      r0,[r0,#0x28]
        0x10004258:    7e81        .~      LDRB     r1,[r0,#0x1a]
        0x1000425a:    2202        ."      MOVS     r2,#2
        0x1000425c:    4311        .C      ORRS     r1,r1,r2
        0x1000425e:    7681        .v      STRB     r1,[r0,#0x1a]
        0x10004260:    7507        .u      STRB     r7,[r0,#0x14]
        0x10004262:    7f73        s.      LDRB     r3,[r6,#0x1d]
        0x10004264:    7f32        2.      LDRB     r2,[r6,#0x1c]
        0x10004266:    9900        ..      LDR      r1,[sp,#0]
        0x10004268:    4628        (F      MOV      r0,r5
        0x1000426a:    4cf4        .L      LDR      r4,[pc,#976] ; [0x1000463c] = 0x565f
        0x1000426c:    47a0        .G      BLX      r4
        0x1000426e:    48f3        .H      LDR      r0,[pc,#972] ; [0x1000463c] = 0x565f
        0x10004270:    303e        >0      ADDS     r0,r0,#0x3e
        0x10004272:    4780        .G      BLX      r0
        0x10004274:    e757        W.      B        0x10004126 ; _GAPStartAdv + 284
    StartAdv
        0x10004276:    b510        ..      PUSH     {r4,lr}
        0x10004278:    f7fffec7    ....    BL       _GAPStartAdv ; 0x1000400a
        0x1000427c:    2001        .       MOVS     r0,#1
        0x1000427e:    bd10        ..      POP      {r4,pc}
    StopAdv
        0x10004280:    b510        ..      PUSH     {r4,lr}
        0x10004282:    49ef        .I      LDR      r1,[pc,#956] ; [0x10004640] = 0x40020000
        0x10004284:    2003        .       MOVS     r0,#3
        0x10004286:    7008        .p      STRB     r0,[r1,#0]
        0x10004288:    49ee        .I      LDR      r1,[pc,#952] ; [0x10004644] = 0x6245
        0x1000428a:    2064        d       MOVS     r0,#0x64
        0x1000428c:    4788        .G      BLX      r1
        0x1000428e:    48ee        .H      LDR      r0,[pc,#952] ; [0x10004648] = 0x4707
        0x10004290:    4780        .G      BLX      r0
        0x10004292:    2001        .       MOVS     r0,#1
        0x10004294:    bd10        ..      POP      {r4,pc}
    StopAdv_Noreset
        0x10004296:    b672        r.      CPSID    i
        0x10004298:    2100        .!      MOVS     r1,#0
        0x1000429a:    4ae7        .J      LDR      r2,[pc,#924] ; [0x10004638] = 0x20003118
        0x1000429c:    6a90        .j      LDR      r0,[r2,#0x28]
        0x1000429e:    7541        Au      STRB     r1,[r0,#0x15]
        0x100042a0:    7c03        .|      LDRB     r3,[r0,#0x10]
        0x100042a2:    2101        .!      MOVS     r1,#1
        0x100042a4:    430b        .C      ORRS     r3,r3,r1
        0x100042a6:    7403        .t      STRB     r3,[r0,#0x10]
        0x100042a8:    68d0        .h      LDR      r0,[r2,#0xc]
        0x100042aa:    2245        E"      MOVS     r2,#0x45
        0x100042ac:    5411        .T      STRB     r1,[r2,r0]
        0x100042ae:    3042        B0      ADDS     r0,r0,#0x42
        0x100042b0:    7001        .p      STRB     r1,[r0,#0]
        0x100042b2:    2100        .!      MOVS     r1,#0
        0x100042b4:    7041        Ap      STRB     r1,[r0,#1]
        0x100042b6:    b662        b.      CPSIE    i
        0x100042b8:    2001        .       MOVS     r0,#1
        0x100042ba:    4770        pG      BX       lr
    SetScanParams
        0x100042bc:    b510        ..      PUSH     {r4,lr}
        0x100042be:    49e3        .I      LDR      r1,[pc,#908] ; [0x1000464c] = 0x4101
        0x100042c0:    4788        .G      BLX      r1
        0x100042c2:    2001        .       MOVS     r0,#1
        0x100042c4:    bd10        ..      POP      {r4,pc}
    StartScan
        0x100042c6:    48e1        .H      LDR      r0,[pc,#900] ; [0x1000464c] = 0x4101
        0x100042c8:    b510        ..      PUSH     {r4,lr}
        0x100042ca:    305c        \0      ADDS     r0,r0,#0x5c
        0x100042cc:    4780        .G      BLX      r0
        0x100042ce:    2001        .       MOVS     r0,#1
        0x100042d0:    bd10        ..      POP      {r4,pc}
    StopScan
        0x100042d2:    b510        ..      PUSH     {r4,lr}
        0x100042d4:    48de        .H      LDR      r0,[pc,#888] ; [0x10004650] = 0x421d
        0x100042d6:    4780        .G      BLX      r0
        0x100042d8:    2001        .       MOVS     r0,#1
        0x100042da:    bd10        ..      POP      {r4,pc}
    SetSecParams
        0x100042dc:    49dc        .I      LDR      r1,[pc,#880] ; [0x10004650] = 0x421d
        0x100042de:    b510        ..      PUSH     {r4,lr}
        0x100042e0:    3108        .1      ADDS     r1,r1,#8
        0x100042e2:    4788        .G      BLX      r1
        0x100042e4:    2001        .       MOVS     r0,#1
        0x100042e6:    bd10        ..      POP      {r4,pc}
    SetConnectionUpdate
        0x100042e8:    49d9        .I      LDR      r1,[pc,#868] ; [0x10004650] = 0x421d
        0x100042ea:    b510        ..      PUSH     {r4,lr}
        0x100042ec:    3116        .1      ADDS     r1,r1,#0x16
        0x100042ee:    4788        .G      BLX      r1
        0x100042f0:    2001        .       MOVS     r0,#1
        0x100042f2:    bd10        ..      POP      {r4,pc}
    GetLinkParameters
        0x100042f4:    49d6        .I      LDR      r1,[pc,#856] ; [0x10004650] = 0x421d
        0x100042f6:    b510        ..      PUSH     {r4,lr}
        0x100042f8:    3178        x1      ADDS     r1,r1,#0x78
        0x100042fa:    4788        .G      BLX      r1
        0x100042fc:    2001        .       MOVS     r0,#1
        0x100042fe:    bd10        ..      POP      {r4,pc}
    SetWinWideMinusCnt
        0x10004300:    49cd        .I      LDR      r1,[pc,#820] ; [0x10004638] = 0x20003118
        0x10004302:    7048        Hp      STRB     r0,[r1,#1]
        0x10004304:    2001        .       MOVS     r0,#1
        0x10004306:    4770        pG      BX       lr
    SetPasskey
        0x10004308:    49d1        .I      LDR      r1,[pc,#836] ; [0x10004650] = 0x421d
        0x1000430a:    b510        ..      PUSH     {r4,lr}
        0x1000430c:    3186        .1      ADDS     r1,r1,#0x86
        0x1000430e:    4788        .G      BLX      r1
        0x10004310:    2001        .       MOVS     r0,#1
        0x10004312:    bd10        ..      POP      {r4,pc}
    SecurityReq
        0x10004314:    4ace        .J      LDR      r2,[pc,#824] ; [0x10004650] = 0x421d
        0x10004316:    b510        ..      PUSH     {r4,lr}
        0x10004318:    328e        .2      ADDS     r2,r2,#0x8e
        0x1000431a:    4790        .G      BLX      r2
        0x1000431c:    2001        .       MOVS     r0,#1
        0x1000431e:    bd10        ..      POP      {r4,pc}
    SetEvtCallback
        0x10004320:    b57c        |.      PUSH     {r2-r6,lr}
        0x10004322:    4605        .F      MOV      r5,r0
        0x10004324:    f001f806    ....    BL       __aeabi_uread4 ; 0x10005334
        0x10004328:    49c3        .I      LDR      r1,[pc,#780] ; [0x10004638] = 0x20003118
        0x1000432a:    4604        .F      MOV      r4,r0
        0x1000432c:    3134        41      ADDS     r1,r1,#0x34
        0x1000432e:    f001f80b    ....    BL       __aeabi_uwrite4 ; 0x10005348
        0x10004332:    1d28        (.      ADDS     r0,r5,#4
        0x10004334:    f000fffe    ....    BL       __aeabi_uread4 ; 0x10005334
        0x10004338:    49bf        .I      LDR      r1,[pc,#764] ; [0x10004638] = 0x20003118
        0x1000433a:    3138        81      ADDS     r1,r1,#0x38
        0x1000433c:    f001f804    ....    BL       __aeabi_uwrite4 ; 0x10005348
        0x10004340:    2040        @       MOVS     r0,#0x40
        0x10004342:    4384        .C      BICS     r4,r4,r0
        0x10004344:    48c3        .H      LDR      r0,[pc,#780] ; [0x10004654] = 0x1000392f
        0x10004346:    49c2        .I      LDR      r1,[pc,#776] ; [0x10004650] = 0x421d
        0x10004348:    9001        ..      STR      r0,[sp,#4]
        0x1000434a:    9400        ..      STR      r4,[sp,#0]
        0x1000434c:    4668        hF      MOV      r0,sp
        0x1000434e:    3196        .1      ADDS     r1,r1,#0x96
        0x10004350:    4788        .G      BLX      r1
        0x10004352:    2001        .       MOVS     r0,#1
        0x10004354:    bd7c        |.      POP      {r2-r6,pc}
    GetGATTReportHandle
        0x10004356:    b510        ..      PUSH     {r4,lr}
        0x10004358:    49bf        .I      LDR      r1,[pc,#764] ; [0x10004658] = 0x432d
        0x1000435a:    4788        .G      BLX      r1
        0x1000435c:    2001        .       MOVS     r0,#1
        0x1000435e:    bd10        ..      POP      {r4,pc}
    SetGATTReadRsp
        0x10004360:    4abd        .J      LDR      r2,[pc,#756] ; [0x10004658] = 0x432d
        0x10004362:    b510        ..      PUSH     {r4,lr}
        0x10004364:    3208        .2      ADDS     r2,r2,#8
        0x10004366:    4790        .G      BLX      r2
        0x10004368:    2001        .       MOVS     r0,#1
        0x1000436a:    bd10        ..      POP      {r4,pc}
    CheckFIFOFull
        0x1000436c:    b510        ..      PUSH     {r4,lr}
        0x1000436e:    48bb        .H      LDR      r0,[pc,#748] ; [0x1000465c] = 0x4e2b
        0x10004370:    4780        .G      BLX      r0
        0x10004372:    2802        .(      CMP      r0,#2
        0x10004374:    d901        ..      BLS      0x1000437a ; CheckFIFOFull + 14
        0x10004376:    2000        .       MOVS     r0,#0
        0x10004378:    bd10        ..      POP      {r4,pc}
        0x1000437a:    2001        .       MOVS     r0,#1
        0x1000437c:    bd10        ..      POP      {r4,pc}
    GATTDataSend
        0x1000437e:    b5f8        ..      PUSH     {r3-r7,lr}
        0x10004380:    460e        .F      MOV      r6,r1
        0x10004382:    4607        .F      MOV      r7,r0
        0x10004384:    49b6        .I      LDR      r1,[pc,#728] ; [0x10004660] = 0xaf5
        0x10004386:    461c        .F      MOV      r4,r3
        0x10004388:    4615        .F      MOV      r5,r2
        0x1000438a:    2001        .       MOVS     r0,#1
        0x1000438c:    4788        .G      BLX      r1
        0x1000438e:    2800        .(      CMP      r0,#0
        0x10004390:    d00a        ..      BEQ      0x100043a8 ; GATTDataSend + 42
        0x10004392:    48b2        .H      LDR      r0,[pc,#712] ; [0x1000465c] = 0x4e2b
        0x10004394:    4780        .G      BLX      r0
        0x10004396:    2802        .(      CMP      r0,#2
        0x10004398:    d907        ..      BLS      0x100043aa ; GATTDataSend + 44
        0x1000439a:    4623        #F      MOV      r3,r4
        0x1000439c:    4cae        .L      LDR      r4,[pc,#696] ; [0x10004658] = 0x432d
        0x1000439e:    462a        *F      MOV      r2,r5
        0x100043a0:    4631        1F      MOV      r1,r6
        0x100043a2:    4638        8F      MOV      r0,r7
        0x100043a4:    3418        .4      ADDS     r4,r4,#0x18
        0x100043a6:    47a0        .G      BLX      r4
        0x100043a8:    e6bd        ..      B        0x10004126 ; _GAPStartAdv + 284
        0x100043aa:    2000        .       MOVS     r0,#0
        0x100043ac:    e6bb        ..      B        0x10004126 ; _GAPStartAdv + 284
    ATTCSetCallback
        0x100043ae:    49ad        .I      LDR      r1,[pc,#692] ; [0x10004664] = 0x3ab7
        0x100043b0:    4708        .G      BX       r1
    ATTCMTUReq
        0x100043b2:    b510        ..      PUSH     {r4,lr}
        0x100043b4:    4604        .F      MOV      r4,r0
        0x100043b6:    49aa        .I      LDR      r1,[pc,#680] ; [0x10004660] = 0xaf5
        0x100043b8:    2001        .       MOVS     r0,#1
        0x100043ba:    4788        .G      BLX      r1
        0x100043bc:    2800        .(      CMP      r0,#0
        0x100043be:    d003        ..      BEQ      0x100043c8 ; ATTCMTUReq + 22
        0x100043c0:    49a8        .I      LDR      r1,[pc,#672] ; [0x10004664] = 0x3ab7
        0x100043c2:    4620         F      MOV      r0,r4
        0x100043c4:    3108        .1      ADDS     r1,r1,#8
        0x100043c6:    4788        .G      BLX      r1
        0x100043c8:    bd10        ..      POP      {r4,pc}
    ATTCFindInfoReq
        0x100043ca:    b570        p.      PUSH     {r4-r6,lr}
        0x100043cc:    4605        .F      MOV      r5,r0
        0x100043ce:    4aa4        .J      LDR      r2,[pc,#656] ; [0x10004660] = 0xaf5
        0x100043d0:    460c        .F      MOV      r4,r1
        0x100043d2:    2001        .       MOVS     r0,#1
        0x100043d4:    4790        .G      BLX      r2
        0x100043d6:    2800        .(      CMP      r0,#0
        0x100043d8:    d004        ..      BEQ      0x100043e4 ; ATTCFindInfoReq + 26
        0x100043da:    4aa2        .J      LDR      r2,[pc,#648] ; [0x10004664] = 0x3ab7
        0x100043dc:    4621        !F      MOV      r1,r4
        0x100043de:    4628        (F      MOV      r0,r5
        0x100043e0:    3222        "2      ADDS     r2,r2,#0x22
        0x100043e2:    4790        .G      BLX      r2
        0x100043e4:    bd70        p.      POP      {r4-r6,pc}
    ATTCFindByTypeValueReq
        0x100043e6:    b5ff        ..      PUSH     {r0-r7,lr}
        0x100043e8:    460f        .F      MOV      r7,r1
        0x100043ea:    b081        ..      SUB      sp,sp,#4
        0x100043ec:    499c        .I      LDR      r1,[pc,#624] ; [0x10004660] = 0xaf5
        0x100043ee:    461d        .F      MOV      r5,r3
        0x100043f0:    4616        .F      MOV      r6,r2
        0x100043f2:    2001        .       MOVS     r0,#1
        0x100043f4:    9c0a        ..      LDR      r4,[sp,#0x28]
        0x100043f6:    4788        .G      BLX      r1
        0x100043f8:    2800        .(      CMP      r0,#0
        0x100043fa:    d007        ..      BEQ      0x1000440c ; ATTCFindByTypeValueReq + 38
        0x100043fc:    9400        ..      STR      r4,[sp,#0]
        0x100043fe:    4c99        .L      LDR      r4,[pc,#612] ; [0x10004664] = 0x3ab7
        0x10004400:    462b        +F      MOV      r3,r5
        0x10004402:    4632        2F      MOV      r2,r6
        0x10004404:    4639        9F      MOV      r1,r7
        0x10004406:    3444        D4      ADDS     r4,r4,#0x44
        0x10004408:    9801        ..      LDR      r0,[sp,#4]
        0x1000440a:    47a0        .G      BLX      r4
        0x1000440c:    b005        ..      ADD      sp,sp,#0x14
        0x1000440e:    bdf0        ..      POP      {r4-r7,pc}
    ATTCReadByTypeReq
        0x10004410:    b5f8        ..      PUSH     {r3-r7,lr}
        0x10004412:    460e        .F      MOV      r6,r1
        0x10004414:    4607        .F      MOV      r7,r0
        0x10004416:    4992        .I      LDR      r1,[pc,#584] ; [0x10004660] = 0xaf5
        0x10004418:    461c        .F      MOV      r4,r3
        0x1000441a:    4615        .F      MOV      r5,r2
        0x1000441c:    2001        .       MOVS     r0,#1
        0x1000441e:    4788        .G      BLX      r1
        0x10004420:    2800        .(      CMP      r0,#0
        0x10004422:    d006        ..      BEQ      0x10004432 ; ATTCReadByTypeReq + 34
        0x10004424:    4623        #F      MOV      r3,r4
        0x10004426:    4c8f        .L      LDR      r4,[pc,#572] ; [0x10004664] = 0x3ab7
        0x10004428:    462a        *F      MOV      r2,r5
        0x1000442a:    4631        1F      MOV      r1,r6
        0x1000442c:    4638        8F      MOV      r0,r7
        0x1000442e:    347c        |4      ADDS     r4,r4,#0x7c
        0x10004430:    47a0        .G      BLX      r4
        0x10004432:    e678        x.      B        0x10004126 ; _GAPStartAdv + 284
    ATTCReadReq
        0x10004434:    b510        ..      PUSH     {r4,lr}
        0x10004436:    4604        .F      MOV      r4,r0
        0x10004438:    4989        .I      LDR      r1,[pc,#548] ; [0x10004660] = 0xaf5
        0x1000443a:    2001        .       MOVS     r0,#1
        0x1000443c:    4788        .G      BLX      r1
        0x1000443e:    2800        .(      CMP      r0,#0
        0x10004440:    d003        ..      BEQ      0x1000444a ; ATTCReadReq + 22
        0x10004442:    4988        .I      LDR      r1,[pc,#544] ; [0x10004664] = 0x3ab7
        0x10004444:    4620         F      MOV      r0,r4
        0x10004446:    31ac        .1      ADDS     r1,r1,#0xac
        0x10004448:    4788        .G      BLX      r1
        0x1000444a:    bd10        ..      POP      {r4,pc}
    ATTCReadBlobReq
        0x1000444c:    b570        p.      PUSH     {r4-r6,lr}
        0x1000444e:    4605        .F      MOV      r5,r0
        0x10004450:    4a83        .J      LDR      r2,[pc,#524] ; [0x10004660] = 0xaf5
        0x10004452:    460c        .F      MOV      r4,r1
        0x10004454:    2001        .       MOVS     r0,#1
        0x10004456:    4790        .G      BLX      r2
        0x10004458:    2800        .(      CMP      r0,#0
        0x1000445a:    d004        ..      BEQ      0x10004466 ; ATTCReadBlobReq + 26
        0x1000445c:    4a81        .J      LDR      r2,[pc,#516] ; [0x10004664] = 0x3ab7
        0x1000445e:    4621        !F      MOV      r1,r4
        0x10004460:    4628        (F      MOV      r0,r5
        0x10004462:    32c6        .2      ADDS     r2,r2,#0xc6
        0x10004464:    4790        .G      BLX      r2
        0x10004466:    bd70        p.      POP      {r4-r6,pc}
    ATTCReadMultipleReq
        0x10004468:    b570        p.      PUSH     {r4-r6,lr}
        0x1000446a:    4605        .F      MOV      r5,r0
        0x1000446c:    4a7c        |J      LDR      r2,[pc,#496] ; [0x10004660] = 0xaf5
        0x1000446e:    460c        .F      MOV      r4,r1
        0x10004470:    2001        .       MOVS     r0,#1
        0x10004472:    4790        .G      BLX      r2
        0x10004474:    2800        .(      CMP      r0,#0
        0x10004476:    d004        ..      BEQ      0x10004482 ; ATTCReadMultipleReq + 26
        0x10004478:    4a7a        zJ      LDR      r2,[pc,#488] ; [0x10004664] = 0x3ab7
        0x1000447a:    4621        !F      MOV      r1,r4
        0x1000447c:    4628        (F      MOV      r0,r5
        0x1000447e:    32e8        .2      ADDS     r2,r2,#0xe8
        0x10004480:    4790        .G      BLX      r2
        0x10004482:    bd70        p.      POP      {r4-r6,pc}
    ATTCReadByGroupTypeReq
        0x10004484:    b5f8        ..      PUSH     {r3-r7,lr}
        0x10004486:    460e        .F      MOV      r6,r1
        0x10004488:    4607        .F      MOV      r7,r0
        0x1000448a:    4975        uI      LDR      r1,[pc,#468] ; [0x10004660] = 0xaf5
        0x1000448c:    461c        .F      MOV      r4,r3
        0x1000448e:    4615        .F      MOV      r5,r2
        0x10004490:    2001        .       MOVS     r0,#1
        0x10004492:    4788        .G      BLX      r1
        0x10004494:    2800        .(      CMP      r0,#0
        0x10004496:    d005        ..      BEQ      0x100044a4 ; ATTCReadByGroupTypeReq + 32
        0x10004498:    4623        #F      MOV      r3,r4
        0x1000449a:    4c73        sL      LDR      r4,[pc,#460] ; [0x10004668] = 0x3bbb
        0x1000449c:    462a        *F      MOV      r2,r5
        0x1000449e:    4631        1F      MOV      r1,r6
        0x100044a0:    4638        8F      MOV      r0,r7
        0x100044a2:    47a0        .G      BLX      r4
        0x100044a4:    e63f        ?.      B        0x10004126 ; _GAPStartAdv + 284
    ATTCWriteReq
        0x100044a6:    b570        p.      PUSH     {r4-r6,lr}
        0x100044a8:    460d        .F      MOV      r5,r1
        0x100044aa:    4606        .F      MOV      r6,r0
        0x100044ac:    496c        lI      LDR      r1,[pc,#432] ; [0x10004660] = 0xaf5
        0x100044ae:    4614        .F      MOV      r4,r2
        0x100044b0:    2001        .       MOVS     r0,#1
        0x100044b2:    4788        .G      BLX      r1
        0x100044b4:    2800        .(      CMP      r0,#0
        0x100044b6:    d005        ..      BEQ      0x100044c4 ; ATTCWriteReq + 30
        0x100044b8:    4b6b        kK      LDR      r3,[pc,#428] ; [0x10004668] = 0x3bbb
        0x100044ba:    4622        "F      MOV      r2,r4
        0x100044bc:    4629        )F      MOV      r1,r5
        0x100044be:    4630        0F      MOV      r0,r6
        0x100044c0:    3330        03      ADDS     r3,r3,#0x30
        0x100044c2:    4798        .G      BLX      r3
        0x100044c4:    bd70        p.      POP      {r4-r6,pc}
    ATTCWriteCmdReq
        0x100044c6:    b570        p.      PUSH     {r4-r6,lr}
        0x100044c8:    460d        .F      MOV      r5,r1
        0x100044ca:    4606        .F      MOV      r6,r0
        0x100044cc:    4964        dI      LDR      r1,[pc,#400] ; [0x10004660] = 0xaf5
        0x100044ce:    4614        .F      MOV      r4,r2
        0x100044d0:    2001        .       MOVS     r0,#1
        0x100044d2:    4788        .G      BLX      r1
        0x100044d4:    2800        .(      CMP      r0,#0
        0x100044d6:    d005        ..      BEQ      0x100044e4 ; ATTCWriteCmdReq + 30
        0x100044d8:    4b63        cK      LDR      r3,[pc,#396] ; [0x10004668] = 0x3bbb
        0x100044da:    4622        "F      MOV      r2,r4
        0x100044dc:    4629        )F      MOV      r1,r5
        0x100044de:    4630        0F      MOV      r0,r6
        0x100044e0:    335c        \3      ADDS     r3,r3,#0x5c
        0x100044e2:    4798        .G      BLX      r3
        0x100044e4:    bd70        p.      POP      {r4-r6,pc}
    ATTCPrepareWriteReq
        0x100044e6:    b5f8        ..      PUSH     {r3-r7,lr}
        0x100044e8:    460e        .F      MOV      r6,r1
        0x100044ea:    4607        .F      MOV      r7,r0
        0x100044ec:    495c        \I      LDR      r1,[pc,#368] ; [0x10004660] = 0xaf5
        0x100044ee:    461c        .F      MOV      r4,r3
        0x100044f0:    4615        .F      MOV      r5,r2
        0x100044f2:    2001        .       MOVS     r0,#1
        0x100044f4:    4788        .G      BLX      r1
        0x100044f6:    2800        .(      CMP      r0,#0
        0x100044f8:    d006        ..      BEQ      0x10004508 ; ATTCPrepareWriteReq + 34
        0x100044fa:    4623        #F      MOV      r3,r4
        0x100044fc:    4c5a        ZL      LDR      r4,[pc,#360] ; [0x10004668] = 0x3bbb
        0x100044fe:    462a        *F      MOV      r2,r5
        0x10004500:    4631        1F      MOV      r1,r6
        0x10004502:    4638        8F      MOV      r0,r7
        0x10004504:    3488        .4      ADDS     r4,r4,#0x88
        0x10004506:    47a0        .G      BLX      r4
        0x10004508:    e60d        ..      B        0x10004126 ; _GAPStartAdv + 284
    ATTCExecuteWriteReq
        0x1000450a:    b510        ..      PUSH     {r4,lr}
        0x1000450c:    4604        .F      MOV      r4,r0
        0x1000450e:    4954        TI      LDR      r1,[pc,#336] ; [0x10004660] = 0xaf5
        0x10004510:    2001        .       MOVS     r0,#1
        0x10004512:    4788        .G      BLX      r1
        0x10004514:    2800        .(      CMP      r0,#0
        0x10004516:    d003        ..      BEQ      0x10004520 ; ATTCExecuteWriteReq + 22
        0x10004518:    4953        SI      LDR      r1,[pc,#332] ; [0x10004668] = 0x3bbb
        0x1000451a:    4620         F      MOV      r0,r4
        0x1000451c:    31b8        .1      ADDS     r1,r1,#0xb8
        0x1000451e:    4788        .G      BLX      r1
        0x10004520:    bd10        ..      POP      {r4,pc}
    ATTCConfirmation
        0x10004522:    b510        ..      PUSH     {r4,lr}
        0x10004524:    494e        NI      LDR      r1,[pc,#312] ; [0x10004660] = 0xaf5
        0x10004526:    2001        .       MOVS     r0,#1
        0x10004528:    4788        .G      BLX      r1
        0x1000452a:    2800        .(      CMP      r0,#0
        0x1000452c:    d002        ..      BEQ      0x10004534 ; ATTCConfirmation + 18
        0x1000452e:    484e        NH      LDR      r0,[pc,#312] ; [0x10004668] = 0x3bbb
        0x10004530:    30cc        .0      ADDS     r0,r0,#0xcc
        0x10004532:    4780        .G      BLX      r0
        0x10004534:    bd10        ..      POP      {r4,pc}
    _SYSClockSwitch
        0x10004536:    b570        p.      PUSH     {r4-r6,lr}
        0x10004538:    4d3f        ?M      LDR      r5,[pc,#252] ; [0x10004638] = 0x20003118
        0x1000453a:    4604        .F      MOV      r4,r0
        0x1000453c:    2808        .(      CMP      r0,#8
        0x1000453e:    d004        ..      BEQ      0x1000454a ; _SYSClockSwitch + 20
        0x10004540:    68e8        .h      LDR      r0,[r5,#0xc]
        0x10004542:    7840        @x      LDRB     r0,[r0,#1]
        0x10004544:    2808        .(      CMP      r0,#8
        0x10004546:    d00d        ..      BEQ      0x10004564 ; _SYSClockSwitch + 46
        0x10004548:    e014        ..      B        0x10004574 ; _SYSClockSwitch + 62
        0x1000454a:    2100        .!      MOVS     r1,#0
        0x1000454c:    207f        .       MOVS     r0,#0x7f
        0x1000454e:    f7fff8b1    ....    BL       BBRFWrite ; 0x100036b4
        0x10004552:    2101        .!      MOVS     r1,#1
        0x10004554:    2040        @       MOVS     r0,#0x40
        0x10004556:    f7fff8ad    ....    BL       BBRFWrite ; 0x100036b4
        0x1000455a:    6ae8        .j      LDR      r0,[r5,#0x2c]
        0x1000455c:    7801        .x      LDRB     r1,[r0,#0]
        0x1000455e:    08c9        ..      LSRS     r1,r1,#3
        0x10004560:    00c9        ..      LSLS     r1,r1,#3
        0x10004562:    e00e        ..      B        0x10004582 ; _SYSClockSwitch + 76
        0x10004564:    2100        .!      MOVS     r1,#0
        0x10004566:    207f        .       MOVS     r0,#0x7f
        0x10004568:    f7fff8a4    ....    BL       BBRFWrite ; 0x100036b4
        0x1000456c:    2100        .!      MOVS     r1,#0
        0x1000456e:    2040        @       MOVS     r0,#0x40
        0x10004570:    f7fff8a0    ....    BL       BBRFWrite ; 0x100036b4
        0x10004574:    6ae8        .j      LDR      r0,[r5,#0x2c]
        0x10004576:    7801        .x      LDRB     r1,[r0,#0]
        0x10004578:    0762        b.      LSLS     r2,r4,#29
        0x1000457a:    08c9        ..      LSRS     r1,r1,#3
        0x1000457c:    00c9        ..      LSLS     r1,r1,#3
        0x1000457e:    0f52        R.      LSRS     r2,r2,#29
        0x10004580:    4311        .C      ORRS     r1,r1,r2
        0x10004582:    7001        .p      STRB     r1,[r0,#0]
        0x10004584:    68e8        .h      LDR      r0,[r5,#0xc]
        0x10004586:    7044        Dp      STRB     r4,[r0,#1]
        0x10004588:    2001        .       MOVS     r0,#1
        0x1000458a:    bd70        p.      POP      {r4-r6,pc}
    MCUClockSwitch
        0x1000458c:    e7d3        ..      B        _SYSClockSwitch ; 0x10004536
    GetMCUClock
        0x1000458e:    b510        ..      PUSH     {r4,lr}
        0x10004590:    4604        .F      MOV      r4,r0
        0x10004592:    4836        6H      LDR      r0,[pc,#216] ; [0x1000466c] = 0x449f
        0x10004594:    4780        .G      BLX      r0
        0x10004596:    7020         p      STRB     r0,[r4,#0]
        0x10004598:    2001        .       MOVS     r0,#1
        0x1000459a:    bd10        ..      POP      {r4,pc}
    GetClock
        0x1000459c:    b510        ..      PUSH     {r4,lr}
        0x1000459e:    4604        .F      MOV      r4,r0
        0x100045a0:    4832        2H      LDR      r0,[pc,#200] ; [0x1000466c] = 0x449f
        0x100045a2:    1d80        ..      ADDS     r0,r0,#6
        0x100045a4:    4780        .G      BLX      r0
        0x100045a6:    7020         p      STRB     r0,[r4,#0]
        0x100045a8:    2001        .       MOVS     r0,#1
        0x100045aa:    bd10        ..      POP      {r4,pc}
    WakeupConfig
        0x100045ac:    492f        /I      LDR      r1,[pc,#188] ; [0x1000466c] = 0x449f
        0x100045ae:    b510        ..      PUSH     {r4,lr}
        0x100045b0:    311c        .1      ADDS     r1,r1,#0x1c
        0x100045b2:    4788        .G      BLX      r1
        0x100045b4:    2001        .       MOVS     r0,#1
        0x100045b6:    bd10        ..      POP      {r4,pc}
    LLSleep
        0x100045b8:    482c        ,H      LDR      r0,[pc,#176] ; [0x1000466c] = 0x449f
        0x100045ba:    b510        ..      PUSH     {r4,lr}
        0x100045bc:    3072        r0      ADDS     r0,r0,#0x72
        0x100045be:    4780        .G      BLX      r0
        0x100045c0:    2001        .       MOVS     r0,#1
        0x100045c2:    bd10        ..      POP      {r4,pc}
    Rand
        0x100045c4:    482a        *H      LDR      r0,[pc,#168] ; [0x10004670] = 0x5ffb
        0x100045c6:    4700        .G      BX       r0
    DelayUS
        0x100045c8:    491e        .I      LDR      r1,[pc,#120] ; [0x10004644] = 0x6245
        0x100045ca:    391a        .9      SUBS     r1,r1,#0x1a
        0x100045cc:    4708        .G      BX       r1
    DelayMS
        0x100045ce:    491d        .I      LDR      r1,[pc,#116] ; [0x10004644] = 0x6245
        0x100045d0:    4708        .G      BX       r1
    GetCompanyID
        0x100045d2:    b508        ..      PUSH     {r3,lr}
        0x100045d4:    4927        'I      LDR      r1,[pc,#156] ; [0x10004674] = 0x654d
        0x100045d6:    4668        hF      MOV      r0,sp
        0x100045d8:    4788        .G      BLX      r1
        0x100045da:    4668        hF      MOV      r0,sp
        0x100045dc:    78c0        .x      LDRB     r0,[r0,#3]
        0x100045de:    0780        ..      LSLS     r0,r0,#30
        0x100045e0:    0fc0        ..      LSRS     r0,r0,#31
        0x100045e2:    bd08        ..      POP      {r3,pc}
    GetQFNType
        0x100045e4:    b508        ..      PUSH     {r3,lr}
        0x100045e6:    4923        #I      LDR      r1,[pc,#140] ; [0x10004674] = 0x654d
        0x100045e8:    4668        hF      MOV      r0,sp
        0x100045ea:    4788        .G      BLX      r1
        0x100045ec:    4668        hF      MOV      r0,sp
        0x100045ee:    78c0        .x      LDRB     r0,[r0,#3]
        0x100045f0:    09c0        ..      LSRS     r0,r0,#7
        0x100045f2:    d000        ..      BEQ      0x100045f6 ; GetQFNType + 18
        0x100045f4:    2001        .       MOVS     r0,#1
        0x100045f6:    bd08        ..      POP      {r3,pc}
    RFRead
        0x100045f8:    b510        ..      PUSH     {r4,lr}
        0x100045fa:    f7fff859    ..Y.    BL       BBRFRead ; 0x100036b0
        0x100045fe:    bd10        ..      POP      {r4,pc}
    RFWrite
        0x10004600:    b510        ..      PUSH     {r4,lr}
        0x10004602:    f7fff857    ..W.    BL       BBRFWrite ; 0x100036b4
        0x10004606:    bd10        ..      POP      {r4,pc}
    lib_check_ble_fsm_state
        0x10004608:    480b        .H      LDR      r0,[pc,#44] ; [0x10004638] = 0x20003118
        0x1000460a:    6a80        .j      LDR      r0,[r0,#0x28]
        0x1000460c:    7bc0        .{      LDRB     r0,[r0,#0xf]
        0x1000460e:    2805        .(      CMP      r0,#5
        0x10004610:    d005        ..      BEQ      0x1000461e ; lib_check_ble_fsm_state + 22
        0x10004612:    2806        .(      CMP      r0,#6
        0x10004614:    d003        ..      BEQ      0x1000461e ; lib_check_ble_fsm_state + 22
        0x10004616:    280f        .(      CMP      r0,#0xf
        0x10004618:    d001        ..      BEQ      0x1000461e ; lib_check_ble_fsm_state + 22
        0x1000461a:    2000        .       MOVS     r0,#0
        0x1000461c:    4770        pG      BX       lr
        0x1000461e:    2001        .       MOVS     r0,#1
        0x10004620:    4770        pG      BX       lr
    SystemSleep
        0x10004622:    b510        ..      PUSH     {r4,lr}
        0x10004624:    f7fffff0    ....    BL       lib_check_ble_fsm_state ; 0x10004608
        0x10004628:    2800        .(      CMP      r0,#0
        0x1000462a:    d102        ..      BNE      0x10004632 ; SystemSleep + 16
        0x1000462c:    480f        .H      LDR      r0,[pc,#60] ; [0x1000466c] = 0x449f
        0x1000462e:    3052        R0      ADDS     r0,r0,#0x52
        0x10004630:    4780        .G      BLX      r0
        0x10004632:    2001        .       MOVS     r0,#1
        0x10004634:    bd10        ..      POP      {r4,pc}
    $d
        0x10004636:    0000        ..      DCW    0
        0x10004638:    20003118    .1.     DCD    536883480
        0x1000463c:    0000565f    _V..    DCD    22111
        0x10004640:    40020000    ...@    DCD    1073872896
        0x10004644:    00006245    Eb..    DCD    25157
        0x10004648:    00004707    .G..    DCD    18183
        0x1000464c:    00004101    .A..    DCD    16641
        0x10004650:    0000421d    .B..    DCD    16925
        0x10004654:    1000392f    /9..    DCD    268450095
        0x10004658:    0000432d    -C..    DCD    17197
        0x1000465c:    00004e2b    +N..    DCD    20011
        0x10004660:    00000af5    ....    DCD    2805
        0x10004664:    00003ab7    .:..    DCD    15031
        0x10004668:    00003bbb    .;..    DCD    15291
        0x1000466c:    0000449f    .D..    DCD    17567
        0x10004670:    00005ffb    ._..    DCD    24571
        0x10004674:    0000654d    Me..    DCD    25933
    $t
    SystemPowerDown
        0x10004678:    b510        ..      PUSH     {r4,lr}
        0x1000467a:    49ff        .I      LDR      r1,[pc,#1020] ; [0x10004a78] = 0x20003118
        0x1000467c:    2201        ."      MOVS     r2,#1
        0x1000467e:    6a88        .j      LDR      r0,[r1,#0x28]
        0x10004680:    7542        Bu      STRB     r2,[r0,#0x15]
        0x10004682:    7c43        C|      LDRB     r3,[r0,#0x11]
        0x10004684:    09db        ..      LSRS     r3,r3,#7
        0x10004686:    01db        ..      LSLS     r3,r3,#7
        0x10004688:    1c9b        ..      ADDS     r3,r3,#2
        0x1000468a:    7443        Ct      STRB     r3,[r0,#0x11]
        0x1000468c:    1e93        ..      SUBS     r3,r2,#2
        0x1000468e:    7483        .t      STRB     r3,[r0,#0x12]
        0x10004690:    0a1b        ..      LSRS     r3,r3,#8
        0x10004692:    74c3        .t      STRB     r3,[r0,#0x13]
        0x10004694:    6ac9        .j      LDR      r1,[r1,#0x2c]
        0x10004696:    7acb        .z      LDRB     r3,[r1,#0xb]
        0x10004698:    24ef        .$      MOVS     r4,#0xef
        0x1000469a:    4023        #@      ANDS     r3,r3,r4
        0x1000469c:    72cb        .r      STRB     r3,[r1,#0xb]
        0x1000469e:    7b4b        K{      LDRB     r3,[r1,#0xd]
        0x100046a0:    4393        .C      BICS     r3,r3,r2
        0x100046a2:    734b        Ks      STRB     r3,[r1,#0xd]
        0x100046a4:    7a8b        .z      LDRB     r3,[r1,#0xa]
        0x100046a6:    4313        .C      ORRS     r3,r3,r2
        0x100046a8:    728b        .r      STRB     r3,[r1,#0xa]
        0x100046aa:    7e81        .~      LDRB     r1,[r0,#0x1a]
        0x100046ac:    2302        .#      MOVS     r3,#2
        0x100046ae:    4319        .C      ORRS     r1,r1,r3
        0x100046b0:    7681        .v      STRB     r1,[r0,#0x1a]
        0x100046b2:    7c01        .|      LDRB     r1,[r0,#0x10]
        0x100046b4:    4311        .C      ORRS     r1,r1,r2
        0x100046b6:    7401        .t      STRB     r1,[r0,#0x10]
        0x100046b8:    49f0        .I      LDR      r1,[pc,#960] ; [0x10004a7c] = 0x6245
        0x100046ba:    2005        .       MOVS     r0,#5
        0x100046bc:    4788        .G      BLX      r1
        0x100046be:    48f0        .H      LDR      r0,[pc,#960] ; [0x10004a80] = 0x46e5
        0x100046c0:    4780        .G      BLX      r0
        0x100046c2:    2001        .       MOVS     r0,#1
        0x100046c4:    e7b6        ..      B        0x10004634 ; SystemSleep + 18
    SystemReset
        0x100046c6:    48ee        .H      LDR      r0,[pc,#952] ; [0x10004a80] = 0x46e5
        0x100046c8:    b510        ..      PUSH     {r4,lr}
        0x100046ca:    3012        .0      ADDS     r0,r0,#0x12
        0x100046cc:    4780        .G      BLX      r0
        0x100046ce:    2001        .       MOVS     r0,#1
        0x100046d0:    e7b0        ..      B        0x10004634 ; SystemSleep + 18
    CapdetEn
        0x100046d2:    b510        ..      PUSH     {r4,lr}
        0x100046d4:    49eb        .I      LDR      r1,[pc,#940] ; [0x10004a84] = 0x65cb
        0x100046d6:    4788        .G      BLX      r1
        0x100046d8:    2001        .       MOVS     r0,#1
        0x100046da:    e7ab        ..      B        0x10004634 ; SystemSleep + 18
    PowerDownLPOEn
        0x100046dc:    49e9        .I      LDR      r1,[pc,#932] ; [0x10004a84] = 0x65cb
        0x100046de:    b510        ..      PUSH     {r4,lr}
        0x100046e0:    3118        .1      ADDS     r1,r1,#0x18
        0x100046e2:    4788        .G      BLX      r1
        0x100046e4:    2001        .       MOVS     r0,#1
        0x100046e6:    e7a5        ..      B        0x10004634 ; SystemSleep + 18
    SetBondManagerIndex
        0x100046e8:    49e5        .I      LDR      r1,[pc,#916] ; [0x10004a80] = 0x46e5
        0x100046ea:    b510        ..      PUSH     {r4,lr}
        0x100046ec:    3158        X1      ADDS     r1,r1,#0x58
        0x100046ee:    4788        .G      BLX      r1
        0x100046f0:    2001        .       MOVS     r0,#1
        0x100046f2:    e79f        ..      B        0x10004634 ; SystemSleep + 18
    GetBondDevice
        0x100046f4:    49e2        .I      LDR      r1,[pc,#904] ; [0x10004a80] = 0x46e5
        0x100046f6:    31ac        .1      ADDS     r1,r1,#0xac
        0x100046f8:    4708        .G      BX       r1
    AddBondDevice
        0x100046fa:    49e1        .I      LDR      r1,[pc,#900] ; [0x10004a80] = 0x46e5
        0x100046fc:    b510        ..      PUSH     {r4,lr}
        0x100046fe:    31fa        .1      ADDS     r1,r1,#0xfa
        0x10004700:    4788        .G      BLX      r1
        0x10004702:    2001        .       MOVS     r0,#1
        0x10004704:    e796        ..      B        0x10004634 ; SystemSleep + 18
    DelAllBondDevice
        0x10004706:    b510        ..      PUSH     {r4,lr}
        0x10004708:    48df        .H      LDR      r0,[pc,#892] ; [0x10004a88] = 0x4803
        0x1000470a:    4780        .G      BLX      r0
        0x1000470c:    2001        .       MOVS     r0,#1
        0x1000470e:    e791        ..      B        0x10004634 ; SystemSleep + 18
    DelBondDevice
        0x10004710:    48dd        .H      LDR      r0,[pc,#884] ; [0x10004a88] = 0x4803
        0x10004712:    b510        ..      PUSH     {r4,lr}
        0x10004714:    3018        .0      ADDS     r0,r0,#0x18
        0x10004716:    4780        .G      BLX      r0
        0x10004718:    2001        .       MOVS     r0,#1
        0x1000471a:    e78b        ..      B        0x10004634 ; SystemSleep + 18
    ReadProfileData
        0x1000471c:    4bda        .K      LDR      r3,[pc,#872] ; [0x10004a88] = 0x4803
        0x1000471e:    33a2        .3      ADDS     r3,r3,#0xa2
        0x10004720:    4718        .G      BX       r3
    WriteProfileData
        0x10004722:    4bd9        .K      LDR      r3,[pc,#868] ; [0x10004a88] = 0x4803
        0x10004724:    33d8        .3      ADDS     r3,r3,#0xd8
        0x10004726:    4718        .G      BX       r3
    EraseFlashData
        0x10004728:    b5f8        ..      PUSH     {r3-r7,lr}
        0x1000472a:    4607        .F      MOV      r7,r0
        0x1000472c:    48d2        .H      LDR      r0,[pc,#840] ; [0x10004a78] = 0x20003118
        0x1000472e:    2600        .&      MOVS     r6,#0
        0x10004730:    6880        .h      LDR      r0,[r0,#8]
        0x10004732:    460d        .F      MOV      r5,r1
        0x10004734:    4634        4F      MOV      r4,r6
        0x10004736:    3028        (0      ADDS     r0,r0,#0x28
        0x10004738:    f000fdfc    ....    BL       __aeabi_uread4 ; 0x10005334
        0x1000473c:    0329        ).      LSLS     r1,r5,#12
        0x1000473e:    19c9        ..      ADDS     r1,r1,r7
        0x10004740:    1840        @.      ADDS     r0,r0,r1
        0x10004742:    2101        .!      MOVS     r1,#1
        0x10004744:    04c9        ..      LSLS     r1,r1,#19
        0x10004746:    4288        .B      CMP      r0,r1
        0x10004748:    d911        ..      BLS      0x1000476e ; EraseFlashData + 70
        0x1000474a:    2000        .       MOVS     r0,#0
        0x1000474c:    e4eb        ..      B        0x10004126 ; _GAPStartAdv + 284
        0x1000474e:    b672        r.      CPSID    i
        0x10004750:    48c9        .H      LDR      r0,[pc,#804] ; [0x10004a78] = 0x20003118
        0x10004752:    6880        .h      LDR      r0,[r0,#8]
        0x10004754:    3028        (0      ADDS     r0,r0,#0x28
        0x10004756:    f000fded    ....    BL       __aeabi_uread4 ; 0x10005334
        0x1000475a:    0321        !.      LSLS     r1,r4,#12
        0x1000475c:    19c9        ..      ADDS     r1,r1,r7
        0x1000475e:    1840        @.      ADDS     r0,r0,r1
        0x10004760:    4aca        .J      LDR      r2,[pc,#808] ; [0x10004a8c] = 0x5443
        0x10004762:    2101        .!      MOVS     r1,#1
        0x10004764:    4790        .G      BLX      r2
        0x10004766:    4606        .F      MOV      r6,r0
        0x10004768:    b662        b.      CPSIE    i
        0x1000476a:    1c64        d.      ADDS     r4,r4,#1
        0x1000476c:    b2e4        ..      UXTB     r4,r4
        0x1000476e:    42ac        .B      CMP      r4,r5
        0x10004770:    d3ed        ..      BCC      0x1000474e ; EraseFlashData + 38
        0x10004772:    4630        0F      MOV      r0,r6
        0x10004774:    e4d7        ..      B        0x10004126 ; _GAPStartAdv + 284
    ReadFlashData
        0x10004776:    b570        p.      PUSH     {r4-r6,lr}
        0x10004778:    4604        .F      MOV      r4,r0
        0x1000477a:    48bf        .H      LDR      r0,[pc,#764] ; [0x10004a78] = 0x20003118
        0x1000477c:    4616        .F      MOV      r6,r2
        0x1000477e:    6880        .h      LDR      r0,[r0,#8]
        0x10004780:    460d        .F      MOV      r5,r1
        0x10004782:    3028        (0      ADDS     r0,r0,#0x28
        0x10004784:    f000fdd6    ....    BL       __aeabi_uread4 ; 0x10005334
        0x10004788:    4603        .F      MOV      r3,r0
        0x1000478a:    1961        a.      ADDS     r1,r4,r5
        0x1000478c:    1840        @.      ADDS     r0,r0,r1
        0x1000478e:    2101        .!      MOVS     r1,#1
        0x10004790:    04c9        ..      LSLS     r1,r1,#19
        0x10004792:    4288        .B      CMP      r0,r1
        0x10004794:    d80a        ..      BHI      0x100047ac ; ReadFlashData + 54
        0x10004796:    2b00        .+      CMP      r3,#0
        0x10004798:    d008        ..      BEQ      0x100047ac ; ReadFlashData + 54
        0x1000479a:    b672        r.      CPSID    i
        0x1000479c:    1918        ..      ADDS     r0,r3,r4
        0x1000479e:    4bbb        .K      LDR      r3,[pc,#748] ; [0x10004a8c] = 0x5443
        0x100047a0:    4632        2F      MOV      r2,r6
        0x100047a2:    4629        )F      MOV      r1,r5
        0x100047a4:    3bea        .;      SUBS     r3,r3,#0xea
        0x100047a6:    4798        .G      BLX      r3
        0x100047a8:    b662        b.      CPSIE    i
        0x100047aa:    bd70        p.      POP      {r4-r6,pc}
        0x100047ac:    2000        .       MOVS     r0,#0
        0x100047ae:    bd70        p.      POP      {r4-r6,pc}
    WriteFlashData
        0x100047b0:    b570        p.      PUSH     {r4-r6,lr}
        0x100047b2:    4604        .F      MOV      r4,r0
        0x100047b4:    48b0        .H      LDR      r0,[pc,#704] ; [0x10004a78] = 0x20003118
        0x100047b6:    4616        .F      MOV      r6,r2
        0x100047b8:    6880        .h      LDR      r0,[r0,#8]
        0x100047ba:    460d        .F      MOV      r5,r1
        0x100047bc:    3028        (0      ADDS     r0,r0,#0x28
        0x100047be:    f000fdb9    ....    BL       __aeabi_uread4 ; 0x10005334
        0x100047c2:    4603        .F      MOV      r3,r0
        0x100047c4:    1961        a.      ADDS     r1,r4,r5
        0x100047c6:    1840        @.      ADDS     r0,r0,r1
        0x100047c8:    2101        .!      MOVS     r1,#1
        0x100047ca:    04c9        ..      LSLS     r1,r1,#19
        0x100047cc:    4288        .B      CMP      r0,r1
        0x100047ce:    d80a        ..      BHI      0x100047e6 ; WriteFlashData + 54
        0x100047d0:    2b00        .+      CMP      r3,#0
        0x100047d2:    d008        ..      BEQ      0x100047e6 ; WriteFlashData + 54
        0x100047d4:    b672        r.      CPSID    i
        0x100047d6:    1918        ..      ADDS     r0,r3,r4
        0x100047d8:    4bac        .K      LDR      r3,[pc,#688] ; [0x10004a8c] = 0x5443
        0x100047da:    4632        2F      MOV      r2,r6
        0x100047dc:    4629        )F      MOV      r1,r5
        0x100047de:    3b82        .;      SUBS     r3,r3,#0x82
        0x100047e0:    4798        .G      BLX      r3
        0x100047e2:    b662        b.      CPSIE    i
        0x100047e4:    bd70        p.      POP      {r4-r6,pc}
        0x100047e6:    2000        .       MOVS     r0,#0
        0x100047e8:    bd70        p.      POP      {r4-r6,pc}
    CodeErase
        0x100047ea:    b570        p.      PUSH     {r4-r6,lr}
        0x100047ec:    48a8        .H      LDR      r0,[pc,#672] ; [0x10004a90] = 0x20003628
        0x100047ee:    2400        .$      MOVS     r4,#0
        0x100047f0:    7800        .x      LDRB     r0,[r0,#0]
        0x100047f2:    4ea6        .N      LDR      r6,[pc,#664] ; [0x10004a8c] = 0x5443
        0x100047f4:    4da0        .M      LDR      r5,[pc,#640] ; [0x10004a78] = 0x20003118
        0x100047f6:    2800        .(      CMP      r0,#0
        0x100047f8:    d00d        ..      BEQ      0x10004816 ; CodeErase + 44
        0x100047fa:    2801        .(      CMP      r0,#1
        0x100047fc:    d01e        ..      BEQ      0x1000483c ; CodeErase + 82
        0x100047fe:    e024        $.      B        0x1000484a ; CodeErase + 96
        0x10004800:    b672        r.      CPSID    i
        0x10004802:    3014        .0      ADDS     r0,r0,#0x14
        0x10004804:    f000fd96    ....    BL       __aeabi_uread4 ; 0x10005334
        0x10004808:    0321        !.      LSLS     r1,r4,#12
        0x1000480a:    1840        @.      ADDS     r0,r0,r1
        0x1000480c:    2101        .!      MOVS     r1,#1
        0x1000480e:    47b0        .G      BLX      r6
        0x10004810:    b662        b.      CPSIE    i
        0x10004812:    1c64        d.      ADDS     r4,r4,#1
        0x10004814:    b2e4        ..      UXTB     r4,r4
        0x10004816:    68a8        .h      LDR      r0,[r5,#8]
        0x10004818:    7bc1        .{      LDRB     r1,[r0,#0xf]
        0x1000481a:    7b82        .{      LDRB     r2,[r0,#0xe]
        0x1000481c:    0209        ..      LSLS     r1,r1,#8
        0x1000481e:    4311        .C      ORRS     r1,r1,r2
        0x10004820:    42a1        .B      CMP      r1,r4
        0x10004822:    d8ed        ..      BHI      0x10004800 ; CodeErase + 22
        0x10004824:    e011        ..      B        0x1000484a ; CodeErase + 96
        0x10004826:    b672        r.      CPSID    i
        0x10004828:    3010        .0      ADDS     r0,r0,#0x10
        0x1000482a:    f000fd83    ....    BL       __aeabi_uread4 ; 0x10005334
        0x1000482e:    0321        !.      LSLS     r1,r4,#12
        0x10004830:    1840        @.      ADDS     r0,r0,r1
        0x10004832:    2101        .!      MOVS     r1,#1
        0x10004834:    47b0        .G      BLX      r6
        0x10004836:    b662        b.      CPSIE    i
        0x10004838:    1c64        d.      ADDS     r4,r4,#1
        0x1000483a:    b2e4        ..      UXTB     r4,r4
        0x1000483c:    68a8        .h      LDR      r0,[r5,#8]
        0x1000483e:    7bc1        .{      LDRB     r1,[r0,#0xf]
        0x10004840:    7b82        .{      LDRB     r2,[r0,#0xe]
        0x10004842:    0209        ..      LSLS     r1,r1,#8
        0x10004844:    4311        .C      ORRS     r1,r1,r2
        0x10004846:    42a1        .B      CMP      r1,r4
        0x10004848:    d8ed        ..      BHI      0x10004826 ; CodeErase + 60
        0x1000484a:    2001        .       MOVS     r0,#1
        0x1000484c:    bd70        p.      POP      {r4-r6,pc}
    CodeErase_sector
        0x1000484e:    b570        p.      PUSH     {r4-r6,lr}
        0x10004850:    4604        .F      MOV      r4,r0
        0x10004852:    460d        .F      MOV      r5,r1
        0x10004854:    0b00        ..      LSRS     r0,r0,#12
        0x10004856:    1942        B.      ADDS     r2,r0,r5
        0x10004858:    4887        .H      LDR      r0,[pc,#540] ; [0x10004a78] = 0x20003118
        0x1000485a:    6880        .h      LDR      r0,[r0,#8]
        0x1000485c:    7bc1        .{      LDRB     r1,[r0,#0xf]
        0x1000485e:    7b83        .{      LDRB     r3,[r0,#0xe]
        0x10004860:    0209        ..      LSLS     r1,r1,#8
        0x10004862:    4319        .C      ORRS     r1,r1,r3
        0x10004864:    428a        .B      CMP      r2,r1
        0x10004866:    d901        ..      BLS      0x1000486c ; CodeErase_sector + 30
        0x10004868:    2000        .       MOVS     r0,#0
        0x1000486a:    bd70        p.      POP      {r4-r6,pc}
        0x1000486c:    4988        .I      LDR      r1,[pc,#544] ; [0x10004a90] = 0x20003628
        0x1000486e:    4e87        .N      LDR      r6,[pc,#540] ; [0x10004a8c] = 0x5443
        0x10004870:    7809        .x      LDRB     r1,[r1,#0]
        0x10004872:    2900        .)      CMP      r1,#0
        0x10004874:    d002        ..      BEQ      0x1000487c ; CodeErase_sector + 46
        0x10004876:    2901        .)      CMP      r1,#1
        0x10004878:    d003        ..      BEQ      0x10004882 ; CodeErase_sector + 52
        0x1000487a:    e00a        ..      B        0x10004892 ; CodeErase_sector + 68
        0x1000487c:    b672        r.      CPSID    i
        0x1000487e:    3014        .0      ADDS     r0,r0,#0x14
        0x10004880:    e001        ..      B        0x10004886 ; CodeErase_sector + 56
        0x10004882:    b672        r.      CPSID    i
        0x10004884:    3010        .0      ADDS     r0,r0,#0x10
        0x10004886:    f000fd55    ..U.    BL       __aeabi_uread4 ; 0x10005334
        0x1000488a:    1900        ..      ADDS     r0,r0,r4
        0x1000488c:    4629        )F      MOV      r1,r5
        0x1000488e:    47b0        .G      BLX      r6
        0x10004890:    b662        b.      CPSIE    i
        0x10004892:    2001        .       MOVS     r0,#1
        0x10004894:    bd70        p.      POP      {r4-r6,pc}
    _FMCodeWrite
        0x10004896:    b5f8        ..      PUSH     {r3-r7,lr}
        0x10004898:    4604        .F      MOV      r4,r0
        0x1000489a:    487d        }H      LDR      r0,[pc,#500] ; [0x10004a90] = 0x20003628
        0x1000489c:    460f        .F      MOV      r7,r1
        0x1000489e:    7801        .x      LDRB     r1,[r0,#0]
        0x100048a0:    4875        uH      LDR      r0,[pc,#468] ; [0x10004a78] = 0x20003118
        0x100048a2:    4d7a        zM      LDR      r5,[pc,#488] ; [0x10004a8c] = 0x5443
        0x100048a4:    6880        .h      LDR      r0,[r0,#8]
        0x100048a6:    3d82        .=      SUBS     r5,r5,#0x82
        0x100048a8:    4616        .F      MOV      r6,r2
        0x100048aa:    2900        .)      CMP      r1,#0
        0x100048ac:    d002        ..      BEQ      0x100048b4 ; _FMCodeWrite + 30
        0x100048ae:    2901        .)      CMP      r1,#1
        0x100048b0:    d003        ..      BEQ      0x100048ba ; _FMCodeWrite + 36
        0x100048b2:    e00b        ..      B        0x100048cc ; _FMCodeWrite + 54
        0x100048b4:    b672        r.      CPSID    i
        0x100048b6:    3014        .0      ADDS     r0,r0,#0x14
        0x100048b8:    e001        ..      B        0x100048be ; _FMCodeWrite + 40
        0x100048ba:    b672        r.      CPSID    i
        0x100048bc:    3010        .0      ADDS     r0,r0,#0x10
        0x100048be:    f000fd39    ..9.    BL       __aeabi_uread4 ; 0x10005334
        0x100048c2:    1900        ..      ADDS     r0,r0,r4
        0x100048c4:    4632        2F      MOV      r2,r6
        0x100048c6:    4639        9F      MOV      r1,r7
        0x100048c8:    47a8        .G      BLX      r5
        0x100048ca:    b662        b.      CPSIE    i
        0x100048cc:    2001        .       MOVS     r0,#1
        0x100048ce:    e42a        *.      B        0x10004126 ; _GAPStartAdv + 284
    CodeWrite
        0x100048d0:    b430        0.      PUSH     {r4,r5}
        0x100048d2:    4b69        iK      LDR      r3,[pc,#420] ; [0x10004a78] = 0x20003118
        0x100048d4:    689c        .h      LDR      r4,[r3,#8]
        0x100048d6:    7be3        .{      LDRB     r3,[r4,#0xf]
        0x100048d8:    7ba4        .{      LDRB     r4,[r4,#0xe]
        0x100048da:    021b        ..      LSLS     r3,r3,#8
        0x100048dc:    4323        #C      ORRS     r3,r3,r4
        0x100048de:    031b        ..      LSLS     r3,r3,#12
        0x100048e0:    4283        .B      CMP      r3,r0
        0x100048e2:    d202        ..      BCS      0x100048ea ; CodeWrite + 26
        0x100048e4:    bc30        0.      POP      {r4,r5}
        0x100048e6:    2000        .       MOVS     r0,#0
        0x100048e8:    4770        pG      BX       lr
        0x100048ea:    bc30        0.      POP      {r4,r5}
        0x100048ec:    b2c9        ..      UXTB     r1,r1
        0x100048ee:    e7d2        ..      B        _FMCodeWrite ; 0x10004896
    CodeUpdate
        0x100048f0:    b430        0.      PUSH     {r4,r5}
        0x100048f2:    4c68        hL      LDR      r4,[pc,#416] ; [0x10004a94] = 0x4a7b
        0x100048f4:    46a4        .F      MOV      r12,r4
        0x100048f6:    bc30        0.      POP      {r4,r5}
        0x100048f8:    4760        `G      BX       r12
    FlashDataUpdate
        0x100048fa:    b5f3        ..      PUSH     {r0,r1,r4-r7,lr}
        0x100048fc:    485e        ^H      LDR      r0,[pc,#376] ; [0x10004a78] = 0x20003118
        0x100048fe:    b089        ..      SUB      sp,sp,#0x24
        0x10004900:    6880        .h      LDR      r0,[r0,#8]
        0x10004902:    2400        .$      MOVS     r4,#0
        0x10004904:    3028        (0      ADDS     r0,r0,#0x28
        0x10004906:    f000fd15    ....    BL       __aeabi_uread4 ; 0x10005334
        0x1000490a:    4607        .F      MOV      r7,r0
        0x1000490c:    9809        ..      LDR      r0,[sp,#0x24]
        0x1000490e:    0946        F.      LSRS     r6,r0,#5
        0x10004910:    2500        .%      MOVS     r5,#0
        0x10004912:    e011        ..      B        0x10004938 ; FlashDataUpdate + 62
        0x10004914:    b672        r.      CPSID    i
        0x10004916:    0168        h.      LSLS     r0,r5,#5
        0x10004918:    4b5c        \K      LDR      r3,[pc,#368] ; [0x10004a8c] = 0x5443
        0x1000491a:    19c0        ..      ADDS     r0,r0,r7
        0x1000491c:    2120         !      MOVS     r1,#0x20
        0x1000491e:    466a        jF      MOV      r2,sp
        0x10004920:    3bea        .;      SUBS     r3,r3,#0xea
        0x10004922:    4798        .G      BLX      r3
        0x10004924:    b662        b.      CPSIE    i
        0x10004926:    2000        .       MOVS     r0,#0
        0x10004928:    4669        iF      MOV      r1,sp
        0x1000492a:    5c0a        .\      LDRB     r2,[r1,r0]
        0x1000492c:    1c40        @.      ADDS     r0,r0,#1
        0x1000492e:    1912        ..      ADDS     r2,r2,r4
        0x10004930:    b294        ..      UXTH     r4,r2
        0x10004932:    2820         (      CMP      r0,#0x20
        0x10004934:    d3f9        ..      BCC      0x1000492a ; FlashDataUpdate + 48
        0x10004936:    1c6d        m.      ADDS     r5,r5,#1
        0x10004938:    42b5        .B      CMP      r5,r6
        0x1000493a:    d3eb        ..      BCC      0x10004914 ; FlashDataUpdate + 26
        0x1000493c:    9809        ..      LDR      r0,[sp,#0x24]
        0x1000493e:    06c6        ..      LSLS     r6,r0,#27
        0x10004940:    0ef6        ..      LSRS     r6,r6,#27
        0x10004942:    b672        r.      CPSID    i
        0x10004944:    4631        1F      MOV      r1,r6
        0x10004946:    0168        h.      LSLS     r0,r5,#5
        0x10004948:    4b50        PK      LDR      r3,[pc,#320] ; [0x10004a8c] = 0x5443
        0x1000494a:    19c0        ..      ADDS     r0,r0,r7
        0x1000494c:    466a        jF      MOV      r2,sp
        0x1000494e:    3bea        .;      SUBS     r3,r3,#0xea
        0x10004950:    4798        .G      BLX      r3
        0x10004952:    b662        b.      CPSIE    i
        0x10004954:    2000        .       MOVS     r0,#0
        0x10004956:    4669        iF      MOV      r1,sp
        0x10004958:    e003        ..      B        0x10004962 ; FlashDataUpdate + 104
        0x1000495a:    5c0a        .\      LDRB     r2,[r1,r0]
        0x1000495c:    1912        ..      ADDS     r2,r2,r4
        0x1000495e:    b294        ..      UXTH     r4,r2
        0x10004960:    1c40        @.      ADDS     r0,r0,#1
        0x10004962:    42b0        .B      CMP      r0,r6
        0x10004964:    d3f9        ..      BCC      0x1000495a ; FlashDataUpdate + 96
        0x10004966:    980a        ..      LDR      r0,[sp,#0x28]
        0x10004968:    4284        .B      CMP      r4,r0
        0x1000496a:    d102        ..      BNE      0x10004972 ; FlashDataUpdate + 120
        0x1000496c:    2001        .       MOVS     r0,#1
        0x1000496e:    b00b        ..      ADD      sp,sp,#0x2c
        0x10004970:    bdf0        ..      POP      {r4-r7,pc}
        0x10004972:    2000        .       MOVS     r0,#0
        0x10004974:    e7fb        ..      B        0x1000496e ; FlashDataUpdate + 116
    ble_sched_execute
        0x10004976:    b5f8        ..      PUSH     {r3-r7,lr}
        0x10004978:    4841        AH      LDR      r0,[pc,#260] ; [0x10004a80] = 0x46e5
        0x1000497a:    388a        .8      SUBS     r0,r0,#0x8a
        0x1000497c:    4780        .G      BLX      r0
        0x1000497e:    4c44        DL      LDR      r4,[pc,#272] ; [0x10004a90] = 0x20003628
        0x10004980:    3457        W4      ADDS     r4,r4,#0x57
        0x10004982:    7a60        `z      LDRB     r0,[r4,#9]
        0x10004984:    2800        .(      CMP      r0,#0
        0x10004986:    d040        @.      BEQ      0x10004a0a ; ble_sched_execute + 148
        0x10004988:    0600        ..      LSLS     r0,r0,#24
        0x1000498a:    2504        .%      MOVS     r5,#4
        0x1000498c:    2800        .(      CMP      r0,#0
        0x1000498e:    da0f        ..      BGE      0x100049b0 ; ble_sched_execute + 58
        0x10004990:    7860        `x      LDRB     r0,[r4,#1]
        0x10004992:    7821        !x      LDRB     r1,[r4,#0]
        0x10004994:    0200        ..      LSLS     r0,r0,#8
        0x10004996:    4308        .C      ORRS     r0,r0,r1
        0x10004998:    0740        @.      LSLS     r0,r0,#29
        0x1000499a:    d509        ..      BPL      0x100049b0 ; ble_sched_execute + 58
        0x1000499c:    f7fefdd3    ....    BL       smart_latency_start ; 0x10003546
        0x100049a0:    7860        `x      LDRB     r0,[r4,#1]
        0x100049a2:    7821        !x      LDRB     r1,[r4,#0]
        0x100049a4:    0200        ..      LSLS     r0,r0,#8
        0x100049a6:    4308        .C      ORRS     r0,r0,r1
        0x100049a8:    43a8        .C      BICS     r0,r0,r5
        0x100049aa:    7020         p      STRB     r0,[r4,#0]
        0x100049ac:    0a00        ..      LSRS     r0,r0,#8
        0x100049ae:    7060        `p      STRB     r0,[r4,#1]
        0x100049b0:    7860        `x      LDRB     r0,[r4,#1]
        0x100049b2:    7821        !x      LDRB     r1,[r4,#0]
        0x100049b4:    0200        ..      LSLS     r0,r0,#8
        0x100049b6:    4308        .C      ORRS     r0,r0,r1
        0x100049b8:    4f37        7O      LDR      r7,[pc,#220] ; [0x10004a98] = 0x8000
        0x100049ba:    4e38        8N      LDR      r6,[pc,#224] ; [0x10004a9c] = 0x3ea1
        0x100049bc:    0641        A.      LSLS     r1,r0,#25
        0x100049be:    d50c        ..      BPL      0x100049da ; ble_sched_execute + 100
        0x100049c0:    2140        @!      MOVS     r1,#0x40
        0x100049c2:    4388        .C      BICS     r0,r0,r1
        0x100049c4:    7020         p      STRB     r0,[r4,#0]
        0x100049c6:    0a00        ..      LSRS     r0,r0,#8
        0x100049c8:    7060        `p      STRB     r0,[r4,#1]
        0x100049ca:    2002        .       MOVS     r0,#2
        0x100049cc:    4669        iF      MOV      r1,sp
        0x100049ce:    8008        ..      STRH     r0,[r1,#0]
        0x100049d0:    4602        .F      MOV      r2,r0
        0x100049d2:    466b        kF      MOV      r3,sp
        0x100049d4:    4639        9F      MOV      r1,r7
        0x100049d6:    2000        .       MOVS     r0,#0
        0x100049d8:    47b0        .G      BLX      r6
        0x100049da:    7860        `x      LDRB     r0,[r4,#1]
        0x100049dc:    7821        !x      LDRB     r1,[r4,#0]
        0x100049de:    0200        ..      LSLS     r0,r0,#8
        0x100049e0:    4308        .C      ORRS     r0,r0,r1
        0x100049e2:    07c1        ..      LSLS     r1,r0,#31
        0x100049e4:    d011        ..      BEQ      0x10004a0a ; ble_sched_execute + 148
        0x100049e6:    0840        @.      LSRS     r0,r0,#1
        0x100049e8:    0040        @.      LSLS     r0,r0,#1
        0x100049ea:    7020         p      STRB     r0,[r4,#0]
        0x100049ec:    0a01        ..      LSRS     r1,r0,#8
        0x100049ee:    7061        ap      STRB     r1,[r4,#1]
        0x100049f0:    0780        ..      LSLS     r0,r0,#30
        0x100049f2:    d502        ..      BPL      0x100049fa ; ble_sched_execute + 132
        0x100049f4:    4668        hF      MOV      r0,sp
        0x100049f6:    8005        ..      STRH     r5,[r0,#0]
        0x100049f8:    e002        ..      B        0x10004a00 ; ble_sched_execute + 138
        0x100049fa:    2005        .       MOVS     r0,#5
        0x100049fc:    4669        iF      MOV      r1,sp
        0x100049fe:    8008        ..      STRH     r0,[r1,#0]
        0x10004a00:    2202        ."      MOVS     r2,#2
        0x10004a02:    466b        kF      MOV      r3,sp
        0x10004a04:    4639        9F      MOV      r1,r7
        0x10004a06:    2000        .       MOVS     r0,#0
        0x10004a08:    47b0        .G      BLX      r6
        0x10004a0a:    e433        3.      B        0x10004274 ; _GAPStartAdv + 618
    ble_sched_finish
        0x10004a0c:    4824        $H      LDR      r0,[pc,#144] ; [0x10004aa0] = 0x4bf9
        0x10004a0e:    4700        .G      BX       r0
    syd52832_chip_confirm
        0x10004a10:    b538        8.      PUSH     {r3-r5,lr}
        0x10004a12:    4c19        .L      LDR      r4,[pc,#100] ; [0x10004a78] = 0x20003118
        0x10004a14:    7820         x      LDRB     r0,[r4,#0]
        0x10004a16:    2800        .(      CMP      r0,#0
        0x10004a18:    d105        ..      BNE      0x10004a26 ; syd52832_chip_confirm + 22
        0x10004a1a:    491a        .I      LDR      r1,[pc,#104] ; [0x10004a84] = 0x65cb
        0x10004a1c:    4668        hF      MOV      r0,sp
        0x10004a1e:    397e        ~9      SUBS     r1,r1,#0x7e
        0x10004a20:    4788        .G      BLX      r1
        0x10004a22:    2001        .       MOVS     r0,#1
        0x10004a24:    7020         p      STRB     r0,[r4,#0]
        0x10004a26:    2001        .       MOVS     r0,#1
        0x10004a28:    bd38        8.      POP      {r3-r5,pc}
    gap_s_smart_update_latency
        0x10004a2a:    b570        p.      PUSH     {r4-r6,lr}
        0x10004a2c:    7802        .x      LDRB     r2,[r0,#0]
        0x10004a2e:    2a00        .*      CMP      r2,#0
        0x10004a30:    d062        b.      BEQ      0x10004af8 ; gap_s_smart_update_latency + 206
        0x10004a32:    4917        .I      LDR      r1,[pc,#92] ; [0x10004a90] = 0x20003628
        0x10004a34:    3157        W1      ADDS     r1,r1,#0x57
        0x10004a36:    724a        Jr      STRB     r2,[r1,#9]
        0x10004a38:    7842        Bx      LDRB     r2,[r0,#1]
        0x10004a3a:    728a        .r      STRB     r2,[r1,#0xa]
        0x10004a3c:    2a00        .*      CMP      r2,#0
        0x10004a3e:    d001        ..      BEQ      0x10004a44 ; gap_s_smart_update_latency + 26
        0x10004a40:    2a04        .*      CMP      r2,#4
        0x10004a42:    d901        ..      BLS      0x10004a48 ; gap_s_smart_update_latency + 30
        0x10004a44:    2204        ."      MOVS     r2,#4
        0x10004a46:    728a        .r      STRB     r2,[r1,#0xa]
        0x10004a48:    78c2        .x      LDRB     r2,[r0,#3]
        0x10004a4a:    7884        .x      LDRB     r4,[r0,#2]
        0x10004a4c:    0213        ..      LSLS     r3,r2,#8
        0x10004a4e:    4a10        .J      LDR      r2,[pc,#64] ; [0x10004a90] = 0x20003628
        0x10004a50:    4323        #C      ORRS     r3,r3,r4
        0x10004a52:    3257        W2      ADDS     r2,r2,#0x57
        0x10004a54:    72d3        .r      STRB     r3,[r2,#0xb]
        0x10004a56:    0a1c        ..      LSRS     r4,r3,#8
        0x10004a58:    7314        .s      STRB     r4,[r2,#0xc]
        0x10004a5a:    7944        Dy      LDRB     r4,[r0,#5]
        0x10004a5c:    7905        .y      LDRB     r5,[r0,#4]
        0x10004a5e:    0224        $.      LSLS     r4,r4,#8
        0x10004a60:    432c        ,C      ORRS     r4,r4,r5
        0x10004a62:    4615        .F      MOV      r5,r2
        0x10004a64:    736c        ls      STRB     r4,[r5,#0xd]
        0x10004a66:    0a24        $.      LSRS     r4,r4,#8
        0x10004a68:    73ac        .s      STRB     r4,[r5,#0xe]
        0x10004a6a:    79c4        .y      LDRB     r4,[r0,#7]
        0x10004a6c:    7985        .y      LDRB     r5,[r0,#6]
        0x10004a6e:    0220         .      LSLS     r0,r4,#8
        0x10004a70:    4328        (C      ORRS     r0,r0,r5
        0x10004a72:    73d0        .s      STRB     r0,[r2,#0xf]
        0x10004a74:    0a00        ..      LSRS     r0,r0,#8
        0x10004a76:    e015        ..      B        0x10004aa4 ; gap_s_smart_update_latency + 122
    $d
        0x10004a78:    20003118    .1.     DCD    536883480
        0x10004a7c:    00006245    Eb..    DCD    25157
        0x10004a80:    000046e5    .F..    DCD    18149
        0x10004a84:    000065cb    .e..    DCD    26059
        0x10004a88:    00004803    .H..    DCD    18435
        0x10004a8c:    00005443    CT..    DCD    21571
        0x10004a90:    20003628    (6.     DCD    536884776
        0x10004a94:    00004a7b    {J..    DCD    19067
        0x10004a98:    00008000    ....    DCD    32768
        0x10004a9c:    00003ea1    .>..    DCD    16033
        0x10004aa0:    00004bf9    .K..    DCD    19449
    $t
        0x10004aa4:    7410        .t      STRB     r0,[r2,#0x10]
        0x10004aa6:    48fa        .H      LDR      r0,[pc,#1000] ; [0x10004e90] = 0x20003118
        0x10004aa8:    2508        .%      MOVS     r5,#8
        0x10004aaa:    68c0        .h      LDR      r0,[r0,#0xc]
        0x10004aac:    1cd2        ..      ADDS     r2,r2,#3
        0x10004aae:    3021        !0      ADDS     r0,r0,#0x21
        0x10004ab0:    7c44        D|      LDRB     r4,[r0,#0x11]
        0x10004ab2:    7c00        .|      LDRB     r0,[r0,#0x10]
        0x10004ab4:    0224        $.      LSLS     r4,r4,#8
        0x10004ab6:    4304        .C      ORRS     r4,r4,r0
        0x10004ab8:    2001        .       MOVS     r0,#1
        0x10004aba:    42a3        .B      CMP      r3,r4
        0x10004abc:    7088        .p      STRB     r0,[r1,#2]
        0x10004abe:    d908        ..      BLS      0x10004ad2 ; gap_s_smart_update_latency + 168
        0x10004ac0:    1b1b        ..      SUBS     r3,r3,r4
        0x10004ac2:    e007        ..      B        0x10004ad4 ; gap_s_smart_update_latency + 170
        0x10004ac4:    7110        .q      STRB     r0,[r2,#4]
        0x10004ac6:    0a00        ..      LSRS     r0,r0,#8
        0x10004ac8:    e001        ..      B        0x10004ace ; gap_s_smart_update_latency + 164
        0x10004aca:    7115        .q      STRB     r5,[r2,#4]
        0x10004acc:    0a28        (.      LSRS     r0,r5,#8
        0x10004ace:    7150        Pq      STRB     r0,[r2,#5]
        0x10004ad0:    e007        ..      B        0x10004ae2 ; gap_s_smart_update_latency + 184
        0x10004ad2:    1ae3        ..      SUBS     r3,r4,r3
        0x10004ad4:    7a8c        .z      LDRB     r4,[r1,#0xa]
        0x10004ad6:    42a3        .B      CMP      r3,r4
        0x10004ad8:    da0a        ..      BGE      0x10004af0 ; gap_s_smart_update_latency + 198
        0x10004ada:    7110        .q      STRB     r0,[r2,#4]
        0x10004adc:    0a00        ..      LSRS     r0,r0,#8
        0x10004ade:    7150        Pq      STRB     r0,[r2,#5]
        0x10004ae0:    728b        .r      STRB     r3,[r1,#0xa]
        0x10004ae2:    7a88        .z      LDRB     r0,[r1,#0xa]
        0x10004ae4:    70c8        .p      STRB     r0,[r1,#3]
        0x10004ae6:    7108        .q      STRB     r0,[r1,#4]
        0x10004ae8:    f7fff861    ..a.    BL       smart_update_retry ; 0x10003bae
        0x10004aec:    2001        .       MOVS     r0,#1
        0x10004aee:    bd70        p.      POP      {r4-r6,pc}
        0x10004af0:    00e4        ..      LSLS     r4,r4,#3
        0x10004af2:    42a3        .B      CMP      r3,r4
        0x10004af4:    dae9        ..      BGE      0x10004aca ; gap_s_smart_update_latency + 160
        0x10004af6:    e7e5        ..      B        0x10004ac4 ; gap_s_smart_update_latency + 154
        0x10004af8:    2000        .       MOVS     r0,#0
        0x10004afa:    bd70        p.      POP      {r4-r6,pc}
    eFuseManual
        0x10004afc:    49e4        .I      LDR      r1,[pc,#912] ; [0x10004e90] = 0x20003118
        0x10004afe:    6a49        Ij      LDR      r1,[r1,#0x24]
        0x10004b00:    7008        .p      STRB     r0,[r1,#0]
        0x10004b02:    0a02        ..      LSRS     r2,r0,#8
        0x10004b04:    704a        Jp      STRB     r2,[r1,#1]
        0x10004b06:    0c02        ..      LSRS     r2,r0,#16
        0x10004b08:    708a        .p      STRB     r2,[r1,#2]
        0x10004b0a:    0e00        ..      LSRS     r0,r0,#24
        0x10004b0c:    70c8        .p      STRB     r0,[r1,#3]
        0x10004b0e:    7a48        Hz      LDRB     r0,[r1,#9]
        0x10004b10:    2202        ."      MOVS     r2,#2
        0x10004b12:    4310        .C      ORRS     r0,r0,r2
        0x10004b14:    7248        Hr      STRB     r0,[r1,#9]
        0x10004b16:    4770        pG      BX       lr
    GPADC_Manual_Calibration
        0x10004b18:    b538        8.      PUSH     {r3-r5,lr}
        0x10004b1a:    4604        .F      MOV      r4,r0
        0x10004b1c:    2000        .       MOVS     r0,#0
        0x10004b1e:    9000        ..      STR      r0,[sp,#0]
        0x10004b20:    49dc        .I      LDR      r1,[pc,#880] ; [0x10004e94] = 0x654d
        0x10004b22:    4668        hF      MOV      r0,sp
        0x10004b24:    4788        .G      BLX      r1
        0x10004b26:    9900        ..      LDR      r1,[sp,#0]
        0x10004b28:    20f8        .       MOVS     r0,#0xf8
        0x10004b2a:    4381        .C      BICS     r1,r1,r0
        0x10004b2c:    06e0        ..      LSLS     r0,r4,#27
        0x10004b2e:    0e00        ..      LSRS     r0,r0,#24
        0x10004b30:    4308        .C      ORRS     r0,r0,r1
        0x10004b32:    9000        ..      STR      r0,[sp,#0]
        0x10004b34:    f7ffffe2    ....    BL       eFuseManual ; 0x10004afc
        0x10004b38:    bd38        8.      POP      {r3-r5,pc}
    GPADC_Get_Calibration
        0x10004b3a:    b508        ..      PUSH     {r3,lr}
        0x10004b3c:    2000        .       MOVS     r0,#0
        0x10004b3e:    9000        ..      STR      r0,[sp,#0]
        0x10004b40:    49d4        .I      LDR      r1,[pc,#848] ; [0x10004e94] = 0x654d
        0x10004b42:    4668        hF      MOV      r0,sp
        0x10004b44:    4788        .G      BLX      r1
        0x10004b46:    9800        ..      LDR      r0,[sp,#0]
        0x10004b48:    0600        ..      LSLS     r0,r0,#24
        0x10004b4a:    0ec0        ..      LSRS     r0,r0,#27
        0x10004b4c:    9000        ..      STR      r0,[sp,#0]
        0x10004b4e:    bd08        ..      POP      {r3,pc}
    GAPGetUartEn
        0x10004b50:    48d0        .H      LDR      r0,[pc,#832] ; [0x10004e94] = 0x654d
        0x10004b52:    3072        r0      ADDS     r0,r0,#0x72
        0x10004b54:    4700        .G      BX       r0
    GAPUartEn
        0x10004b56:    49cf        .I      LDR      r1,[pc,#828] ; [0x10004e94] = 0x654d
        0x10004b58:    315a        Z1      ADDS     r1,r1,#0x5a
        0x10004b5a:    4708        .G      BX       r1
    GAPBBDelayUS
        0x10004b5c:    49ce        .I      LDR      r1,[pc,#824] ; [0x10004e98] = 0x622b
        0x10004b5e:    4708        .G      BX       r1
    GAPBBDelayMS
        0x10004b60:    49cd        .I      LDR      r1,[pc,#820] ; [0x10004e98] = 0x622b
        0x10004b62:    311a        .1      ADDS     r1,r1,#0x1a
        0x10004b64:    4708        .G      BX       r1
    GAPGetRFAutoSleep
        0x10004b66:    48cd        .H      LDR      r0,[pc,#820] ; [0x10004e9c] = 0x6a77
        0x10004b68:    4700        .G      BX       r0
    GAPSetRFAutoSleep
        0x10004b6a:    49cc        .I      LDR      r1,[pc,#816] ; [0x10004e9c] = 0x6a77
        0x10004b6c:    310c        .1      ADDS     r1,r1,#0xc
        0x10004b6e:    4708        .G      BX       r1
    Setting4kUpdate
        0x10004b70:    b5f8        ..      PUSH     {r3-r7,lr}
        0x10004b72:    2600        .&      MOVS     r6,#0
        0x10004b74:    460b        .F      MOV      r3,r1
        0x10004b76:    4604        .F      MOV      r4,r0
        0x10004b78:    2501        .%      MOVS     r5,#1
        0x10004b7a:    4630        0F      MOV      r0,r6
        0x10004b7c:    4631        1F      MOV      r1,r6
        0x10004b7e:    032d        -.      LSLS     r5,r5,#12
        0x10004b80:    5c67        g\      LDRB     r7,[r4,r1]
        0x10004b82:    1c49        I.      ADDS     r1,r1,#1
        0x10004b84:    19be        ..      ADDS     r6,r7,r6
        0x10004b86:    42a9        .B      CMP      r1,r5
        0x10004b88:    d3fa        ..      BCC      0x10004b80 ; Setting4kUpdate + 16
        0x10004b8a:    2100        .!      MOVS     r1,#0
        0x10004b8c:    5c67        g\      LDRB     r7,[r4,r1]
        0x10004b8e:    1c49        I.      ADDS     r1,r1,#1
        0x10004b90:    4078        x@      EORS     r0,r0,r7
        0x10004b92:    42a9        .B      CMP      r1,r5
        0x10004b94:    d3fa        ..      BCC      0x10004b8c ; Setting4kUpdate + 28
        0x10004b96:    429e        .B      CMP      r6,r3
        0x10004b98:    d121        !.      BNE      0x10004bde ; Setting4kUpdate + 110
        0x10004b9a:    4290        .B      CMP      r0,r2
        0x10004b9c:    d11f        ..      BNE      0x10004bde ; Setting4kUpdate + 110
        0x10004b9e:    4ebc        .N      LDR      r6,[pc,#752] ; [0x10004e90] = 0x20003118
        0x10004ba0:    68b0        .h      LDR      r0,[r6,#8]
        0x10004ba2:    300a        .0      ADDS     r0,r0,#0xa
        0x10004ba4:    f000fbc6    ....    BL       __aeabi_uread4 ; 0x10005334
        0x10004ba8:    1900        ..      ADDS     r0,r0,r4
        0x10004baa:    2257        W"      MOVS     r2,#0x57
        0x10004bac:    49bc        .I      LDR      r1,[pc,#752] ; [0x10004ea0] = 0x20003628
        0x10004bae:    f000fb87    ....    BL       __aeabi_memcpy ; 0x100052c0
        0x10004bb2:    68b0        .h      LDR      r0,[r6,#8]
        0x10004bb4:    301c        .0      ADDS     r0,r0,#0x1c
        0x10004bb6:    f000fbbd    ....    BL       __aeabi_uread4 ; 0x10005334
        0x10004bba:    68f1        .h      LDR      r1,[r6,#0xc]
        0x10004bbc:    1900        ..      ADDS     r0,r0,r4
        0x10004bbe:    2207        ."      MOVS     r2,#7
        0x10004bc0:    310a        .1      ADDS     r1,r1,#0xa
        0x10004bc2:    f000fb7d    ..}.    BL       __aeabi_memcpy ; 0x100052c0
        0x10004bc6:    2101        .!      MOVS     r1,#1
        0x10004bc8:    4ab6        .J      LDR      r2,[pc,#728] ; [0x10004ea4] = 0x5443
        0x10004bca:    2000        .       MOVS     r0,#0
        0x10004bcc:    4790        .G      BLX      r2
        0x10004bce:    4bb5        .K      LDR      r3,[pc,#724] ; [0x10004ea4] = 0x5443
        0x10004bd0:    2000        .       MOVS     r0,#0
        0x10004bd2:    4622        "F      MOV      r2,r4
        0x10004bd4:    4629        )F      MOV      r1,r5
        0x10004bd6:    3b82        .;      SUBS     r3,r3,#0x82
        0x10004bd8:    4798        .G      BLX      r3
        0x10004bda:    2001        .       MOVS     r0,#1
        0x10004bdc:    e429        ).      B        0x10004432 ; ATTCReadByTypeReq + 34
        0x10004bde:    2000        .       MOVS     r0,#0
        0x10004be0:    e427        '.      B        0x10004432 ; ATTCReadByTypeReq + 34
    SetDevAddr_toflash
        0x10004be2:    b570        p.      PUSH     {r4-r6,lr}
        0x10004be4:    2601        .&      MOVS     r6,#1
        0x10004be6:    4605        .F      MOV      r5,r0
        0x10004be8:    4ca9        .L      LDR      r4,[pc,#676] ; [0x10004e90] = 0x20003118
        0x10004bea:    0336        6.      LSLS     r6,r6,#12
        0x10004bec:    4bad        .K      LDR      r3,[pc,#692] ; [0x10004ea4] = 0x5443
        0x10004bee:    2000        .       MOVS     r0,#0
        0x10004bf0:    4631        1F      MOV      r1,r6
        0x10004bf2:    3bea        .;      SUBS     r3,r3,#0xea
        0x10004bf4:    69a2        .i      LDR      r2,[r4,#0x18]
        0x10004bf6:    4798        .G      BLX      r3
        0x10004bf8:    49ab        .I      LDR      r1,[pc,#684] ; [0x10004ea8] = 0x3da1
        0x10004bfa:    4628        (F      MOV      r0,r5
        0x10004bfc:    4788        .G      BLX      r1
        0x10004bfe:    68a0        .h      LDR      r0,[r4,#8]
        0x10004c00:    301c        .0      ADDS     r0,r0,#0x1c
        0x10004c02:    f000fb97    ....    BL       __aeabi_uread4 ; 0x10005334
        0x10004c06:    69a1        .i      LDR      r1,[r4,#0x18]
        0x10004c08:    2207        ."      MOVS     r2,#7
        0x10004c0a:    1840        @.      ADDS     r0,r0,r1
        0x10004c0c:    68e1        .h      LDR      r1,[r4,#0xc]
        0x10004c0e:    310a        .1      ADDS     r1,r1,#0xa
        0x10004c10:    f000fb56    ..V.    BL       __aeabi_memcpy ; 0x100052c0
        0x10004c14:    2101        .!      MOVS     r1,#1
        0x10004c16:    4aa3        .J      LDR      r2,[pc,#652] ; [0x10004ea4] = 0x5443
        0x10004c18:    2000        .       MOVS     r0,#0
        0x10004c1a:    4790        .G      BLX      r2
        0x10004c1c:    4ba1        .K      LDR      r3,[pc,#644] ; [0x10004ea4] = 0x5443
        0x10004c1e:    2000        .       MOVS     r0,#0
        0x10004c20:    4631        1F      MOV      r1,r6
        0x10004c22:    3b82        .;      SUBS     r3,r3,#0x82
        0x10004c24:    69a2        .i      LDR      r2,[r4,#0x18]
        0x10004c26:    4798        .G      BLX      r3
        0x10004c28:    bd70        p.      POP      {r4-r6,pc}
    gap_s_verdor_datas_get
        0x10004c2a:    b510        ..      PUSH     {r4,lr}
        0x10004c2c:    4604        .F      MOV      r4,r0
        0x10004c2e:    4898        .H      LDR      r0,[pc,#608] ; [0x10004e90] = 0x20003118
        0x10004c30:    6880        .h      LDR      r0,[r0,#8]
        0x10004c32:    300a        .0      ADDS     r0,r0,#0xa
        0x10004c34:    f000fb7e    ..~.    BL       __aeabi_uread4 ; 0x10005334
        0x10004c38:    4b9a        .K      LDR      r3,[pc,#616] ; [0x10004ea4] = 0x5443
        0x10004c3a:    2110        .!      MOVS     r1,#0x10
        0x10004c3c:    3bea        .;      SUBS     r3,r3,#0xea
        0x10004c3e:    4622        "F      MOV      r2,r4
        0x10004c40:    3057        W0      ADDS     r0,r0,#0x57
        0x10004c42:    4798        .G      BLX      r3
        0x10004c44:    e4f6        ..      B        0x10004634 ; SystemSleep + 18
    gap_s_verdor_datas_set
        0x10004c46:    b570        p.      PUSH     {r4-r6,lr}
        0x10004c48:    2601        .&      MOVS     r6,#1
        0x10004c4a:    4605        .F      MOV      r5,r0
        0x10004c4c:    4c90        .L      LDR      r4,[pc,#576] ; [0x10004e90] = 0x20003118
        0x10004c4e:    0336        6.      LSLS     r6,r6,#12
        0x10004c50:    4b94        .K      LDR      r3,[pc,#592] ; [0x10004ea4] = 0x5443
        0x10004c52:    2000        .       MOVS     r0,#0
        0x10004c54:    4631        1F      MOV      r1,r6
        0x10004c56:    3bea        .;      SUBS     r3,r3,#0xea
        0x10004c58:    69a2        .i      LDR      r2,[r4,#0x18]
        0x10004c5a:    4798        .G      BLX      r3
        0x10004c5c:    2101        .!      MOVS     r1,#1
        0x10004c5e:    4a91        .J      LDR      r2,[pc,#580] ; [0x10004ea4] = 0x5443
        0x10004c60:    2000        .       MOVS     r0,#0
        0x10004c62:    4790        .G      BLX      r2
        0x10004c64:    68a0        .h      LDR      r0,[r4,#8]
        0x10004c66:    300a        .0      ADDS     r0,r0,#0xa
        0x10004c68:    f000fb64    ..d.    BL       __aeabi_uread4 ; 0x10005334
        0x10004c6c:    69a1        .i      LDR      r1,[r4,#0x18]
        0x10004c6e:    2210        ."      MOVS     r2,#0x10
        0x10004c70:    3157        W1      ADDS     r1,r1,#0x57
        0x10004c72:    1840        @.      ADDS     r0,r0,r1
        0x10004c74:    4629        )F      MOV      r1,r5
        0x10004c76:    f000fb23    ..#.    BL       __aeabi_memcpy ; 0x100052c0
        0x10004c7a:    4b8a        .K      LDR      r3,[pc,#552] ; [0x10004ea4] = 0x5443
        0x10004c7c:    2000        .       MOVS     r0,#0
        0x10004c7e:    4631        1F      MOV      r1,r6
        0x10004c80:    3b82        .;      SUBS     r3,r3,#0x82
        0x10004c82:    69a2        .i      LDR      r2,[r4,#0x18]
        0x10004c84:    4798        .G      BLX      r3
        0x10004c86:    bd70        p.      POP      {r4-r6,pc}
    gap_s_is_ll_start_enc
        0x10004c88:    4881        .H      LDR      r0,[pc,#516] ; [0x10004e90] = 0x20003118
        0x10004c8a:    6940        @i      LDR      r0,[r0,#0x14]
        0x10004c8c:    7801        .x      LDRB     r1,[r0,#0]
        0x10004c8e:    43c9        .C      MVNS     r1,r1
        0x10004c90:    0789        ..      LSLS     r1,r1,#30
        0x10004c92:    d102        ..      BNE      0x10004c9a ; gap_s_is_ll_start_enc + 18
        0x10004c94:    7880        .x      LDRB     r0,[r0,#2]
        0x10004c96:    2806        .(      CMP      r0,#6
        0x10004c98:    d001        ..      BEQ      0x10004c9e ; gap_s_is_ll_start_enc + 22
        0x10004c9a:    2000        .       MOVS     r0,#0
        0x10004c9c:    4770        pG      BX       lr
        0x10004c9e:    2001        .       MOVS     r0,#1
        0x10004ca0:    4770        pG      BX       lr
    GAPBBTXFIFO0Write
        0x10004ca2:    4a82        .J      LDR      r2,[pc,#520] ; [0x10004eac] = 0x60d9
        0x10004ca4:    4710        .G      BX       r2
    flash_peotect_key_confirm
        0x10004ca6:    b5f3        ..      PUSH     {r0,r1,r4-r7,lr}
        0x10004ca8:    b081        ..      SUB      sp,sp,#4
        0x10004caa:    0006        ..      MOVS     r6,r0
        0x10004cac:    d025        %.      BEQ      0x10004cfa ; flash_peotect_key_confirm + 84
        0x10004cae:    4f78        xO      LDR      r7,[pc,#480] ; [0x10004e90] = 0x20003118
        0x10004cb0:    6a38        8j      LDR      r0,[r7,#0x20]
        0x10004cb2:    4604        .F      MOV      r4,r0
        0x10004cb4:    79c1        .y      LDRB     r1,[r0,#7]
        0x10004cb6:    7980        .y      LDRB     r0,[r0,#6]
        0x10004cb8:    020d        ..      LSLS     r5,r1,#8
        0x10004cba:    4305        .C      ORRS     r5,r5,r0
        0x10004cbc:    1ce0        ..      ADDS     r0,r4,#3
        0x10004cbe:    f000fb39    ..9.    BL       __aeabi_uread4 ; 0x10005334
        0x10004cc2:    0201        ..      LSLS     r1,r0,#8
        0x10004cc4:    78a0        .x      LDRB     r0,[r4,#2]
        0x10004cc6:    4301        .C      ORRS     r1,r1,r0
        0x10004cc8:    460c        .F      MOV      r4,r1
        0x10004cca:    2d00        .-      CMP      r5,#0
        0x10004ccc:    d017        ..      BEQ      0x10004cfe ; flash_peotect_key_confirm + 88
        0x10004cce:    2c00        .,      CMP      r4,#0
        0x10004cd0:    d015        ..      BEQ      0x10004cfe ; flash_peotect_key_confirm + 88
        0x10004cd2:    2101        .!      MOVS     r1,#1
        0x10004cd4:    4b73        sK      LDR      r3,[pc,#460] ; [0x10004ea4] = 0x5443
        0x10004cd6:    0309        ..      LSLS     r1,r1,#12
        0x10004cd8:    2000        .       MOVS     r0,#0
        0x10004cda:    3bea        .;      SUBS     r3,r3,#0xea
        0x10004cdc:    69ba        .i      LDR      r2,[r7,#0x18]
        0x10004cde:    4798        .G      BLX      r3
        0x10004ce0:    68b8        .h      LDR      r0,[r7,#8]
        0x10004ce2:    300a        .0      ADDS     r0,r0,#0xa
        0x10004ce4:    f000fb26    ..&.    BL       __aeabi_uread4 ; 0x10005334
        0x10004ce8:    69b9        .i      LDR      r1,[r7,#0x18]
        0x10004cea:    3167        g1      ADDS     r1,r1,#0x67
        0x10004cec:    5c40        @\      LDRB     r0,[r0,r1]
        0x10004cee:    1c40        @.      ADDS     r0,r0,#1
        0x10004cf0:    b2c7        ..      UXTB     r7,r0
        0x10004cf2:    2f03        ./      CMP      r7,#3
        0x10004cf4:    d905        ..      BLS      0x10004d02 ; flash_peotect_key_confirm + 92
        0x10004cf6:    2002        .       MOVS     r0,#2
        0x10004cf8:    bdfe        ..      POP      {r1-r7,pc}
        0x10004cfa:    2001        .       MOVS     r0,#1
        0x10004cfc:    bdfe        ..      POP      {r1-r7,pc}
        0x10004cfe:    2004        .       MOVS     r0,#4
        0x10004d00:    bdfe        ..      POP      {r1-r7,pc}
        0x10004d02:    42b5        .B      CMP      r5,r6
        0x10004d04:    d104        ..      BNE      0x10004d10 ; flash_peotect_key_confirm + 106
        0x10004d06:    9802        ..      LDR      r0,[sp,#8]
        0x10004d08:    4284        .B      CMP      r4,r0
        0x10004d0a:    d101        ..      BNE      0x10004d10 ; flash_peotect_key_confirm + 106
        0x10004d0c:    2000        .       MOVS     r0,#0
        0x10004d0e:    bdfe        ..      POP      {r1-r7,pc}
        0x10004d10:    2101        .!      MOVS     r1,#1
        0x10004d12:    4a64        dJ      LDR      r2,[pc,#400] ; [0x10004ea4] = 0x5443
        0x10004d14:    2000        .       MOVS     r0,#0
        0x10004d16:    4790        .G      BLX      r2
        0x10004d18:    4c5d        ]L      LDR      r4,[pc,#372] ; [0x10004e90] = 0x20003118
        0x10004d1a:    68a0        .h      LDR      r0,[r4,#8]
        0x10004d1c:    300a        .0      ADDS     r0,r0,#0xa
        0x10004d1e:    f000fb09    ....    BL       __aeabi_uread4 ; 0x10005334
        0x10004d22:    69a2        .i      LDR      r2,[r4,#0x18]
        0x10004d24:    4b5f        _K      LDR      r3,[pc,#380] ; [0x10004ea4] = 0x5443
        0x10004d26:    4611        .F      MOV      r1,r2
        0x10004d28:    3167        g1      ADDS     r1,r1,#0x67
        0x10004d2a:    5447        GT      STRB     r7,[r0,r1]
        0x10004d2c:    2101        .!      MOVS     r1,#1
        0x10004d2e:    0309        ..      LSLS     r1,r1,#12
        0x10004d30:    2000        .       MOVS     r0,#0
        0x10004d32:    3b82        .;      SUBS     r3,r3,#0x82
        0x10004d34:    4798        .G      BLX      r3
        0x10004d36:    2003        .       MOVS     r0,#3
        0x10004d38:    bdfe        ..      POP      {r1-r7,pc}
    flash_data_offect_get
        0x10004d3a:    4859        YH      LDR      r0,[pc,#356] ; [0x10004ea0] = 0x20003628
        0x10004d3c:    2101        .!      MOVS     r1,#1
        0x10004d3e:    7802        .x      LDRB     r2,[r0,#0]
        0x10004d40:    4853        SH      LDR      r0,[pc,#332] ; [0x10004e90] = 0x20003118
        0x10004d42:    0709        ..      LSLS     r1,r1,#28
        0x10004d44:    6880        .h      LDR      r0,[r0,#8]
        0x10004d46:    2a00        .*      CMP      r2,#0
        0x10004d48:    d003        ..      BEQ      0x10004d52 ; flash_data_offect_get + 24
        0x10004d4a:    2a01        .*      CMP      r2,#1
        0x10004d4c:    d007        ..      BEQ      0x10004d5e ; flash_data_offect_get + 36
        0x10004d4e:    2000        .       MOVS     r0,#0
        0x10004d50:    4770        pG      BX       lr
        0x10004d52:    7bc2        .{      LDRB     r2,[r0,#0xf]
        0x10004d54:    7b83        .{      LDRB     r3,[r0,#0xe]
        0x10004d56:    0210        ..      LSLS     r0,r2,#8
        0x10004d58:    4318        .C      ORRS     r0,r0,r3
        0x10004d5a:    0340        @.      LSLS     r0,r0,#13
        0x10004d5c:    e004        ..      B        0x10004d68 ; flash_data_offect_get + 46
        0x10004d5e:    7bc2        .{      LDRB     r2,[r0,#0xf]
        0x10004d60:    7b83        .{      LDRB     r3,[r0,#0xe]
        0x10004d62:    0210        ..      LSLS     r0,r2,#8
        0x10004d64:    4318        .C      ORRS     r0,r0,r3
        0x10004d66:    0300        ..      LSLS     r0,r0,#12
        0x10004d68:    1840        @.      ADDS     r0,r0,r1
        0x10004d6a:    4770        pG      BX       lr
    EraseCodeB
        0x10004d6c:    b570        p.      PUSH     {r4-r6,lr}
        0x10004d6e:    4604        .F      MOV      r4,r0
        0x10004d70:    484b        KH      LDR      r0,[pc,#300] ; [0x10004ea0] = 0x20003628
        0x10004d72:    460d        .F      MOV      r5,r1
        0x10004d74:    7801        .x      LDRB     r1,[r0,#0]
        0x10004d76:    4846        FH      LDR      r0,[pc,#280] ; [0x10004e90] = 0x20003118
        0x10004d78:    2601        .&      MOVS     r6,#1
        0x10004d7a:    03b6        ..      LSLS     r6,r6,#14
        0x10004d7c:    6880        .h      LDR      r0,[r0,#8]
        0x10004d7e:    2900        .)      CMP      r1,#0
        0x10004d80:    d003        ..      BEQ      0x10004d8a ; EraseCodeB + 30
        0x10004d82:    2901        .)      CMP      r1,#1
        0x10004d84:    d003        ..      BEQ      0x10004d8e ; EraseCodeB + 34
        0x10004d86:    2000        .       MOVS     r0,#0
        0x10004d88:    bd70        p.      POP      {r4-r6,pc}
        0x10004d8a:    3014        .0      ADDS     r0,r0,#0x14
        0x10004d8c:    e000        ..      B        0x10004d90 ; EraseCodeB + 36
        0x10004d8e:    3010        .0      ADDS     r0,r0,#0x10
        0x10004d90:    f000fad0    ....    BL       __aeabi_uread4 ; 0x10005334
        0x10004d94:    1980        ..      ADDS     r0,r0,r6
        0x10004d96:    b672        r.      CPSID    i
        0x10004d98:    1900        ..      ADDS     r0,r0,r4
        0x10004d9a:    4a42        BJ      LDR      r2,[pc,#264] ; [0x10004ea4] = 0x5443
        0x10004d9c:    4629        )F      MOV      r1,r5
        0x10004d9e:    4790        .G      BLX      r2
        0x10004da0:    b662        b.      CPSIE    i
        0x10004da2:    bd70        p.      POP      {r4-r6,pc}
    ReadCodeB
        0x10004da4:    b5f8        ..      PUSH     {r3-r7,lr}
        0x10004da6:    4605        .F      MOV      r5,r0
        0x10004da8:    483d        =H      LDR      r0,[pc,#244] ; [0x10004ea0] = 0x20003628
        0x10004daa:    460f        .F      MOV      r7,r1
        0x10004dac:    7801        .x      LDRB     r1,[r0,#0]
        0x10004dae:    4838        8H      LDR      r0,[pc,#224] ; [0x10004e90] = 0x20003118
        0x10004db0:    2401        .$      MOVS     r4,#1
        0x10004db2:    03a4        ..      LSLS     r4,r4,#14
        0x10004db4:    6880        .h      LDR      r0,[r0,#8]
        0x10004db6:    4616        .F      MOV      r6,r2
        0x10004db8:    2900        .)      CMP      r1,#0
        0x10004dba:    d003        ..      BEQ      0x10004dc4 ; ReadCodeB + 32
        0x10004dbc:    2901        .)      CMP      r1,#1
        0x10004dbe:    d003        ..      BEQ      0x10004dc8 ; ReadCodeB + 36
        0x10004dc0:    2000        .       MOVS     r0,#0
        0x10004dc2:    e4c3        ..      B        0x1000474c ; EraseFlashData + 36
        0x10004dc4:    3014        .0      ADDS     r0,r0,#0x14
        0x10004dc6:    e000        ..      B        0x10004dca ; ReadCodeB + 38
        0x10004dc8:    3010        .0      ADDS     r0,r0,#0x10
        0x10004dca:    f000fab3    ....    BL       __aeabi_uread4 ; 0x10005334
        0x10004dce:    1900        ..      ADDS     r0,r0,r4
        0x10004dd0:    b672        r.      CPSID    i
        0x10004dd2:    1940        @.      ADDS     r0,r0,r5
        0x10004dd4:    4b33        3K      LDR      r3,[pc,#204] ; [0x10004ea4] = 0x5443
        0x10004dd6:    4632        2F      MOV      r2,r6
        0x10004dd8:    4639        9F      MOV      r1,r7
        0x10004dda:    3bea        .;      SUBS     r3,r3,#0xea
        0x10004ddc:    4798        .G      BLX      r3
        0x10004dde:    b662        b.      CPSIE    i
        0x10004de0:    e4b4        ..      B        0x1000474c ; EraseFlashData + 36
    WriteCodeB
        0x10004de2:    b5f8        ..      PUSH     {r3-r7,lr}
        0x10004de4:    4605        .F      MOV      r5,r0
        0x10004de6:    482e        .H      LDR      r0,[pc,#184] ; [0x10004ea0] = 0x20003628
        0x10004de8:    460f        .F      MOV      r7,r1
        0x10004dea:    7801        .x      LDRB     r1,[r0,#0]
        0x10004dec:    4828        (H      LDR      r0,[pc,#160] ; [0x10004e90] = 0x20003118
        0x10004dee:    2401        .$      MOVS     r4,#1
        0x10004df0:    03a4        ..      LSLS     r4,r4,#14
        0x10004df2:    6880        .h      LDR      r0,[r0,#8]
        0x10004df4:    4616        .F      MOV      r6,r2
        0x10004df6:    2900        .)      CMP      r1,#0
        0x10004df8:    d003        ..      BEQ      0x10004e02 ; WriteCodeB + 32
        0x10004dfa:    2901        .)      CMP      r1,#1
        0x10004dfc:    d003        ..      BEQ      0x10004e06 ; WriteCodeB + 36
        0x10004dfe:    2000        .       MOVS     r0,#0
        0x10004e00:    e4a4        ..      B        0x1000474c ; EraseFlashData + 36
        0x10004e02:    3014        .0      ADDS     r0,r0,#0x14
        0x10004e04:    e000        ..      B        0x10004e08 ; WriteCodeB + 38
        0x10004e06:    3010        .0      ADDS     r0,r0,#0x10
        0x10004e08:    f000fa94    ....    BL       __aeabi_uread4 ; 0x10005334
        0x10004e0c:    1900        ..      ADDS     r0,r0,r4
        0x10004e0e:    b672        r.      CPSID    i
        0x10004e10:    1940        @.      ADDS     r0,r0,r5
        0x10004e12:    4b24        $K      LDR      r3,[pc,#144] ; [0x10004ea4] = 0x5443
        0x10004e14:    4632        2F      MOV      r2,r6
        0x10004e16:    4639        9F      MOV      r1,r7
        0x10004e18:    3b82        .;      SUBS     r3,r3,#0x82
        0x10004e1a:    4798        .G      BLX      r3
        0x10004e1c:    b662        b.      CPSIE    i
        0x10004e1e:    e495        ..      B        0x1000474c ; EraseFlashData + 36
    ble_SetTxPower
        0x10004e20:    b510        ..      PUSH     {r4,lr}
        0x10004e22:    0003        ..      MOVS     r3,r0
        0x10004e24:    f000fe81    ....    BL       __ARM_common_switch8 ; 0x10005b2a
    $d
        0x10004e28:    160c0609    ....    DCD    369886729
        0x10004e2c:    4e442a20     *DN    DCD    1313090080
        0x10004e30:    00876b51    Qk..    DCD    8874833
    $t
        0x10004e34:    2101        .!      MOVS     r1,#1
        0x10004e36:    207f        .       MOVS     r0,#0x7f
        0x10004e38:    f7fefc3c    ..<.    BL       BBRFWrite ; 0x100036b4
        0x10004e3c:    2188        .!      MOVS     r1,#0x88
        0x10004e3e:    e004        ..      B        0x10004e4a ; ble_SetTxPower + 42
        0x10004e40:    2101        .!      MOVS     r1,#1
        0x10004e42:    207f        .       MOVS     r0,#0x7f
        0x10004e44:    f7fefc36    ..6.    BL       BBRFWrite ; 0x100036b4
        0x10004e48:    218a        .!      MOVS     r1,#0x8a
        0x10004e4a:    2061        a       MOVS     r0,#0x61
        0x10004e4c:    f7fefc32    ..2.    BL       BBRFWrite ; 0x100036b4
        0x10004e50:    2181        .!      MOVS     r1,#0x81
        0x10004e52:    e06d        m.      B        0x10004f30 ; ble_SetTxPower + 272
        0x10004e54:    2101        .!      MOVS     r1,#1
        0x10004e56:    207f        .       MOVS     r0,#0x7f
        0x10004e58:    f7fefc2c    ..,.    BL       BBRFWrite ; 0x100036b4
        0x10004e5c:    218a        .!      MOVS     r1,#0x8a
        0x10004e5e:    2061        a       MOVS     r0,#0x61
        0x10004e60:    f7fefc28    ..(.    BL       BBRFWrite ; 0x100036b4
        0x10004e64:    2183        .!      MOVS     r1,#0x83
        0x10004e66:    e063        c.      B        0x10004f30 ; ble_SetTxPower + 272
        0x10004e68:    2101        .!      MOVS     r1,#1
        0x10004e6a:    207f        .       MOVS     r0,#0x7f
        0x10004e6c:    f7fefc22    ..".    BL       BBRFWrite ; 0x100036b4
        0x10004e70:    218a        .!      MOVS     r1,#0x8a
        0x10004e72:    2061        a       MOVS     r0,#0x61
        0x10004e74:    f7fefc1e    ....    BL       BBRFWrite ; 0x100036b4
        0x10004e78:    2187        .!      MOVS     r1,#0x87
        0x10004e7a:    e059        Y.      B        0x10004f30 ; ble_SetTxPower + 272
        0x10004e7c:    2101        .!      MOVS     r1,#1
        0x10004e7e:    207f        .       MOVS     r0,#0x7f
        0x10004e80:    f7fefc18    ....    BL       BBRFWrite ; 0x100036b4
        0x10004e84:    218a        .!      MOVS     r1,#0x8a
        0x10004e86:    2061        a       MOVS     r0,#0x61
        0x10004e88:    f7fefc14    ....    BL       BBRFWrite ; 0x100036b4
        0x10004e8c:    218f        .!      MOVS     r1,#0x8f
        0x10004e8e:    e04f        O.      B        0x10004f30 ; ble_SetTxPower + 272
    $d
        0x10004e90:    20003118    .1.     DCD    536883480
        0x10004e94:    0000654d    Me..    DCD    25933
        0x10004e98:    0000622b    +b..    DCD    25131
        0x10004e9c:    00006a77    wj..    DCD    27255
        0x10004ea0:    20003628    (6.     DCD    536884776
        0x10004ea4:    00005443    CT..    DCD    21571
        0x10004ea8:    00003da1    .=..    DCD    15777
        0x10004eac:    000060d9    .`..    DCD    24793
    $t
        0x10004eb0:    2101        .!      MOVS     r1,#1
        0x10004eb2:    207f        .       MOVS     r0,#0x7f
        0x10004eb4:    f7fefbfe    ....    BL       BBRFWrite ; 0x100036b4
        0x10004eb8:    218a        .!      MOVS     r1,#0x8a
        0x10004eba:    2061        a       MOVS     r0,#0x61
        0x10004ebc:    f7fefbfa    ....    BL       BBRFWrite ; 0x100036b4
        0x10004ec0:    219f        .!      MOVS     r1,#0x9f
        0x10004ec2:    e035        5.      B        0x10004f30 ; ble_SetTxPower + 272
        0x10004ec4:    2101        .!      MOVS     r1,#1
        0x10004ec6:    207f        .       MOVS     r0,#0x7f
        0x10004ec8:    e02b        +.      B        0x10004f22 ; ble_SetTxPower + 258
        0x10004eca:    2100        .!      MOVS     r1,#0
        0x10004ecc:    207f        .       MOVS     r0,#0x7f
        0x10004ece:    f7fefbf1    ....    BL       BBRFWrite ; 0x100036b4
        0x10004ed2:    2102        .!      MOVS     r1,#2
        0x10004ed4:    2030        0       MOVS     r0,#0x30
        0x10004ed6:    f7fefbed    ....    BL       BBRFWrite ; 0x100036b4
        0x10004eda:    2101        .!      MOVS     r1,#1
        0x10004edc:    207f        .       MOVS     r0,#0x7f
        0x10004ede:    f7fefbe9    ....    BL       BBRFWrite ; 0x100036b4
        0x10004ee2:    211f        .!      MOVS     r1,#0x1f
        0x10004ee4:    2063        c       MOVS     r0,#0x63
        0x10004ee6:    f7fefbe5    ....    BL       BBRFWrite ; 0x100036b4
        0x10004eea:    2103        .!      MOVS     r1,#3
        0x10004eec:    206d        m       MOVS     r0,#0x6d
        0x10004eee:    f7fefbe1    ....    BL       BBRFWrite ; 0x100036b4
        0x10004ef2:    218a        .!      MOVS     r1,#0x8a
        0x10004ef4:    2061        a       MOVS     r0,#0x61
        0x10004ef6:    f7fefbdd    ....    BL       BBRFWrite ; 0x100036b4
        0x10004efa:    21b0        .!      MOVS     r1,#0xb0
        0x10004efc:    e018        ..      B        0x10004f30 ; ble_SetTxPower + 272
        0x10004efe:    2100        .!      MOVS     r1,#0
        0x10004f00:    207f        .       MOVS     r0,#0x7f
        0x10004f02:    f7fefbd7    ....    BL       BBRFWrite ; 0x100036b4
        0x10004f06:    2102        .!      MOVS     r1,#2
        0x10004f08:    2030        0       MOVS     r0,#0x30
        0x10004f0a:    f7fefbd3    ....    BL       BBRFWrite ; 0x100036b4
        0x10004f0e:    2101        .!      MOVS     r1,#1
        0x10004f10:    207f        .       MOVS     r0,#0x7f
        0x10004f12:    f7fefbcf    ....    BL       BBRFWrite ; 0x100036b4
        0x10004f16:    211f        .!      MOVS     r1,#0x1f
        0x10004f18:    2063        c       MOVS     r0,#0x63
        0x10004f1a:    f7fefbcb    ....    BL       BBRFWrite ; 0x100036b4
        0x10004f1e:    2107        .!      MOVS     r1,#7
        0x10004f20:    206d        m       MOVS     r0,#0x6d
        0x10004f22:    f7fefbc7    ....    BL       BBRFWrite ; 0x100036b4
        0x10004f26:    218a        .!      MOVS     r1,#0x8a
        0x10004f28:    2061        a       MOVS     r0,#0x61
        0x10004f2a:    f7fefbc3    ....    BL       BBRFWrite ; 0x100036b4
        0x10004f2e:    21bf        .!      MOVS     r1,#0xbf
        0x10004f30:    2065        e       MOVS     r0,#0x65
        0x10004f32:    f7fefbbf    ....    BL       BBRFWrite ; 0x100036b4
        0x10004f36:    e685        ..      B        0x10004c44 ; gap_s_verdor_datas_get + 26
    flash_data_size_get
        0x10004f38:    b510        ..      PUSH     {r4,lr}
        0x10004f3a:    48c6        .H      LDR      r0,[pc,#792] ; [0x10005254] = 0x20003118
        0x10004f3c:    6880        .h      LDR      r0,[r0,#8]
        0x10004f3e:    3028        (0      ADDS     r0,r0,#0x28
        0x10004f40:    f000f9f8    ....    BL       __aeabi_uread4 ; 0x10005334
        0x10004f44:    2101        .!      MOVS     r1,#1
        0x10004f46:    04c9        ..      LSLS     r1,r1,#19
        0x10004f48:    1a08        ..      SUBS     r0,r1,r0
        0x10004f4a:    e67b        {.      B        0x10004c44 ; gap_s_verdor_datas_get + 26
    code_idx_get
        0x10004f4c:    48c2        .H      LDR      r0,[pc,#776] ; [0x10005258] = 0x20003628
        0x10004f4e:    7800        .x      LDRB     r0,[r0,#0]
        0x10004f50:    4770        pG      BX       lr
    flash_data_size_set
        0x10004f52:    b5f8        ..      PUSH     {r3-r7,lr}
        0x10004f54:    4605        .F      MOV      r5,r0
        0x10004f56:    4ebf        .N      LDR      r6,[pc,#764] ; [0x10005254] = 0x20003118
        0x10004f58:    48bf        .H      LDR      r0,[pc,#764] ; [0x10005258] = 0x20003628
        0x10004f5a:    69b2        .i      LDR      r2,[r6,#0x18]
        0x10004f5c:    7800        .x      LDRB     r0,[r0,#0]
        0x10004f5e:    4614        .F      MOV      r4,r2
        0x10004f60:    2800        .(      CMP      r0,#0
        0x10004f62:    d001        ..      BEQ      0x10004f68 ; flash_data_size_set + 22
        0x10004f64:    2000        .       MOVS     r0,#0
        0x10004f66:    e405        ..      B        0x10004774 ; EraseFlashData + 76
        0x10004f68:    0528        (.      LSLS     r0,r5,#20
        0x10004f6a:    d002        ..      BEQ      0x10004f72 ; flash_data_size_set + 32
        0x10004f6c:    0528        (.      LSLS     r0,r5,#20
        0x10004f6e:    0d00        ..      LSRS     r0,r0,#20
        0x10004f70:    1a2d        -.      SUBS     r5,r5,r0
        0x10004f72:    b672        r.      CPSID    i
        0x10004f74:    2101        .!      MOVS     r1,#1
        0x10004f76:    0309        ..      LSLS     r1,r1,#12
        0x10004f78:    4fb8        .O      LDR      r7,[pc,#736] ; [0x1000525c] = 0x5359
        0x10004f7a:    2000        .       MOVS     r0,#0
        0x10004f7c:    47b8        .G      BLX      r7
        0x10004f7e:    b662        b.      CPSIE    i
        0x10004f80:    2001        .       MOVS     r0,#1
        0x10004f82:    04c0        ..      LSLS     r0,r0,#19
        0x10004f84:    4621        !F      MOV      r1,r4
        0x10004f86:    1b40        @.      SUBS     r0,r0,r5
        0x10004f88:    3128        (1      ADDS     r1,r1,#0x28
        0x10004f8a:    f000f9dd    ....    BL       __aeabi_uwrite4 ; 0x10005348
        0x10004f8e:    4605        .F      MOV      r5,r0
        0x10004f90:    4620         F      MOV      r0,r4
        0x10004f92:    3010        .0      ADDS     r0,r0,#0x10
        0x10004f94:    f000f9ce    ....    BL       __aeabi_uread4 ; 0x10005334
        0x10004f98:    9000        ..      STR      r0,[sp,#0]
        0x10004f9a:    1a28        (.      SUBS     r0,r5,r0
        0x10004f9c:    0841        A.      LSRS     r1,r0,#1
        0x10004f9e:    9800        ..      LDR      r0,[sp,#0]
        0x10004fa0:    1808        ..      ADDS     r0,r1,r0
        0x10004fa2:    4621        !F      MOV      r1,r4
        0x10004fa4:    3114        .1      ADDS     r1,r1,#0x14
        0x10004fa6:    f000f9cf    ....    BL       __aeabi_uwrite4 ; 0x10005348
        0x10004faa:    4601        .F      MOV      r1,r0
        0x10004fac:    9800        ..      LDR      r0,[sp,#0]
        0x10004fae:    1a08        ..      SUBS     r0,r1,r0
        0x10004fb0:    0100        ..      LSLS     r0,r0,#4
        0x10004fb2:    0c00        ..      LSRS     r0,r0,#16
        0x10004fb4:    73a0        .s      STRB     r0,[r4,#0xe]
        0x10004fb6:    0a00        ..      LSRS     r0,r0,#8
        0x10004fb8:    73e0        .s      STRB     r0,[r4,#0xf]
        0x10004fba:    b672        r.      CPSID    i
        0x10004fbc:    2101        .!      MOVS     r1,#1
        0x10004fbe:    4aa7        .J      LDR      r2,[pc,#668] ; [0x1000525c] = 0x5359
        0x10004fc0:    2000        .       MOVS     r0,#0
        0x10004fc2:    32ea        .2      ADDS     r2,r2,#0xea
        0x10004fc4:    4790        .G      BLX      r2
        0x10004fc6:    b662        b.      CPSIE    i
        0x10004fc8:    b672        r.      CPSID    i
        0x10004fca:    2101        .!      MOVS     r1,#1
        0x10004fcc:    4ba3        .K      LDR      r3,[pc,#652] ; [0x1000525c] = 0x5359
        0x10004fce:    0309        ..      LSLS     r1,r1,#12
        0x10004fd0:    2000        .       MOVS     r0,#0
        0x10004fd2:    3368        h3      ADDS     r3,r3,#0x68
        0x10004fd4:    69b2        .i      LDR      r2,[r6,#0x18]
        0x10004fd6:    4798        .G      BLX      r3
        0x10004fd8:    2131        1!      MOVS     r1,#0x31
        0x10004fda:    2000        .       MOVS     r0,#0
        0x10004fdc:    68b2        .h      LDR      r2,[r6,#8]
        0x10004fde:    47b8        .G      BLX      r7
        0x10004fe0:    b662        b.      CPSIE    i
        0x10004fe2:    2001        .       MOVS     r0,#1
        0x10004fe4:    e473        s.      B        0x100048ce ; _FMCodeWrite + 56
    Get_RSSI_Last_RX
        0x10004fe6:    489b        .H      LDR      r0,[pc,#620] ; [0x10005254] = 0x20003118
        0x10004fe8:    4b9a        .K      LDR      r3,[pc,#616] ; [0x10005254] = 0x20003118
        0x10004fea:    7900        .y      LDRB     r0,[r0,#4]
        0x10004fec:    791b        .y      LDRB     r3,[r3,#4]
        0x10004fee:    0902        ..      LSRS     r2,r0,#4
        0x10004ff0:    071b        ..      LSLS     r3,r3,#28
        0x10004ff2:    2009        .       MOVS     r0,#9
        0x10004ff4:    0f1b        ..      LSRS     r3,r3,#28
        0x10004ff6:    1ac0        ..      SUBS     r0,r0,r3
        0x10004ff8:    2306        .#      MOVS     r3,#6
        0x10004ffa:    2100        .!      MOVS     r1,#0
        0x10004ffc:    4358        XC      MULS     r0,r3,r0
        0x10004ffe:    2a07        .*      CMP      r2,#7
        0x10005000:    d008        ..      BEQ      0x10005014 ; Get_RSSI_Last_RX + 46
        0x10005002:    2a03        .*      CMP      r2,#3
        0x10005004:    d009        ..      BEQ      0x1000501a ; Get_RSSI_Last_RX + 52
        0x10005006:    2a02        .*      CMP      r2,#2
        0x10005008:    d00b        ..      BEQ      0x10005022 ; Get_RSSI_Last_RX + 60
        0x1000500a:    2a01        .*      CMP      r2,#1
        0x1000500c:    d00c        ..      BEQ      0x10005028 ; Get_RSSI_Last_RX + 66
        0x1000500e:    2a00        .*      CMP      r2,#0
        0x10005010:    d00d        ..      BEQ      0x1000502e ; Get_RSSI_Last_RX + 72
        0x10005012:    e00f        ..      B        0x10005034 ; Get_RSSI_Last_RX + 78
        0x10005014:    2141        A!      MOVS     r1,#0x41
        0x10005016:    43c9        .C      MVNS     r1,r1
        0x10005018:    e001        ..      B        0x1000501e ; Get_RSSI_Last_RX + 56
        0x1000501a:    2135        5!      MOVS     r1,#0x35
        0x1000501c:    43c9        .C      MVNS     r1,r1
        0x1000501e:    1a08        ..      SUBS     r0,r1,r0
        0x10005020:    e007        ..      B        0x10005032 ; Get_RSSI_Last_RX + 76
        0x10005022:    2123        #!      MOVS     r1,#0x23
        0x10005024:    43c9        .C      MVNS     r1,r1
        0x10005026:    e7fa        ..      B        0x1000501e ; Get_RSSI_Last_RX + 56
        0x10005028:    2117        .!      MOVS     r1,#0x17
        0x1000502a:    43c9        .C      MVNS     r1,r1
        0x1000502c:    e7f7        ..      B        0x1000501e ; Get_RSSI_Last_RX + 56
        0x1000502e:    1d80        ..      ADDS     r0,r0,#6
        0x10005030:    4240        @B      RSBS     r0,r0,#0
        0x10005032:    b241        A.      SXTB     r1,r0
        0x10005034:    b2c8        ..      UXTB     r0,r1
        0x10005036:    4770        pG      BX       lr
    APP_Read_Attribute_Encrypt
        0x10005038:    b5f3        ..      PUSH     {r0,r1,r4-r7,lr}
        0x1000503a:    4e89        .N      LDR      r6,[pc,#548] ; [0x10005260] = 0x28c9
        0x1000503c:    4f89        .O      LDR      r7,[pc,#548] ; [0x10005264] = 0xffff
        0x1000503e:    b08d        ..      SUB      sp,sp,#0x34
        0x10005040:    4605        .F      MOV      r5,r0
        0x10005042:    2400        .$      MOVS     r4,#0
        0x10005044:    2232        2"      MOVS     r2,#0x32
        0x10005046:    466b        kF      MOV      r3,sp
        0x10005048:    4621        !F      MOV      r1,r4
        0x1000504a:    2003        .       MOVS     r0,#3
        0x1000504c:    47b0        .G      BLX      r6
        0x1000504e:    4668        hF      MOV      r0,sp
        0x10005050:    8840        @.      LDRH     r0,[r0,#2]
        0x10005052:    42a8        .B      CMP      r0,r5
        0x10005054:    d106        ..      BNE      0x10005064 ; APP_Read_Attribute_Encrypt + 44
        0x10005056:    4668        hF      MOV      r0,sp
        0x10005058:    7901        .y      LDRB     r1,[r0,#4]
        0x1000505a:    980e        ..      LDR      r0,[sp,#0x38]
        0x1000505c:    7001        .p      STRB     r1,[r0,#0]
        0x1000505e:    2001        .       MOVS     r0,#1
        0x10005060:    b00f        ..      ADD      sp,sp,#0x3c
        0x10005062:    bdf0        ..      POP      {r4-r7,pc}
        0x10005064:    42b8        .B      CMP      r0,r7
        0x10005066:    d004        ..      BEQ      0x10005072 ; APP_Read_Attribute_Encrypt + 58
        0x10005068:    4668        hF      MOV      r0,sp
        0x1000506a:    8800        ..      LDRH     r0,[r0,#0]
        0x1000506c:    1900        ..      ADDS     r0,r0,r4
        0x1000506e:    b284        ..      UXTH     r4,r0
        0x10005070:    e7e8        ..      B        0x10005044 ; APP_Read_Attribute_Encrypt + 12
        0x10005072:    2000        .       MOVS     r0,#0
        0x10005074:    e7f4        ..      B        0x10005060 ; APP_Read_Attribute_Encrypt + 40
    APP_Write_Attribute_Encrypt
        0x10005076:    b5f3        ..      PUSH     {r0,r1,r4-r7,lr}
        0x10005078:    4e79        yN      LDR      r6,[pc,#484] ; [0x10005260] = 0x28c9
        0x1000507a:    4f7a        zO      LDR      r7,[pc,#488] ; [0x10005264] = 0xffff
        0x1000507c:    b08d        ..      SUB      sp,sp,#0x34
        0x1000507e:    4605        .F      MOV      r5,r0
        0x10005080:    2400        .$      MOVS     r4,#0
        0x10005082:    2232        2"      MOVS     r2,#0x32
        0x10005084:    466b        kF      MOV      r3,sp
        0x10005086:    4621        !F      MOV      r1,r4
        0x10005088:    2003        .       MOVS     r0,#3
        0x1000508a:    47b0        .G      BLX      r6
        0x1000508c:    4668        hF      MOV      r0,sp
        0x1000508e:    8840        @.      LDRH     r0,[r0,#2]
        0x10005090:    42a8        .B      CMP      r0,r5
        0x10005092:    d108        ..      BNE      0x100050a6 ; APP_Write_Attribute_Encrypt + 48
        0x10005094:    1d24        $.      ADDS     r4,r4,#4
        0x10005096:    b2a1        ..      UXTH     r1,r4
        0x10005098:    2201        ."      MOVS     r2,#1
        0x1000509a:    2003        .       MOVS     r0,#3
        0x1000509c:    9b0e        ..      LDR      r3,[sp,#0x38]
        0x1000509e:    f000f893    ....    BL       AttWriteFlash ; 0x100051c8
        0x100050a2:    2001        .       MOVS     r0,#1
        0x100050a4:    e7dc        ..      B        0x10005060 ; APP_Read_Attribute_Encrypt + 40
        0x100050a6:    42b8        .B      CMP      r0,r7
        0x100050a8:    d004        ..      BEQ      0x100050b4 ; APP_Write_Attribute_Encrypt + 62
        0x100050aa:    4668        hF      MOV      r0,sp
        0x100050ac:    8800        ..      LDRH     r0,[r0,#0]
        0x100050ae:    1900        ..      ADDS     r0,r0,r4
        0x100050b0:    b284        ..      UXTH     r4,r0
        0x100050b2:    e7e6        ..      B        0x10005082 ; APP_Write_Attribute_Encrypt + 12
        0x100050b4:    2000        .       MOVS     r0,#0
        0x100050b6:    e7d3        ..      B        0x10005060 ; APP_Read_Attribute_Encrypt + 40
    APP_Read_Charact_Permission
        0x100050b8:    b5f3        ..      PUSH     {r0,r1,r4-r7,lr}
        0x100050ba:    4e69        iN      LDR      r6,[pc,#420] ; [0x10005260] = 0x28c9
        0x100050bc:    4f69        iO      LDR      r7,[pc,#420] ; [0x10005264] = 0xffff
        0x100050be:    b08d        ..      SUB      sp,sp,#0x34
        0x100050c0:    4605        .F      MOV      r5,r0
        0x100050c2:    2400        .$      MOVS     r4,#0
        0x100050c4:    2232        2"      MOVS     r2,#0x32
        0x100050c6:    466b        kF      MOV      r3,sp
        0x100050c8:    4621        !F      MOV      r1,r4
        0x100050ca:    2002        .       MOVS     r0,#2
        0x100050cc:    47b0        .G      BLX      r6
        0x100050ce:    4668        hF      MOV      r0,sp
        0x100050d0:    7881        .x      LDRB     r1,[r0,#2]
        0x100050d2:    7842        Bx      LDRB     r2,[r0,#1]
        0x100050d4:    0208        ..      LSLS     r0,r1,#8
        0x100050d6:    4310        .C      ORRS     r0,r0,r2
        0x100050d8:    42a8        .B      CMP      r0,r5
        0x100050da:    d105        ..      BNE      0x100050e8 ; APP_Read_Charact_Permission + 48
        0x100050dc:    4668        hF      MOV      r0,sp
        0x100050de:    7941        Ay      LDRB     r1,[r0,#5]
        0x100050e0:    980e        ..      LDR      r0,[sp,#0x38]
        0x100050e2:    7001        .p      STRB     r1,[r0,#0]
        0x100050e4:    2001        .       MOVS     r0,#1
        0x100050e6:    e7bb        ..      B        0x10005060 ; APP_Read_Attribute_Encrypt + 40
        0x100050e8:    42b8        .B      CMP      r0,r7
        0x100050ea:    d004        ..      BEQ      0x100050f6 ; APP_Read_Charact_Permission + 62
        0x100050ec:    4668        hF      MOV      r0,sp
        0x100050ee:    7800        .x      LDRB     r0,[r0,#0]
        0x100050f0:    1900        ..      ADDS     r0,r0,r4
        0x100050f2:    b284        ..      UXTH     r4,r0
        0x100050f4:    e7e6        ..      B        0x100050c4 ; APP_Read_Charact_Permission + 12
        0x100050f6:    2000        .       MOVS     r0,#0
        0x100050f8:    e7b2        ..      B        0x10005060 ; APP_Read_Attribute_Encrypt + 40
    WaitLLCOverSlpth
        0x100050fa:    b510        ..      PUSH     {r4,lr}
        0x100050fc:    f000f89c    ....    BL       GetOverSlpth ; 0x10005238
        0x10005100:    2800        .(      CMP      r0,#0
        0x10005102:    d004        ..      BEQ      0x1000510e ; WaitLLCOverSlpth + 20
        0x10005104:    f000f898    ....    BL       GetOverSlpth ; 0x10005238
        0x10005108:    2801        .(      CMP      r0,#1
        0x1000510a:    d0fb        ..      BEQ      0x10005104 ; WaitLLCOverSlpth + 10
        0x1000510c:    e59a        ..      B        0x10004c44 ; gap_s_verdor_datas_get + 26
        0x1000510e:    f000f893    ....    BL       GetOverSlpth ; 0x10005238
        0x10005112:    2800        .(      CMP      r0,#0
        0x10005114:    d0fb        ..      BEQ      0x1000510e ; WaitLLCOverSlpth + 20
        0x10005116:    f000f88f    ....    BL       GetOverSlpth ; 0x10005238
        0x1000511a:    2801        .(      CMP      r0,#1
        0x1000511c:    d0fb        ..      BEQ      0x10005116 ; WaitLLCOverSlpth + 28
        0x1000511e:    e591        ..      B        0x10004c44 ; gap_s_verdor_datas_get + 26
    _BBRXFIFORead
        0x10005120:    b5f0        ..      PUSH     {r4-r7,lr}
        0x10005122:    4c4c        LL      LDR      r4,[pc,#304] ; [0x10005254] = 0x20003118
        0x10005124:    2500        .%      MOVS     r5,#0
        0x10005126:    6aa4        .j      LDR      r4,[r4,#0x28]
        0x10005128:    78e6        .x      LDRB     r6,[r4,#3]
        0x1000512a:    0736        6.      LSLS     r6,r6,#28
        0x1000512c:    d501        ..      BPL      0x10005132 ; _BBRXFIFORead + 18
        0x1000512e:    2000        .       MOVS     r0,#0
        0x10005130:    bdf0        ..      POP      {r4-r7,pc}
        0x10005132:    bf00        ..      NOP      
        0x10005134:    1c6d        m.      ADDS     r5,r5,#1
        0x10005136:    b2ed        ..      UXTB     r5,r5
        0x10005138:    2d64        d-      CMP      r5,#0x64
        0x1000513a:    d3fa        ..      BCC      0x10005132 ; _BBRXFIFORead + 18
        0x1000513c:    4625        %F      MOV      r5,r4
        0x1000513e:    3540        @5      ADDS     r5,r5,#0x40
        0x10005140:    7c6e        n|      LDRB     r6,[r5,#0x11]
        0x10005142:    07b6        ..      LSLS     r6,r6,#30
        0x10005144:    d4fc        ..      BMI      0x10005140 ; _BBRXFIFORead + 32
        0x10005146:    2500        .%      MOVS     r5,#0
        0x10005148:    4626        &F      MOV      r6,r4
        0x1000514a:    36c0        .6      ADDS     r6,r6,#0xc0
        0x1000514c:    7937        7y      LDRB     r7,[r6,#4]
        0x1000514e:    5547        GU      STRB     r7,[r0,r5]
        0x10005150:    1c6d        m.      ADDS     r5,r5,#1
        0x10005152:    b2ed        ..      UXTB     r5,r5
        0x10005154:    2d02        .-      CMP      r5,#2
        0x10005156:    d3f9        ..      BCC      0x1000514c ; _BBRXFIFORead + 44
        0x10005158:    7846        Fx      LDRB     r6,[r0,#1]
        0x1000515a:    2501        .%      MOVS     r5,#1
        0x1000515c:    09f7        ..      LSRS     r7,r6,#7
        0x1000515e:    2f00        ./      CMP      r7,#0
        0x10005160:    d008        ..      BEQ      0x10005174 ; _BBRXFIFORead + 84
        0x10005162:    06f6        ..      LSLS     r6,r6,#27
        0x10005164:    0ef6        ..      LSRS     r6,r6,#27
        0x10005166:    700e        .p      STRB     r6,[r1,#0]
        0x10005168:    7015        .p      STRB     r5,[r2,#0]
        0x1000516a:    7842        Bx      LDRB     r2,[r0,#1]
        0x1000516c:    0652        R.      LSLS     r2,r2,#25
        0x1000516e:    0fd2        ..      LSRS     r2,r2,#31
        0x10005170:    701a        .p      STRB     r2,[r3,#0]
        0x10005172:    e004        ..      B        0x1000517e ; _BBRXFIFORead + 94
        0x10005174:    06b3        ..      LSLS     r3,r6,#26
        0x10005176:    0e9b        ..      LSRS     r3,r3,#26
        0x10005178:    700b        .p      STRB     r3,[r1,#0]
        0x1000517a:    2300        .#      MOVS     r3,#0
        0x1000517c:    7013        .p      STRB     r3,[r2,#0]
        0x1000517e:    4b35        5K      LDR      r3,[pc,#212] ; [0x10005254] = 0x20003118
        0x10005180:    780a        .x      LDRB     r2,[r1,#0]
        0x10005182:    6a9b        .j      LDR      r3,[r3,#0x28]
        0x10005184:    1c80        ..      ADDS     r0,r0,#2
        0x10005186:    33c0        .3      ADDS     r3,r3,#0xc0
        0x10005188:    2a27        '*      CMP      r2,#0x27
        0x1000518a:    d20c        ..      BCS      0x100051a6 ; _BBRXFIFORead + 134
        0x1000518c:    2200        ."      MOVS     r2,#0
        0x1000518e:    34c0        .4      ADDS     r4,r4,#0xc0
        0x10005190:    e003        ..      B        0x1000519a ; _BBRXFIFORead + 122
        0x10005192:    7926        &y      LDRB     r6,[r4,#4]
        0x10005194:    5486        .T      STRB     r6,[r0,r2]
        0x10005196:    1c52        R.      ADDS     r2,r2,#1
        0x10005198:    b2d2        ..      UXTB     r2,r2
        0x1000519a:    780e        .x      LDRB     r6,[r1,#0]
        0x1000519c:    4296        .B      CMP      r6,r2
        0x1000519e:    d8f8        ..      BHI      0x10005192 ; _BBRXFIFORead + 114
        0x100051a0:    725d        ]r      STRB     r5,[r3,#9]
        0x100051a2:    2001        .       MOVS     r0,#1
        0x100051a4:    bdf0        ..      POP      {r4-r7,pc}
        0x100051a6:    725d        ]r      STRB     r5,[r3,#9]
        0x100051a8:    e7c1        ..      B        0x1000512e ; _BBRXFIFORead + 14
    STKSetRand
        0x100051aa:    b570        p.      PUSH     {r4-r6,lr}
        0x100051ac:    4d2e        .M      LDR      r5,[pc,#184] ; [0x10005268] = 0x5ffb
        0x100051ae:    2400        .$      MOVS     r4,#0
        0x100051b0:    4e28        (N      LDR      r6,[pc,#160] ; [0x10005254] = 0x20003118
        0x100051b2:    47a8        .G      BLX      r5
        0x100051b4:    68f1        .h      LDR      r1,[r6,#0xc]
        0x100051b6:    1909        ..      ADDS     r1,r1,r4
        0x100051b8:    31ff        .1      ADDS     r1,r1,#0xff
        0x100051ba:    3101        .1      ADDS     r1,#1
        0x100051bc:    1c64        d.      ADDS     r4,r4,#1
        0x100051be:    b2e4        ..      UXTB     r4,r4
        0x100051c0:    73c8        .s      STRB     r0,[r1,#0xf]
        0x100051c2:    2c10        .,      CMP      r4,#0x10
        0x100051c4:    d3f5        ..      BCC      0x100051b2 ; STKSetRand + 8
        0x100051c6:    bd70        p.      POP      {r4-r6,pc}
    AttWriteFlash
        0x100051c8:    b5ff        ..      PUSH     {r0-r7,lr}
        0x100051ca:    4c22        "L      LDR      r4,[pc,#136] ; [0x10005254] = 0x20003118
        0x100051cc:    0002        ..      MOVS     r2,r0
        0x100051ce:    69e0        .i      LDR      r0,[r4,#0x1c]
        0x100051d0:    b081        ..      SUB      sp,sp,#4
        0x100051d2:    461e        .F      MOV      r6,r3
        0x100051d4:    460d        .F      MOV      r5,r1
        0x100051d6:    d006        ..      BEQ      0x100051e6 ; AttWriteFlash + 30
        0x100051d8:    2a01        .*      CMP      r2,#1
        0x100051da:    d006        ..      BEQ      0x100051ea ; AttWriteFlash + 34
        0x100051dc:    2a02        .*      CMP      r2,#2
        0x100051de:    d006        ..      BEQ      0x100051ee ; AttWriteFlash + 38
        0x100051e0:    2a03        .*      CMP      r2,#3
        0x100051e2:    d006        ..      BEQ      0x100051f2 ; AttWriteFlash + 42
        0x100051e4:    e009        ..      B        0x100051fa ; AttWriteFlash + 50
        0x100051e6:    1d00        ..      ADDS     r0,r0,#4
        0x100051e8:    e004        ..      B        0x100051f4 ; AttWriteFlash + 44
        0x100051ea:    3008        .0      ADDS     r0,r0,#8
        0x100051ec:    e002        ..      B        0x100051f4 ; AttWriteFlash + 44
        0x100051ee:    300c        .0      ADDS     r0,r0,#0xc
        0x100051f0:    e000        ..      B        0x100051f4 ; AttWriteFlash + 44
        0x100051f2:    3010        .0      ADDS     r0,r0,#0x10
        0x100051f4:    f000f89e    ....    BL       __aeabi_uread4 ; 0x10005334
        0x100051f8:    4601        .F      MOV      r1,r0
        0x100051fa:    194d        M.      ADDS     r5,r1,r5
        0x100051fc:    b672        r.      CPSID    i
        0x100051fe:    2701        .'      MOVS     r7,#1
        0x10005200:    033f        ?.      LSLS     r7,r7,#12
        0x10005202:    4b16        .K      LDR      r3,[pc,#88] ; [0x1000525c] = 0x5359
        0x10005204:    4639        9F      MOV      r1,r7
        0x10005206:    2000        .       MOVS     r0,#0
        0x10005208:    69a2        .i      LDR      r2,[r4,#0x18]
        0x1000520a:    4798        .G      BLX      r3
        0x1000520c:    b662        b.      CPSIE    i
        0x1000520e:    69a0        .i      LDR      r0,[r4,#0x18]
        0x10005210:    4631        1F      MOV      r1,r6
        0x10005212:    1940        @.      ADDS     r0,r0,r5
        0x10005214:    9a03        ..      LDR      r2,[sp,#0xc]
        0x10005216:    f000f853    ..S.    BL       __aeabi_memcpy ; 0x100052c0
        0x1000521a:    b672        r.      CPSID    i
        0x1000521c:    2101        .!      MOVS     r1,#1
        0x1000521e:    4a0f        .J      LDR      r2,[pc,#60] ; [0x1000525c] = 0x5359
        0x10005220:    2000        .       MOVS     r0,#0
        0x10005222:    32ea        .2      ADDS     r2,r2,#0xea
        0x10005224:    4790        .G      BLX      r2
        0x10005226:    4b0d        .K      LDR      r3,[pc,#52] ; [0x1000525c] = 0x5359
        0x10005228:    2000        .       MOVS     r0,#0
        0x1000522a:    4639        9F      MOV      r1,r7
        0x1000522c:    3368        h3      ADDS     r3,r3,#0x68
        0x1000522e:    69a2        .i      LDR      r2,[r4,#0x18]
        0x10005230:    4798        .G      BLX      r3
        0x10005232:    b662        b.      CPSIE    i
        0x10005234:    b005        ..      ADD      sp,sp,#0x14
        0x10005236:    bdf0        ..      POP      {r4-r7,pc}
    GetOverSlpth
        0x10005238:    4806        .H      LDR      r0,[pc,#24] ; [0x10005254] = 0x20003118
        0x1000523a:    6a81        .j      LDR      r1,[r0,#0x28]
        0x1000523c:    460a        .F      MOV      r2,r1
        0x1000523e:    3260        `2      ADDS     r2,r2,#0x60
        0x10005240:    7c90        .|      LDRB     r0,[r2,#0x12]
        0x10005242:    7c92        .|      LDRB     r2,[r2,#0x12]
        0x10005244:    3160        `1      ADDS     r1,r1,#0x60
        0x10005246:    e001        ..      B        0x1000524c ; GetOverSlpth + 20
        0x10005248:    7c88        .|      LDRB     r0,[r1,#0x12]
        0x1000524a:    7c8a        .|      LDRB     r2,[r1,#0x12]
        0x1000524c:    4290        .B      CMP      r0,r2
        0x1000524e:    d1fb        ..      BNE      0x10005248 ; GetOverSlpth + 16
        0x10005250:    4770        pG      BX       lr
    $d
        0x10005252:    0000        ..      DCW    0
        0x10005254:    20003118    .1.     DCD    536883480
        0x10005258:    20003628    (6.     DCD    536884776
        0x1000525c:    00005359    YS..    DCD    21337
        0x10005260:    000028c9    .(..    DCD    10441
        0x10005264:    0000ffff    ....    DCD    65535
        0x10005268:    00005ffb    ._..    DCD    24571
    $t
    .text
    __aeabi_uidiv
    __aeabi_uidivmod
        0x1000526c:    b530        0.      PUSH     {r4,r5,lr}
        0x1000526e:    460b        .F      MOV      r3,r1
        0x10005270:    4601        .F      MOV      r1,r0
        0x10005272:    2000        .       MOVS     r0,#0
        0x10005274:    2220         "      MOVS     r2,#0x20
        0x10005276:    2401        .$      MOVS     r4,#1
        0x10005278:    e009        ..      B        0x1000528e ; __aeabi_uidiv + 34
        0x1000527a:    460d        .F      MOV      r5,r1
        0x1000527c:    40d5        .@      LSRS     r5,r5,r2
        0x1000527e:    429d        .B      CMP      r5,r3
        0x10005280:    d305        ..      BCC      0x1000528e ; __aeabi_uidiv + 34
        0x10005282:    461d        .F      MOV      r5,r3
        0x10005284:    4095        .@      LSLS     r5,r5,r2
        0x10005286:    1b49        I.      SUBS     r1,r1,r5
        0x10005288:    4625        %F      MOV      r5,r4
        0x1000528a:    4095        .@      LSLS     r5,r5,r2
        0x1000528c:    1940        @.      ADDS     r0,r0,r5
        0x1000528e:    4615        .F      MOV      r5,r2
        0x10005290:    1e52        R.      SUBS     r2,r2,#1
        0x10005292:    2d00        .-      CMP      r5,#0
        0x10005294:    dcf1        ..      BGT      0x1000527a ; __aeabi_uidiv + 14
        0x10005296:    bd30        0.      POP      {r4,r5,pc}
    .text
    __aeabi_idiv
    __aeabi_idivmod
        0x10005298:    b570        p.      PUSH     {r4-r6,lr}
        0x1000529a:    2400        .$      MOVS     r4,#0
        0x1000529c:    4625        %F      MOV      r5,r4
        0x1000529e:    2800        .(      CMP      r0,#0
        0x100052a0:    da01        ..      BGE      0x100052a6 ; __aeabi_idiv + 14
        0x100052a2:    2401        .$      MOVS     r4,#1
        0x100052a4:    4240        @B      RSBS     r0,r0,#0
        0x100052a6:    2900        .)      CMP      r1,#0
        0x100052a8:    da01        ..      BGE      0x100052ae ; __aeabi_idiv + 22
        0x100052aa:    2501        .%      MOVS     r5,#1
        0x100052ac:    4249        IB      RSBS     r1,r1,#0
        0x100052ae:    f7ffffdd    ....    BL       __aeabi_uidiv ; 0x1000526c
        0x100052b2:    42ac        .B      CMP      r4,r5
        0x100052b4:    d000        ..      BEQ      0x100052b8 ; __aeabi_idiv + 32
        0x100052b6:    4240        @B      RSBS     r0,r0,#0
        0x100052b8:    2c00        .,      CMP      r4,#0
        0x100052ba:    d000        ..      BEQ      0x100052be ; __aeabi_idiv + 38
        0x100052bc:    4249        IB      RSBS     r1,r1,#0
        0x100052be:    bd70        p.      POP      {r4-r6,pc}
    .text
    __aeabi_memcpy
    __aeabi_memcpy4
    __aeabi_memcpy8
        0x100052c0:    4603        .F      MOV      r3,r0
        0x100052c2:    430b        .C      ORRS     r3,r3,r1
        0x100052c4:    079b        ..      LSLS     r3,r3,#30
        0x100052c6:    d003        ..      BEQ      0x100052d0 ; __aeabi_memcpy + 16
        0x100052c8:    e009        ..      B        0x100052de ; __aeabi_memcpy + 30
        0x100052ca:    c908        ..      LDM      r1!,{r3}
        0x100052cc:    1f12        ..      SUBS     r2,r2,#4
        0x100052ce:    c008        ..      STM      r0!,{r3}
        0x100052d0:    2a04        .*      CMP      r2,#4
        0x100052d2:    d2fa        ..      BCS      0x100052ca ; __aeabi_memcpy + 10
        0x100052d4:    e003        ..      B        0x100052de ; __aeabi_memcpy + 30
        0x100052d6:    780b        .x      LDRB     r3,[r1,#0]
        0x100052d8:    7003        .p      STRB     r3,[r0,#0]
        0x100052da:    1c40        @.      ADDS     r0,r0,#1
        0x100052dc:    1c49        I.      ADDS     r1,r1,#1
        0x100052de:    1e52        R.      SUBS     r2,r2,#1
        0x100052e0:    d2f9        ..      BCS      0x100052d6 ; __aeabi_memcpy + 22
        0x100052e2:    4770        pG      BX       lr
    .text
    __aeabi_memset
    __aeabi_memset4
    __aeabi_memset8
        0x100052e4:    b2d2        ..      UXTB     r2,r2
        0x100052e6:    e001        ..      B        0x100052ec ; __aeabi_memset + 8
        0x100052e8:    7002        .p      STRB     r2,[r0,#0]
        0x100052ea:    1c40        @.      ADDS     r0,r0,#1
        0x100052ec:    1e49        I.      SUBS     r1,r1,#1
        0x100052ee:    d2fb        ..      BCS      0x100052e8 ; __aeabi_memset + 4
        0x100052f0:    4770        pG      BX       lr
    __aeabi_memclr
    __aeabi_memclr4
    __aeabi_memclr8
        0x100052f2:    2200        ."      MOVS     r2,#0
        0x100052f4:    e7f6        ..      B        __aeabi_memset ; 0x100052e4
    _memset$wrapper
        0x100052f6:    b510        ..      PUSH     {r4,lr}
        0x100052f8:    4613        .F      MOV      r3,r2
        0x100052fa:    460a        .F      MOV      r2,r1
        0x100052fc:    4604        .F      MOV      r4,r0
        0x100052fe:    4619        .F      MOV      r1,r3
        0x10005300:    f7fffff0    ....    BL       __aeabi_memset ; 0x100052e4
        0x10005304:    4620         F      MOV      r0,r4
        0x10005306:    bd10        ..      POP      {r4,pc}
    .text
    memcmp
        0x10005308:    b530        0.      PUSH     {r4,r5,lr}
        0x1000530a:    4604        .F      MOV      r4,r0
        0x1000530c:    2000        .       MOVS     r0,#0
        0x1000530e:    4603        .F      MOV      r3,r0
        0x10005310:    e000        ..      B        0x10005314 ; memcmp + 12
        0x10005312:    1c5b        [.      ADDS     r3,r3,#1
        0x10005314:    4293        .B      CMP      r3,r2
        0x10005316:    d203        ..      BCS      0x10005320 ; memcmp + 24
        0x10005318:    5ce0        .\      LDRB     r0,[r4,r3]
        0x1000531a:    5ccd        .\      LDRB     r5,[r1,r3]
        0x1000531c:    1b40        @.      SUBS     r0,r0,r5
        0x1000531e:    d0f8        ..      BEQ      0x10005312 ; memcmp + 10
        0x10005320:    bd30        0.      POP      {r4,r5,pc}
    .text
    strcpy
        0x10005322:    4603        .F      MOV      r3,r0
        0x10005324:    780a        .x      LDRB     r2,[r1,#0]
        0x10005326:    7002        .p      STRB     r2,[r0,#0]
        0x10005328:    1c40        @.      ADDS     r0,r0,#1
        0x1000532a:    1c49        I.      ADDS     r1,r1,#1
        0x1000532c:    2a00        .*      CMP      r2,#0
        0x1000532e:    d1f9        ..      BNE      0x10005324 ; strcpy + 2
        0x10005330:    4618        .F      MOV      r0,r3
        0x10005332:    4770        pG      BX       lr
    .text
    __aeabi_uread4
    __rt_uread4
    _uread4
        0x10005334:    2103        .!      MOVS     r1,#3
        0x10005336:    1d00        ..      ADDS     r0,r0,#4
        0x10005338:    1e40        @.      SUBS     r0,r0,#1
        0x1000533a:    7803        .x      LDRB     r3,[r0,#0]
        0x1000533c:    0212        ..      LSLS     r2,r2,#8
        0x1000533e:    431a        .C      ORRS     r2,r2,r3
        0x10005340:    1e49        I.      SUBS     r1,r1,#1
        0x10005342:    d5f9        ..      BPL      0x10005338 ; __aeabi_uread4 + 4
        0x10005344:    4610        .F      MOV      r0,r2
        0x10005346:    4770        pG      BX       lr
    .text
    __aeabi_uwrite4
    __rt_uwrite4
    _uwrite4
        0x10005348:    4603        .F      MOV      r3,r0
        0x1000534a:    2203        ."      MOVS     r2,#3
        0x1000534c:    7008        .p      STRB     r0,[r1,#0]
        0x1000534e:    0a00        ..      LSRS     r0,r0,#8
        0x10005350:    1c49        I.      ADDS     r1,r1,#1
        0x10005352:    1e52        R.      SUBS     r2,r2,#1
        0x10005354:    d5fa        ..      BPL      0x1000534c ; __aeabi_uwrite4 + 4
        0x10005356:    4618        .F      MOV      r0,r3
        0x10005358:    4770        pG      BX       lr
    .text
    __aeabi_fadd
        0x1000535a:    b5f8        ..      PUSH     {r3-r7,lr}
        0x1000535c:    4602        .F      MOV      r2,r0
        0x1000535e:    404a        J@      EORS     r2,r2,r1
        0x10005360:    0fd4        ..      LSRS     r4,r2,#31
        0x10005362:    0042        B.      LSLS     r2,r0,#1
        0x10005364:    004b        K.      LSLS     r3,r1,#1
        0x10005366:    0852        R.      LSRS     r2,r2,#1
        0x10005368:    085b        [.      LSRS     r3,r3,#1
        0x1000536a:    429a        .B      CMP      r2,r3
        0x1000536c:    d202        ..      BCS      0x10005374 ; __aeabi_fadd + 26
        0x1000536e:    4602        .F      MOV      r2,r0
        0x10005370:    4608        .F      MOV      r0,r1
        0x10005372:    4611        .F      MOV      r1,r2
        0x10005374:    004a        J.      LSLS     r2,r1,#1
        0x10005376:    d023        #.      BEQ      0x100053c0 ; __aeabi_fadd + 102
        0x10005378:    0dc3        ..      LSRS     r3,r0,#23
        0x1000537a:    004a        J.      LSLS     r2,r1,#1
        0x1000537c:    b2dd        ..      UXTB     r5,r3
        0x1000537e:    0e12        ..      LSRS     r2,r2,#24
        0x10005380:    1aad        ..      SUBS     r5,r5,r2
        0x10005382:    2d20         -      CMP      r5,#0x20
        0x10005384:    da35        5.      BGE      0x100053f2 ; __aeabi_fadd + 152
        0x10005386:    0249        I.      LSLS     r1,r1,#9
        0x10005388:    2601        .&      MOVS     r6,#1
        0x1000538a:    0a49        I.      LSRS     r1,r1,#9
        0x1000538c:    05f6        ..      LSLS     r6,r6,#23
        0x1000538e:    198a        ..      ADDS     r2,r1,r6
        0x10005390:    2c00        .,      CMP      r4,#0
        0x10005392:    d000        ..      BEQ      0x10005396 ; __aeabi_fadd + 60
        0x10005394:    4252        RB      RSBS     r2,r2,#0
        0x10005396:    2120         !      MOVS     r1,#0x20
        0x10005398:    1b4f        O.      SUBS     r7,r1,r5
        0x1000539a:    4611        .F      MOV      r1,r2
        0x1000539c:    40b9        .@      LSLS     r1,r1,r7
        0x1000539e:    412a        *A      ASRS     r2,r2,r5
        0x100053a0:    1810        ..      ADDS     r0,r2,r0
        0x100053a2:    0dc2        ..      LSRS     r2,r0,#23
        0x100053a4:    429a        .B      CMP      r2,r3
        0x100053a6:    d021        !.      BEQ      0x100053ec ; __aeabi_fadd + 146
        0x100053a8:    2c00        .,      CMP      r4,#0
        0x100053aa:    d017        ..      BEQ      0x100053dc ; __aeabi_fadd + 130
        0x100053ac:    2d01        .-      CMP      r5,#1
        0x100053ae:    dc08        ..      BGT      0x100053c2 ; __aeabi_fadd + 104
        0x100053b0:    05da        ..      LSLS     r2,r3,#23
        0x100053b2:    1a80        ..      SUBS     r0,r0,r2
        0x100053b4:    0fd2        ..      LSRS     r2,r2,#31
        0x100053b6:    1980        ..      ADDS     r0,r0,r6
        0x100053b8:    07d2        ..      LSLS     r2,r2,#31
        0x100053ba:    b2db        ..      UXTB     r3,r3
        0x100053bc:    f000fa80    ....    BL       _float_epilogue ; 0x100058c0
        0x100053c0:    bdf8        ..      POP      {r3-r7,pc}
        0x100053c2:    05da        ..      LSLS     r2,r3,#23
        0x100053c4:    1a80        ..      SUBS     r0,r0,r2
        0x100053c6:    2301        .#      MOVS     r3,#1
        0x100053c8:    0040        @.      LSLS     r0,r0,#1
        0x100053ca:    061b        ..      LSLS     r3,r3,#24
        0x100053cc:    18c0        ..      ADDS     r0,r0,r3
        0x100053ce:    1880        ..      ADDS     r0,r0,r2
        0x100053d0:    425a        ZB      RSBS     r2,r3,#0
        0x100053d2:    1880        ..      ADDS     r0,r0,r2
        0x100053d4:    0fca        ..      LSRS     r2,r1,#31
        0x100053d6:    4310        .C      ORRS     r0,r0,r2
        0x100053d8:    0049        I.      LSLS     r1,r1,#1
        0x100053da:    e007        ..      B        0x100053ec ; __aeabi_fadd + 146
        0x100053dc:    0849        I.      LSRS     r1,r1,#1
        0x100053de:    07c2        ..      LSLS     r2,r0,#31
        0x100053e0:    4311        .C      ORRS     r1,r1,r2
        0x100053e2:    05da        ..      LSLS     r2,r3,#23
        0x100053e4:    1a80        ..      SUBS     r0,r0,r2
        0x100053e6:    1980        ..      ADDS     r0,r0,r6
        0x100053e8:    0840        @.      LSRS     r0,r0,#1
        0x100053ea:    1880        ..      ADDS     r0,r0,r2
        0x100053ec:    f000fa60    ..`.    BL       __I$use$fp ; 0x100058b0
        0x100053f0:    bdf8        ..      POP      {r3-r7,pc}
        0x100053f2:    0061        a.      LSLS     r1,r4,#1
        0x100053f4:    2201        ."      MOVS     r2,#1
        0x100053f6:    1a51        Q.      SUBS     r1,r2,r1
        0x100053f8:    1b00        ..      SUBS     r0,r0,r4
        0x100053fa:    e7f7        ..      B        0x100053ec ; __aeabi_fadd + 146
    __aeabi_fsub
        0x100053fc:    2201        ."      MOVS     r2,#1
        0x100053fe:    07d2        ..      LSLS     r2,r2,#31
        0x10005400:    4051        Q@      EORS     r1,r1,r2
        0x10005402:    e7aa        ..      B        __aeabi_fadd ; 0x1000535a
    __aeabi_frsub
        0x10005404:    2201        ."      MOVS     r2,#1
        0x10005406:    07d2        ..      LSLS     r2,r2,#31
        0x10005408:    4050        P@      EORS     r0,r0,r2
        0x1000540a:    e7a6        ..      B        __aeabi_fadd ; 0x1000535a
    .text
    __aeabi_dadd
        0x1000540c:    b5f0        ..      PUSH     {r4-r7,lr}
        0x1000540e:    4607        .F      MOV      r7,r0
        0x10005410:    4608        .F      MOV      r0,r1
        0x10005412:    4058        X@      EORS     r0,r0,r3
        0x10005414:    b087        ..      SUB      sp,sp,#0x1c
        0x10005416:    0fc0        ..      LSRS     r0,r0,#31
        0x10005418:    9004        ..      STR      r0,[sp,#0x10]
        0x1000541a:    0048        H.      LSLS     r0,r1,#1
        0x1000541c:    460e        .F      MOV      r6,r1
        0x1000541e:    0059        Y.      LSLS     r1,r3,#1
        0x10005420:    0840        @.      LSRS     r0,r0,#1
        0x10005422:    0849        I.      LSRS     r1,r1,#1
        0x10005424:    1abc        ..      SUBS     r4,r7,r2
        0x10005426:    4188        .A      SBCS     r0,r0,r1
        0x10005428:    d205        ..      BCS      0x10005436 ; __aeabi_dadd + 42
        0x1000542a:    4638        8F      MOV      r0,r7
        0x1000542c:    4631        1F      MOV      r1,r6
        0x1000542e:    461e        .F      MOV      r6,r3
        0x10005430:    4617        .F      MOV      r7,r2
        0x10005432:    460b        .F      MOV      r3,r1
        0x10005434:    4602        .F      MOV      r2,r0
        0x10005436:    0058        X.      LSLS     r0,r3,#1
        0x10005438:    0840        @.      LSRS     r0,r0,#1
        0x1000543a:    4310        .C      ORRS     r0,r0,r2
        0x1000543c:    d04c        L.      BEQ      0x100054d8 ; __aeabi_dadd + 204
        0x1000543e:    0d30        0.      LSRS     r0,r6,#20
        0x10005440:    9003        ..      STR      r0,[sp,#0xc]
        0x10005442:    0540        @.      LSLS     r0,r0,#21
        0x10005444:    0059        Y.      LSLS     r1,r3,#1
        0x10005446:    0d40        @.      LSRS     r0,r0,#21
        0x10005448:    0d49        I.      LSRS     r1,r1,#21
        0x1000544a:    9005        ..      STR      r0,[sp,#0x14]
        0x1000544c:    1a40        @.      SUBS     r0,r0,r1
        0x1000544e:    9002        ..      STR      r0,[sp,#8]
        0x10005450:    2840        @(      CMP      r0,#0x40
        0x10005452:    da72        r.      BGE      0x1000553a ; __aeabi_dadd + 302
        0x10005454:    0318        ..      LSLS     r0,r3,#12
        0x10005456:    2101        .!      MOVS     r1,#1
        0x10005458:    0b00        ..      LSRS     r0,r0,#12
        0x1000545a:    0509        ..      LSLS     r1,r1,#20
        0x1000545c:    4308        .C      ORRS     r0,r0,r1
        0x1000545e:    9001        ..      STR      r0,[sp,#4]
        0x10005460:    9804        ..      LDR      r0,[sp,#0x10]
        0x10005462:    9200        ..      STR      r2,[sp,#0]
        0x10005464:    2800        .(      CMP      r0,#0
        0x10005466:    d005        ..      BEQ      0x10005474 ; __aeabi_dadd + 104
        0x10005468:    9901        ..      LDR      r1,[sp,#4]
        0x1000546a:    4252        RB      RSBS     r2,r2,#0
        0x1000546c:    2000        .       MOVS     r0,#0
        0x1000546e:    4188        .A      SBCS     r0,r0,r1
        0x10005470:    9200        ..      STR      r2,[sp,#0]
        0x10005472:    9001        ..      STR      r0,[sp,#4]
        0x10005474:    9802        ..      LDR      r0,[sp,#8]
        0x10005476:    2140        @!      MOVS     r1,#0x40
        0x10005478:    1a0a        ..      SUBS     r2,r1,r0
        0x1000547a:    9901        ..      LDR      r1,[sp,#4]
        0x1000547c:    9800        ..      LDR      r0,[sp,#0]
        0x1000547e:    f000f9e3    ....    BL       __aeabi_llsl ; 0x10005848
        0x10005482:    4605        .F      MOV      r5,r0
        0x10005484:    460c        .F      MOV      r4,r1
        0x10005486:    466b        kF      MOV      r3,sp
        0x10005488:    cb07        ..      LDM      r3!,{r0-r2}
        0x1000548a:    f000f9fe    ....    BL       __aeabi_lasr ; 0x1000588a
        0x1000548e:    19c0        ..      ADDS     r0,r0,r7
        0x10005490:    4171        qA      ADCS     r1,r1,r6
        0x10005492:    9a03        ..      LDR      r2,[sp,#0xc]
        0x10005494:    0d0e        ..      LSRS     r6,r1,#20
        0x10005496:    2300        .#      MOVS     r3,#0
        0x10005498:    17d7        ..      ASRS     r7,r2,#31
        0x1000549a:    4056        V@      EORS     r6,r6,r2
        0x1000549c:    461a        .F      MOV      r2,r3
        0x1000549e:    407a        z@      EORS     r2,r2,r7
        0x100054a0:    4316        .C      ORRS     r6,r6,r2
        0x100054a2:    d044        D.      BEQ      0x1000552e ; __aeabi_dadd + 290
        0x100054a4:    9a04        ..      LDR      r2,[sp,#0x10]
        0x100054a6:    2a00        .*      CMP      r2,#0
        0x100054a8:    d02d        -.      BEQ      0x10005506 ; __aeabi_dadd + 250
        0x100054aa:    9a02        ..      LDR      r2,[sp,#8]
        0x100054ac:    2a01        .*      CMP      r2,#1
        0x100054ae:    9a03        ..      LDR      r2,[sp,#0xc]
        0x100054b0:    dc15        ..      BGT      0x100054de ; __aeabi_dadd + 210
        0x100054b2:    0512        ..      LSLS     r2,r2,#20
        0x100054b4:    1ac0        ..      SUBS     r0,r0,r3
        0x100054b6:    4191        .A      SBCS     r1,r1,r2
        0x100054b8:    2601        .&      MOVS     r6,#1
        0x100054ba:    0536        6.      LSLS     r6,r6,#20
        0x100054bc:    1c00        ..      ADDS     r0,r0,#0
        0x100054be:    4171        qA      ADCS     r1,r1,r6
        0x100054c0:    0fd2        ..      LSRS     r2,r2,#31
        0x100054c2:    9e05        ..      LDR      r6,[sp,#0x14]
        0x100054c4:    07d2        ..      LSLS     r2,r2,#31
        0x100054c6:    9300        ..      STR      r3,[sp,#0]
        0x100054c8:    9201        ..      STR      r2,[sp,#4]
        0x100054ca:    9602        ..      STR      r6,[sp,#8]
        0x100054cc:    462a        *F      MOV      r2,r5
        0x100054ce:    4623        #F      MOV      r3,r4
        0x100054d0:    f000fa3c    ..<.    BL       _double_epilogue ; 0x1000594c
        0x100054d4:    b007        ..      ADD      sp,sp,#0x1c
        0x100054d6:    bdf0        ..      POP      {r4-r7,pc}
        0x100054d8:    4638        8F      MOV      r0,r7
        0x100054da:    4631        1F      MOV      r1,r6
        0x100054dc:    e7fa        ..      B        0x100054d4 ; __aeabi_dadd + 200
        0x100054de:    0516        ..      LSLS     r6,r2,#20
        0x100054e0:    4a22        "J      LDR      r2,[pc,#136] ; [0x1000556c] = 0xffe00000
        0x100054e2:    460f        .F      MOV      r7,r1
        0x100054e4:    18b2        ..      ADDS     r2,r6,r2
        0x100054e6:    1ac0        ..      SUBS     r0,r0,r3
        0x100054e8:    41b7        .A      SBCS     r7,r7,r6
        0x100054ea:    2101        .!      MOVS     r1,#1
        0x100054ec:    0509        ..      LSLS     r1,r1,#20
        0x100054ee:    1c00        ..      ADDS     r0,r0,#0
        0x100054f0:    414f        OA      ADCS     r7,r7,r1
        0x100054f2:    1800        ..      ADDS     r0,r0,r0
        0x100054f4:    417f        .A      ADCS     r7,r7,r7
        0x100054f6:    4611        .F      MOV      r1,r2
        0x100054f8:    1818        ..      ADDS     r0,r3,r0
        0x100054fa:    4179        yA      ADCS     r1,r1,r7
        0x100054fc:    0fe2        ..      LSRS     r2,r4,#31
        0x100054fe:    4310        .C      ORRS     r0,r0,r2
        0x10005500:    196d        m.      ADDS     r5,r5,r5
        0x10005502:    4164        dA      ADCS     r4,r4,r4
        0x10005504:    e013        ..      B        0x1000552e ; __aeabi_dadd + 290
        0x10005506:    07e2        ..      LSLS     r2,r4,#31
        0x10005508:    086d        m.      LSRS     r5,r5,#1
        0x1000550a:    4315        .C      ORRS     r5,r5,r2
        0x1000550c:    0864        d.      LSRS     r4,r4,#1
        0x1000550e:    07c2        ..      LSLS     r2,r0,#31
        0x10005510:    4314        .C      ORRS     r4,r4,r2
        0x10005512:    9a03        ..      LDR      r2,[sp,#0xc]
        0x10005514:    2601        .&      MOVS     r6,#1
        0x10005516:    0512        ..      LSLS     r2,r2,#20
        0x10005518:    1ac0        ..      SUBS     r0,r0,r3
        0x1000551a:    4191        .A      SBCS     r1,r1,r2
        0x1000551c:    0536        6.      LSLS     r6,r6,#20
        0x1000551e:    1c00        ..      ADDS     r0,r0,#0
        0x10005520:    4171        qA      ADCS     r1,r1,r6
        0x10005522:    07ce        ..      LSLS     r6,r1,#31
        0x10005524:    0840        @.      LSRS     r0,r0,#1
        0x10005526:    4330        0C      ORRS     r0,r0,r6
        0x10005528:    0849        I.      LSRS     r1,r1,#1
        0x1000552a:    18c0        ..      ADDS     r0,r0,r3
        0x1000552c:    4151        QA      ADCS     r1,r1,r2
        0x1000552e:    462a        *F      MOV      r2,r5
        0x10005530:    4623        #F      MOV      r3,r4
        0x10005532:    f000f9fe    ....    BL       _double_round ; 0x10005932
        0x10005536:    e7cd        ..      B        0x100054d4 ; __aeabi_dadd + 200
        0x10005538:    e7ff        ..      B        0x1000553a ; __aeabi_dadd + 302
        0x1000553a:    9804        ..      LDR      r0,[sp,#0x10]
        0x1000553c:    2201        ."      MOVS     r2,#1
        0x1000553e:    0040        @.      LSLS     r0,r0,#1
        0x10005540:    17c1        ..      ASRS     r1,r0,#31
        0x10005542:    1a12        ..      SUBS     r2,r2,r0
        0x10005544:    2300        .#      MOVS     r3,#0
        0x10005546:    418b        .A      SBCS     r3,r3,r1
        0x10005548:    9804        ..      LDR      r0,[sp,#0x10]
        0x1000554a:    4631        1F      MOV      r1,r6
        0x1000554c:    17c4        ..      ASRS     r4,r0,#31
        0x1000554e:    1a38        8.      SUBS     r0,r7,r0
        0x10005550:    41a1        .A      SBCS     r1,r1,r4
        0x10005552:    e7ee        ..      B        0x10005532 ; __aeabi_dadd + 294
    __aeabi_dsub
        0x10005554:    b430        0.      PUSH     {r4,r5}
        0x10005556:    2401        .$      MOVS     r4,#1
        0x10005558:    07e4        ..      LSLS     r4,r4,#31
        0x1000555a:    4063        c@      EORS     r3,r3,r4
        0x1000555c:    bc30        0.      POP      {r4,r5}
        0x1000555e:    e755        U.      B        __aeabi_dadd ; 0x1000540c
    __aeabi_drsub
        0x10005560:    b430        0.      PUSH     {r4,r5}
        0x10005562:    2401        .$      MOVS     r4,#1
        0x10005564:    07e4        ..      LSLS     r4,r4,#31
        0x10005566:    4061        a@      EORS     r1,r1,r4
        0x10005568:    bc30        0.      POP      {r4,r5}
        0x1000556a:    e74f        O.      B        __aeabi_dadd ; 0x1000540c
    $d
        0x1000556c:    ffe00000    ....    DCD    4292870144
    $t
    .text
    __aeabi_dmul
        0x10005570:    b5f0        ..      PUSH     {r4-r7,lr}
        0x10005572:    b41f        ..      PUSH     {r0-r4}
        0x10005574:    b088        ..      SUB      sp,sp,#0x20
        0x10005576:    990b        ..      LDR      r1,[sp,#0x2c]
        0x10005578:    9809        ..      LDR      r0,[sp,#0x24]
        0x1000557a:    2400        .$      MOVS     r4,#0
        0x1000557c:    4048        H@      EORS     r0,r0,r1
        0x1000557e:    9909        ..      LDR      r1,[sp,#0x24]
        0x10005580:    0fc0        ..      LSRS     r0,r0,#31
        0x10005582:    0049        I.      LSLS     r1,r1,#1
        0x10005584:    0849        I.      LSRS     r1,r1,#1
        0x10005586:    9109        ..      STR      r1,[sp,#0x24]
        0x10005588:    07c0        ..      LSLS     r0,r0,#31
        0x1000558a:    990b        ..      LDR      r1,[sp,#0x2c]
        0x1000558c:    9000        ..      STR      r0,[sp,#0]
        0x1000558e:    0049        I.      LSLS     r1,r1,#1
        0x10005590:    0849        I.      LSRS     r1,r1,#1
        0x10005592:    910b        ..      STR      r1,[sp,#0x2c]
        0x10005594:    9909        ..      LDR      r1,[sp,#0x24]
        0x10005596:    9808        ..      LDR      r0,[sp,#0x20]
        0x10005598:    46a6        .F      MOV      lr,r4
        0x1000559a:    4308        .C      ORRS     r0,r0,r1
        0x1000559c:    d01c        ..      BEQ      0x100055d8 ; __aeabi_dmul + 104
        0x1000559e:    990b        ..      LDR      r1,[sp,#0x2c]
        0x100055a0:    980a        ..      LDR      r0,[sp,#0x28]
        0x100055a2:    4308        .C      ORRS     r0,r0,r1
        0x100055a4:    d018        ..      BEQ      0x100055d8 ; __aeabi_dmul + 104
        0x100055a6:    9809        ..      LDR      r0,[sp,#0x24]
        0x100055a8:    2401        .$      MOVS     r4,#1
        0x100055aa:    0040        @.      LSLS     r0,r0,#1
        0x100055ac:    0d42        B.      LSRS     r2,r0,#21
        0x100055ae:    0048        H.      LSLS     r0,r1,#1
        0x100055b0:    0d41        A.      LSRS     r1,r0,#21
        0x100055b2:    9809        ..      LDR      r0,[sp,#0x24]
        0x100055b4:    0524        $.      LSLS     r4,r4,#20
        0x100055b6:    0300        ..      LSLS     r0,r0,#12
        0x100055b8:    0b00        ..      LSRS     r0,r0,#12
        0x100055ba:    4320         C      ORRS     r0,r0,r4
        0x100055bc:    9009        ..      STR      r0,[sp,#0x24]
        0x100055be:    980b        ..      LDR      r0,[sp,#0x2c]
        0x100055c0:    0300        ..      LSLS     r0,r0,#12
        0x100055c2:    0b00        ..      LSRS     r0,r0,#12
        0x100055c4:    4320         C      ORRS     r0,r0,r4
        0x100055c6:    900b        ..      STR      r0,[sp,#0x2c]
        0x100055c8:    1850        P.      ADDS     r0,r2,r1
        0x100055ca:    491c        .I      LDR      r1,[pc,#112] ; [0x1000563c] = 0xfffffc0d
        0x100055cc:    1840        @.      ADDS     r0,r0,r1
        0x100055ce:    2200        ."      MOVS     r2,#0
        0x100055d0:    9001        ..      STR      r0,[sp,#4]
        0x100055d2:    4614        .F      MOV      r4,r2
        0x100055d4:    4610        .F      MOV      r0,r2
        0x100055d6:    e005        ..      B        0x100055e4 ; __aeabi_dmul + 116
        0x100055d8:    2000        .       MOVS     r0,#0
        0x100055da:    4601        .F      MOV      r1,r0
        0x100055dc:    b00d        ..      ADD      sp,sp,#0x34
        0x100055de:    bdf0        ..      POP      {r4-r7,pc}
        0x100055e0:    2803        .(      CMP      r0,#3
        0x100055e2:    da01        ..      BGE      0x100055e8 ; __aeabi_dmul + 120
        0x100055e4:    4603        .F      MOV      r3,r0
        0x100055e6:    e000        ..      B        0x100055ea ; __aeabi_dmul + 122
        0x100055e8:    2303        .#      MOVS     r3,#3
        0x100055ea:    469c        .F      MOV      r12,r3
        0x100055ec:    1ac1        ..      SUBS     r1,r0,r3
        0x100055ee:    ae0a        ..      ADD      r6,sp,#0x28
        0x100055f0:    e00a        ..      B        0x10005608 ; __aeabi_dmul + 152
        0x100055f2:    005f        _.      LSLS     r7,r3,#1
        0x100055f4:    ad08        ..      ADD      r5,sp,#0x20
        0x100055f6:    5bed        .[      LDRH     r5,[r5,r7]
        0x100055f8:    004f        O.      LSLS     r7,r1,#1
        0x100055fa:    5bf7        .[      LDRH     r7,[r6,r7]
        0x100055fc:    437d        }C      MULS     r5,r7,r5
        0x100055fe:    2700        .'      MOVS     r7,#0
        0x10005600:    18aa        ..      ADDS     r2,r5,r2
        0x10005602:    417c        |A      ADCS     r4,r4,r7
        0x10005604:    1c49        I.      ADDS     r1,r1,#1
        0x10005606:    1e5b        [.      SUBS     r3,r3,#1
        0x10005608:    4561        aE      CMP      r1,r12
        0x1000560a:    ddf2        ..      BLE      0x100055f2 ; __aeabi_dmul + 130
        0x1000560c:    0041        A.      LSLS     r1,r0,#1
        0x1000560e:    ab04        ..      ADD      r3,sp,#0x10
        0x10005610:    525a        ZR      STRH     r2,[r3,r1]
        0x10005612:    0421        !.      LSLS     r1,r4,#16
        0x10005614:    0c12        ..      LSRS     r2,r2,#16
        0x10005616:    430a        .C      ORRS     r2,r2,r1
        0x10005618:    0c24        $.      LSRS     r4,r4,#16
        0x1000561a:    1c40        @.      ADDS     r0,r0,#1
        0x1000561c:    2808        .(      CMP      r0,#8
        0x1000561e:    dbdf        ..      BLT      0x100055e0 ; __aeabi_dmul + 112
        0x10005620:    9801        ..      LDR      r0,[sp,#4]
        0x10005622:    9002        ..      STR      r0,[sp,#8]
        0x10005624:    9900        ..      LDR      r1,[sp,#0]
        0x10005626:    4670        pF      MOV      r0,lr
        0x10005628:    9101        ..      STR      r1,[sp,#4]
        0x1000562a:    9000        ..      STR      r0,[sp,#0]
        0x1000562c:    9b05        ..      LDR      r3,[sp,#0x14]
        0x1000562e:    9a04        ..      LDR      r2,[sp,#0x10]
        0x10005630:    9907        ..      LDR      r1,[sp,#0x1c]
        0x10005632:    9806        ..      LDR      r0,[sp,#0x18]
        0x10005634:    f000f98a    ....    BL       _double_epilogue ; 0x1000594c
        0x10005638:    e7d0        ..      B        0x100055dc ; __aeabi_dmul + 108
    $d
        0x1000563a:    0000        ..      DCW    0
        0x1000563c:    fffffc0d    ....    DCD    4294966285
    $t
    .text
    __aeabi_ddiv
        0x10005640:    b5f0        ..      PUSH     {r4-r7,lr}
        0x10005642:    460c        .F      MOV      r4,r1
        0x10005644:    405c        \@      EORS     r4,r4,r3
        0x10005646:    b085        ..      SUB      sp,sp,#0x14
        0x10005648:    0fe4        ..      LSRS     r4,r4,#31
        0x1000564a:    07e4        ..      LSLS     r4,r4,#31
        0x1000564c:    9403        ..      STR      r4,[sp,#0xc]
        0x1000564e:    004c        L.      LSLS     r4,r1,#1
        0x10005650:    2600        .&      MOVS     r6,#0
        0x10005652:    0864        d.      LSRS     r4,r4,#1
        0x10005654:    0059        Y.      LSLS     r1,r3,#1
        0x10005656:    4694        .F      MOV      r12,r2
        0x10005658:    0849        I.      LSRS     r1,r1,#1
        0x1000565a:    4602        .F      MOV      r2,r0
        0x1000565c:    9602        ..      STR      r6,[sp,#8]
        0x1000565e:    4322        "C      ORRS     r2,r2,r4
        0x10005660:    d021        !.      BEQ      0x100056a6 ; __aeabi_ddiv + 102
        0x10005662:    4662        bF      MOV      r2,r12
        0x10005664:    430a        .C      ORRS     r2,r2,r1
        0x10005666:    d01e        ..      BEQ      0x100056a6 ; __aeabi_ddiv + 102
        0x10005668:    0062        b.      LSLS     r2,r4,#1
        0x1000566a:    0d57        W.      LSRS     r7,r2,#21
        0x1000566c:    004a        J.      LSLS     r2,r1,#1
        0x1000566e:    030e        ..      LSLS     r6,r1,#12
        0x10005670:    0323        #.      LSLS     r3,r4,#12
        0x10005672:    0d55        U.      LSRS     r5,r2,#21
        0x10005674:    2401        .$      MOVS     r4,#1
        0x10005676:    4602        .F      MOV      r2,r0
        0x10005678:    492c        ,I      LDR      r1,[pc,#176] ; [0x1000572c] = 0x3fd
        0x1000567a:    0524        $.      LSLS     r4,r4,#20
        0x1000567c:    1b78        x.      SUBS     r0,r7,r5
        0x1000567e:    0b1b        ..      LSRS     r3,r3,#12
        0x10005680:    0b36        6.      LSRS     r6,r6,#12
        0x10005682:    1840        @.      ADDS     r0,r0,r1
        0x10005684:    4323        #C      ORRS     r3,r3,r4
        0x10005686:    4326        &C      ORRS     r6,r6,r4
        0x10005688:    4661        aF      MOV      r1,r12
        0x1000568a:    9000        ..      STR      r0,[sp,#0]
        0x1000568c:    461c        .F      MOV      r4,r3
        0x1000568e:    1a50        P.      SUBS     r0,r2,r1
        0x10005690:    41b4        .A      SBCS     r4,r4,r6
        0x10005692:    d303        ..      BCC      0x1000569c ; __aeabi_ddiv + 92
        0x10005694:    9800        ..      LDR      r0,[sp,#0]
        0x10005696:    1c40        @.      ADDS     r0,r0,#1
        0x10005698:    9000        ..      STR      r0,[sp,#0]
        0x1000569a:    e002        ..      B        0x100056a2 ; __aeabi_ddiv + 98
        0x1000569c:    1892        ..      ADDS     r2,r2,r2
        0x1000569e:    9800        ..      LDR      r0,[sp,#0]
        0x100056a0:    415b        [A      ADCS     r3,r3,r3
        0x100056a2:    2800        .(      CMP      r0,#0
        0x100056a4:    da03        ..      BGE      0x100056ae ; __aeabi_ddiv + 110
        0x100056a6:    2000        .       MOVS     r0,#0
        0x100056a8:    4601        .F      MOV      r1,r0
        0x100056aa:    b005        ..      ADD      sp,sp,#0x14
        0x100056ac:    bdf0        ..      POP      {r4-r7,pc}
        0x100056ae:    2000        .       MOVS     r0,#0
        0x100056b0:    2101        .!      MOVS     r1,#1
        0x100056b2:    0509        ..      LSLS     r1,r1,#20
        0x100056b4:    4607        .F      MOV      r7,r0
        0x100056b6:    4686        .F      MOV      lr,r0
        0x100056b8:    e011        ..      B        0x100056de ; __aeabi_ddiv + 158
        0x100056ba:    4664        dF      MOV      r4,r12
        0x100056bc:    461d        .F      MOV      r5,r3
        0x100056be:    1b14        ..      SUBS     r4,r2,r4
        0x100056c0:    41b5        .A      SBCS     r5,r5,r6
        0x100056c2:    d306        ..      BCC      0x100056d2 ; __aeabi_ddiv + 146
        0x100056c4:    4665        eF      MOV      r5,r12
        0x100056c6:    1b52        R.      SUBS     r2,r2,r5
        0x100056c8:    41b3        .A      SBCS     r3,r3,r6
        0x100056ca:    4674        tF      MOV      r4,lr
        0x100056cc:    4307        .C      ORRS     r7,r7,r0
        0x100056ce:    430c        .C      ORRS     r4,r4,r1
        0x100056d0:    46a6        .F      MOV      lr,r4
        0x100056d2:    07cd        ..      LSLS     r5,r1,#31
        0x100056d4:    0840        @.      LSRS     r0,r0,#1
        0x100056d6:    0849        I.      LSRS     r1,r1,#1
        0x100056d8:    4328        (C      ORRS     r0,r0,r5
        0x100056da:    1892        ..      ADDS     r2,r2,r2
        0x100056dc:    415b        [A      ADCS     r3,r3,r3
        0x100056de:    4605        .F      MOV      r5,r0
        0x100056e0:    430d        .C      ORRS     r5,r5,r1
        0x100056e2:    d1ea        ..      BNE      0x100056ba ; __aeabi_ddiv + 122
        0x100056e4:    4610        .F      MOV      r0,r2
        0x100056e6:    4318        .C      ORRS     r0,r0,r3
        0x100056e8:    d013        ..      BEQ      0x10005712 ; __aeabi_ddiv + 210
        0x100056ea:    4660        `F      MOV      r0,r12
        0x100056ec:    4619        .F      MOV      r1,r3
        0x100056ee:    4050        P@      EORS     r0,r0,r2
        0x100056f0:    4071        q@      EORS     r1,r1,r6
        0x100056f2:    4308        .C      ORRS     r0,r0,r1
        0x100056f4:    d006        ..      BEQ      0x10005704 ; __aeabi_ddiv + 196
        0x100056f6:    4660        `F      MOV      r0,r12
        0x100056f8:    1a10        ..      SUBS     r0,r2,r0
        0x100056fa:    41b3        .A      SBCS     r3,r3,r6
        0x100056fc:    d206        ..      BCS      0x1000570c ; __aeabi_ddiv + 204
        0x100056fe:    2201        ."      MOVS     r2,#1
        0x10005700:    2300        .#      MOVS     r3,#0
        0x10005702:    e006        ..      B        0x10005712 ; __aeabi_ddiv + 210
        0x10005704:    2200        ."      MOVS     r2,#0
        0x10005706:    2301        .#      MOVS     r3,#1
        0x10005708:    07db        ..      LSLS     r3,r3,#31
        0x1000570a:    e002        ..      B        0x10005712 ; __aeabi_ddiv + 210
        0x1000570c:    2201        ."      MOVS     r2,#1
        0x1000570e:    43d2        .C      MVNS     r2,r2
        0x10005710:    1053        S.      ASRS     r3,r2,#1
        0x10005712:    9800        ..      LDR      r0,[sp,#0]
        0x10005714:    4674        tF      MOV      r4,lr
        0x10005716:    0501        ..      LSLS     r1,r0,#20
        0x10005718:    1c38        8.      ADDS     r0,r7,#0
        0x1000571a:    4161        aA      ADCS     r1,r1,r4
        0x1000571c:    9c02        ..      LDR      r4,[sp,#8]
        0x1000571e:    9d03        ..      LDR      r5,[sp,#0xc]
        0x10005720:    1900        ..      ADDS     r0,r0,r4
        0x10005722:    4169        iA      ADCS     r1,r1,r5
        0x10005724:    f000f905    ....    BL       _double_round ; 0x10005932
        0x10005728:    e7bf        ..      B        0x100056aa ; __aeabi_ddiv + 106
    $d
        0x1000572a:    0000        ..      DCW    0
        0x1000572c:    000003fd    ....    DCD    1021
    $t
    .text
    __aeabi_ui2f
        0x10005730:    b510        ..      PUSH     {r4,lr}
        0x10005732:    2200        ."      MOVS     r2,#0
        0x10005734:    2396        .#      MOVS     r3,#0x96
        0x10005736:    4611        .F      MOV      r1,r2
        0x10005738:    f000f8c2    ....    BL       _float_epilogue ; 0x100058c0
        0x1000573c:    bd10        ..      POP      {r4,pc}
        0x1000573e:    0000        ..      MOVS     r0,r0
    .text
    __aeabi_i2d
        0x10005740:    b50e        ..      PUSH     {r1-r3,lr}
        0x10005742:    17c2        ..      ASRS     r2,r0,#31
        0x10005744:    0fc1        ..      LSRS     r1,r0,#31
        0x10005746:    4050        P@      EORS     r0,r0,r2
        0x10005748:    07ca        ..      LSLS     r2,r1,#31
        0x1000574a:    1840        @.      ADDS     r0,r0,r1
        0x1000574c:    2100        .!      MOVS     r1,#0
        0x1000574e:    4b05        .K      LDR      r3,[pc,#20] ; [0x10005764] = 0x433
        0x10005750:    9302        ..      STR      r3,[sp,#8]
        0x10005752:    9201        ..      STR      r2,[sp,#4]
        0x10005754:    9100        ..      STR      r1,[sp,#0]
        0x10005756:    460a        .F      MOV      r2,r1
        0x10005758:    460b        .F      MOV      r3,r1
        0x1000575a:    f000f8f7    ....    BL       _double_epilogue ; 0x1000594c
        0x1000575e:    b003        ..      ADD      sp,sp,#0xc
        0x10005760:    bd00        ..      POP      {pc}
    $d
        0x10005762:    0000        ..      DCW    0
        0x10005764:    00000433    3...    DCD    1075
    $t
    .text
    __aeabi_ui2d
        0x10005768:    b50e        ..      PUSH     {r1-r3,lr}
        0x1000576a:    4905        .I      LDR      r1,[pc,#20] ; [0x10005780] = 0x433
        0x1000576c:    9102        ..      STR      r1,[sp,#8]
        0x1000576e:    2100        .!      MOVS     r1,#0
        0x10005770:    9100        ..      STR      r1,[sp,#0]
        0x10005772:    460a        .F      MOV      r2,r1
        0x10005774:    460b        .F      MOV      r3,r1
        0x10005776:    9101        ..      STR      r1,[sp,#4]
        0x10005778:    f000f8e8    ....    BL       _double_epilogue ; 0x1000594c
        0x1000577c:    b003        ..      ADD      sp,sp,#0xc
        0x1000577e:    bd00        ..      POP      {pc}
    $d
        0x10005780:    00000433    3...    DCD    1075
    $t
    .text
    __aeabi_d2uiz
        0x10005784:    004a        J.      LSLS     r2,r1,#1
        0x10005786:    0309        ..      LSLS     r1,r1,#12
        0x10005788:    2301        .#      MOVS     r3,#1
        0x1000578a:    0b09        ..      LSRS     r1,r1,#12
        0x1000578c:    051b        ..      LSLS     r3,r3,#20
        0x1000578e:    4319        .C      ORRS     r1,r1,r3
        0x10005790:    4b09        .K      LDR      r3,[pc,#36] ; [0x100057b8] = 0x3ff
        0x10005792:    b510        ..      PUSH     {r4,lr}
        0x10005794:    0d52        R.      LSRS     r2,r2,#21
        0x10005796:    429a        .B      CMP      r2,r3
        0x10005798:    da01        ..      BGE      0x1000579e ; __aeabi_d2uiz + 26
        0x1000579a:    2000        .       MOVS     r0,#0
        0x1000579c:    bd10        ..      POP      {r4,pc}
        0x1000579e:    4b06        .K      LDR      r3,[pc,#24] ; [0x100057b8] = 0x3ff
        0x100057a0:    3334        43      ADDS     r3,r3,#0x34
        0x100057a2:    429a        .B      CMP      r2,r3
        0x100057a4:    dc03        ..      BGT      0x100057ae ; __aeabi_d2uiz + 42
        0x100057a6:    1a9a        ..      SUBS     r2,r3,r2
        0x100057a8:    f000f85e    ..^.    BL       __aeabi_llsr ; 0x10005868
        0x100057ac:    bd10        ..      POP      {r4,pc}
        0x100057ae:    4903        .I      LDR      r1,[pc,#12] ; [0x100057bc] = 0xfffffbcd
        0x100057b0:    1851        Q.      ADDS     r1,r2,r1
        0x100057b2:    4088        .@      LSLS     r0,r0,r1
        0x100057b4:    bd10        ..      POP      {r4,pc}
    $d
        0x100057b6:    0000        ..      DCW    0
        0x100057b8:    000003ff    ....    DCD    1023
        0x100057bc:    fffffbcd    ....    DCD    4294966221
    $t
    .text
    __aeabi_f2d
        0x100057c0:    0fc2        ..      LSRS     r2,r0,#31
        0x100057c2:    07d2        ..      LSLS     r2,r2,#31
        0x100057c4:    0040        @.      LSLS     r0,r0,#1
        0x100057c6:    0840        @.      LSRS     r0,r0,#1
        0x100057c8:    d00b        ..      BEQ      0x100057e2 ; __aeabi_f2d + 34
        0x100057ca:    0dc1        ..      LSRS     r1,r0,#23
        0x100057cc:    2307        .#      MOVS     r3,#7
        0x100057ce:    01db        ..      LSLS     r3,r3,#7
        0x100057d0:    18c9        ..      ADDS     r1,r1,r3
        0x100057d2:    0240        @.      LSLS     r0,r0,#9
        0x100057d4:    0509        ..      LSLS     r1,r1,#20
        0x100057d6:    0a40        @.      LSRS     r0,r0,#9
        0x100057d8:    4311        .C      ORRS     r1,r1,r2
        0x100057da:    08c2        ..      LSRS     r2,r0,#3
        0x100057dc:    0740        @.      LSLS     r0,r0,#29
        0x100057de:    4311        .C      ORRS     r1,r1,r2
        0x100057e0:    4770        pG      BX       lr
        0x100057e2:    2000        .       MOVS     r0,#0
        0x100057e4:    4601        .F      MOV      r1,r0
        0x100057e6:    4770        pG      BX       lr
    .text
    __aeabi_uldivmod
        0x100057e8:    b5f0        ..      PUSH     {r4-r7,lr}
        0x100057ea:    b41f        ..      PUSH     {r0-r4}
        0x100057ec:    4606        .F      MOV      r6,r0
        0x100057ee:    2000        .       MOVS     r0,#0
        0x100057f0:    b082        ..      SUB      sp,sp,#8
        0x100057f2:    4605        .F      MOV      r5,r0
        0x100057f4:    2440        @$      MOVS     r4,#0x40
        0x100057f6:    9101        ..      STR      r1,[sp,#4]
        0x100057f8:    9000        ..      STR      r0,[sp,#0]
        0x100057fa:    e01b        ..      B        0x10005834 ; __aeabi_uldivmod + 76
        0x100057fc:    9901        ..      LDR      r1,[sp,#4]
        0x100057fe:    4622        "F      MOV      r2,r4
        0x10005800:    460f        .F      MOV      r7,r1
        0x10005802:    4630        0F      MOV      r0,r6
        0x10005804:    f000f830    ..0.    BL       __aeabi_llsr ; 0x10005868
        0x10005808:    9a04        ..      LDR      r2,[sp,#0x10]
        0x1000580a:    9b05        ..      LDR      r3,[sp,#0x14]
        0x1000580c:    1a80        ..      SUBS     r0,r0,r2
        0x1000580e:    4199        .A      SBCS     r1,r1,r3
        0x10005810:    d310        ..      BCC      0x10005834 ; __aeabi_uldivmod + 76
        0x10005812:    4610        .F      MOV      r0,r2
        0x10005814:    4619        .F      MOV      r1,r3
        0x10005816:    4622        "F      MOV      r2,r4
        0x10005818:    f000f816    ....    BL       __aeabi_llsl ; 0x10005848
        0x1000581c:    1a36        6.      SUBS     r6,r6,r0
        0x1000581e:    418f        .A      SBCS     r7,r7,r1
        0x10005820:    9701        ..      STR      r7,[sp,#4]
        0x10005822:    4622        "F      MOV      r2,r4
        0x10005824:    2001        .       MOVS     r0,#1
        0x10005826:    2100        .!      MOVS     r1,#0
        0x10005828:    9f00        ..      LDR      r7,[sp,#0]
        0x1000582a:    f000f80d    ....    BL       __aeabi_llsl ; 0x10005848
        0x1000582e:    1838        8.      ADDS     r0,r7,r0
        0x10005830:    414d        MA      ADCS     r5,r5,r1
        0x10005832:    9000        ..      STR      r0,[sp,#0]
        0x10005834:    4620         F      MOV      r0,r4
        0x10005836:    1e64        d.      SUBS     r4,r4,#1
        0x10005838:    2800        .(      CMP      r0,#0
        0x1000583a:    dcdf        ..      BGT      0x100057fc ; __aeabi_uldivmod + 20
        0x1000583c:    9b01        ..      LDR      r3,[sp,#4]
        0x1000583e:    9800        ..      LDR      r0,[sp,#0]
        0x10005840:    4629        )F      MOV      r1,r5
        0x10005842:    4632        2F      MOV      r2,r6
        0x10005844:    b007        ..      ADD      sp,sp,#0x1c
        0x10005846:    bdf0        ..      POP      {r4-r7,pc}
    .text
    __aeabi_llsl
    _ll_shift_l
        0x10005848:    b510        ..      PUSH     {r4,lr}
        0x1000584a:    2a20         *      CMP      r2,#0x20
        0x1000584c:    db04        ..      BLT      0x10005858 ; __aeabi_llsl + 16
        0x1000584e:    4601        .F      MOV      r1,r0
        0x10005850:    3a20         :      SUBS     r2,r2,#0x20
        0x10005852:    4091        .@      LSLS     r1,r1,r2
        0x10005854:    2000        .       MOVS     r0,#0
        0x10005856:    bd10        ..      POP      {r4,pc}
        0x10005858:    4091        .@      LSLS     r1,r1,r2
        0x1000585a:    2320         #      MOVS     r3,#0x20
        0x1000585c:    1a9c        ..      SUBS     r4,r3,r2
        0x1000585e:    4603        .F      MOV      r3,r0
        0x10005860:    40e3        .@      LSRS     r3,r3,r4
        0x10005862:    4319        .C      ORRS     r1,r1,r3
        0x10005864:    4090        .@      LSLS     r0,r0,r2
        0x10005866:    bd10        ..      POP      {r4,pc}
    .text
    __aeabi_llsr
    _ll_ushift_r
        0x10005868:    b510        ..      PUSH     {r4,lr}
        0x1000586a:    2a20         *      CMP      r2,#0x20
        0x1000586c:    db04        ..      BLT      0x10005878 ; __aeabi_llsr + 16
        0x1000586e:    4608        .F      MOV      r0,r1
        0x10005870:    3a20         :      SUBS     r2,r2,#0x20
        0x10005872:    40d0        .@      LSRS     r0,r0,r2
        0x10005874:    2100        .!      MOVS     r1,#0
        0x10005876:    bd10        ..      POP      {r4,pc}
        0x10005878:    460b        .F      MOV      r3,r1
        0x1000587a:    40d3        .@      LSRS     r3,r3,r2
        0x1000587c:    40d0        .@      LSRS     r0,r0,r2
        0x1000587e:    2420         $      MOVS     r4,#0x20
        0x10005880:    1aa2        ..      SUBS     r2,r4,r2
        0x10005882:    4091        .@      LSLS     r1,r1,r2
        0x10005884:    4308        .C      ORRS     r0,r0,r1
        0x10005886:    4619        .F      MOV      r1,r3
        0x10005888:    bd10        ..      POP      {r4,pc}
    .text
    __aeabi_lasr
    _ll_sshift_r
        0x1000588a:    b510        ..      PUSH     {r4,lr}
        0x1000588c:    2a20         *      CMP      r2,#0x20
        0x1000588e:    db06        ..      BLT      0x1000589e ; __aeabi_lasr + 20
        0x10005890:    17cb        ..      ASRS     r3,r1,#31
        0x10005892:    4608        .F      MOV      r0,r1
        0x10005894:    3a20         :      SUBS     r2,r2,#0x20
        0x10005896:    4110        .A      ASRS     r0,r0,r2
        0x10005898:    17c1        ..      ASRS     r1,r0,#31
        0x1000589a:    430b        .C      ORRS     r3,r3,r1
        0x1000589c:    e006        ..      B        0x100058ac ; __aeabi_lasr + 34
        0x1000589e:    460b        .F      MOV      r3,r1
        0x100058a0:    4113        .A      ASRS     r3,r3,r2
        0x100058a2:    40d0        .@      LSRS     r0,r0,r2
        0x100058a4:    2420         $      MOVS     r4,#0x20
        0x100058a6:    1aa2        ..      SUBS     r2,r4,r2
        0x100058a8:    4091        .@      LSLS     r1,r1,r2
        0x100058aa:    4308        .C      ORRS     r0,r0,r1
        0x100058ac:    4619        .F      MOV      r1,r3
        0x100058ae:    bd10        ..      POP      {r4,pc}
    .text
    .text
    __I$use$fp
    _float_round
        0x100058b0:    2900        .)      CMP      r1,#0
        0x100058b2:    da04        ..      BGE      0x100058be ; __I$use$fp + 14
        0x100058b4:    1c40        @.      ADDS     r0,r0,#1
        0x100058b6:    0049        I.      LSLS     r1,r1,#1
        0x100058b8:    d101        ..      BNE      0x100058be ; __I$use$fp + 14
        0x100058ba:    0840        @.      LSRS     r0,r0,#1
        0x100058bc:    0040        @.      LSLS     r0,r0,#1
        0x100058be:    4770        pG      BX       lr
    _float_epilogue
        0x100058c0:    b470        p.      PUSH     {r4-r6}
        0x100058c2:    2400        .$      MOVS     r4,#0
        0x100058c4:    0c05        ..      LSRS     r5,r0,#16
        0x100058c6:    d105        ..      BNE      0x100058d4 ; _float_epilogue + 20
        0x100058c8:    2410        .$      MOVS     r4,#0x10
        0x100058ca:    0400        ..      LSLS     r0,r0,#16
        0x100058cc:    d102        ..      BNE      0x100058d4 ; _float_epilogue + 20
        0x100058ce:    2900        .)      CMP      r1,#0
        0x100058d0:    d021        !.      BEQ      0x10005916 ; _float_epilogue + 86
        0x100058d2:    2411        .$      MOVS     r4,#0x11
        0x100058d4:    0e05        ..      LSRS     r5,r0,#24
        0x100058d6:    d101        ..      BNE      0x100058dc ; _float_epilogue + 28
        0x100058d8:    0200        ..      LSLS     r0,r0,#8
        0x100058da:    3408        .4      ADDS     r4,r4,#8
        0x100058dc:    0f05        ..      LSRS     r5,r0,#28
        0x100058de:    d101        ..      BNE      0x100058e4 ; _float_epilogue + 36
        0x100058e0:    0100        ..      LSLS     r0,r0,#4
        0x100058e2:    1d24        $.      ADDS     r4,r4,#4
        0x100058e4:    0f85        ..      LSRS     r5,r0,#30
        0x100058e6:    d101        ..      BNE      0x100058ec ; _float_epilogue + 44
        0x100058e8:    0080        ..      LSLS     r0,r0,#2
        0x100058ea:    1ca4        ..      ADDS     r4,r4,#2
        0x100058ec:    2800        .(      CMP      r0,#0
        0x100058ee:    db01        ..      BLT      0x100058f4 ; _float_epilogue + 52
        0x100058f0:    0040        @.      LSLS     r0,r0,#1
        0x100058f2:    1c64        d.      ADDS     r4,r4,#1
        0x100058f4:    2900        .)      CMP      r1,#0
        0x100058f6:    d008        ..      BEQ      0x1000590a ; _float_epilogue + 74
        0x100058f8:    2520         %      MOVS     r5,#0x20
        0x100058fa:    1b2e        ..      SUBS     r6,r5,r4
        0x100058fc:    460d        .F      MOV      r5,r1
        0x100058fe:    40f5        .@      LSRS     r5,r5,r6
        0x10005900:    40a1        .@      LSLS     r1,r1,r4
        0x10005902:    d000        ..      BEQ      0x10005906 ; _float_epilogue + 70
        0x10005904:    2101        .!      MOVS     r1,#1
        0x10005906:    4329        )C      ORRS     r1,r1,r5
        0x10005908:    4308        .C      ORRS     r0,r0,r1
        0x1000590a:    0601        ..      LSLS     r1,r0,#24
        0x1000590c:    1b1b        ..      SUBS     r3,r3,r4
        0x1000590e:    0a00        ..      LSRS     r0,r0,#8
        0x10005910:    1ddb        ..      ADDS     r3,r3,#7
        0x10005912:    d502        ..      BPL      0x1000591a ; _float_epilogue + 90
        0x10005914:    2000        .       MOVS     r0,#0
        0x10005916:    bc70        p.      POP      {r4-r6}
        0x10005918:    4770        pG      BX       lr
        0x1000591a:    05db        ..      LSLS     r3,r3,#23
        0x1000591c:    1818        ..      ADDS     r0,r3,r0
        0x1000591e:    1880        ..      ADDS     r0,r0,r2
        0x10005920:    2900        .)      CMP      r1,#0
        0x10005922:    daf8        ..      BGE      0x10005916 ; _float_epilogue + 86
        0x10005924:    1c40        @.      ADDS     r0,r0,#1
        0x10005926:    0049        I.      LSLS     r1,r1,#1
        0x10005928:    d1f5        ..      BNE      0x10005916 ; _float_epilogue + 86
        0x1000592a:    bc70        p.      POP      {r4-r6}
        0x1000592c:    0840        @.      LSRS     r0,r0,#1
        0x1000592e:    0040        @.      LSLS     r0,r0,#1
        0x10005930:    4770        pG      BX       lr
    .text
    _double_round
        0x10005932:    b510        ..      PUSH     {r4,lr}
        0x10005934:    2b00        .+      CMP      r3,#0
        0x10005936:    da08        ..      BGE      0x1000594a ; _double_round + 24
        0x10005938:    2400        .$      MOVS     r4,#0
        0x1000593a:    1c40        @.      ADDS     r0,r0,#1
        0x1000593c:    4161        aA      ADCS     r1,r1,r4
        0x1000593e:    1892        ..      ADDS     r2,r2,r2
        0x10005940:    415b        [A      ADCS     r3,r3,r3
        0x10005942:    431a        .C      ORRS     r2,r2,r3
        0x10005944:    d101        ..      BNE      0x1000594a ; _double_round + 24
        0x10005946:    0840        @.      LSRS     r0,r0,#1
        0x10005948:    0040        @.      LSLS     r0,r0,#1
        0x1000594a:    bd10        ..      POP      {r4,pc}
    _double_epilogue
        0x1000594c:    b5f0        ..      PUSH     {r4-r7,lr}
        0x1000594e:    b41f        ..      PUSH     {r0-r4}
        0x10005950:    b082        ..      SUB      sp,sp,#8
        0x10005952:    4605        .F      MOV      r5,r0
        0x10005954:    000c        ..      MOVS     r4,r1
        0x10005956:    d003        ..      BEQ      0x10005960 ; _double_epilogue + 20
        0x10005958:    4608        .F      MOV      r0,r1
        0x1000595a:    f000f8cf    ....    BL       __ARM_clz ; 0x10005afc
        0x1000595e:    e002        ..      B        0x10005966 ; _double_epilogue + 26
        0x10005960:    f000f8cc    ....    BL       __ARM_clz ; 0x10005afc
        0x10005964:    3020         0      ADDS     r0,r0,#0x20
        0x10005966:    4602        .F      MOV      r2,r0
        0x10005968:    9000        ..      STR      r0,[sp,#0]
        0x1000596a:    4621        !F      MOV      r1,r4
        0x1000596c:    4628        (F      MOV      r0,r5
        0x1000596e:    f7ffff6b    ..k.    BL       __aeabi_llsl ; 0x10005848
        0x10005972:    9b04        ..      LDR      r3,[sp,#0x10]
        0x10005974:    9a05        ..      LDR      r2,[sp,#0x14]
        0x10005976:    4604        .F      MOV      r4,r0
        0x10005978:    460f        .F      MOV      r7,r1
        0x1000597a:    4318        .C      ORRS     r0,r0,r3
        0x1000597c:    4311        .C      ORRS     r1,r1,r2
        0x1000597e:    4308        .C      ORRS     r0,r0,r1
        0x10005980:    d014        ..      BEQ      0x100059ac ; _double_epilogue + 96
        0x10005982:    4618        .F      MOV      r0,r3
        0x10005984:    4310        .C      ORRS     r0,r0,r2
        0x10005986:    d01b        ..      BEQ      0x100059c0 ; _double_epilogue + 116
        0x10005988:    9800        ..      LDR      r0,[sp,#0]
        0x1000598a:    2140        @!      MOVS     r1,#0x40
        0x1000598c:    1a0a        ..      SUBS     r2,r1,r0
        0x1000598e:    4618        .F      MOV      r0,r3
        0x10005990:    9905        ..      LDR      r1,[sp,#0x14]
        0x10005992:    f7ffff69    ..i.    BL       __aeabi_llsr ; 0x10005868
        0x10005996:    4605        .F      MOV      r5,r0
        0x10005998:    460e        .F      MOV      r6,r1
        0x1000599a:    9a00        ..      LDR      r2,[sp,#0]
        0x1000599c:    9905        ..      LDR      r1,[sp,#0x14]
        0x1000599e:    9804        ..      LDR      r0,[sp,#0x10]
        0x100059a0:    f7ffff52    ..R.    BL       __aeabi_llsl ; 0x10005848
        0x100059a4:    4308        .C      ORRS     r0,r0,r1
        0x100059a6:    d005        ..      BEQ      0x100059b4 ; _double_epilogue + 104
        0x100059a8:    2001        .       MOVS     r0,#1
        0x100059aa:    e004        ..      B        0x100059b6 ; _double_epilogue + 106
        0x100059ac:    4620         F      MOV      r0,r4
        0x100059ae:    4639        9F      MOV      r1,r7
        0x100059b0:    b007        ..      ADD      sp,sp,#0x1c
        0x100059b2:    bdf0        ..      POP      {r4-r7,pc}
        0x100059b4:    2000        .       MOVS     r0,#0
        0x100059b6:    17c1        ..      ASRS     r1,r0,#31
        0x100059b8:    4305        .C      ORRS     r5,r5,r0
        0x100059ba:    430e        .C      ORRS     r6,r6,r1
        0x100059bc:    432c        ,C      ORRS     r4,r4,r5
        0x100059be:    4337        7C      ORRS     r7,r7,r6
        0x100059c0:    9900        ..      LDR      r1,[sp,#0]
        0x100059c2:    980e        ..      LDR      r0,[sp,#0x38]
        0x100059c4:    0563        c.      LSLS     r3,r4,#21
        0x100059c6:    1a40        @.      SUBS     r0,r0,r1
        0x100059c8:    0579        y.      LSLS     r1,r7,#21
        0x100059ca:    0ae4        ..      LSRS     r4,r4,#11
        0x100059cc:    2200        ."      MOVS     r2,#0
        0x100059ce:    430c        .C      ORRS     r4,r4,r1
        0x100059d0:    0afd        ..      LSRS     r5,r7,#11
        0x100059d2:    300a        .0      ADDS     r0,r0,#0xa
        0x100059d4:    d502        ..      BPL      0x100059dc ; _double_epilogue + 144
        0x100059d6:    2000        .       MOVS     r0,#0
        0x100059d8:    4601        .F      MOV      r1,r0
        0x100059da:    e7e9        ..      B        0x100059b0 ; _double_epilogue + 100
        0x100059dc:    0501        ..      LSLS     r1,r0,#20
        0x100059de:    1910        ..      ADDS     r0,r2,r4
        0x100059e0:    4169        iA      ADCS     r1,r1,r5
        0x100059e2:    9c0c        ..      LDR      r4,[sp,#0x30]
        0x100059e4:    9d0d        ..      LDR      r5,[sp,#0x34]
        0x100059e6:    1900        ..      ADDS     r0,r0,r4
        0x100059e8:    4169        iA      ADCS     r1,r1,r5
        0x100059ea:    f7ffffa2    ....    BL       _double_round ; 0x10005932
        0x100059ee:    e7df        ..      B        0x100059b0 ; _double_epilogue + 100
    .text
    __aeabi_d2ulz
        0x100059f0:    004a        J.      LSLS     r2,r1,#1
        0x100059f2:    0309        ..      LSLS     r1,r1,#12
        0x100059f4:    2301        .#      MOVS     r3,#1
        0x100059f6:    0b09        ..      LSRS     r1,r1,#12
        0x100059f8:    051b        ..      LSLS     r3,r3,#20
        0x100059fa:    4319        .C      ORRS     r1,r1,r3
        0x100059fc:    4b0a        .K      LDR      r3,[pc,#40] ; [0x10005a28] = 0x3ff
        0x100059fe:    b510        ..      PUSH     {r4,lr}
        0x10005a00:    0d52        R.      LSRS     r2,r2,#21
        0x10005a02:    429a        .B      CMP      r2,r3
        0x10005a04:    da02        ..      BGE      0x10005a0c ; __aeabi_d2ulz + 28
        0x10005a06:    2000        .       MOVS     r0,#0
        0x10005a08:    4601        .F      MOV      r1,r0
        0x10005a0a:    bd10        ..      POP      {r4,pc}
        0x10005a0c:    4b06        .K      LDR      r3,[pc,#24] ; [0x10005a28] = 0x3ff
        0x10005a0e:    3334        43      ADDS     r3,r3,#0x34
        0x10005a10:    429a        .B      CMP      r2,r3
        0x10005a12:    dc03        ..      BGT      0x10005a1c ; __aeabi_d2ulz + 44
        0x10005a14:    1a9a        ..      SUBS     r2,r3,r2
        0x10005a16:    f7ffff27    ..'.    BL       __aeabi_llsr ; 0x10005868
        0x10005a1a:    bd10        ..      POP      {r4,pc}
        0x10005a1c:    4b03        .K      LDR      r3,[pc,#12] ; [0x10005a2c] = 0xfffffbcd
        0x10005a1e:    18d2        ..      ADDS     r2,r2,r3
        0x10005a20:    f7ffff12    ....    BL       __aeabi_llsl ; 0x10005848
        0x10005a24:    bd10        ..      POP      {r4,pc}
    $d
        0x10005a26:    0000        ..      DCW    0
        0x10005a28:    000003ff    ....    DCD    1023
        0x10005a2c:    fffffbcd    ....    DCD    4294966221
    $t
    .text
    __aeabi_cdrcmple
        0x10005a30:    b510        ..      PUSH     {r4,lr}
        0x10005a32:    2900        .)      CMP      r1,#0
        0x10005a34:    db04        ..      BLT      0x10005a40 ; __aeabi_cdrcmple + 16
        0x10005a36:    2401        .$      MOVS     r4,#1
        0x10005a38:    07e4        ..      LSLS     r4,r4,#31
        0x10005a3a:    4240        @B      RSBS     r0,r0,#0
        0x10005a3c:    418c        .A      SBCS     r4,r4,r1
        0x10005a3e:    4621        !F      MOV      r1,r4
        0x10005a40:    2b00        .+      CMP      r3,#0
        0x10005a42:    db04        ..      BLT      0x10005a4e ; __aeabi_cdrcmple + 30
        0x10005a44:    461c        .F      MOV      r4,r3
        0x10005a46:    2301        .#      MOVS     r3,#1
        0x10005a48:    07db        ..      LSLS     r3,r3,#31
        0x10005a4a:    4252        RB      RSBS     r2,r2,#0
        0x10005a4c:    41a3        .A      SBCS     r3,r3,r4
        0x10005a4e:    4299        .B      CMP      r1,r3
        0x10005a50:    d100        ..      BNE      0x10005a54 ; __aeabi_cdrcmple + 36
        0x10005a52:    4290        .B      CMP      r0,r2
        0x10005a54:    bd10        ..      POP      {r4,pc}
    $d
        0x10005a56:    0000        ..      DCW    0
    $t
    .text
    __scatterload
    __scatterload_rt2
        0x10005a58:    4c06        .L      LDR      r4,[pc,#24] ; [0x10005a74] = 0x10006410
        0x10005a5a:    2501        .%      MOVS     r5,#1
        0x10005a5c:    4e06        .N      LDR      r6,[pc,#24] ; [0x10005a78] = 0x10006430
        0x10005a5e:    e005        ..      B        0x10005a6c ; __scatterload + 20
        0x10005a60:    68e3        .h      LDR      r3,[r4,#0xc]
        0x10005a62:    cc07        ..      LDM      r4!,{r0-r2}
        0x10005a64:    432b        +C      ORRS     r3,r3,r5
        0x10005a66:    3c0c        .<      SUBS     r4,r4,#0xc
        0x10005a68:    4798        .G      BLX      r3
        0x10005a6a:    3410        .4      ADDS     r4,r4,#0x10
        0x10005a6c:    42b4        .B      CMP      r4,r6
        0x10005a6e:    d3f7        ..      BCC      0x10005a60 ; __scatterload + 8
        0x10005a70:    f7fafb2a    ..*.    BL       __main_after_scatterload ; 0x100000c8
    $d
        0x10005a74:    10006410    .d..    DCD    268461072
        0x10005a78:    10006430    0d..    DCD    268461104
    $t
    .text
    __decompress
    __decompress1
        0x10005a7c:    b570        p.      PUSH     {r4-r6,lr}
        0x10005a7e:    188c        ..      ADDS     r4,r1,r2
        0x10005a80:    7805        .x      LDRB     r5,[r0,#0]
        0x10005a82:    1c40        @.      ADDS     r0,r0,#1
        0x10005a84:    076b        k.      LSLS     r3,r5,#29
        0x10005a86:    0f5b        [.      LSRS     r3,r3,#29
        0x10005a88:    d101        ..      BNE      0x10005a8e ; __decompress + 18
        0x10005a8a:    7803        .x      LDRB     r3,[r0,#0]
        0x10005a8c:    1c40        @.      ADDS     r0,r0,#1
        0x10005a8e:    112a        *.      ASRS     r2,r5,#4
        0x10005a90:    d106        ..      BNE      0x10005aa0 ; __decompress + 36
        0x10005a92:    7802        .x      LDRB     r2,[r0,#0]
        0x10005a94:    1c40        @.      ADDS     r0,r0,#1
        0x10005a96:    e003        ..      B        0x10005aa0 ; __decompress + 36
        0x10005a98:    7806        .x      LDRB     r6,[r0,#0]
        0x10005a9a:    700e        .p      STRB     r6,[r1,#0]
        0x10005a9c:    1c40        @.      ADDS     r0,r0,#1
        0x10005a9e:    1c49        I.      ADDS     r1,r1,#1
        0x10005aa0:    1e5b        [.      SUBS     r3,r3,#1
        0x10005aa2:    d1f9        ..      BNE      0x10005a98 ; __decompress + 28
        0x10005aa4:    072b        +.      LSLS     r3,r5,#28
        0x10005aa6:    d405        ..      BMI      0x10005ab4 ; __decompress + 56
        0x10005aa8:    2300        .#      MOVS     r3,#0
        0x10005aaa:    1e52        R.      SUBS     r2,r2,#1
        0x10005aac:    d40d        ..      BMI      0x10005aca ; __decompress + 78
        0x10005aae:    700b        .p      STRB     r3,[r1,#0]
        0x10005ab0:    1c49        I.      ADDS     r1,r1,#1
        0x10005ab2:    e7fa        ..      B        0x10005aaa ; __decompress + 46
        0x10005ab4:    7803        .x      LDRB     r3,[r0,#0]
        0x10005ab6:    1c40        @.      ADDS     r0,r0,#1
        0x10005ab8:    1acb        ..      SUBS     r3,r1,r3
        0x10005aba:    1c92        ..      ADDS     r2,r2,#2
        0x10005abc:    e003        ..      B        0x10005ac6 ; __decompress + 74
        0x10005abe:    781d        .x      LDRB     r5,[r3,#0]
        0x10005ac0:    700d        .p      STRB     r5,[r1,#0]
        0x10005ac2:    1c49        I.      ADDS     r1,r1,#1
        0x10005ac4:    1c5b        [.      ADDS     r3,r3,#1
        0x10005ac6:    1e52        R.      SUBS     r2,r2,#1
        0x10005ac8:    d5f9        ..      BPL      0x10005abe ; __decompress + 66
        0x10005aca:    42a1        .B      CMP      r1,r4
        0x10005acc:    d3d8        ..      BCC      0x10005a80 ; __decompress + 4
        0x10005ace:    2000        .       MOVS     r0,#0
        0x10005ad0:    bd70        p.      POP      {r4-r6,pc}
        0x10005ad2:    0000        ..      MOVS     r0,r0
    i.__0sprintf
    __0sprintf
    __1sprintf
    __2sprintf
    __c89sprintf
    sprintf
        0x10005ad4:    b40f        ..      PUSH     {r0-r3}
        0x10005ad6:    b510        ..      PUSH     {r4,lr}
        0x10005ad8:    a904        ..      ADD      r1,sp,#0x10
        0x10005ada:    4b07        .K      LDR      r3,[pc,#28] ; [0x10005af8] = 0x100063f5
        0x10005adc:    aa02        ..      ADD      r2,sp,#8
        0x10005ade:    9803        ..      LDR      r0,[sp,#0xc]
        0x10005ae0:    f000f8ec    ....    BL       _printf_core ; 0x10005cbc
        0x10005ae4:    4604        .F      MOV      r4,r0
        0x10005ae6:    a902        ..      ADD      r1,sp,#8
        0x10005ae8:    2000        .       MOVS     r0,#0
        0x10005aea:    f000fc83    ....    BL       _sputc ; 0x100063f4
        0x10005aee:    4620         F      MOV      r0,r4
        0x10005af0:    bc10        ..      POP      {r4}
        0x10005af2:    bc08        ..      POP      {r3}
        0x10005af4:    b004        ..      ADD      sp,sp,#0x10
        0x10005af6:    4718        .G      BX       r3
    $d
        0x10005af8:    100063f5    .c..    DCD    268461045
    $t
    i.__ARM_clz
    __ARM_clz
        0x10005afc:    2120         !      MOVS     r1,#0x20
        0x10005afe:    0c02        ..      LSRS     r2,r0,#16
        0x10005b00:    d001        ..      BEQ      0x10005b06 ; __ARM_clz + 10
        0x10005b02:    2110        .!      MOVS     r1,#0x10
        0x10005b04:    4610        .F      MOV      r0,r2
        0x10005b06:    0a02        ..      LSRS     r2,r0,#8
        0x10005b08:    d001        ..      BEQ      0x10005b0e ; __ARM_clz + 18
        0x10005b0a:    4610        .F      MOV      r0,r2
        0x10005b0c:    3908        .9      SUBS     r1,r1,#8
        0x10005b0e:    0902        ..      LSRS     r2,r0,#4
        0x10005b10:    d001        ..      BEQ      0x10005b16 ; __ARM_clz + 26
        0x10005b12:    4610        .F      MOV      r0,r2
        0x10005b14:    1f09        ..      SUBS     r1,r1,#4
        0x10005b16:    0882        ..      LSRS     r2,r0,#2
        0x10005b18:    d001        ..      BEQ      0x10005b1e ; __ARM_clz + 34
        0x10005b1a:    4610        .F      MOV      r0,r2
        0x10005b1c:    1e89        ..      SUBS     r1,r1,#2
        0x10005b1e:    0842        B.      LSRS     r2,r0,#1
        0x10005b20:    d001        ..      BEQ      0x10005b26 ; __ARM_clz + 42
        0x10005b22:    1e88        ..      SUBS     r0,r1,#2
        0x10005b24:    4770        pG      BX       lr
        0x10005b26:    1a08        ..      SUBS     r0,r1,r0
        0x10005b28:    4770        pG      BX       lr
    i.__ARM_common_switch8
    __ARM_common_switch8
        0x10005b2a:    b430        0.      PUSH     {r4,r5}
        0x10005b2c:    4674        tF      MOV      r4,lr
        0x10005b2e:    1e64        d.      SUBS     r4,r4,#1
        0x10005b30:    7825        %x      LDRB     r5,[r4,#0]
        0x10005b32:    1c64        d.      ADDS     r4,r4,#1
        0x10005b34:    42ab        .B      CMP      r3,r5
        0x10005b36:    d200        ..      BCS      0x10005b3a ; __ARM_common_switch8 + 16
        0x10005b38:    461d        .F      MOV      r5,r3
        0x10005b3a:    5d63        c]      LDRB     r3,[r4,r5]
        0x10005b3c:    005b        [.      LSLS     r3,r3,#1
        0x10005b3e:    18e3        ..      ADDS     r3,r4,r3
        0x10005b40:    bc30        0.      POP      {r4,r5}
        0x10005b42:    4718        .G      BX       r3
    i.__scatterload_copy
    __scatterload_copy
        0x10005b44:    e002        ..      B        0x10005b4c ; __scatterload_copy + 8
        0x10005b46:    c808        ..      LDM      r0!,{r3}
        0x10005b48:    1f12        ..      SUBS     r2,r2,#4
        0x10005b4a:    c108        ..      STM      r1!,{r3}
        0x10005b4c:    2a00        .*      CMP      r2,#0
        0x10005b4e:    d1fa        ..      BNE      0x10005b46 ; __scatterload_copy + 2
        0x10005b50:    4770        pG      BX       lr
    i.__scatterload_null
    __scatterload_null
        0x10005b52:    4770        pG      BX       lr
    i.__scatterload_zeroinit
    __scatterload_zeroinit
        0x10005b54:    2000        .       MOVS     r0,#0
        0x10005b56:    e001        ..      B        0x10005b5c ; __scatterload_zeroinit + 8
        0x10005b58:    c101        ..      STM      r1!,{r0}
        0x10005b5a:    1f12        ..      SUBS     r2,r2,#4
        0x10005b5c:    2a00        .*      CMP      r2,#0
        0x10005b5e:    d1fb        ..      BNE      0x10005b58 ; __scatterload_zeroinit + 4
        0x10005b60:    4770        pG      BX       lr
        0x10005b62:    0000        ..      MOVS     r0,r0
    i._fp_digits
    _fp_digits
        0x10005b64:    b5f0        ..      PUSH     {r4-r7,lr}
        0x10005b66:    b41f        ..      PUSH     {r0-r4}
        0x10005b68:    b084        ..      SUB      sp,sp,#0x10
        0x10005b6a:    9807        ..      LDR      r0,[sp,#0x1c]
        0x10005b6c:    9906        ..      LDR      r1,[sp,#0x18]
        0x10005b6e:    0d02        ..      LSRS     r2,r0,#20
        0x10005b70:    4301        .C      ORRS     r1,r1,r0
        0x10005b72:    d014        ..      BEQ      0x10005b9e ; _fp_digits + 58
        0x10005b74:    484a        JH      LDR      r0,[pc,#296] ; [0x10005ca0] = 0xfffffc01
        0x10005b76:    494b        KI      LDR      r1,[pc,#300] ; [0x10005ca4] = 0x4d10
        0x10005b78:    1810        ..      ADDS     r0,r2,r0
        0x10005b7a:    4348        HC      MULS     r0,r1,r0
        0x10005b7c:    1405        ..      ASRS     r5,r0,#16
        0x10005b7e:    980f        ..      LDR      r0,[sp,#0x3c]
        0x10005b80:    2801        .(      CMP      r0,#1
        0x10005b82:    980e        ..      LDR      r0,[sp,#0x38]
        0x10005b84:    d01c        ..      BEQ      0x10005bc0 ; _fp_digits + 92
        0x10005b86:    1a28        (.      SUBS     r0,r5,r0
        0x10005b88:    1c40        @.      ADDS     r0,r0,#1
        0x10005b8a:    2400        .$      MOVS     r4,#0
        0x10005b8c:    4e46        FN      LDR      r6,[pc,#280] ; [0x10005ca8] = 0x40240000
        0x10005b8e:    4947        GI      LDR      r1,[pc,#284] ; [0x10005cac] = 0x3ff00000
        0x10005b90:    9400        ..      STR      r4,[sp,#0]
        0x10005b92:    9101        ..      STR      r1,[sp,#4]
        0x10005b94:    9002        ..      STR      r0,[sp,#8]
        0x10005b96:    2800        .(      CMP      r0,#0
        0x10005b98:    da14        ..      BGE      0x10005bc4 ; _fp_digits + 96
        0x10005b9a:    4247        GB      RSBS     r7,r0,#0
        0x10005b9c:    e027        '.      B        0x10005bee ; _fp_digits + 138
        0x10005b9e:    980f        ..      LDR      r0,[sp,#0x3c]
        0x10005ba0:    2401        .$      MOVS     r4,#1
        0x10005ba2:    a343        C.      ADR      r3,{pc}+0x10e ; 0x10005cb0
        0x10005ba4:    2801        .(      CMP      r0,#1
        0x10005ba6:    d008        ..      BEQ      0x10005bba ; _fp_digits + 86
        0x10005ba8:    2100        .!      MOVS     r1,#0
        0x10005baa:    9804        ..      LDR      r0,[sp,#0x10]
        0x10005bac:    9a0f        ..      LDR      r2,[sp,#0x3c]
        0x10005bae:    6084        .`      STR      r4,[r0,#8]
        0x10005bb0:    6003        .`      STR      r3,[r0,#0]
        0x10005bb2:    60c2        .`      STR      r2,[r0,#0xc]
        0x10005bb4:    6041        A`      STR      r1,[r0,#4]
        0x10005bb6:    b009        ..      ADD      sp,sp,#0x24
        0x10005bb8:    bdf0        ..      POP      {r4-r7,pc}
        0x10005bba:    980e        ..      LDR      r0,[sp,#0x38]
        0x10005bbc:    43c1        .C      MVNS     r1,r0
        0x10005bbe:    e7f4        ..      B        0x10005baa ; _fp_digits + 70
        0x10005bc0:    4240        @B      RSBS     r0,r0,#0
        0x10005bc2:    e7e2        ..      B        0x10005b8a ; _fp_digits + 38
        0x10005bc4:    4607        .F      MOV      r7,r0
        0x10005bc6:    e012        ..      B        0x10005bee ; _fp_digits + 138
        0x10005bc8:    07f8        ..      LSLS     r0,r7,#31
        0x10005bca:    d007        ..      BEQ      0x10005bdc ; _fp_digits + 120
        0x10005bcc:    4622        "F      MOV      r2,r4
        0x10005bce:    4633        3F      MOV      r3,r6
        0x10005bd0:    9901        ..      LDR      r1,[sp,#4]
        0x10005bd2:    9800        ..      LDR      r0,[sp,#0]
        0x10005bd4:    f7fffccc    ....    BL       __aeabi_dmul ; 0x10005570
        0x10005bd8:    9101        ..      STR      r1,[sp,#4]
        0x10005bda:    9000        ..      STR      r0,[sp,#0]
        0x10005bdc:    4622        "F      MOV      r2,r4
        0x10005bde:    4633        3F      MOV      r3,r6
        0x10005be0:    4610        .F      MOV      r0,r2
        0x10005be2:    4619        .F      MOV      r1,r3
        0x10005be4:    f7fffcc4    ....    BL       __aeabi_dmul ; 0x10005570
        0x10005be8:    4604        .F      MOV      r4,r0
        0x10005bea:    460e        .F      MOV      r6,r1
        0x10005bec:    107f        ..      ASRS     r7,r7,#1
        0x10005bee:    2f00        ./      CMP      r7,#0
        0x10005bf0:    d1ea        ..      BNE      0x10005bc8 ; _fp_digits + 100
        0x10005bf2:    9802        ..      LDR      r0,[sp,#8]
        0x10005bf4:    9b01        ..      LDR      r3,[sp,#4]
        0x10005bf6:    2800        .(      CMP      r0,#0
        0x10005bf8:    9a00        ..      LDR      r2,[sp,#0]
        0x10005bfa:    9907        ..      LDR      r1,[sp,#0x1c]
        0x10005bfc:    9806        ..      LDR      r0,[sp,#0x18]
        0x10005bfe:    da02        ..      BGE      0x10005c06 ; _fp_digits + 162
        0x10005c00:    f7fffcb6    ....    BL       __aeabi_dmul ; 0x10005570
        0x10005c04:    e001        ..      B        0x10005c0a ; _fp_digits + 166
        0x10005c06:    f7fffd1b    ....    BL       __aeabi_ddiv ; 0x10005640
        0x10005c0a:    4604        .F      MOV      r4,r0
        0x10005c0c:    460e        .F      MOV      r6,r1
        0x10005c0e:    2200        ."      MOVS     r2,#0
        0x10005c10:    4b28        (K      LDR      r3,[pc,#160] ; [0x10005cb4] = 0x43f00000
        0x10005c12:    f7ffff0d    ....    BL       __aeabi_cdrcmple ; 0x10005a30
        0x10005c16:    d803        ..      BHI      0x10005c20 ; _fp_digits + 188
        0x10005c18:    2000        .       MOVS     r0,#0
        0x10005c1a:    43c0        .C      MVNS     r0,r0
        0x10005c1c:    4601        .F      MOV      r1,r0
        0x10005c1e:    e007        ..      B        0x10005c30 ; _fp_digits + 204
        0x10005c20:    2200        ."      MOVS     r2,#0
        0x10005c22:    4b25        %K      LDR      r3,[pc,#148] ; [0x10005cb8] = 0x3fe00000
        0x10005c24:    4620         F      MOV      r0,r4
        0x10005c26:    4631        1F      MOV      r1,r6
        0x10005c28:    f7fffbf0    ....    BL       __aeabi_dadd ; 0x1000540c
        0x10005c2c:    f7fffee0    ....    BL       __aeabi_d2ulz ; 0x100059f0
        0x10005c30:    2410        .$      MOVS     r4,#0x10
        0x10005c32:    e009        ..      B        0x10005c48 ; _fp_digits + 228
        0x10005c34:    2c00        .,      CMP      r4,#0
        0x10005c36:    db0a        ..      BLT      0x10005c4e ; _fp_digits + 234
        0x10005c38:    220a        ."      MOVS     r2,#0xa
        0x10005c3a:    2300        .#      MOVS     r3,#0
        0x10005c3c:    f7fffdd4    ....    BL       __aeabi_uldivmod ; 0x100057e8
        0x10005c40:    9b05        ..      LDR      r3,[sp,#0x14]
        0x10005c42:    3230        02      ADDS     r2,r2,#0x30
        0x10005c44:    551a        .U      STRB     r2,[r3,r4]
        0x10005c46:    1e64        d.      SUBS     r4,r4,#1
        0x10005c48:    4602        .F      MOV      r2,r0
        0x10005c4a:    430a        .C      ORRS     r2,r2,r1
        0x10005c4c:    d1f2        ..      BNE      0x10005c34 ; _fp_digits + 208
        0x10005c4e:    2211        ."      MOVS     r2,#0x11
        0x10005c50:    1c64        d.      ADDS     r4,r4,#1
        0x10005c52:    9b05        ..      LDR      r3,[sp,#0x14]
        0x10005c54:    1b12        ..      SUBS     r2,r2,r4
        0x10005c56:    191c        ..      ADDS     r4,r3,r4
        0x10005c58:    9b0f        ..      LDR      r3,[sp,#0x3c]
        0x10005c5a:    2b01        .+      CMP      r3,#1
        0x10005c5c:    d003        ..      BEQ      0x10005c66 ; _fp_digits + 258
        0x10005c5e:    2301        .#      MOVS     r3,#1
        0x10005c60:    4308        .C      ORRS     r0,r0,r1
        0x10005c62:    d10e        ..      BNE      0x10005c82 ; _fp_digits + 286
        0x10005c64:    e00a        ..      B        0x10005c7c ; _fp_digits + 280
        0x10005c66:    4308        .C      ORRS     r0,r0,r1
        0x10005c68:    d004        ..      BEQ      0x10005c74 ; _fp_digits + 272
        0x10005c6a:    2011        .       MOVS     r0,#0x11
        0x10005c6c:    900e        ..      STR      r0,[sp,#0x38]
        0x10005c6e:    2000        .       MOVS     r0,#0
        0x10005c70:    900f        ..      STR      r0,[sp,#0x3c]
        0x10005c72:    e784        ..      B        0x10005b7e ; _fp_digits + 26
        0x10005c74:    980e        ..      LDR      r0,[sp,#0x38]
        0x10005c76:    1a15        ..      SUBS     r5,r2,r0
        0x10005c78:    1e6d        m.      SUBS     r5,r5,#1
        0x10005c7a:    e00b        ..      B        0x10005c94 ; _fp_digits + 304
        0x10005c7c:    980e        ..      LDR      r0,[sp,#0x38]
        0x10005c7e:    4282        .B      CMP      r2,r0
        0x10005c80:    dd02        ..      BLE      0x10005c88 ; _fp_digits + 292
        0x10005c82:    2300        .#      MOVS     r3,#0
        0x10005c84:    1c6d        m.      ADDS     r5,r5,#1
        0x10005c86:    e003        ..      B        0x10005c90 ; _fp_digits + 300
        0x10005c88:    4282        .B      CMP      r2,r0
        0x10005c8a:    da01        ..      BGE      0x10005c90 ; _fp_digits + 300
        0x10005c8c:    2300        .#      MOVS     r3,#0
        0x10005c8e:    1e6d        m.      SUBS     r5,r5,#1
        0x10005c90:    2b00        .+      CMP      r3,#0
        0x10005c92:    d0ee        ..      BEQ      0x10005c72 ; _fp_digits + 270
        0x10005c94:    9804        ..      LDR      r0,[sp,#0x10]
        0x10005c96:    990f        ..      LDR      r1,[sp,#0x3c]
        0x10005c98:    6082        .`      STR      r2,[r0,#8]
        0x10005c9a:    60c1        .`      STR      r1,[r0,#0xc]
        0x10005c9c:    c030        0.      STM      r0!,{r4,r5}
        0x10005c9e:    e78a        ..      B        0x10005bb6 ; _fp_digits + 82
    $d
        0x10005ca0:    fffffc01    ....    DCD    4294966273
        0x10005ca4:    00004d10    .M..    DCD    19728
        0x10005ca8:    40240000    ..$@    DCD    1076101120
        0x10005cac:    3ff00000    ...?    DCD    1072693248
        0x10005cb0:    00000030    0...    DCD    48
        0x10005cb4:    43f00000    ...C    DCD    1139802112
        0x10005cb8:    3fe00000    ...?    DCD    1071644672
    $t
    i._printf_core
    _printf_core
        0x10005cbc:    b5ff        ..      PUSH     {r0-r7,lr}
        0x10005cbe:    b097        ..      SUB      sp,sp,#0x5c
        0x10005cc0:    4606        .F      MOV      r6,r0
        0x10005cc2:    2500        .%      MOVS     r5,#0
        0x10005cc4:    e218        ..      B        0x100060f8 ; _printf_core + 1084
        0x10005cc6:    2825        %(      CMP      r0,#0x25
        0x10005cc8:    d177        w.      BNE      0x10005dba ; _printf_core + 254
        0x10005cca:    2400        .$      MOVS     r4,#0
        0x10005ccc:    4627        'F      MOV      r7,r4
        0x10005cce:    49fd        .I      LDR      r1,[pc,#1012] ; [0x100060c4] = 0x12809
        0x10005cd0:    9404        ..      STR      r4,[sp,#0x10]
        0x10005cd2:    e000        ..      B        0x10005cd6 ; _printf_core + 26
        0x10005cd4:    4304        .C      ORRS     r4,r4,r0
        0x10005cd6:    1c76        v.      ADDS     r6,r6,#1
        0x10005cd8:    7832        2x      LDRB     r2,[r6,#0]
        0x10005cda:    2001        .       MOVS     r0,#1
        0x10005cdc:    3a20         :      SUBS     r2,r2,#0x20
        0x10005cde:    4090        .@      LSLS     r0,r0,r2
        0x10005ce0:    4208        .B      TST      r0,r1
        0x10005ce2:    d1f7        ..      BNE      0x10005cd4 ; _printf_core + 24
        0x10005ce4:    7830        0x      LDRB     r0,[r6,#0]
        0x10005ce6:    282a        *(      CMP      r0,#0x2a
        0x10005ce8:    d00e        ..      BEQ      0x10005d08 ; _printf_core + 76
        0x10005cea:    2202        ."      MOVS     r2,#2
        0x10005cec:    7830        0x      LDRB     r0,[r6,#0]
        0x10005cee:    4601        .F      MOV      r1,r0
        0x10005cf0:    3930        09      SUBS     r1,r1,#0x30
        0x10005cf2:    2909        .)      CMP      r1,#9
        0x10005cf4:    d816        ..      BHI      0x10005d24 ; _printf_core + 104
        0x10005cf6:    9904        ..      LDR      r1,[sp,#0x10]
        0x10005cf8:    230a        .#      MOVS     r3,#0xa
        0x10005cfa:    4359        YC      MULS     r1,r3,r1
        0x10005cfc:    3930        09      SUBS     r1,r1,#0x30
        0x10005cfe:    1840        @.      ADDS     r0,r0,r1
        0x10005d00:    4314        .C      ORRS     r4,r4,r2
        0x10005d02:    1c76        v.      ADDS     r6,r6,#1
        0x10005d04:    9004        ..      STR      r0,[sp,#0x10]
        0x10005d06:    e7f1        ..      B        0x10005cec ; _printf_core + 48
        0x10005d08:    9818        ..      LDR      r0,[sp,#0x60]
        0x10005d0a:    c802        ..      LDM      r0!,{r1}
        0x10005d0c:    9104        ..      STR      r1,[sp,#0x10]
        0x10005d0e:    9018        ..      STR      r0,[sp,#0x60]
        0x10005d10:    2900        .)      CMP      r1,#0
        0x10005d12:    da04        ..      BGE      0x10005d1e ; _printf_core + 98
        0x10005d14:    2001        .       MOVS     r0,#1
        0x10005d16:    0340        @.      LSLS     r0,r0,#13
        0x10005d18:    4304        .C      ORRS     r4,r4,r0
        0x10005d1a:    4248        HB      RSBS     r0,r1,#0
        0x10005d1c:    9004        ..      STR      r0,[sp,#0x10]
        0x10005d1e:    2002        .       MOVS     r0,#2
        0x10005d20:    4304        .C      ORRS     r4,r4,r0
        0x10005d22:    1c76        v.      ADDS     r6,r6,#1
        0x10005d24:    7830        0x      LDRB     r0,[r6,#0]
        0x10005d26:    282e        .(      CMP      r0,#0x2e
        0x10005d28:    d114        ..      BNE      0x10005d54 ; _printf_core + 152
        0x10005d2a:    2004        .       MOVS     r0,#4
        0x10005d2c:    4304        .C      ORRS     r4,r4,r0
        0x10005d2e:    7870        px      LDRB     r0,[r6,#1]
        0x10005d30:    1c76        v.      ADDS     r6,r6,#1
        0x10005d32:    282a        *(      CMP      r0,#0x2a
        0x10005d34:    d109        ..      BNE      0x10005d4a ; _printf_core + 142
        0x10005d36:    9818        ..      LDR      r0,[sp,#0x60]
        0x10005d38:    1c76        v.      ADDS     r6,r6,#1
        0x10005d3a:    c880        ..      LDM      r0!,{r7}
        0x10005d3c:    9018        ..      STR      r0,[sp,#0x60]
        0x10005d3e:    e009        ..      B        0x10005d54 ; _printf_core + 152
        0x10005d40:    210a        .!      MOVS     r1,#0xa
        0x10005d42:    434f        OC      MULS     r7,r1,r7
        0x10005d44:    3f30        0?      SUBS     r7,r7,#0x30
        0x10005d46:    19c7        ..      ADDS     r7,r0,r7
        0x10005d48:    1c76        v.      ADDS     r6,r6,#1
        0x10005d4a:    7830        0x      LDRB     r0,[r6,#0]
        0x10005d4c:    4601        .F      MOV      r1,r0
        0x10005d4e:    3930        09      SUBS     r1,r1,#0x30
        0x10005d50:    2909        .)      CMP      r1,#9
        0x10005d52:    d9f5        ..      BLS      0x10005d40 ; _printf_core + 132
        0x10005d54:    7830        0x      LDRB     r0,[r6,#0]
        0x10005d56:    286c        l(      CMP      r0,#0x6c
        0x10005d58:    d010        ..      BEQ      0x10005d7c ; _printf_core + 192
        0x10005d5a:    dc06        ..      BGT      0x10005d6a ; _printf_core + 174
        0x10005d5c:    284c        L(      CMP      r0,#0x4c
        0x10005d5e:    d01a        ..      BEQ      0x10005d96 ; _printf_core + 218
        0x10005d60:    2868        h(      CMP      r0,#0x68
        0x10005d62:    d00e        ..      BEQ      0x10005d82 ; _printf_core + 198
        0x10005d64:    286a        j(      CMP      r0,#0x6a
        0x10005d66:    d117        ..      BNE      0x10005d98 ; _printf_core + 220
        0x10005d68:    e004        ..      B        0x10005d74 ; _printf_core + 184
        0x10005d6a:    2874        t(      CMP      r0,#0x74
        0x10005d6c:    d013        ..      BEQ      0x10005d96 ; _printf_core + 218
        0x10005d6e:    287a        z(      CMP      r0,#0x7a
        0x10005d70:    d112        ..      BNE      0x10005d98 ; _printf_core + 220
        0x10005d72:    e010        ..      B        0x10005d96 ; _printf_core + 218
        0x10005d74:    2001        .       MOVS     r0,#1
        0x10005d76:    0540        @.      LSLS     r0,r0,#21
        0x10005d78:    4304        .C      ORRS     r4,r4,r0
        0x10005d7a:    e00c        ..      B        0x10005d96 ; _printf_core + 218
        0x10005d7c:    2101        .!      MOVS     r1,#1
        0x10005d7e:    0509        ..      LSLS     r1,r1,#20
        0x10005d80:    e001        ..      B        0x10005d86 ; _printf_core + 202
        0x10005d82:    2103        .!      MOVS     r1,#3
        0x10005d84:    0509        ..      LSLS     r1,r1,#20
        0x10005d86:    430c        .C      ORRS     r4,r4,r1
        0x10005d88:    7871        qx      LDRB     r1,[r6,#1]
        0x10005d8a:    4281        .B      CMP      r1,r0
        0x10005d8c:    d103        ..      BNE      0x10005d96 ; _printf_core + 218
        0x10005d8e:    2001        .       MOVS     r0,#1
        0x10005d90:    0500        ..      LSLS     r0,r0,#20
        0x10005d92:    1824        $.      ADDS     r4,r4,r0
        0x10005d94:    1c76        v.      ADDS     r6,r6,#1
        0x10005d96:    1c76        v.      ADDS     r6,r6,#1
        0x10005d98:    7830        0x      LDRB     r0,[r6,#0]
        0x10005d9a:    9011        ..      STR      r0,[sp,#0x44]
        0x10005d9c:    2866        f(      CMP      r0,#0x66
        0x10005d9e:    d00b        ..      BEQ      0x10005db8 ; _printf_core + 252
        0x10005da0:    dc13        ..      BGT      0x10005dca ; _printf_core + 270
        0x10005da2:    2858        X(      CMP      r0,#0x58
        0x10005da4:    d07d        }.      BEQ      0x10005ea2 ; _printf_core + 486
        0x10005da6:    dc09        ..      BGT      0x10005dbc ; _printf_core + 256
        0x10005da8:    2800        .(      CMP      r0,#0
        0x10005daa:    d07b        {.      BEQ      0x10005ea4 ; _printf_core + 488
        0x10005dac:    2845        E(      CMP      r0,#0x45
        0x10005dae:    d0f6        ..      BEQ      0x10005d9e ; _printf_core + 226
        0x10005db0:    2846        F(      CMP      r0,#0x46
        0x10005db2:    d0f4        ..      BEQ      0x10005d9e ; _printf_core + 226
        0x10005db4:    2847        G(      CMP      r0,#0x47
        0x10005db6:    d11a        ..      BNE      0x10005dee ; _printf_core + 306
        0x10005db8:    e1a5        ..      B        0x10006106 ; _printf_core + 1098
        0x10005dba:    e018        ..      B        0x10005dee ; _printf_core + 306
        0x10005dbc:    2863        c(      CMP      r0,#0x63
        0x10005dbe:    d035        5.      BEQ      0x10005e2c ; _printf_core + 368
        0x10005dc0:    2864        d(      CMP      r0,#0x64
        0x10005dc2:    d070        p.      BEQ      0x10005ea6 ; _printf_core + 490
        0x10005dc4:    2865        e(      CMP      r0,#0x65
        0x10005dc6:    d112        ..      BNE      0x10005dee ; _printf_core + 306
        0x10005dc8:    e19d        ..      B        0x10006106 ; _printf_core + 1098
        0x10005dca:    2870        p(      CMP      r0,#0x70
        0x10005dcc:    d06c        l.      BEQ      0x10005ea8 ; _printf_core + 492
        0x10005dce:    dc08        ..      BGT      0x10005de2 ; _printf_core + 294
        0x10005dd0:    2867        g(      CMP      r0,#0x67
        0x10005dd2:    d0f1        ..      BEQ      0x10005db8 ; _printf_core + 252
        0x10005dd4:    2869        i(      CMP      r0,#0x69
        0x10005dd6:    d07b        {.      BEQ      0x10005ed0 ; _printf_core + 532
        0x10005dd8:    286e        n(      CMP      r0,#0x6e
        0x10005dda:    d00d        ..      BEQ      0x10005df8 ; _printf_core + 316
        0x10005ddc:    286f        o(      CMP      r0,#0x6f
        0x10005dde:    d106        ..      BNE      0x10005dee ; _printf_core + 306
        0x10005de0:    e0ba        ..      B        0x10005f58 ; _printf_core + 668
        0x10005de2:    2873        s(      CMP      r0,#0x73
        0x10005de4:    d02e        ..      BEQ      0x10005e44 ; _printf_core + 392
        0x10005de6:    2875        u(      CMP      r0,#0x75
        0x10005de8:    d071        q.      BEQ      0x10005ece ; _printf_core + 530
        0x10005dea:    2878        x(      CMP      r0,#0x78
        0x10005dec:    d059        Y.      BEQ      0x10005ea2 ; _printf_core + 486
        0x10005dee:    9a1a        ..      LDR      r2,[sp,#0x68]
        0x10005df0:    9919        ..      LDR      r1,[sp,#0x64]
        0x10005df2:    4790        .G      BLX      r2
        0x10005df4:    1c6d        m.      ADDS     r5,r5,#1
        0x10005df6:    e17e        ~.      B        0x100060f6 ; _printf_core + 1082
        0x10005df8:    0260        `.      LSLS     r0,r4,#9
        0x10005dfa:    0f40        @.      LSRS     r0,r0,#29
        0x10005dfc:    2802        .(      CMP      r0,#2
        0x10005dfe:    d009        ..      BEQ      0x10005e14 ; _printf_core + 344
        0x10005e00:    2803        .(      CMP      r0,#3
        0x10005e02:    d00d        ..      BEQ      0x10005e20 ; _printf_core + 356
        0x10005e04:    2804        .(      CMP      r0,#4
        0x10005e06:    9818        ..      LDR      r0,[sp,#0x60]
        0x10005e08:    6801        .h      LDR      r1,[r0,#0]
        0x10005e0a:    d00d        ..      BEQ      0x10005e28 ; _printf_core + 364
        0x10005e0c:    600d        .`      STR      r5,[r1,#0]
        0x10005e0e:    1d00        ..      ADDS     r0,r0,#4
        0x10005e10:    9018        ..      STR      r0,[sp,#0x60]
        0x10005e12:    e170        p.      B        0x100060f6 ; _printf_core + 1082
        0x10005e14:    9818        ..      LDR      r0,[sp,#0x60]
        0x10005e16:    17ea        ..      ASRS     r2,r5,#31
        0x10005e18:    6801        .h      LDR      r1,[r0,#0]
        0x10005e1a:    600d        .`      STR      r5,[r1,#0]
        0x10005e1c:    604a        J`      STR      r2,[r1,#4]
        0x10005e1e:    e7f6        ..      B        0x10005e0e ; _printf_core + 338
        0x10005e20:    9818        ..      LDR      r0,[sp,#0x60]
        0x10005e22:    6801        .h      LDR      r1,[r0,#0]
        0x10005e24:    800d        ..      STRH     r5,[r1,#0]
        0x10005e26:    e7f2        ..      B        0x10005e0e ; _printf_core + 338
        0x10005e28:    700d        .p      STRB     r5,[r1,#0]
        0x10005e2a:    e7f0        ..      B        0x10005e0e ; _printf_core + 338
        0x10005e2c:    9818        ..      LDR      r0,[sp,#0x60]
        0x10005e2e:    466a        jF      MOV      r2,sp
        0x10005e30:    7801        .x      LDRB     r1,[r0,#0]
        0x10005e32:    7211        .r      STRB     r1,[r2,#8]
        0x10005e34:    1d00        ..      ADDS     r0,r0,#4
        0x10005e36:    9018        ..      STR      r0,[sp,#0x60]
        0x10005e38:    2000        .       MOVS     r0,#0
        0x10005e3a:    7250        Pr      STRB     r0,[r2,#9]
        0x10005e3c:    a802        ..      ADD      r0,sp,#8
        0x10005e3e:    9000        ..      STR      r0,[sp,#0]
        0x10005e40:    2001        .       MOVS     r0,#1
        0x10005e42:    e005        ..      B        0x10005e50 ; _printf_core + 404
        0x10005e44:    9818        ..      LDR      r0,[sp,#0x60]
        0x10005e46:    c802        ..      LDM      r0!,{r1}
        0x10005e48:    9018        ..      STR      r0,[sp,#0x60]
        0x10005e4a:    2000        .       MOVS     r0,#0
        0x10005e4c:    9100        ..      STR      r1,[sp,#0]
        0x10005e4e:    43c0        .C      MVNS     r0,r0
        0x10005e50:    0761        a.      LSLS     r1,r4,#29
        0x10005e52:    d50d        ..      BPL      0x10005e70 ; _printf_core + 436
        0x10005e54:    2100        .!      MOVS     r1,#0
        0x10005e56:    e001        ..      B        0x10005e5c ; _printf_core + 416
        0x10005e58:    9901        ..      LDR      r1,[sp,#4]
        0x10005e5a:    1c49        I.      ADDS     r1,r1,#1
        0x10005e5c:    9101        ..      STR      r1,[sp,#4]
        0x10005e5e:    42b9        .B      CMP      r1,r7
        0x10005e60:    da12        ..      BGE      0x10005e88 ; _printf_core + 460
        0x10005e62:    4281        .B      CMP      r1,r0
        0x10005e64:    dbf8        ..      BLT      0x10005e58 ; _printf_core + 412
        0x10005e66:    9a00        ..      LDR      r2,[sp,#0]
        0x10005e68:    5c51        Q\      LDRB     r1,[r2,r1]
        0x10005e6a:    2900        .)      CMP      r1,#0
        0x10005e6c:    d1f4        ..      BNE      0x10005e58 ; _printf_core + 412
        0x10005e6e:    e00b        ..      B        0x10005e88 ; _printf_core + 460
        0x10005e70:    2100        .!      MOVS     r1,#0
        0x10005e72:    e001        ..      B        0x10005e78 ; _printf_core + 444
        0x10005e74:    9901        ..      LDR      r1,[sp,#4]
        0x10005e76:    1c49        I.      ADDS     r1,r1,#1
        0x10005e78:    9101        ..      STR      r1,[sp,#4]
        0x10005e7a:    4281        .B      CMP      r1,r0
        0x10005e7c:    dbfa        ..      BLT      0x10005e74 ; _printf_core + 440
        0x10005e7e:    9a01        ..      LDR      r2,[sp,#4]
        0x10005e80:    9900        ..      LDR      r1,[sp,#0]
        0x10005e82:    5c89        .\      LDRB     r1,[r1,r2]
        0x10005e84:    2900        .)      CMP      r1,#0
        0x10005e86:    d1f5        ..      BNE      0x10005e74 ; _printf_core + 440
        0x10005e88:    9901        ..      LDR      r1,[sp,#4]
        0x10005e8a:    9804        ..      LDR      r0,[sp,#0x10]
        0x10005e8c:    9b1a        ..      LDR      r3,[sp,#0x68]
        0x10005e8e:    1a47        G.      SUBS     r7,r0,r1
        0x10005e90:    4621        !F      MOV      r1,r4
        0x10005e92:    4638        8F      MOV      r0,r7
        0x10005e94:    9a19        ..      LDR      r2,[sp,#0x64]
        0x10005e96:    f000fa97    ....    BL       _printf_pre_padding ; 0x100063c8
        0x10005e9a:    9901        ..      LDR      r1,[sp,#4]
        0x10005e9c:    1940        @.      ADDS     r0,r0,r5
        0x10005e9e:    1845        E.      ADDS     r5,r0,r1
        0x10005ea0:    e00b        ..      B        0x10005eba ; _printf_core + 510
        0x10005ea2:    e04f        O.      B        0x10005f44 ; _printf_core + 648
        0x10005ea4:    e12c        ,.      B        0x10006100 ; _printf_core + 1092
        0x10005ea6:    e013        ..      B        0x10005ed0 ; _printf_core + 532
        0x10005ea8:    e04e        N.      B        0x10005f48 ; _printf_core + 652
        0x10005eaa:    9800        ..      LDR      r0,[sp,#0]
        0x10005eac:    9900        ..      LDR      r1,[sp,#0]
        0x10005eae:    7800        .x      LDRB     r0,[r0,#0]
        0x10005eb0:    1c49        I.      ADDS     r1,r1,#1
        0x10005eb2:    9100        ..      STR      r1,[sp,#0]
        0x10005eb4:    9a1a        ..      LDR      r2,[sp,#0x68]
        0x10005eb6:    9919        ..      LDR      r1,[sp,#0x64]
        0x10005eb8:    4790        .G      BLX      r2
        0x10005eba:    9801        ..      LDR      r0,[sp,#4]
        0x10005ebc:    1e40        @.      SUBS     r0,r0,#1
        0x10005ebe:    9001        ..      STR      r0,[sp,#4]
        0x10005ec0:    1c40        @.      ADDS     r0,r0,#1
        0x10005ec2:    d1f2        ..      BNE      0x10005eaa ; _printf_core + 494
        0x10005ec4:    4621        !F      MOV      r1,r4
        0x10005ec6:    4638        8F      MOV      r0,r7
        0x10005ec8:    9b1a        ..      LDR      r3,[sp,#0x68]
        0x10005eca:    9a19        ..      LDR      r2,[sp,#0x64]
        0x10005ecc:    e110        ..      B        0x100060f0 ; _printf_core + 1076
        0x10005ece:    e037        7.      B        0x10005f40 ; _printf_core + 644
        0x10005ed0:    200a        .       MOVS     r0,#0xa
        0x10005ed2:    2100        .!      MOVS     r1,#0
        0x10005ed4:    9000        ..      STR      r0,[sp,#0]
        0x10005ed6:    9101        ..      STR      r1,[sp,#4]
        0x10005ed8:    0260        `.      LSLS     r0,r4,#9
        0x10005eda:    0f41        A.      LSRS     r1,r0,#29
        0x10005edc:    2902        .)      CMP      r1,#2
        0x10005ede:    d007        ..      BEQ      0x10005ef0 ; _printf_core + 564
        0x10005ee0:    9a18        ..      LDR      r2,[sp,#0x60]
        0x10005ee2:    ca01        ..      LDM      r2!,{r0}
        0x10005ee4:    9218        ..      STR      r2,[sp,#0x60]
        0x10005ee6:    17c2        ..      ASRS     r2,r0,#31
        0x10005ee8:    4694        .F      MOV      r12,r2
        0x10005eea:    2903        .)      CMP      r1,#3
        0x10005eec:    d008        ..      BEQ      0x10005f00 ; _printf_core + 580
        0x10005eee:    e00a        ..      B        0x10005f06 ; _printf_core + 586
        0x10005ef0:    9818        ..      LDR      r0,[sp,#0x60]
        0x10005ef2:    1dc0        ..      ADDS     r0,r0,#7
        0x10005ef4:    08c1        ..      LSRS     r1,r0,#3
        0x10005ef6:    00c9        ..      LSLS     r1,r1,#3
        0x10005ef8:    c905        ..      LDM      r1!,{r0,r2}
        0x10005efa:    9118        ..      STR      r1,[sp,#0x60]
        0x10005efc:    4694        .F      MOV      r12,r2
        0x10005efe:    e007        ..      B        0x10005f10 ; _printf_core + 596
        0x10005f00:    b200        ..      SXTH     r0,r0
        0x10005f02:    17c2        ..      ASRS     r2,r0,#31
        0x10005f04:    4694        .F      MOV      r12,r2
        0x10005f06:    2904        .)      CMP      r1,#4
        0x10005f08:    d102        ..      BNE      0x10005f10 ; _printf_core + 596
        0x10005f0a:    b240        @.      SXTB     r0,r0
        0x10005f0c:    17c1        ..      ASRS     r1,r0,#31
        0x10005f0e:    468c        .F      MOV      r12,r1
        0x10005f10:    2200        ."      MOVS     r2,#0
        0x10005f12:    4661        aF      MOV      r1,r12
        0x10005f14:    4594        .E      CMP      r12,r2
        0x10005f16:    da06        ..      BGE      0x10005f26 ; _printf_core + 618
        0x10005f18:    460a        .F      MOV      r2,r1
        0x10005f1a:    2100        .!      MOVS     r1,#0
        0x10005f1c:    4240        @B      RSBS     r0,r0,#0
        0x10005f1e:    4191        .A      SBCS     r1,r1,r2
        0x10005f20:    468c        .F      MOV      r12,r1
        0x10005f22:    212d        -!      MOVS     r1,#0x2d
        0x10005f24:    e002        ..      B        0x10005f2c ; _printf_core + 624
        0x10005f26:    0521        !.      LSLS     r1,r4,#20
        0x10005f28:    d504        ..      BPL      0x10005f34 ; _printf_core + 632
        0x10005f2a:    212b        +!      MOVS     r1,#0x2b
        0x10005f2c:    466a        jF      MOV      r2,sp
        0x10005f2e:    7311        .s      STRB     r1,[r2,#0xc]
        0x10005f30:    2101        .!      MOVS     r1,#1
        0x10005f32:    e003        ..      B        0x10005f3c ; _printf_core + 640
        0x10005f34:    07e1        ..      LSLS     r1,r4,#31
        0x10005f36:    d001        ..      BEQ      0x10005f3c ; _printf_core + 640
        0x10005f38:    2120         !      MOVS     r1,#0x20
        0x10005f3a:    e7f7        ..      B        0x10005f2c ; _printf_core + 624
        0x10005f3c:    9102        ..      STR      r1,[sp,#8]
        0x10005f3e:    e055        U.      B        0x10005fec ; _printf_core + 816
        0x10005f40:    200a        .       MOVS     r0,#0xa
        0x10005f42:    e00a        ..      B        0x10005f5a ; _printf_core + 670
        0x10005f44:    2010        .       MOVS     r0,#0x10
        0x10005f46:    e008        ..      B        0x10005f5a ; _printf_core + 670
        0x10005f48:    2010        .       MOVS     r0,#0x10
        0x10005f4a:    9000        ..      STR      r0,[sp,#0]
        0x10005f4c:    2100        .!      MOVS     r1,#0
        0x10005f4e:    2004        .       MOVS     r0,#4
        0x10005f50:    4304        .C      ORRS     r4,r4,r0
        0x10005f52:    9101        ..      STR      r1,[sp,#4]
        0x10005f54:    2708        .'      MOVS     r7,#8
        0x10005f56:    e003        ..      B        0x10005f60 ; _printf_core + 676
        0x10005f58:    2008        .       MOVS     r0,#8
        0x10005f5a:    2100        .!      MOVS     r1,#0
        0x10005f5c:    9101        ..      STR      r1,[sp,#4]
        0x10005f5e:    9000        ..      STR      r0,[sp,#0]
        0x10005f60:    0260        `.      LSLS     r0,r4,#9
        0x10005f62:    0f41        A.      LSRS     r1,r0,#29
        0x10005f64:    2902        .)      CMP      r1,#2
        0x10005f66:    d007        ..      BEQ      0x10005f78 ; _printf_core + 700
        0x10005f68:    9a18        ..      LDR      r2,[sp,#0x60]
        0x10005f6a:    ca01        ..      LDM      r2!,{r0}
        0x10005f6c:    9218        ..      STR      r2,[sp,#0x60]
        0x10005f6e:    2200        ."      MOVS     r2,#0
        0x10005f70:    4694        .F      MOV      r12,r2
        0x10005f72:    2903        .)      CMP      r1,#3
        0x10005f74:    d008        ..      BEQ      0x10005f88 ; _printf_core + 716
        0x10005f76:    e008        ..      B        0x10005f8a ; _printf_core + 718
        0x10005f78:    9818        ..      LDR      r0,[sp,#0x60]
        0x10005f7a:    1dc0        ..      ADDS     r0,r0,#7
        0x10005f7c:    08c1        ..      LSRS     r1,r0,#3
        0x10005f7e:    00c9        ..      LSLS     r1,r1,#3
        0x10005f80:    c905        ..      LDM      r1!,{r0,r2}
        0x10005f82:    9118        ..      STR      r1,[sp,#0x60]
        0x10005f84:    4694        .F      MOV      r12,r2
        0x10005f86:    e003        ..      B        0x10005f90 ; _printf_core + 724
        0x10005f88:    b280        ..      UXTH     r0,r0
        0x10005f8a:    2904        .)      CMP      r1,#4
        0x10005f8c:    d100        ..      BNE      0x10005f90 ; _printf_core + 724
        0x10005f8e:    b2c0        ..      UXTB     r0,r0
        0x10005f90:    2100        .!      MOVS     r1,#0
        0x10005f92:    9102        ..      STR      r1,[sp,#8]
        0x10005f94:    0721        !.      LSLS     r1,r4,#28
        0x10005f96:    d529        ).      BPL      0x10005fec ; _printf_core + 816
        0x10005f98:    9911        ..      LDR      r1,[sp,#0x44]
        0x10005f9a:    2970        p)      CMP      r1,#0x70
        0x10005f9c:    d006        ..      BEQ      0x10005fac ; _printf_core + 752
        0x10005f9e:    9a00        ..      LDR      r2,[sp,#0]
        0x10005fa0:    2110        .!      MOVS     r1,#0x10
        0x10005fa2:    9b01        ..      LDR      r3,[sp,#4]
        0x10005fa4:    404a        J@      EORS     r2,r2,r1
        0x10005fa6:    431a        .C      ORRS     r2,r2,r3
        0x10005fa8:    d005        ..      BEQ      0x10005fb6 ; _printf_core + 762
        0x10005faa:    e00e        ..      B        0x10005fca ; _printf_core + 782
        0x10005fac:    2140        @!      MOVS     r1,#0x40
        0x10005fae:    466a        jF      MOV      r2,sp
        0x10005fb0:    7311        .s      STRB     r1,[r2,#0xc]
        0x10005fb2:    2101        .!      MOVS     r1,#1
        0x10005fb4:    e008        ..      B        0x10005fc8 ; _printf_core + 780
        0x10005fb6:    4661        aF      MOV      r1,r12
        0x10005fb8:    4301        .C      ORRS     r1,r1,r0
        0x10005fba:    d006        ..      BEQ      0x10005fca ; _printf_core + 782
        0x10005fbc:    2130        0!      MOVS     r1,#0x30
        0x10005fbe:    466a        jF      MOV      r2,sp
        0x10005fc0:    7311        .s      STRB     r1,[r2,#0xc]
        0x10005fc2:    9911        ..      LDR      r1,[sp,#0x44]
        0x10005fc4:    7351        Qs      STRB     r1,[r2,#0xd]
        0x10005fc6:    2102        .!      MOVS     r1,#2
        0x10005fc8:    9102        ..      STR      r1,[sp,#8]
        0x10005fca:    9a00        ..      LDR      r2,[sp,#0]
        0x10005fcc:    2108        .!      MOVS     r1,#8
        0x10005fce:    9b01        ..      LDR      r3,[sp,#4]
        0x10005fd0:    404a        J@      EORS     r2,r2,r1
        0x10005fd2:    431a        .C      ORRS     r2,r2,r3
        0x10005fd4:    d10a        ..      BNE      0x10005fec ; _printf_core + 816
        0x10005fd6:    4661        aF      MOV      r1,r12
        0x10005fd8:    4301        .C      ORRS     r1,r1,r0
        0x10005fda:    d101        ..      BNE      0x10005fe0 ; _printf_core + 804
        0x10005fdc:    0761        a.      LSLS     r1,r4,#29
        0x10005fde:    d505        ..      BPL      0x10005fec ; _printf_core + 816
        0x10005fe0:    2130        0!      MOVS     r1,#0x30
        0x10005fe2:    466a        jF      MOV      r2,sp
        0x10005fe4:    7311        .s      STRB     r1,[r2,#0xc]
        0x10005fe6:    2101        .!      MOVS     r1,#1
        0x10005fe8:    1e7f        ..      SUBS     r7,r7,#1
        0x10005fea:    9102        ..      STR      r1,[sp,#8]
        0x10005fec:    9911        ..      LDR      r1,[sp,#0x44]
        0x10005fee:    2958        X)      CMP      r1,#0x58
        0x10005ff0:    d004        ..      BEQ      0x10005ffc ; _printf_core + 832
        0x10005ff2:    a135        5.      ADR      r1,{pc}+0xd6 ; 0x100060c8
        0x10005ff4:    910e        ..      STR      r1,[sp,#0x38]
        0x10005ff6:    a90d        ..      ADD      r1,sp,#0x34
        0x10005ff8:    910d        ..      STR      r1,[sp,#0x34]
        0x10005ffa:    e00d        ..      B        0x10006018 ; _printf_core + 860
        0x10005ffc:    a137        7.      ADR      r1,{pc}+0xe0 ; 0x100060dc
        0x10005ffe:    e7f9        ..      B        0x10005ff4 ; _printf_core + 824
        0x10006000:    4661        aF      MOV      r1,r12
        0x10006002:    9b01        ..      LDR      r3,[sp,#4]
        0x10006004:    9a00        ..      LDR      r2,[sp,#0]
        0x10006006:    f7fffbef    ....    BL       __aeabi_uldivmod ; 0x100057e8
        0x1000600a:    9b0e        ..      LDR      r3,[sp,#0x38]
        0x1000600c:    468c        .F      MOV      r12,r1
        0x1000600e:    5c9b        .\      LDRB     r3,[r3,r2]
        0x10006010:    9a0d        ..      LDR      r2,[sp,#0x34]
        0x10006012:    1e52        R.      SUBS     r2,r2,#1
        0x10006014:    920d        ..      STR      r2,[sp,#0x34]
        0x10006016:    7013        .p      STRB     r3,[r2,#0]
        0x10006018:    4661        aF      MOV      r1,r12
        0x1000601a:    4301        .C      ORRS     r1,r1,r0
        0x1000601c:    d1f0        ..      BNE      0x10006000 ; _printf_core + 836
        0x1000601e:    980d        ..      LDR      r0,[sp,#0x34]
        0x10006020:    a905        ..      ADD      r1,sp,#0x14
        0x10006022:    1a08        ..      SUBS     r0,r1,r0
        0x10006024:    3020         0      ADDS     r0,r0,#0x20
        0x10006026:    9001        ..      STR      r0,[sp,#4]
        0x10006028:    0760        `.      LSLS     r0,r4,#29
        0x1000602a:    d503        ..      BPL      0x10006034 ; _printf_core + 888
        0x1000602c:    2001        .       MOVS     r0,#1
        0x1000602e:    0400        ..      LSLS     r0,r0,#16
        0x10006030:    4384        .C      BICS     r4,r4,r0
        0x10006032:    e000        ..      B        0x10006036 ; _printf_core + 890
        0x10006034:    2701        .'      MOVS     r7,#1
        0x10006036:    9801        ..      LDR      r0,[sp,#4]
        0x10006038:    4287        .B      CMP      r7,r0
        0x1000603a:    dd01        ..      BLE      0x10006040 ; _printf_core + 900
        0x1000603c:    1a38        8.      SUBS     r0,r7,r0
        0x1000603e:    e000        ..      B        0x10006042 ; _printf_core + 902
        0x10006040:    2000        .       MOVS     r0,#0
        0x10006042:    9901        ..      LDR      r1,[sp,#4]
        0x10006044:    9000        ..      STR      r0,[sp,#0]
        0x10006046:    1841        A.      ADDS     r1,r0,r1
        0x10006048:    9802        ..      LDR      r0,[sp,#8]
        0x1000604a:    1809        ..      ADDS     r1,r1,r0
        0x1000604c:    9804        ..      LDR      r0,[sp,#0x10]
        0x1000604e:    1a40        @.      SUBS     r0,r0,r1
        0x10006050:    9004        ..      STR      r0,[sp,#0x10]
        0x10006052:    03e0        ..      LSLS     r0,r4,#15
        0x10006054:    d406        ..      BMI      0x10006064 ; _printf_core + 936
        0x10006056:    4621        !F      MOV      r1,r4
        0x10006058:    9b1a        ..      LDR      r3,[sp,#0x68]
        0x1000605a:    9a19        ..      LDR      r2,[sp,#0x64]
        0x1000605c:    9804        ..      LDR      r0,[sp,#0x10]
        0x1000605e:    f000f9b3    ....    BL       _printf_pre_padding ; 0x100063c8
        0x10006062:    1945        E.      ADDS     r5,r0,r5
        0x10006064:    2700        .'      MOVS     r7,#0
        0x10006066:    e006        ..      B        0x10006076 ; _printf_core + 954
        0x10006068:    a803        ..      ADD      r0,sp,#0xc
        0x1000606a:    9a1a        ..      LDR      r2,[sp,#0x68]
        0x1000606c:    5dc0        .]      LDRB     r0,[r0,r7]
        0x1000606e:    9919        ..      LDR      r1,[sp,#0x64]
        0x10006070:    4790        .G      BLX      r2
        0x10006072:    1c6d        m.      ADDS     r5,r5,#1
        0x10006074:    1c7f        ..      ADDS     r7,r7,#1
        0x10006076:    9802        ..      LDR      r0,[sp,#8]
        0x10006078:    4287        .B      CMP      r7,r0
        0x1000607a:    dbf5        ..      BLT      0x10006068 ; _printf_core + 940
        0x1000607c:    03e0        ..      LSLS     r0,r4,#15
        0x1000607e:    d50c        ..      BPL      0x1000609a ; _printf_core + 990
        0x10006080:    4621        !F      MOV      r1,r4
        0x10006082:    9b1a        ..      LDR      r3,[sp,#0x68]
        0x10006084:    9a19        ..      LDR      r2,[sp,#0x64]
        0x10006086:    9804        ..      LDR      r0,[sp,#0x10]
        0x10006088:    f000f99e    ....    BL       _printf_pre_padding ; 0x100063c8
        0x1000608c:    1945        E.      ADDS     r5,r0,r5
        0x1000608e:    e004        ..      B        0x1000609a ; _printf_core + 990
        0x10006090:    9a1a        ..      LDR      r2,[sp,#0x68]
        0x10006092:    2030        0       MOVS     r0,#0x30
        0x10006094:    9919        ..      LDR      r1,[sp,#0x64]
        0x10006096:    4790        .G      BLX      r2
        0x10006098:    1c6d        m.      ADDS     r5,r5,#1
        0x1000609a:    9900        ..      LDR      r1,[sp,#0]
        0x1000609c:    1e48        H.      SUBS     r0,r1,#1
        0x1000609e:    9000        ..      STR      r0,[sp,#0]
        0x100060a0:    2900        .)      CMP      r1,#0
        0x100060a2:    dcf5        ..      BGT      0x10006090 ; _printf_core + 980
        0x100060a4:    e008        ..      B        0x100060b8 ; _printf_core + 1020
        0x100060a6:    980d        ..      LDR      r0,[sp,#0x34]
        0x100060a8:    990d        ..      LDR      r1,[sp,#0x34]
        0x100060aa:    7800        .x      LDRB     r0,[r0,#0]
        0x100060ac:    1c49        I.      ADDS     r1,r1,#1
        0x100060ae:    910d        ..      STR      r1,[sp,#0x34]
        0x100060b0:    9a1a        ..      LDR      r2,[sp,#0x68]
        0x100060b2:    9919        ..      LDR      r1,[sp,#0x64]
        0x100060b4:    4790        .G      BLX      r2
        0x100060b6:    1c6d        m.      ADDS     r5,r5,#1
        0x100060b8:    9901        ..      LDR      r1,[sp,#4]
        0x100060ba:    1e48        H.      SUBS     r0,r1,#1
        0x100060bc:    9001        ..      STR      r0,[sp,#4]
        0x100060be:    2900        .)      CMP      r1,#0
        0x100060c0:    dcf1        ..      BGT      0x100060a6 ; _printf_core + 1002
        0x100060c2:    e163        c.      B        0x1000638c ; _printf_core + 1744
    $d
        0x100060c4:    00012809    .(..    DCD    75785
        0x100060c8:    33323130    0123    DCD    858927408
        0x100060cc:    37363534    4567    DCD    926299444
        0x100060d0:    62613938    89ab    DCD    1650538808
        0x100060d4:    66656463    cdef    DCD    1717920867
        0x100060d8:    00000000    ....    DCD    0
        0x100060dc:    33323130    0123    DCD    858927408
        0x100060e0:    37363534    4567    DCD    926299444
        0x100060e4:    42413938    89AB    DCD    1111570744
        0x100060e8:    46454443    CDEF    DCD    1178944579
        0x100060ec:    00000000    ....    DCD    0
    $t
        0x100060f0:    f000f95a    ..Z.    BL       _printf_post_padding ; 0x100063a8
        0x100060f4:    1945        E.      ADDS     r5,r0,r5
        0x100060f6:    1c76        v.      ADDS     r6,r6,#1
        0x100060f8:    7830        0x      LDRB     r0,[r6,#0]
        0x100060fa:    2800        .(      CMP      r0,#0
        0x100060fc:    d000        ..      BEQ      0x10006100 ; _printf_core + 1092
        0x100060fe:    e5e2        ..      B        0x10005cc6 ; _printf_core + 10
        0x10006100:    4628        (F      MOV      r0,r5
        0x10006102:    b01b        ..      ADD      sp,sp,#0x6c
        0x10006104:    bdf0        ..      POP      {r4-r7,pc}
        0x10006106:    0760        `.      LSLS     r0,r4,#29
        0x10006108:    d400        ..      BMI      0x1000610c ; _printf_core + 1104
        0x1000610a:    2706        .'      MOVS     r7,#6
        0x1000610c:    9818        ..      LDR      r0,[sp,#0x60]
        0x1000610e:    1dc0        ..      ADDS     r0,r0,#7
        0x10006110:    08c1        ..      LSRS     r1,r0,#3
        0x10006112:    00c9        ..      LSLS     r1,r1,#3
        0x10006114:    6848        Hh      LDR      r0,[r1,#4]
        0x10006116:    680a        .h      LDR      r2,[r1,#0]
        0x10006118:    3108        .1      ADDS     r1,r1,#8
        0x1000611a:    0fc3        ..      LSRS     r3,r0,#31
        0x1000611c:    07db        ..      LSLS     r3,r3,#31
        0x1000611e:    9118        ..      STR      r1,[sp,#0x60]
        0x10006120:    0019        ..      MOVS     r1,r3
        0x10006122:    d001        ..      BEQ      0x10006128 ; _printf_core + 1132
        0x10006124:    a19c        ..      ADR      r1,{pc}+0x274 ; 0x10006398
        0x10006126:    e008        ..      B        0x1000613a ; _printf_core + 1150
        0x10006128:    0521        !.      LSLS     r1,r4,#20
        0x1000612a:    d501        ..      BPL      0x10006130 ; _printf_core + 1140
        0x1000612c:    a19b        ..      ADR      r1,{pc}+0x270 ; 0x1000639c
        0x1000612e:    e004        ..      B        0x1000613a ; _printf_core + 1150
        0x10006130:    07e1        ..      LSLS     r1,r4,#31
        0x10006132:    d001        ..      BEQ      0x10006138 ; _printf_core + 1148
        0x10006134:    a19a        ..      ADR      r1,{pc}+0x26c ; 0x100063a0
        0x10006136:    e000        ..      B        0x1000613a ; _printf_core + 1150
        0x10006138:    a19a        ..      ADR      r1,{pc}+0x26c ; 0x100063a4
        0x1000613a:    0043        C.      LSLS     r3,r0,#1
        0x1000613c:    9811        ..      LDR      r0,[sp,#0x44]
        0x1000613e:    085b        [.      LSRS     r3,r3,#1
        0x10006140:    9110        ..      STR      r1,[sp,#0x40]
        0x10006142:    2865        e(      CMP      r0,#0x65
        0x10006144:    d00c        ..      BEQ      0x10006160 ; _printf_core + 1188
        0x10006146:    dc06        ..      BGT      0x10006156 ; _printf_core + 1178
        0x10006148:    2845        E(      CMP      r0,#0x45
        0x1000614a:    d009        ..      BEQ      0x10006160 ; _printf_core + 1188
        0x1000614c:    2846        F(      CMP      r0,#0x46
        0x1000614e:    d01d        ..      BEQ      0x1000618c ; _printf_core + 1232
        0x10006150:    2847        G(      CMP      r0,#0x47
        0x10006152:    d141        A.      BNE      0x100061d8 ; _printf_core + 1308
        0x10006154:    e041        A.      B        0x100061da ; _printf_core + 1310
        0x10006156:    2866        f(      CMP      r0,#0x66
        0x10006158:    d018        ..      BEQ      0x1000618c ; _printf_core + 1232
        0x1000615a:    2867        g(      CMP      r0,#0x67
        0x1000615c:    d13c        <.      BNE      0x100061d8 ; _printf_core + 1308
        0x1000615e:    e03c        <.      B        0x100061da ; _printf_core + 1310
        0x10006160:    2100        .!      MOVS     r1,#0
        0x10006162:    2f11        ./      CMP      r7,#0x11
        0x10006164:    db01        ..      BLT      0x1000616a ; _printf_core + 1198
        0x10006166:    2011        .       MOVS     r0,#0x11
        0x10006168:    e000        ..      B        0x1000616c ; _printf_core + 1200
        0x1000616a:    1c78        x.      ADDS     r0,r7,#1
        0x1000616c:    9101        ..      STR      r1,[sp,#4]
        0x1000616e:    9000        ..      STR      r0,[sp,#0]
        0x10006170:    a908        ..      ADD      r1,sp,#0x20
        0x10006172:    a811        ..      ADD      r0,sp,#0x44
        0x10006174:    f7fffcf6    ....    BL       _fp_digits ; 0x10005b64
        0x10006178:    9913        ..      LDR      r1,[sp,#0x4c]
        0x1000617a:    9105        ..      STR      r1,[sp,#0x14]
        0x1000617c:    2100        .!      MOVS     r1,#0
        0x1000617e:    9a11        ..      LDR      r2,[sp,#0x44]
        0x10006180:    9215        ..      STR      r2,[sp,#0x54]
        0x10006182:    1c7f        ..      ADDS     r7,r7,#1
        0x10006184:    9812        ..      LDR      r0,[sp,#0x48]
        0x10006186:    9701        ..      STR      r7,[sp,#4]
        0x10006188:    9100        ..      STR      r1,[sp,#0]
        0x1000618a:    e050        P.      B        0x1000622e ; _printf_core + 1394
        0x1000618c:    2001        .       MOVS     r0,#1
        0x1000618e:    07c0        ..      LSLS     r0,r0,#31
        0x10006190:    9003        ..      STR      r0,[sp,#0xc]
        0x10006192:    2001        .       MOVS     r0,#1
        0x10006194:    9001        ..      STR      r0,[sp,#4]
        0x10006196:    a908        ..      ADD      r1,sp,#0x20
        0x10006198:    9700        ..      STR      r7,[sp,#0]
        0x1000619a:    a811        ..      ADD      r0,sp,#0x44
        0x1000619c:    f7fffce2    ....    BL       _fp_digits ; 0x10005b64
        0x100061a0:    9a13        ..      LDR      r2,[sp,#0x4c]
        0x100061a2:    9914        ..      LDR      r1,[sp,#0x50]
        0x100061a4:    9205        ..      STR      r2,[sp,#0x14]
        0x100061a6:    2200        ."      MOVS     r2,#0
        0x100061a8:    9b11        ..      LDR      r3,[sp,#0x44]
        0x100061aa:    9200        ..      STR      r2,[sp,#0]
        0x100061ac:    9812        ..      LDR      r0,[sp,#0x48]
        0x100061ae:    9315        ..      STR      r3,[sp,#0x54]
        0x100061b0:    9a05        ..      LDR      r2,[sp,#0x14]
        0x100061b2:    9201        ..      STR      r2,[sp,#4]
        0x100061b4:    2900        .)      CMP      r1,#0
        0x100061b6:    d001        ..      BEQ      0x100061bc ; _printf_core + 1280
        0x100061b8:    4610        .F      MOV      r0,r2
        0x100061ba:    e002        ..      B        0x100061c2 ; _printf_core + 1286
        0x100061bc:    1c79        y.      ADDS     r1,r7,#1
        0x100061be:    1840        @.      ADDS     r0,r0,r1
        0x100061c0:    9001        ..      STR      r0,[sp,#4]
        0x100061c2:    1a38        8.      SUBS     r0,r7,r0
        0x100061c4:    d501        ..      BPL      0x100061ca ; _printf_core + 1294
        0x100061c6:    9801        ..      LDR      r0,[sp,#4]
        0x100061c8:    e004        ..      B        0x100061d4 ; _printf_core + 1304
        0x100061ca:    4240        @B      RSBS     r0,r0,#0
        0x100061cc:    1e40        @.      SUBS     r0,r0,#1
        0x100061ce:    9000        ..      STR      r0,[sp,#0]
        0x100061d0:    1c78        x.      ADDS     r0,r7,#1
        0x100061d2:    9001        ..      STR      r0,[sp,#4]
        0x100061d4:    1bc0        ..      SUBS     r0,r0,r7
        0x100061d6:    9002        ..      STR      r0,[sp,#8]
        0x100061d8:    e043        C.      B        0x10006262 ; _printf_core + 1446
        0x100061da:    2f01        ./      CMP      r7,#1
        0x100061dc:    da00        ..      BGE      0x100061e0 ; _printf_core + 1316
        0x100061de:    2701        .'      MOVS     r7,#1
        0x100061e0:    2100        .!      MOVS     r1,#0
        0x100061e2:    2f11        ./      CMP      r7,#0x11
        0x100061e4:    dd01        ..      BLE      0x100061ea ; _printf_core + 1326
        0x100061e6:    2011        .       MOVS     r0,#0x11
        0x100061e8:    e000        ..      B        0x100061ec ; _printf_core + 1328
        0x100061ea:    4638        8F      MOV      r0,r7
        0x100061ec:    9101        ..      STR      r1,[sp,#4]
        0x100061ee:    9000        ..      STR      r0,[sp,#0]
        0x100061f0:    a908        ..      ADD      r1,sp,#0x20
        0x100061f2:    a811        ..      ADD      r0,sp,#0x44
        0x100061f4:    f7fffcb6    ....    BL       _fp_digits ; 0x10005b64
        0x100061f8:    9913        ..      LDR      r1,[sp,#0x4c]
        0x100061fa:    9105        ..      STR      r1,[sp,#0x14]
        0x100061fc:    9a11        ..      LDR      r2,[sp,#0x44]
        0x100061fe:    2100        .!      MOVS     r1,#0
        0x10006200:    9812        ..      LDR      r0,[sp,#0x48]
        0x10006202:    9215        ..      STR      r2,[sp,#0x54]
        0x10006204:    9100        ..      STR      r1,[sp,#0]
        0x10006206:    9701        ..      STR      r7,[sp,#4]
        0x10006208:    0721        !.      LSLS     r1,r4,#28
        0x1000620a:    d40c        ..      BMI      0x10006226 ; _printf_core + 1386
        0x1000620c:    9905        ..      LDR      r1,[sp,#0x14]
        0x1000620e:    42b9        .B      CMP      r1,r7
        0x10006210:    db01        ..      BLT      0x10006216 ; _printf_core + 1370
        0x10006212:    9901        ..      LDR      r1,[sp,#4]
        0x10006214:    e000        ..      B        0x10006218 ; _printf_core + 1372
        0x10006216:    9101        ..      STR      r1,[sp,#4]
        0x10006218:    2901        .)      CMP      r1,#1
        0x1000621a:    dd04        ..      BLE      0x10006226 ; _printf_core + 1386
        0x1000621c:    9a15        ..      LDR      r2,[sp,#0x54]
        0x1000621e:    1e49        I.      SUBS     r1,r1,#1
        0x10006220:    5c51        Q\      LDRB     r1,[r2,r1]
        0x10006222:    2930        0)      CMP      r1,#0x30
        0x10006224:    d006        ..      BEQ      0x10006234 ; _printf_core + 1400
        0x10006226:    42b8        .B      CMP      r0,r7
        0x10006228:    da01        ..      BGE      0x1000622e ; _printf_core + 1394
        0x1000622a:    1d01        ..      ADDS     r1,r0,#4
        0x1000622c:    da05        ..      BGE      0x1000623a ; _printf_core + 1406
        0x1000622e:    2101        .!      MOVS     r1,#1
        0x10006230:    9102        ..      STR      r1,[sp,#8]
        0x10006232:    e015        ..      B        0x10006260 ; _printf_core + 1444
        0x10006234:    9901        ..      LDR      r1,[sp,#4]
        0x10006236:    1e49        I.      SUBS     r1,r1,#1
        0x10006238:    e7ed        ..      B        0x10006216 ; _printf_core + 1370
        0x1000623a:    2800        .(      CMP      r0,#0
        0x1000623c:    dc05        ..      BGT      0x1000624a ; _printf_core + 1422
        0x1000623e:    9900        ..      LDR      r1,[sp,#0]
        0x10006240:    1841        A.      ADDS     r1,r0,r1
        0x10006242:    9100        ..      STR      r1,[sp,#0]
        0x10006244:    9901        ..      LDR      r1,[sp,#4]
        0x10006246:    1a09        ..      SUBS     r1,r1,r0
        0x10006248:    e003        ..      B        0x10006252 ; _printf_core + 1430
        0x1000624a:    9a01        ..      LDR      r2,[sp,#4]
        0x1000624c:    1c41        A.      ADDS     r1,r0,#1
        0x1000624e:    4291        .B      CMP      r1,r2
        0x10006250:    dd00        ..      BLE      0x10006254 ; _printf_core + 1432
        0x10006252:    9101        ..      STR      r1,[sp,#4]
        0x10006254:    9900        ..      LDR      r1,[sp,#0]
        0x10006256:    1a40        @.      SUBS     r0,r0,r1
        0x10006258:    1c40        @.      ADDS     r0,r0,#1
        0x1000625a:    9002        ..      STR      r0,[sp,#8]
        0x1000625c:    2001        .       MOVS     r0,#1
        0x1000625e:    07c0        ..      LSLS     r0,r0,#31
        0x10006260:    9003        ..      STR      r0,[sp,#0xc]
        0x10006262:    0720         .      LSLS     r0,r4,#28
        0x10006264:    d406        ..      BMI      0x10006274 ; _printf_core + 1464
        0x10006266:    9902        ..      LDR      r1,[sp,#8]
        0x10006268:    9801        ..      LDR      r0,[sp,#4]
        0x1000626a:    4281        .B      CMP      r1,r0
        0x1000626c:    db02        ..      BLT      0x10006274 ; _printf_core + 1464
        0x1000626e:    2000        .       MOVS     r0,#0
        0x10006270:    43c0        .C      MVNS     r0,r0
        0x10006272:    9002        ..      STR      r0,[sp,#8]
        0x10006274:    2000        .       MOVS     r0,#0
        0x10006276:    4669        iF      MOV      r1,sp
        0x10006278:    77c8        .w      STRB     r0,[r1,#0x1f]
        0x1000627a:    af07        ..      ADD      r7,sp,#0x1c
        0x1000627c:    2101        .!      MOVS     r1,#1
        0x1000627e:    9803        ..      LDR      r0,[sp,#0xc]
        0x10006280:    3703        .7      ADDS     r7,#3
        0x10006282:    07c9        ..      LSLS     r1,r1,#31
        0x10006284:    4288        .B      CMP      r0,r1
        0x10006286:    d024        $.      BEQ      0x100062d2 ; _printf_core + 1558
        0x10006288:    2002        .       MOVS     r0,#2
        0x1000628a:    9011        ..      STR      r0,[sp,#0x44]
        0x1000628c:    202b        +       MOVS     r0,#0x2b
        0x1000628e:    9012        ..      STR      r0,[sp,#0x48]
        0x10006290:    9803        ..      LDR      r0,[sp,#0xc]
        0x10006292:    2800        .(      CMP      r0,#0
        0x10006294:    da0c        ..      BGE      0x100062b0 ; _printf_core + 1524
        0x10006296:    4240        @B      RSBS     r0,r0,#0
        0x10006298:    9003        ..      STR      r0,[sp,#0xc]
        0x1000629a:    202d        -       MOVS     r0,#0x2d
        0x1000629c:    9012        ..      STR      r0,[sp,#0x48]
        0x1000629e:    e007        ..      B        0x100062b0 ; _printf_core + 1524
        0x100062a0:    210a        .!      MOVS     r1,#0xa
        0x100062a2:    9803        ..      LDR      r0,[sp,#0xc]
        0x100062a4:    f7feffe2    ....    BL       __aeabi_uidiv ; 0x1000526c
        0x100062a8:    3130        01      ADDS     r1,r1,#0x30
        0x100062aa:    1e7f        ..      SUBS     r7,r7,#1
        0x100062ac:    9003        ..      STR      r0,[sp,#0xc]
        0x100062ae:    7039        9p      STRB     r1,[r7,#0]
        0x100062b0:    9911        ..      LDR      r1,[sp,#0x44]
        0x100062b2:    1e48        H.      SUBS     r0,r1,#1
        0x100062b4:    9011        ..      STR      r0,[sp,#0x44]
        0x100062b6:    2900        .)      CMP      r1,#0
        0x100062b8:    dcf2        ..      BGT      0x100062a0 ; _printf_core + 1508
        0x100062ba:    9803        ..      LDR      r0,[sp,#0xc]
        0x100062bc:    2800        .(      CMP      r0,#0
        0x100062be:    d1ef        ..      BNE      0x100062a0 ; _printf_core + 1508
        0x100062c0:    1e79        y.      SUBS     r1,r7,#1
        0x100062c2:    9812        ..      LDR      r0,[sp,#0x48]
        0x100062c4:    7008        .p      STRB     r0,[r1,#0]
        0x100062c6:    7830        0x      LDRB     r0,[r6,#0]
        0x100062c8:    2120         !      MOVS     r1,#0x20
        0x100062ca:    4008        .@      ANDS     r0,r0,r1
        0x100062cc:    3045        E0      ADDS     r0,r0,#0x45
        0x100062ce:    1ebf        ..      SUBS     r7,r7,#2
        0x100062d0:    7038        8p      STRB     r0,[r7,#0]
        0x100062d2:    a806        ..      ADD      r0,sp,#0x18
        0x100062d4:    1bc0        ..      SUBS     r0,r0,r7
        0x100062d6:    1dc0        ..      ADDS     r0,r0,#7
        0x100062d8:    9003        ..      STR      r0,[sp,#0xc]
        0x100062da:    9810        ..      LDR      r0,[sp,#0x40]
        0x100062dc:    7800        .x      LDRB     r0,[r0,#0]
        0x100062de:    2800        .(      CMP      r0,#0
        0x100062e0:    d000        ..      BEQ      0x100062e4 ; _printf_core + 1576
        0x100062e2:    2001        .       MOVS     r0,#1
        0x100062e4:    9901        ..      LDR      r1,[sp,#4]
        0x100062e6:    1841        A.      ADDS     r1,r0,r1
        0x100062e8:    9802        ..      LDR      r0,[sp,#8]
        0x100062ea:    17c0        ..      ASRS     r0,r0,#31
        0x100062ec:    1809        ..      ADDS     r1,r1,r0
        0x100062ee:    9803        ..      LDR      r0,[sp,#0xc]
        0x100062f0:    1809        ..      ADDS     r1,r1,r0
        0x100062f2:    9804        ..      LDR      r0,[sp,#0x10]
        0x100062f4:    1a40        @.      SUBS     r0,r0,r1
        0x100062f6:    1e40        @.      SUBS     r0,r0,#1
        0x100062f8:    9004        ..      STR      r0,[sp,#0x10]
        0x100062fa:    03e0        ..      LSLS     r0,r4,#15
        0x100062fc:    d406        ..      BMI      0x1000630c ; _printf_core + 1616
        0x100062fe:    4621        !F      MOV      r1,r4
        0x10006300:    9b1a        ..      LDR      r3,[sp,#0x68]
        0x10006302:    9a19        ..      LDR      r2,[sp,#0x64]
        0x10006304:    9804        ..      LDR      r0,[sp,#0x10]
        0x10006306:    f000f85f    .._.    BL       _printf_pre_padding ; 0x100063c8
        0x1000630a:    1945        E.      ADDS     r5,r0,r5
        0x1000630c:    9810        ..      LDR      r0,[sp,#0x40]
        0x1000630e:    7800        .x      LDRB     r0,[r0,#0]
        0x10006310:    2800        .(      CMP      r0,#0
        0x10006312:    d003        ..      BEQ      0x1000631c ; _printf_core + 1632
        0x10006314:    9a1a        ..      LDR      r2,[sp,#0x68]
        0x10006316:    9919        ..      LDR      r1,[sp,#0x64]
        0x10006318:    4790        .G      BLX      r2
        0x1000631a:    1c6d        m.      ADDS     r5,r5,#1
        0x1000631c:    03e0        ..      LSLS     r0,r4,#15
        0x1000631e:    d524        $.      BPL      0x1000636a ; _printf_core + 1710
        0x10006320:    4621        !F      MOV      r1,r4
        0x10006322:    9b1a        ..      LDR      r3,[sp,#0x68]
        0x10006324:    9a19        ..      LDR      r2,[sp,#0x64]
        0x10006326:    9804        ..      LDR      r0,[sp,#0x10]
        0x10006328:    f000f84e    ..N.    BL       _printf_pre_padding ; 0x100063c8
        0x1000632c:    1945        E.      ADDS     r5,r0,r5
        0x1000632e:    e01c        ..      B        0x1000636a ; _printf_core + 1710
        0x10006330:    9800        ..      LDR      r0,[sp,#0]
        0x10006332:    2800        .(      CMP      r0,#0
        0x10006334:    db07        ..      BLT      0x10006346 ; _printf_core + 1674
        0x10006336:    9900        ..      LDR      r1,[sp,#0]
        0x10006338:    9805        ..      LDR      r0,[sp,#0x14]
        0x1000633a:    4288        .B      CMP      r0,r1
        0x1000633c:    dd03        ..      BLE      0x10006346 ; _printf_core + 1674
        0x1000633e:    9815        ..      LDR      r0,[sp,#0x54]
        0x10006340:    5c40        @\      LDRB     r0,[r0,r1]
        0x10006342:    9919        ..      LDR      r1,[sp,#0x64]
        0x10006344:    e001        ..      B        0x1000634a ; _printf_core + 1678
        0x10006346:    9919        ..      LDR      r1,[sp,#0x64]
        0x10006348:    2030        0       MOVS     r0,#0x30
        0x1000634a:    9a1a        ..      LDR      r2,[sp,#0x68]
        0x1000634c:    4790        .G      BLX      r2
        0x1000634e:    9800        ..      LDR      r0,[sp,#0]
        0x10006350:    1c6d        m.      ADDS     r5,r5,#1
        0x10006352:    1c40        @.      ADDS     r0,r0,#1
        0x10006354:    9000        ..      STR      r0,[sp,#0]
        0x10006356:    9802        ..      LDR      r0,[sp,#8]
        0x10006358:    1e40        @.      SUBS     r0,r0,#1
        0x1000635a:    9002        ..      STR      r0,[sp,#8]
        0x1000635c:    2800        .(      CMP      r0,#0
        0x1000635e:    d104        ..      BNE      0x1000636a ; _printf_core + 1710
        0x10006360:    9a1a        ..      LDR      r2,[sp,#0x68]
        0x10006362:    202e        .       MOVS     r0,#0x2e
        0x10006364:    9919        ..      LDR      r1,[sp,#0x64]
        0x10006366:    4790        .G      BLX      r2
        0x10006368:    1c6d        m.      ADDS     r5,r5,#1
        0x1000636a:    9901        ..      LDR      r1,[sp,#4]
        0x1000636c:    1e48        H.      SUBS     r0,r1,#1
        0x1000636e:    9001        ..      STR      r0,[sp,#4]
        0x10006370:    2900        .)      CMP      r1,#0
        0x10006372:    dcdd        ..      BGT      0x10006330 ; _printf_core + 1652
        0x10006374:    e005        ..      B        0x10006382 ; _printf_core + 1734
        0x10006376:    7838        8x      LDRB     r0,[r7,#0]
        0x10006378:    9a1a        ..      LDR      r2,[sp,#0x68]
        0x1000637a:    1c7f        ..      ADDS     r7,r7,#1
        0x1000637c:    9919        ..      LDR      r1,[sp,#0x64]
        0x1000637e:    4790        .G      BLX      r2
        0x10006380:    1c6d        m.      ADDS     r5,r5,#1
        0x10006382:    9903        ..      LDR      r1,[sp,#0xc]
        0x10006384:    1e48        H.      SUBS     r0,r1,#1
        0x10006386:    9003        ..      STR      r0,[sp,#0xc]
        0x10006388:    2900        .)      CMP      r1,#0
        0x1000638a:    dcf4        ..      BGT      0x10006376 ; _printf_core + 1722
        0x1000638c:    4621        !F      MOV      r1,r4
        0x1000638e:    9b1a        ..      LDR      r3,[sp,#0x68]
        0x10006390:    9a19        ..      LDR      r2,[sp,#0x64]
        0x10006392:    9804        ..      LDR      r0,[sp,#0x10]
        0x10006394:    e6ac        ..      B        0x100060f0 ; _printf_core + 1076
    $d
        0x10006396:    0000        ..      DCW    0
        0x10006398:    0000002d    -...    DCD    45
        0x1000639c:    0000002b    +...    DCD    43
        0x100063a0:    00000020     ...    DCD    32
        0x100063a4:    00000000    ....    DCD    0
    $t
    i._printf_post_padding
    _printf_post_padding
        0x100063a8:    b5f8        ..      PUSH     {r3-r7,lr}
        0x100063aa:    4604        .F      MOV      r4,r0
        0x100063ac:    2500        .%      MOVS     r5,#0
        0x100063ae:    461e        .F      MOV      r6,r3
        0x100063b0:    4617        .F      MOV      r7,r2
        0x100063b2:    0488        ..      LSLS     r0,r1,#18
        0x100063b4:    d404        ..      BMI      0x100063c0 ; _printf_post_padding + 24
        0x100063b6:    e005        ..      B        0x100063c4 ; _printf_post_padding + 28
        0x100063b8:    4639        9F      MOV      r1,r7
        0x100063ba:    2020                MOVS     r0,#0x20
        0x100063bc:    47b0        .G      BLX      r6
        0x100063be:    1c6d        m.      ADDS     r5,r5,#1
        0x100063c0:    1e64        d.      SUBS     r4,r4,#1
        0x100063c2:    d5f9        ..      BPL      0x100063b8 ; _printf_post_padding + 16
        0x100063c4:    4628        (F      MOV      r0,r5
        0x100063c6:    bdf8        ..      POP      {r3-r7,pc}
    i._printf_pre_padding
    _printf_pre_padding
        0x100063c8:    b5ff        ..      PUSH     {r0-r7,lr}
        0x100063ca:    4604        .F      MOV      r4,r0
        0x100063cc:    2500        .%      MOVS     r5,#0
        0x100063ce:    b081        ..      SUB      sp,sp,#4
        0x100063d0:    461e        .F      MOV      r6,r3
        0x100063d2:    03c8        ..      LSLS     r0,r1,#15
        0x100063d4:    d501        ..      BPL      0x100063da ; _printf_pre_padding + 18
        0x100063d6:    2730        0'      MOVS     r7,#0x30
        0x100063d8:    e000        ..      B        0x100063dc ; _printf_pre_padding + 20
        0x100063da:    2720         '      MOVS     r7,#0x20
        0x100063dc:    0488        ..      LSLS     r0,r1,#18
        0x100063de:    d504        ..      BPL      0x100063ea ; _printf_pre_padding + 34
        0x100063e0:    e005        ..      B        0x100063ee ; _printf_pre_padding + 38
        0x100063e2:    4638        8F      MOV      r0,r7
        0x100063e4:    9903        ..      LDR      r1,[sp,#0xc]
        0x100063e6:    47b0        .G      BLX      r6
        0x100063e8:    1c6d        m.      ADDS     r5,r5,#1
        0x100063ea:    1e64        d.      SUBS     r4,r4,#1
        0x100063ec:    d5f9        ..      BPL      0x100063e2 ; _printf_pre_padding + 26
        0x100063ee:    4628        (F      MOV      r0,r5
        0x100063f0:    b005        ..      ADD      sp,sp,#0x14
        0x100063f2:    bdf0        ..      POP      {r4-r7,pc}
    i._sputc
    _sputc
        0x100063f4:    680a        .h      LDR      r2,[r1,#0]
        0x100063f6:    1c53        S.      ADDS     r3,r2,#1
        0x100063f8:    600b        .`      STR      r3,[r1,#0]
        0x100063fa:    7010        .p      STRB     r0,[r2,#0]
        0x100063fc:    4770        pG      BX       lr
    $d.realdata
    .constdata
    _aV2C
        0x100063fe:    3130        01      DCW    12592
        0x10006400:    35343332    2345    DCD    892613426
        0x10006404:    39383736    6789    DCD    959985462
        0x10006408:    44434241    ABCD    DCD    1145258561
        0x1000640c:    00004645    EF..    DCD    17989
    Region$$Table$$Base
        0x10006410:    10006430    0d..    DCD    268461104
        0x10006414:    20003000    .0.     DCD    536883200
        0x10006418:    00000154    T...    DCD    340
        0x1000641c:    10005a7c    |Z..    DCD    268458620
        0x10006420:    100064dc    .d..    DCD    268461276
        0x10006424:    20003154    T1.     DCD    536883540
        0x10006428:    0000113c    <...    DCD    4412
        0x1000642c:    10005b54    T[..    DCD    268458836
    Region$$Table$$Limit

** Section #2 'RW_IRAM1' (SHT_PROGBITS) [SHF_ALLOC + SHF_WRITE]
    Size   : 172 bytes (alignment 4)
    Address: 0x20003000


** Section #3 'RW_IRAM1' (SHT_NOBITS) [SHF_ALLOC + SHF_WRITE]
    Size   : 4412 bytes (alignment 8)
    Address: 0x20003154


** Section #4 '.debug_abbrev' (SHT_PROGBITS)
    Size   : 1476 bytes


** Section #5 '.debug_frame' (SHT_PROGBITS)
    Size   : 8168 bytes


** Section #6 '.debug_info' (SHT_PROGBITS)
    Size   : 200056 bytes


** Section #7 '.debug_line' (SHT_PROGBITS)
    Size   : 20972 bytes


** Section #8 '.debug_loc' (SHT_PROGBITS)
    Size   : 18844 bytes


** Section #9 '.debug_macinfo' (SHT_PROGBITS)
    Size   : 38688 bytes


** Section #10 '.debug_pubnames' (SHT_PROGBITS)
    Size   : 5887 bytes


** Section #11 '.symtab' (SHT_SYMTAB)
    Size   : 12320 bytes (alignment 4)
    String table #12 '.strtab'
    Last local symbol no. 345


** Section #12 '.strtab' (SHT_STRTAB)
    Size   : 9432 bytes


** Section #13 '.note' (SHT_NOTE)
    Size   : 28 bytes (alignment 4)


** Section #14 '.comment' (SHT_PROGBITS)
    Size   : 19172 bytes


** Section #15 '.shstrtab' (SHT_STRTAB)
    Size   : 156 bytes


