
========================================================================

** ELF Header Information

    File Name: .\output\Ble_Vendor_Service.axf

    Machine class: ELFCLASS32 (32-bit)
    Data encoding: ELFDATA2LSB (Little endian)
    Header version: EV_CURRENT (Current version)
    Operating System ABI: none
    ABI Version: 0
    File Type: ET_EXEC (Executable) (2)
    Machine: EM_ARM (ARM)

    Image Entry point: 0x100000c1
    Flags: EF_ARM_HASENTRY + EF_ARM_ABI_FLOAT_SOFT (0x05000202)

    ARM ELF revision: 5 (ABI version 2)

    Conforms to Soft float procedure-call standard

    Built with
    Component: ARM Compiler 5.06 (build 20) Tool: armasm [4d35a2]
    Component: ARM Compiler 5.06 (build 20) Tool: armlink [4d35a3]

    Header size: 52 bytes (0x34)
    Program header entry size: 32 bytes (0x20)
    Section header entry size: 40 bytes (0x28)

    Program header entries: 1
    Section header entries: 16

    Program header offset: 334808 (0x00051bd8)
    Section header offset: 334840 (0x00051bf8)

    Section header string table index: 15

========================================================================

** Program header #0 (PT_LOAD) [PF_X + PF_W + PF_R + PF_ARM_ENTRY]
    Size : 23688 bytes (19104 bytes in file)
    Virtual address: 0x10000000 (Alignment 8)


========================================================================

** Section #1 'ER_IROM1' (SHT_PROGBITS) [SHF_ALLOC + SHF_EXECINSTR]
    Size   : 18808 bytes (alignment 4)
    Address: 0x10000000

    $d.realdata
    RESET
    __Vectors
        0x10000000:    20004310    .C.     DCD    536888080
        0x10000004:    100018fd    ....    DCD    268441853
        0x10000008:    10001905    ....    DCD    268441861
        0x1000000c:    10000791    ....    DCD    268437393
        0x10000010:    00000000    ....    DCD    0
        0x10000014:    00000000    ....    DCD    0
        0x10000018:    00000000    ....    DCD    0
        0x1000001c:    00000000    ....    DCD    0
        0x10000020:    00000000    ....    DCD    0
        0x10000024:    00000000    ....    DCD    0
        0x10000028:    00000000    ....    DCD    0
        0x1000002c:    10001909    ....    DCD    268441865
        0x10000030:    00000000    ....    DCD    0
        0x10000034:    00000000    ....    DCD    0
        0x10000038:    1000190b    ....    DCD    268441867
        0x1000003c:    1000190d    ....    DCD    268441869
        0x10000040:    00000000    ....    DCD    0
        0x10000044:    1000190f    ....    DCD    268441871
        0x10000048:    10004147    GA..    DCD    268452167
        0x1000004c:    1000190f    ....    DCD    268441871
        0x10000050:    1000190f    ....    DCD    268441871
        0x10000054:    1000190f    ....    DCD    268441871
        0x10000058:    10001293    ....    DCD    268440211
        0x1000005c:    100012bd    ....    DCD    268440253
        0x10000060:    100039f5    .9..    DCD    268450293
        0x10000064:    10003aa5    .:..    DCD    268450469
        0x10000068:    10003b85    .;..    DCD    268450693
        0x1000006c:    1000190f    ....    DCD    268441871
        0x10000070:    10001125    %...    DCD    268439845
        0x10000074:    1000190f    ....    DCD    268441871
        0x10000078:    1000190f    ....    DCD    268441871
        0x1000007c:    1000190f    ....    DCD    268441871
        0x10000080:    1000190f    ....    DCD    268441871
        0x10000084:    1000190f    ....    DCD    268441871
        0x10000088:    1000190f    ....    DCD    268441871
        0x1000008c:    1000190f    ....    DCD    268441871
        0x10000090:    1000190f    ....    DCD    268441871
        0x10000094:    1000190f    ....    DCD    268441871
        0x10000098:    1000190f    ....    DCD    268441871
        0x1000009c:    1000190f    ....    DCD    268441871
        0x100000a0:    00000000    ....    DCD    0
        0x100000a4:    00000000    ....    DCD    0
        0x100000a8:    00000000    ....    DCD    0
        0x100000ac:    00000000    ....    DCD    0
        0x100000b0:    00000000    ....    DCD    0
        0x100000b4:    00000000    ....    DCD    0
        0x100000b8:    00000000    ....    DCD    0
        0x100000bc:    00000000    ....    DCD    0
    $t
    .ARM.Collect$$$$00000000
    .ARM.Collect$$$$00000001
    __Vectors_End
    __main
    _main_stk
        0x100000c0:    4803        .H      LDR      r0,__lit__00000000 ; [0x100000d0] = 0x20004310
        0x100000c2:    4685        .F      MOV      sp,r0
    .ARM.Collect$$$$00000004
    _main_scatterload
        0x100000c4:    f004fbfa    ....    BL       __scatterload ; 0x100048bc
    .ARM.Collect$$$$00000008
    .ARM.Collect$$$$0000000A
    .ARM.Collect$$$$0000000B
    __main_after_scatterload
    _main_clock
    _main_cpp_init
    _main_init
        0x100000c8:    4800        .H      LDR      r0,[pc,#0] ; [0x100000cc] = 0x100006a9
        0x100000ca:    4700        .G      BX       r0
    $d
        0x100000cc:    100006a9    ....    DCD    268437161
    .ARM.Collect$$$$00002712
    __lit__00000000
    .ARM.Collect$$$$0000000D
    .ARM.Collect$$$$0000000F
    __rt_final_cpp
    __rt_final_exit
        0x100000d0:    20004310    .C.     DCD    536888080
    $t
    .text
    gpio_init
        0x100000d4:    b5f8        ..      PUSH     {r3-r7,lr}
        0x100000d6:    2500        .%      MOVS     r5,#0
        0x100000d8:    48f7        .H      LDR      r0,[pc,#988] ; [0x100004b8] = 0x20003058
        0x100000da:    9500        ..      STR      r5,[sp,#0]
        0x100000dc:    6800        .h      LDR      r0,[r0,#0]
        0x100000de:    21ff        .!      MOVS     r1,#0xff
        0x100000e0:    3020         0      ADDS     r0,r0,#0x20
        0x100000e2:    462f        /F      MOV      r7,r5
        0x100000e4:    462e        .F      MOV      r6,r5
        0x100000e6:    462c        ,F      MOV      r4,r5
        0x100000e8:    7001        .p      STRB     r1,[r0,#0]
        0x100000ea:    7041        Ap      STRB     r1,[r0,#1]
        0x100000ec:    229f        ."      MOVS     r2,#0x9f
        0x100000ee:    7082        .p      STRB     r2,[r0,#2]
        0x100000f0:    22cf        ."      MOVS     r2,#0xcf
        0x100000f2:    70c2        .p      STRB     r2,[r0,#3]
        0x100000f4:    7101        .q      STRB     r1,[r0,#4]
        0x100000f6:    4628        (F      MOV      r0,r5
        0x100000f8:    2201        ."      MOVS     r2,#1
        0x100000fa:    280c        .(      CMP      r0,#0xc
        0x100000fc:    d005        ..      BEQ      0x1000010a ; gpio_init + 54
        0x100000fe:    280e        .(      CMP      r0,#0xe
        0x10000100:    d003        ..      BEQ      0x1000010a ; gpio_init + 54
        0x10000102:    4611        .F      MOV      r1,r2
        0x10000104:    4081        .@      LSLS     r1,r1,r0
        0x10000106:    430d        .C      ORRS     r5,r5,r1
        0x10000108:    430c        .C      ORRS     r4,r4,r1
        0x1000010a:    1c40        @.      ADDS     r0,r0,#1
        0x1000010c:    b2c0        ..      UXTB     r0,r0
        0x1000010e:    2820         (      CMP      r0,#0x20
        0x10000110:    d3f3        ..      BCC      0x100000fa ; gpio_init + 38
        0x10000112:    4638        8F      MOV      r0,r7
        0x10000114:    f000ff68    ..h.    BL       GPIO_Set_Output ; 0x10000fe8
        0x10000118:    4639        9F      MOV      r1,r7
        0x1000011a:    2000        .       MOVS     r0,#0
        0x1000011c:    f000ff31    ..1.    BL       PIN_Pullup_Disable ; 0x10000f82
        0x10000120:    4638        8F      MOV      r0,r7
        0x10000122:    43b0        .C      BICS     r0,r0,r6
        0x10000124:    f000ffce    ....    BL       GPIO_Pin_Set ; 0x100010c4
        0x10000128:    4630        0F      MOV      r0,r6
        0x1000012a:    f000ffe3    ....    BL       GPIO_Pin_Clear ; 0x100010f4
        0x1000012e:    4628        (F      MOV      r0,r5
        0x10000130:    9900        ..      LDR      r1,[sp,#0]
        0x10000132:    f000ff71    ..q.    BL       GPIO_Set_Input ; 0x10001018
        0x10000136:    4621        !F      MOV      r1,r4
        0x10000138:    2000        .       MOVS     r0,#0
        0x1000013a:    f000feef    ....    BL       PIN_Pullup_Enable ; 0x10000f1c
        0x1000013e:    bdf8        ..      POP      {r3-r7,pc}
    setup_adv_data
        0x10000140:    b570        p.      PUSH     {r4-r6,lr}
        0x10000142:    b086        ..      SUB      sp,sp,#0x18
        0x10000144:    2000        .       MOVS     r0,#0
        0x10000146:    4669        iF      MOV      r1,sp
        0x10000148:    7208        .r      STRB     r0,[r1,#8]
        0x1000014a:    2007        .       MOVS     r0,#7
        0x1000014c:    7448        Ht      STRB     r0,[r1,#0x11]
        0x1000014e:    2019        .       MOVS     r0,#0x19
        0x10000150:    0180        ..      LSLS     r0,r0,#6
        0x10000152:    8248        H.      STRH     r0,[r1,#0x12]
        0x10000154:    201e        .       MOVS     r0,#0x1e
        0x10000156:    8288        ..      STRH     r0,[r1,#0x14]
        0x10000158:    a802        ..      ADD      r0,sp,#8
        0x1000015a:    f002fafe    ....    BL       SetAdvParams ; 0x1000275a
        0x1000015e:    4668        hF      MOV      r0,sp
        0x10000160:    f002fae9    ....    BL       GetDevAddr ; 0x10002736
        0x10000164:    4669        iF      MOV      r1,sp
        0x10000166:    48d5        .H      LDR      r0,[pc,#852] ; [0x100004bc] = 0x2000300c
        0x10000168:    784e        Nx      LDRB     r6,[r1,#1]
        0x1000016a:    72c6        .r      STRB     r6,[r0,#0xb]
        0x1000016c:    788d        .x      LDRB     r5,[r1,#2]
        0x1000016e:    7305        .s      STRB     r5,[r0,#0xc]
        0x10000170:    78cc        .x      LDRB     r4,[r1,#3]
        0x10000172:    7344        Ds      STRB     r4,[r0,#0xd]
        0x10000174:    790b        .y      LDRB     r3,[r1,#4]
        0x10000176:    7383        .s      STRB     r3,[r0,#0xe]
        0x10000178:    794a        Jy      LDRB     r2,[r1,#5]
        0x1000017a:    73c2        .s      STRB     r2,[r0,#0xf]
        0x1000017c:    7989        .y      LDRB     r1,[r1,#6]
        0x1000017e:    7401        .t      STRB     r1,[r0,#0x10]
        0x10000180:    301b        .0      ADDS     r0,r0,#0x1b
        0x10000182:    7106        .q      STRB     r6,[r0,#4]
        0x10000184:    7145        Eq      STRB     r5,[r0,#5]
        0x10000186:    7184        .q      STRB     r4,[r0,#6]
        0x10000188:    71c3        .q      STRB     r3,[r0,#7]
        0x1000018a:    7202        .r      STRB     r2,[r0,#8]
        0x1000018c:    7241        Ar      STRB     r1,[r0,#9]
        0x1000018e:    4602        .F      MOV      r2,r0
        0x10000190:    2314        .#      MOVS     r3,#0x14
        0x10000192:    211b        .!      MOVS     r1,#0x1b
        0x10000194:    381b        .8      SUBS     r0,r0,#0x1b
        0x10000196:    f002fae6    ....    BL       SetAdvData ; 0x10002766
        0x1000019a:    49c9        .I      LDR      r1,[pc,#804] ; [0x100004c0] = 0x40020000
        0x1000019c:    2001        .       MOVS     r0,#1
        0x1000019e:    7508        .u      STRB     r0,[r1,#0x14]
        0x100001a0:    b006        ..      ADD      sp,sp,#0x18
        0x100001a2:    bd70        p.      POP      {r4-r6,pc}
    BLSetConnectionUpdate
        0x100001a4:    b50e        ..      PUSH     {r1-r3,lr}
        0x100001a6:    2800        .(      CMP      r0,#0
        0x100001a8:    d002        ..      BEQ      0x100001b0 ; BLSetConnectionUpdate + 12
        0x100001aa:    2801        .(      CMP      r0,#1
        0x100001ac:    d10f        ..      BNE      0x100001ce ; BLSetConnectionUpdate + 42
        0x100001ae:    e006        ..      B        0x100001be ; BLSetConnectionUpdate + 26
        0x100001b0:    2010        .       MOVS     r0,#0x10
        0x100001b2:    4669        iF      MOV      r1,sp
        0x100001b4:    80c8        ..      STRH     r0,[r1,#6]
        0x100001b6:    20c8        .       MOVS     r0,#0xc8
        0x100001b8:    8148        H.      STRH     r0,[r1,#0xa]
        0x100001ba:    2000        .       MOVS     r0,#0
        0x100001bc:    e006        ..      B        0x100001cc ; BLSetConnectionUpdate + 40
        0x100001be:    2050        P       MOVS     r0,#0x50
        0x100001c0:    4669        iF      MOV      r1,sp
        0x100001c2:    80c8        ..      STRH     r0,[r1,#6]
        0x100001c4:    204b        K       MOVS     r0,#0x4b
        0x100001c6:    00c0        ..      LSLS     r0,r0,#3
        0x100001c8:    8148        H.      STRH     r0,[r1,#0xa]
        0x100001ca:    200a        .       MOVS     r0,#0xa
        0x100001cc:    8108        ..      STRH     r0,[r1,#8]
        0x100001ce:    20c0        .       MOVS     r0,#0xc0
        0x100001d0:    4669        iF      MOV      r1,sp
        0x100001d2:    7108        .q      STRB     r0,[r1,#4]
        0x100001d4:    2004        .       MOVS     r0,#4
        0x100001d6:    7148        Hq      STRB     r0,[r1,#5]
        0x100001d8:    a801        ..      ADD      r0,sp,#4
        0x100001da:    f002ffb5    ....    BL       gap_s_smart_update_latency ; 0x10003148
        0x100001de:    4669        iF      MOV      r1,sp
        0x100001e0:    8948        H.      LDRH     r0,[r1,#0xa]
        0x100001e2:    9000        ..      STR      r0,[sp,#0]
        0x100001e4:    890b        ..      LDRH     r3,[r1,#8]
        0x100001e6:    88ca        ..      LDRH     r2,[r1,#6]
        0x100001e8:    a1b6        ..      ADR      r1,{pc}+0x2dc ; 0x100004c4
        0x100001ea:    2000        .       MOVS     r0,#0
        0x100001ec:    f001fadf    ....    BL       SEGGER_RTT_printf ; 0x100017ae
        0x100001f0:    bd0e        ..      POP      {r1-r3,pc}
    Connection_latency
        0x100001f2:    49b2        .I      LDR      r1,[pc,#712] ; [0x100004bc] = 0x2000300c
        0x100001f4:    b510        ..      PUSH     {r4,lr}
        0x100001f6:    390c        .9      SUBS     r1,r1,#0xc
        0x100001f8:    7888        .x      LDRB     r0,[r1,#2]
        0x100001fa:    1c40        @.      ADDS     r0,r0,#1
        0x100001fc:    b2c0        ..      UXTB     r0,r0
        0x100001fe:    7088        .p      STRB     r0,[r1,#2]
        0x10000200:    2803        .(      CMP      r0,#3
        0x10000202:    d308        ..      BCC      0x10000216 ; Connection_latency + 36
        0x10000204:    2000        .       MOVS     r0,#0
        0x10000206:    7048        Hp      STRB     r0,[r1,#1]
        0x10000208:    2001        .       MOVS     r0,#1
        0x1000020a:    f7ffffcb    ....    BL       BLSetConnectionUpdate ; 0x100001a4
        0x1000020e:    20ff        .       MOVS     r0,#0xff
        0x10000210:    3001        .0      ADDS     r0,#1
        0x10000212:    f003fb2b    ..+.    BL       Timer_Evt_Stop ; 0x1000386c
        0x10000216:    bd10        ..      POP      {r4,pc}
    BLE_SendUARTData
        0x10000218:    b53e        >.      PUSH     {r1-r5,lr}
        0x1000021a:    4ca8        .L      LDR      r4,[pc,#672] ; [0x100004bc] = 0x2000300c
        0x1000021c:    3c0c        .<      SUBS     r4,r4,#0xc
        0x1000021e:    78e2        .x      LDRB     r2,[r4,#3]
        0x10000220:    07d2        ..      LSLS     r2,r2,#31
        0x10000222:    d00e        ..      BEQ      0x10000242 ; BLE_SendUARTData + 42
        0x10000224:    2401        .$      MOVS     r4,#1
        0x10000226:    466a        jF      MOV      r2,sp
        0x10000228:    8014        ..      STRH     r4,[r2,#0]
        0x1000022a:    2503        .%      MOVS     r5,#3
        0x1000022c:    8055        U.      STRH     r5,[r2,#2]
        0x1000022e:    251f        .%      MOVS     r5,#0x1f
        0x10000230:    8095        ..      STRH     r5,[r2,#4]
        0x10000232:    8114        ..      STRH     r4,[r2,#8]
        0x10000234:    4603        .F      MOV      r3,r0
        0x10000236:    460a        .F      MOV      r2,r1
        0x10000238:    4669        iF      MOV      r1,sp
        0x1000023a:    4620         F      MOV      r0,r4
        0x1000023c:    f002fc55    ..U.    BL       GATTDataSend ; 0x10002aea
        0x10000240:    bd3e        >.      POP      {r1-r5,pc}
        0x10000242:    2000        .       MOVS     r0,#0
        0x10000244:    bd3e        >.      POP      {r1-r5,pc}
    timer_1_callback
        0x10000246:    4a9d        .J      LDR      r2,[pc,#628] ; [0x100004bc] = 0x2000300c
        0x10000248:    b510        ..      PUSH     {r4,lr}
        0x1000024a:    3a0c        .:      SUBS     r2,r2,#0xc
        0x1000024c:    8890        ..      LDRH     r0,[r2,#4]
        0x1000024e:    1c40        @.      ADDS     r0,r0,#1
        0x10000250:    b281        ..      UXTH     r1,r0
        0x10000252:    48a8        .H      LDR      r0,[pc,#672] ; [0x100004f4] = 0x20003528
        0x10000254:    8091        ..      STRH     r1,[r2,#4]
        0x10000256:    c809        ..      LDM      r0,{r0,r3}
        0x10000258:    4298        .B      CMP      r0,r3
        0x1000025a:    d105        ..      BNE      0x10000268 ; timer_1_callback + 34
        0x1000025c:    2903        .)      CMP      r1,#3
        0x1000025e:    d903        ..      BLS      0x10000268 ; timer_1_callback + 34
        0x10000260:    2000        .       MOVS     r0,#0
        0x10000262:    7050        Pp      STRB     r0,[r2,#1]
        0x10000264:    f003fc06    ....    BL       timer_1_disable ; 0x10003a74
        0x10000268:    bd10        ..      POP      {r4,pc}
    send_to_master
        0x1000026a:    b5f0        ..      PUSH     {r4-r7,lr}
        0x1000026c:    4ea1        .N      LDR      r6,[pc,#644] ; [0x100004f4] = 0x20003528
        0x1000026e:    b085        ..      SUB      sp,sp,#0x14
        0x10000270:    6835        5h      LDR      r5,[r6,#0]
        0x10000272:    6874        th      LDR      r4,[r6,#4]
        0x10000274:    42a5        .B      CMP      r5,r4
        0x10000276:    d031        1.      BEQ      0x100002dc ; send_to_master + 114
        0x10000278:    4f90        .O      LDR      r7,[pc,#576] ; [0x100004bc] = 0x2000300c
        0x1000027a:    3f0c        .?      SUBS     r7,r7,#0xc
        0x1000027c:    7878        xx      LDRB     r0,[r7,#1]
        0x1000027e:    2800        .(      CMP      r0,#0
        0x10000280:    d107        ..      BNE      0x10000292 ; send_to_master + 40
        0x10000282:    2001        .       MOVS     r0,#1
        0x10000284:    7078        xp      STRB     r0,[r7,#1]
        0x10000286:    2000        .       MOVS     r0,#0
        0x10000288:    80b8        ..      STRH     r0,[r7,#4]
        0x1000028a:    499b        .I      LDR      r1,[pc,#620] ; [0x100004f8] = 0x10000247
        0x1000028c:    20a3        .       MOVS     r0,#0xa3
        0x1000028e:    f003fbc1    ....    BL       timer_1_enable ; 0x10003a14
        0x10000292:    2301        .#      MOVS     r3,#1
        0x10000294:    029b        ..      LSLS     r3,r3,#10
        0x10000296:    42a5        .B      CMP      r5,r4
        0x10000298:    d301        ..      BCC      0x1000029e ; send_to_master + 52
        0x1000029a:    1b2d        -.      SUBS     r5,r5,r4
        0x1000029c:    e001        ..      B        0x100002a2 ; send_to_master + 56
        0x1000029e:    1b28        (.      SUBS     r0,r5,r4
        0x100002a0:    18c5        ..      ADDS     r5,r0,r3
        0x100002a2:    2d14        .-      CMP      r5,#0x14
        0x100002a4:    d31c        ..      BCC      0x100002e0 ; send_to_master + 118
        0x100002a6:    461f        .F      MOV      r7,r3
        0x100002a8:    4984        .I      LDR      r1,[pc,#528] ; [0x100004bc] = 0x2000300c
        0x100002aa:    2000        .       MOVS     r0,#0
        0x100002ac:    390c        .9      SUBS     r1,r1,#0xc
        0x100002ae:    8088        ..      STRH     r0,[r1,#4]
        0x100002b0:    4b92        .K      LDR      r3,[pc,#584] ; [0x100004fc] = 0x20003128
        0x100002b2:    4669        iF      MOV      r1,sp
        0x100002b4:    5d1a        .]      LDRB     r2,[r3,r4]
        0x100002b6:    1c64        d.      ADDS     r4,r4,#1
        0x100002b8:    540a        .T      STRB     r2,[r1,r0]
        0x100002ba:    42bc        .B      CMP      r4,r7
        0x100002bc:    d300        ..      BCC      0x100002c0 ; send_to_master + 86
        0x100002be:    2400        .$      MOVS     r4,#0
        0x100002c0:    1c40        @.      ADDS     r0,r0,#1
        0x100002c2:    b2c0        ..      UXTB     r0,r0
        0x100002c4:    2814        .(      CMP      r0,#0x14
        0x100002c6:    d3f5        ..      BCC      0x100002b4 ; send_to_master + 74
        0x100002c8:    2114        .!      MOVS     r1,#0x14
        0x100002ca:    4668        hF      MOV      r0,sp
        0x100002cc:    f7ffffa4    ....    BL       BLE_SendUARTData ; 0x10000218
        0x100002d0:    2800        .(      CMP      r0,#0
        0x100002d2:    d003        ..      BEQ      0x100002dc ; send_to_master + 114
        0x100002d4:    3d14        .=      SUBS     r5,r5,#0x14
        0x100002d6:    6074        t`      STR      r4,[r6,#4]
        0x100002d8:    2d14        .-      CMP      r5,#0x14
        0x100002da:    d2e5        ..      BCS      0x100002a8 ; send_to_master + 62
        0x100002dc:    b005        ..      ADD      sp,sp,#0x14
        0x100002de:    bdf0        ..      POP      {r4-r7,pc}
        0x100002e0:    2d00        .-      CMP      r5,#0
        0x100002e2:    d0fb        ..      BEQ      0x100002dc ; send_to_master + 114
        0x100002e4:    88b8        ..      LDRH     r0,[r7,#4]
        0x100002e6:    2803        .(      CMP      r0,#3
        0x100002e8:    d3f8        ..      BCC      0x100002dc ; send_to_master + 114
        0x100002ea:    2000        .       MOVS     r0,#0
        0x100002ec:    4669        iF      MOV      r1,sp
        0x100002ee:    e008        ..      B        0x10000302 ; send_to_master + 152
        0x100002f0:    4a82        .J      LDR      r2,[pc,#520] ; [0x100004fc] = 0x20003128
        0x100002f2:    5d12        .]      LDRB     r2,[r2,r4]
        0x100002f4:    1c64        d.      ADDS     r4,r4,#1
        0x100002f6:    540a        .T      STRB     r2,[r1,r0]
        0x100002f8:    429c        .B      CMP      r4,r3
        0x100002fa:    d300        ..      BCC      0x100002fe ; send_to_master + 148
        0x100002fc:    2400        .$      MOVS     r4,#0
        0x100002fe:    1c40        @.      ADDS     r0,r0,#1
        0x10000300:    b2c0        ..      UXTB     r0,r0
        0x10000302:    42a8        .B      CMP      r0,r5
        0x10000304:    d3f4        ..      BCC      0x100002f0 ; send_to_master + 134
        0x10000306:    b2e9        ..      UXTB     r1,r5
        0x10000308:    4668        hF      MOV      r0,sp
        0x1000030a:    f7ffff85    ....    BL       BLE_SendUARTData ; 0x10000218
        0x1000030e:    2800        .(      CMP      r0,#0
        0x10000310:    d000        ..      BEQ      0x10000314 ; send_to_master + 170
        0x10000312:    6074        t`      STR      r4,[r6,#4]
        0x10000314:    2000        .       MOVS     r0,#0
        0x10000316:    80b8        ..      STRH     r0,[r7,#4]
        0x10000318:    e7e0        ..      B        0x100002dc ; send_to_master + 114
    ble_evt_callback
        0x1000031a:    b5f0        ..      PUSH     {r4-r7,lr}
        0x1000031c:    4604        .F      MOV      r4,r0
        0x1000031e:    b08d        ..      SUB      sp,sp,#0x34
        0x10000320:    1c40        @.      ADDS     r0,r0,#1
        0x10000322:    f003ff9c    ....    BL       __aeabi_uread4 ; 0x1000425e
        0x10000326:    1fc1        ..      SUBS     r1,r0,#7
        0x10000328:    39ff        .9      SUBS     r1,r1,#0xff
        0x1000032a:    39fa        .9      SUBS     r1,r1,#0xfa
        0x1000032c:    d016        ..      BEQ      0x1000035c ; ble_evt_callback + 66
        0x1000032e:    21ff        .!      MOVS     r1,#0xff
        0x10000330:    3101        .1      ADDS     r1,#1
        0x10000332:    2700        .'      MOVS     r7,#0
        0x10000334:    4288        .B      CMP      r0,r1
        0x10000336:    d133        3.      BNE      0x100003a0 ; ble_evt_callback + 134
        0x10000338:    2208        ."      MOVS     r2,#8
        0x1000033a:    1d61        a.      ADDS     r1,r4,#5
        0x1000033c:    a803        ..      ADD      r0,sp,#0xc
        0x1000033e:    f003ff61    ..a.    BL       __aeabi_memcpy ; 0x10004204
        0x10000342:    4668        hF      MOV      r0,sp
        0x10000344:    89c0        ..      LDRH     r0,[r0,#0xe]
        0x10000346:    2115        .!      MOVS     r1,#0x15
        0x10000348:    0249        I.      LSLS     r1,r1,#9
        0x1000034a:    4288        .B      CMP      r0,r1
        0x1000034c:    d117        ..      BNE      0x1000037e ; ble_evt_callback + 100
        0x1000034e:    a06c        l.      ADR      r0,{pc}+0x1b2 ; 0x10000500
        0x10000350:    c803        ..      LDM      r0,{r0,r1}
        0x10000352:    9101        ..      STR      r1,[sp,#4]
        0x10000354:    9000        ..      STR      r0,[sp,#0]
        0x10000356:    2008        .       MOVS     r0,#8
        0x10000358:    4669        iF      MOV      r1,sp
        0x1000035a:    e01e        ..      B        0x1000039a ; ble_evt_callback + 128
        0x1000035c:    4621        !F      MOV      r1,r4
        0x1000035e:    220e        ."      MOVS     r2,#0xe
        0x10000360:    3115        .1      ADDS     r1,r1,#0x15
        0x10000362:    4668        hF      MOV      r0,sp
        0x10000364:    f003ff4e    ..N.    BL       __aeabi_memcpy ; 0x10004204
        0x10000368:    221e        ."      MOVS     r2,#0x1e
        0x1000036a:    1d61        a.      ADDS     r1,r4,#5
        0x1000036c:    a804        ..      ADD      r0,sp,#0x10
        0x1000036e:    f003ff49    ..I.    BL       __aeabi_memcpy ; 0x10004204
        0x10000372:    ad04        ..      ADD      r5,sp,#0x10
        0x10000374:    cd0f        ..      LDM      r5!,{r0-r3}
        0x10000376:    f000fa10    ....    BL       ble_gatt_write ; 0x1000079a
        0x1000037a:    b00d        ..      ADD      sp,sp,#0x34
        0x1000037c:    bdf0        ..      POP      {r4-r7,pc}
        0x1000037e:    4962        bI      LDR      r1,[pc,#392] ; [0x10000508] = 0xff01
        0x10000380:    4288        .B      CMP      r0,r1
        0x10000382:    d1fa        ..      BNE      0x1000037a ; ble_evt_callback + 96
        0x10000384:    4668        hF      MOV      r0,sp
        0x10000386:    7007        .p      STRB     r7,[r0,#0]
        0x10000388:    9701        ..      STR      r7,[sp,#4]
        0x1000038a:    4669        iF      MOV      r1,sp
        0x1000038c:    a801        ..      ADD      r0,sp,#4
        0x1000038e:    9702        ..      STR      r7,[sp,#8]
        0x10000390:    f000fc64    ..d.    BL       ota_rsp ; 0x10000c5c
        0x10000394:    4668        hF      MOV      r0,sp
        0x10000396:    a901        ..      ADD      r1,sp,#4
        0x10000398:    7800        .x      LDRB     r0,[r0,#0]
        0x1000039a:    f002fb97    ....    BL       SetGATTReadRsp ; 0x10002acc
        0x1000039e:    e7ec        ..      B        0x1000037a ; ble_evt_callback + 96
        0x100003a0:    4e46        FN      LDR      r6,[pc,#280] ; [0x100004bc] = 0x2000300c
        0x100003a2:    2101        .!      MOVS     r1,#1
        0x100003a4:    3e0c        .>      SUBS     r6,r6,#0xc
        0x100003a6:    2802        .(      CMP      r0,#2
        0x100003a8:    d01b        ..      BEQ      0x100003e2 ; ble_evt_callback + 200
        0x100003aa:    4d52        RM      LDR      r5,[pc,#328] ; [0x100004f4] = 0x20003528
        0x100003ac:    2804        .(      CMP      r0,#4
        0x100003ae:    d025        %.      BEQ      0x100003fc ; ble_evt_callback + 226
        0x100003b0:    034a        J.      LSLS     r2,r1,#13
        0x100003b2:    1c64        d.      ADDS     r4,r4,#1
        0x100003b4:    4290        .B      CMP      r0,r2
        0x100003b6:    d147        G.      BNE      0x10000448 ; ble_evt_callback + 302
        0x100003b8:    7960        `y      LDRB     r0,[r4,#5]
        0x100003ba:    7922        "y      LDRB     r2,[r4,#4]
        0x100003bc:    0200        ..      LSLS     r0,r0,#8
        0x100003be:    4310        .C      ORRS     r0,r0,r2
        0x100003c0:    2801        .(      CMP      r0,#1
        0x100003c2:    d1da        ..      BNE      0x1000037a ; ble_evt_callback + 96
        0x100003c4:    7a60        `z      LDRB     r0,[r4,#9]
        0x100003c6:    7a23        #z      LDRB     r3,[r4,#8]
        0x100003c8:    0202        ..      LSLS     r2,r0,#8
        0x100003ca:    4630        0F      MOV      r0,r6
        0x100003cc:    431a        .C      ORRS     r2,r2,r3
        0x100003ce:    78c0        .x      LDRB     r0,[r0,#3]
        0x100003d0:    2a01        .*      CMP      r2,#1
        0x100003d2:    d02d        -.      BEQ      0x10000430 ; ble_evt_callback + 278
        0x100003d4:    4388        .C      BICS     r0,r0,r1
        0x100003d6:    70f0        .p      STRB     r0,[r6,#3]
        0x100003d8:    2000        .       MOVS     r0,#0
        0x100003da:    f001fe17    ....    BL       UartEn ; 0x1000200c
        0x100003de:    a14b        K.      ADR      r1,{pc}+0x12e ; 0x1000050c
        0x100003e0:    e02e        ..      B        0x10000440 ; ble_evt_callback + 294
        0x100003e2:    7031        1p      STRB     r1,[r6,#0]
        0x100003e4:    20ff        .       MOVS     r0,#0xff
        0x100003e6:    70b7        .p      STRB     r7,[r6,#2]
        0x100003e8:    3001        .0      ADDS     r0,#1
        0x100003ea:    f003fa78    ..x.    BL       Timer_Evt_Start ; 0x100038de
        0x100003ee:    2306        .#      MOVS     r3,#6
        0x100003f0:    1da2        ..      ADDS     r2,r4,#6
        0x100003f2:    a14c        L.      ADR      r1,{pc}+0x132 ; 0x10000524
        0x100003f4:    2000        .       MOVS     r0,#0
        0x100003f6:    f001f9e6    ....    BL       SEGGER_RTT_hexdump ; 0x100017c6
        0x100003fa:    e7be        ..      B        0x1000037a ; ble_evt_callback + 96
        0x100003fc:    7962        by      LDRB     r2,[r4,#5]
        0x100003fe:    a14d        M.      ADR      r1,{pc}+0x136 ; 0x10000534
        0x10000400:    2000        .       MOVS     r0,#0
        0x10000402:    f001f9d4    ....    BL       SEGGER_RTT_printf ; 0x100017ae
        0x10000406:    70f7        .p      STRB     r7,[r6,#3]
        0x10000408:    7037        7p      STRB     r7,[r6,#0]
        0x1000040a:    6868        hh      LDR      r0,[r5,#4]
        0x1000040c:    6028        (`      STR      r0,[r5,#0]
        0x1000040e:    2001        .       MOVS     r0,#1
        0x10000410:    0240        @.      LSLS     r0,r0,#9
        0x10000412:    f003fa2b    ..+.    BL       Timer_Evt_Stop ; 0x1000386c
        0x10000416:    20ff        .       MOVS     r0,#0xff
        0x10000418:    3001        .0      ADDS     r0,#1
        0x1000041a:    f003fa27    ..'.    BL       Timer_Evt_Stop ; 0x1000386c
        0x1000041e:    f7fffe8f    ....    BL       setup_adv_data ; 0x10000140
        0x10000422:    f002fab4    ....    BL       StartAdv ; 0x1000298e
        0x10000426:    2000        .       MOVS     r0,#0
        0x10000428:    f001fdf0    ....    BL       UartEn ; 0x1000200c
        0x1000042c:    a148        H.      ADR      r1,{pc}+0x124 ; 0x10000550
        0x1000042e:    e007        ..      B        0x10000440 ; ble_evt_callback + 294
        0x10000430:    4308        .C      ORRS     r0,r0,r1
        0x10000432:    70f0        .p      STRB     r0,[r6,#3]
        0x10000434:    2001        .       MOVS     r0,#1
        0x10000436:    f001fde9    ....    BL       UartEn ; 0x1000200c
        0x1000043a:    6868        hh      LDR      r0,[r5,#4]
        0x1000043c:    a149        I.      ADR      r1,{pc}+0x128 ; 0x10000564
        0x1000043e:    6028        (`      STR      r0,[r5,#0]
        0x10000440:    2000        .       MOVS     r0,#0
        0x10000442:    f001f9b4    ....    BL       SEGGER_RTT_printf ; 0x100017ae
        0x10000446:    e798        ..      B        0x1000037a ; ble_evt_callback + 96
        0x10000448:    2101        .!      MOVS     r1,#1
        0x1000044a:    03c9        ..      LSLS     r1,r1,#15
        0x1000044c:    4288        .B      CMP      r0,r1
        0x1000044e:    d124        $.      BNE      0x1000049a ; ble_evt_callback + 384
        0x10000450:    7960        `y      LDRB     r0,[r4,#5]
        0x10000452:    7921        !y      LDRB     r1,[r4,#4]
        0x10000454:    0200        ..      LSLS     r0,r0,#8
        0x10000456:    4308        .C      ORRS     r0,r0,r1
        0x10000458:    0003        ..      MOVS     r3,r0
        0x1000045a:    f004fa58    ..X.    BL       __ARM_common_switch8 ; 0x1000490e
    $d
        0x1000045e:    0506        ..      DCW    1286
        0x10000460:    1a181614    ....    DCD    437786132
        0x10000464:    041c        ..      DCW    1052
    $t
        0x10000466:    e788        ..      B        0x1000037a ; ble_evt_callback + 96
        0x10000468:    a144        D.      ADR      r1,{pc}+0x114 ; 0x1000057c
        0x1000046a:    2000        .       MOVS     r0,#0
        0x1000046c:    f001f99f    ....    BL       SEGGER_RTT_printf ; 0x100017ae
        0x10000470:    4668        hF      MOV      r0,sp
        0x10000472:    f002faf5    ....    BL       GetLinkParameters ; 0x10002a60
        0x10000476:    4668        hF      MOV      r0,sp
        0x10000478:    8843        C.      LDRH     r3,[r0,#2]
        0x1000047a:    8802        ..      LDRH     r2,[r0,#0]
        0x1000047c:    a145        E.      ADR      r1,{pc}+0x118 ; 0x10000594
        0x1000047e:    2000        .       MOVS     r0,#0
        0x10000480:    f001f995    ....    BL       SEGGER_RTT_printf ; 0x100017ae
        0x10000484:    e779        y.      B        0x1000037a ; ble_evt_callback + 96
        0x10000486:    a14a        J.      ADR      r1,{pc}+0x12a ; 0x100005b0
        0x10000488:    e7da        ..      B        0x10000440 ; ble_evt_callback + 294
        0x1000048a:    a14f        O.      ADR      r1,{pc}+0x13e ; 0x100005c8
        0x1000048c:    e7d8        ..      B        0x10000440 ; ble_evt_callback + 294
        0x1000048e:    a154        T.      ADR      r1,{pc}+0x152 ; 0x100005e0
        0x10000490:    e7d6        ..      B        0x10000440 ; ble_evt_callback + 294
        0x10000492:    a159        Y.      ADR      r1,{pc}+0x166 ; 0x100005f8
        0x10000494:    e7d4        ..      B        0x10000440 ; ble_evt_callback + 294
        0x10000496:    a15d        ].      ADR      r1,{pc}+0x176 ; 0x1000060c
        0x10000498:    e7d2        ..      B        0x10000440 ; ble_evt_callback + 294
        0x1000049a:    2101        .!      MOVS     r1,#1
        0x1000049c:    0409        ..      LSLS     r1,r1,#16
        0x1000049e:    4288        .B      CMP      r0,r1
        0x100004a0:    d109        ..      BNE      0x100004b6 ; ble_evt_callback + 412
        0x100004a2:    a801        ..      ADD      r0,sp,#4
        0x100004a4:    f002fadc    ....    BL       GetLinkParameters ; 0x10002a60
        0x100004a8:    4668        hF      MOV      r0,sp
        0x100004aa:    8900        ..      LDRH     r0,[r0,#8]
        0x100004ac:    9000        ..      STR      r0,[sp,#0]
        0x100004ae:    4668        hF      MOV      r0,sp
        0x100004b0:    88c3        ..      LDRH     r3,[r0,#6]
        0x100004b2:    8882        ..      LDRH     r2,[r0,#4]
        0x100004b4:    e0b4        ..      B        0x10000620 ; ble_evt_callback + 774
        0x100004b6:    e0b8        ..      B        0x1000062a ; ble_evt_callback + 784
    $d
        0x100004b8:    20003058    X0.     DCD    536883288
        0x100004bc:    2000300c    .0.     DCD    536883212
        0x100004c0:    40020000    ...@    DCD    1073872896
        0x100004c4:    72616d73    smar    DCD    1918987635
        0x100004c8:    61705f74    t_pa    DCD    1634754420
        0x100004cc:    736d6172    rams    DCD    1936548210
        0x100004d0:    746e6920     int    DCD    1953392928
        0x100004d4:    61767265    erva    DCD    1635152485
        0x100004d8:    78253a6c    l:%x    DCD    2015705708
        0x100004dc:    74616c20     lat    DCD    1952541728
        0x100004e0:    79636e65    ency    DCD    2036559461
        0x100004e4:    2078253a    :%x     DCD    544744762
        0x100004e8:    6f747673    svto    DCD    1869903475
        0x100004ec:    0d78253a    :%x.    DCD    225977658
        0x100004f0:    0000000a    ....    DCD    10
        0x100004f4:    20003528    (5.     DCD    536884520
        0x100004f8:    10000247    G...    DCD    268436039
        0x100004fc:    20003128    (1.     DCD    536883496
        0x10000500:    5f445953    SYD_    DCD    1598314835
        0x10000504:    54524155    UART    DCD    1414676821
        0x10000508:    0000ff01    ....    DCD    65281
        0x1000050c:    54524155    UART    DCD    1414676821
        0x10000510:    746f6e20     not    DCD    1953459744
        0x10000514:    20796669    ify     DCD    544826985
        0x10000518:    61736944    Disa    DCD    1634953540
        0x1000051c:    64656c62    bled    DCD    1684368482
        0x10000520:    000a0d21    !...    DCD    658721
        0x10000524:    6e6e6f43    Conn    DCD    1852731203
        0x10000528:    65746365    ecte    DCD    1702126437
        0x1000052c:    64612064    d ad    DCD    1684086884
        0x10000530:    003a7264    dr:.    DCD    3830372
        0x10000534:    63736944    Disc    DCD    1668507972
        0x10000538:    656e6e6f    onne    DCD    1701736047
        0x1000053c:    64657463    cted    DCD    1684370531
        0x10000540:    7365722c    ,res    DCD    1936028204
        0x10000544:    303a6e6f    on:0    DCD    809135727
        0x10000548:    32302578    x%02    DCD    842016120
        0x1000054c:    000a0d78    x...    DCD    658808
        0x10000550:    72617473    star    DCD    1918989427
        0x10000554:    64612074    t ad    DCD    1684086900
        0x10000558:    20402076    v @     DCD    541073526
        0x1000055c:    63736964    disc    DCD    1668508004
        0x10000560:    000a0d21    !...    DCD    658721
        0x10000564:    54524155    UART    DCD    1414676821
        0x10000568:    746f6e20     not    DCD    1953459744
        0x1000056c:    20796669    ify     DCD    544826985
        0x10000570:    62616e45    Enab    DCD    1650552389
        0x10000574:    2164656c    led!    DCD    560227692
        0x10000578:    00000a0d    ....    DCD    2573
        0x1000057c:    61647075    upda    DCD    1633972341
        0x10000580:    72206574    te r    DCD    1914725748
        0x10000584:    41207073    sp A    DCD    1092644979
        0x10000588:    50454343    CCEP    DCD    1346716483
        0x1000058c:    0d444554    TED.    DCD    222578004
        0x10000590:    0000000a    ....    DCD    10
        0x10000594:    65746e69    inte    DCD    1702129257
        0x10000598:    6c617672    rval    DCD    1818326642
        0x1000059c:    2078253a    :%x     DCD    544744762
        0x100005a0:    6574616c    late    DCD    1702125932
        0x100005a4:    3a79636e    ncy:    DCD    981033838
        0x100005a8:    0a0d7825    %x..    DCD    168654885
        0x100005ac:    00000000    ....    DCD    0
        0x100005b0:    61647075    upda    DCD    1633972341
        0x100005b4:    72206574    te r    DCD    1914725748
        0x100005b8:    52207073    sp R    DCD    1377857651
        0x100005bc:    43454a45    EJEC    DCD    1128614469
        0x100005c0:    0d444554    TED.    DCD    222578004
        0x100005c4:    0000000a    ....    DCD    10
        0x100005c8:    61647075    upda    DCD    1633972341
        0x100005cc:    72206574    te r    DCD    1914725748
        0x100005d0:    54207073    sp T    DCD    1411412083
        0x100005d4:    52454d49    IMER    DCD    1380273481
        0x100005d8:    0d54554f    OUT.    DCD    223630671
        0x100005dc:    0000000a    ....    DCD    10
        0x100005e0:    61647075    upda    DCD    1633972341
        0x100005e4:    72206574    te r    DCD    1914725748
        0x100005e8:    53207073    sp S    DCD    1394634867
        0x100005ec:    45434355    UCCE    DCD    1162036053
        0x100005f0:    0a0d4445    ED..    DCD    168641605
        0x100005f4:    00000000    ....    DCD    0
        0x100005f8:    62616e45    Enab    DCD    1650552389
        0x100005fc:    6c20656c    le l    DCD    1814062444
        0x10000600:    6e657461    aten    DCD    1852142689
        0x10000604:    0a0d7963    cy..    DCD    168655203
        0x10000608:    00000000    ....    DCD    0
        0x1000060c:    61736944    Disa    DCD    1634953540
        0x10000610:    20656c62    ble     DCD    543517794
        0x10000614:    6574616c    late    DCD    1702125932
        0x10000618:    0d79636e    ncy.    DCD    226059118
        0x1000061c:    0000000a    ....    DCD    10
    $t
        0x10000620:    a1a0        ..      ADR      r1,{pc}+0x284 ; 0x100008a4
        0x10000622:    2000        .       MOVS     r0,#0
        0x10000624:    f001f8c3    ....    BL       SEGGER_RTT_printf ; 0x100017ae
        0x10000628:    e6a7        ..      B        0x1000037a ; ble_evt_callback + 96
        0x1000062a:    2801        .(      CMP      r0,#1
        0x1000062c:    d1fc        ..      BNE      0x10000628 ; ble_evt_callback + 782
        0x1000062e:    f002f9ae    ....    BL       StartAdv ; 0x1000298e
        0x10000632:    e6a2        ..      B        0x1000037a ; ble_evt_callback + 96
    ota_manage
        0x10000634:    b5f8        ..      PUSH     {r3-r7,lr}
        0x10000636:    4ca3        .L      LDR      r4,[pc,#652] ; [0x100008c4] = 0x2000303c
        0x10000638:    7820         x      LDRB     r0,[r4,#0]
        0x1000063a:    2800        .(      CMP      r0,#0
        0x1000063c:    d01b        ..      BEQ      0x10000676 ; ota_manage + 66
        0x1000063e:    2600        .&      MOVS     r6,#0
        0x10000640:    4da1        .M      LDR      r5,[pc,#644] ; [0x100008c8] = 0x2000303d
        0x10000642:    2801        .(      CMP      r0,#1
        0x10000644:    d018        ..      BEQ      0x10000678 ; ota_manage + 68
        0x10000646:    2701        .'      MOVS     r7,#1
        0x10000648:    027f        ..      LSLS     r7,r7,#9
        0x1000064a:    2802        .(      CMP      r0,#2
        0x1000064c:    d01e        ..      BEQ      0x1000068c ; ota_manage + 88
        0x1000064e:    2803        .(      CMP      r0,#3
        0x10000650:    d111        ..      BNE      0x10000676 ; ota_manage + 66
        0x10000652:    7026        &p      STRB     r6,[r4,#0]
        0x10000654:    4638        8F      MOV      r0,r7
        0x10000656:    f003f909    ....    BL       Timer_Evt_Stop ; 0x1000386c
        0x1000065a:    a19c        ..      ADR      r1,{pc}+0x272 ; 0x100008cc
        0x1000065c:    2000        .       MOVS     r0,#0
        0x1000065e:    f001f8a6    ....    BL       SEGGER_RTT_printf ; 0x100017ae
        0x10000662:    207d        }       MOVS     r0,#0x7d
        0x10000664:    00c0        ..      LSLS     r0,r0,#3
        0x10000666:    f000f9c9    ....    BL       delay_ms ; 0x100009fc
        0x1000066a:    a19c        ..      ADR      r1,{pc}+0x272 ; 0x100008dc
        0x1000066c:    2000        .       MOVS     r0,#0
        0x1000066e:    f001f89e    ....    BL       SEGGER_RTT_printf ; 0x100017ae
        0x10000672:    f002fbbe    ....    BL       SystemReset ; 0x10002df2
        0x10000676:    bdf8        ..      POP      {r3-r7,pc}
        0x10000678:    f000f9dc    ....    BL       CmdFwErase ; 0x10000a34
        0x1000067c:    a19c        ..      ADR      r1,{pc}+0x274 ; 0x100008f0
        0x1000067e:    2000        .       MOVS     r0,#0
        0x10000680:    f001f895    ....    BL       SEGGER_RTT_printf ; 0x100017ae
        0x10000684:    2002        .       MOVS     r0,#2
        0x10000686:    7020         p      STRB     r0,[r4,#0]
        0x10000688:    702e        .p      STRB     r6,[r5,#0]
        0x1000068a:    bdf8        ..      POP      {r3-r7,pc}
        0x1000068c:    7828        (x      LDRB     r0,[r5,#0]
        0x1000068e:    1c40        @.      ADDS     r0,r0,#1
        0x10000690:    b2c0        ..      UXTB     r0,r0
        0x10000692:    7028        (p      STRB     r0,[r5,#0]
        0x10000694:    2820         (      CMP      r0,#0x20
        0x10000696:    d9f8        ..      BLS      0x1000068a ; ota_manage + 86
        0x10000698:    a198        ..      ADR      r1,{pc}+0x264 ; 0x100008fc
        0x1000069a:    2000        .       MOVS     r0,#0
        0x1000069c:    f001f887    ....    BL       SEGGER_RTT_printf ; 0x100017ae
        0x100006a0:    4638        8F      MOV      r0,r7
        0x100006a2:    f003f8e3    ....    BL       Timer_Evt_Stop ; 0x1000386c
        0x100006a6:    bdf8        ..      POP      {r3-r7,pc}
    main
        0x100006a8:    b672        r.      CPSID    i
        0x100006aa:    f000f8c1    ....    BL       ble_init ; 0x10000830
        0x100006ae:    2000        .       MOVS     r0,#0
        0x100006b0:    f002fb22    ..".    BL       MCUClockSwitch ; 0x10002cf8
        0x100006b4:    f001fc85    ....    BL       RCOSCCalibration ; 0x10001fc2
        0x100006b8:    2000        .       MOVS     r0,#0
        0x100006ba:    f001fd26    ..&.    BL       ClockSwitch ; 0x1000210a
        0x100006be:    20ff        .       MOVS     r0,#0xff
        0x100006c0:    30f5        .0      ADDS     r0,r0,#0xf5
        0x100006c2:    f002fdce    ....    BL       GAPBBDelayMS ; 0x10003262
        0x100006c6:    f001fd31    ..1.    BL       LPOCalibration ; 0x1000212c
        0x100006ca:    f000ff0d    ....    BL       SEGGER_RTT_Init ; 0x100014e8
        0x100006ce:    a38e        ..      ADR      r3,{pc}+0x23a ; 0x10000908
        0x100006d0:    a290        ..      ADR      r2,{pc}+0x244 ; 0x10000914
        0x100006d2:    a193        ..      ADR      r1,{pc}+0x24e ; 0x10000920
        0x100006d4:    2000        .       MOVS     r0,#0
        0x100006d6:    f001f86a    ..j.    BL       SEGGER_RTT_printf ; 0x100017ae
        0x100006da:    4997        .I      LDR      r1,[pc,#604] ; [0x10000938] = 0x200039e0
        0x100006dc:    2002        .       MOVS     r0,#2
        0x100006de:    f003f957    ..W.    BL       SYD_Timer_Init ; 0x10003990
        0x100006e2:    f000fe0d    ....    BL       Timer_Evt_List ; 0x10001300
        0x100006e6:    4995        .I      LDR      r1,[pc,#596] ; [0x1000093c] = 0x20003a10
        0x100006e8:    2002        .       MOVS     r0,#2
        0x100006ea:    f003fd18    ....    BL       SYD_RTC_Init ; 0x1000411e
        0x100006ee:    f000fe2b    ..+.    BL       RTC_Evt_List ; 0x10001348
        0x100006f2:    f7fffcef    ....    BL       gpio_init ; 0x100000d4
        0x100006f6:    f000fd53    ..S.    BL       uart_0_init ; 0x100011a0
        0x100006fa:    4891        .H      LDR      r0,[pc,#580] ; [0x10000940] = 0x200039b0
        0x100006fc:    2100        .!      MOVS     r1,#0
        0x100006fe:    6001        .`      STR      r1,[r0,#0]
        0x10000700:    6041        A`      STR      r1,[r0,#4]
        0x10000702:    4890        .H      LDR      r0,[pc,#576] ; [0x10000944] = 0x20003528
        0x10000704:    6001        .`      STR      r1,[r0,#0]
        0x10000706:    6041        A`      STR      r1,[r0,#4]
        0x10000708:    f002f941    ..A.    BL       StartAdv ; 0x1000298e
        0x1000070c:    b662        b.      CPSIE    i
        0x1000070e:    2701        .'      MOVS     r7,#1
        0x10000710:    027f        ..      LSLS     r7,r7,#9
        0x10000712:    4d8d        .M      LDR      r5,[pc,#564] ; [0x10000948] = 0x200030f0
        0x10000714:    4c8d        .L      LDR      r4,[pc,#564] ; [0x1000094c] = 0x20003108
        0x10000716:    4e8e        .N      LDR      r6,[pc,#568] ; [0x10000950] = 0x20003000
        0x10000718:    f002fcbc    ....    BL       ble_sched_execute ; 0x10003094
        0x1000071c:    f000f86d    ..m.    BL       sendToUart ; 0x100007fa
        0x10000720:    6828        (h      LDR      r0,[r5,#0]
        0x10000722:    2800        .(      CMP      r0,#0
        0x10000724:    d013        ..      BEQ      0x1000074e ; main + 166
        0x10000726:    0580        ..      LSLS     r0,r0,#22
        0x10000728:    d508        ..      BPL      0x1000073c ; main + 148
        0x1000072a:    f7ffff83    ....    BL       ota_manage ; 0x10000634
        0x1000072e:    4638        8F      MOV      r0,r7
        0x10000730:    f003f887    ....    BL       Timer_Evt_Clr ; 0x10003842
        0x10000734:    a187        ..      ADR      r1,{pc}+0x220 ; 0x10000954
        0x10000736:    2000        .       MOVS     r0,#0
        0x10000738:    f001f839    ..9.    BL       SEGGER_RTT_printf ; 0x100017ae
        0x1000073c:    8828        (.      LDRH     r0,[r5,#0]
        0x1000073e:    05c0        ..      LSLS     r0,r0,#23
        0x10000740:    d505        ..      BPL      0x1000074e ; main + 166
        0x10000742:    f7fffd56    ..V.    BL       Connection_latency ; 0x100001f2
        0x10000746:    20ff        .       MOVS     r0,#0xff
        0x10000748:    3001        .0      ADDS     r0,#1
        0x1000074a:    f003f87a    ..z.    BL       Timer_Evt_Clr ; 0x10003842
        0x1000074e:    6820         h      LDR      r0,[r4,#0]
        0x10000750:    2800        .(      CMP      r0,#0
        0x10000752:    d014        ..      BEQ      0x1000077e ; main + 214
        0x10000754:    07c0        ..      LSLS     r0,r0,#31
        0x10000756:    d006        ..      BEQ      0x10000766 ; main + 190
        0x10000758:    a182        ..      ADR      r1,{pc}+0x20c ; 0x10000964
        0x1000075a:    2000        .       MOVS     r0,#0
        0x1000075c:    f001f827    ..'.    BL       SEGGER_RTT_printf ; 0x100017ae
        0x10000760:    2001        .       MOVS     r0,#1
        0x10000762:    f003fb53    ..S.    BL       RTC_EVT_Clr ; 0x10003e0c
        0x10000766:    7820         x      LDRB     r0,[r4,#0]
        0x10000768:    0740        @.      LSLS     r0,r0,#29
        0x1000076a:    d508        ..      BPL      0x1000077e ; main + 214
        0x1000076c:    f001fcde    ....    BL       LPOCalibration ; 0x1000212c
        0x10000770:    a180        ..      ADR      r1,{pc}+0x204 ; 0x10000974
        0x10000772:    2000        .       MOVS     r0,#0
        0x10000774:    f001f81b    ....    BL       SEGGER_RTT_printf ; 0x100017ae
        0x10000778:    2004        .       MOVS     r0,#4
        0x1000077a:    f003fb47    ..G.    BL       RTC_EVT_Clr ; 0x10003e0c
        0x1000077e:    78f0        .x      LDRB     r0,[r6,#3]
        0x10000780:    07c0        ..      LSLS     r0,r0,#31
        0x10000782:    d002        ..      BEQ      0x1000078a ; main + 226
        0x10000784:    f7fffd71    ..q.    BL       send_to_master ; 0x1000026a
        0x10000788:    e7c6        ..      B        0x10000718 ; main + 112
        0x1000078a:    f002fb00    ....    BL       SystemSleep ; 0x10002d8e
        0x1000078e:    e7c3        ..      B        0x10000718 ; main + 112
    HardFault_Handler
        0x10000790:    a17c        |.      ADR      r1,{pc}+0x1f4 ; 0x10000984
        0x10000792:    2000        .       MOVS     r0,#0
        0x10000794:    f001f80b    ....    BL       SEGGER_RTT_printf ; 0x100017ae
        0x10000798:    e7fe        ..      B        0x10000798 ; HardFault_Handler + 8
    ble_gatt_write
        0x1000079a:    b40f        ..      PUSH     {r0-r3}
        0x1000079c:    b5f8        ..      PUSH     {r3-r7,lr}
        0x1000079e:    4669        iF      MOV      r1,sp
        0x100007a0:    8b4a        J.      LDRH     r2,[r1,#0x1a]
        0x100007a2:    7f89        ..      LDRB     r1,[r1,#0x1e]
        0x100007a4:    a806        ..      ADD      r0,sp,#0x18
        0x100007a6:    2a02        .*      CMP      r2,#2
        0x100007a8:    d009        ..      BEQ      0x100007be ; ble_gatt_write + 36
        0x100007aa:    4b7b        {K      LDR      r3,[pc,#492] ; [0x10000998] = 0xff01
        0x100007ac:    429a        .B      CMP      r2,r3
        0x100007ae:    d102        ..      BNE      0x100007b6 ; ble_gatt_write + 28
        0x100007b0:    1dc0        ..      ADDS     r0,r0,#7
        0x100007b2:    f000f956    ..V.    BL       ota_cmd ; 0x10000a62
        0x100007b6:    bcf8        ..      POP      {r3-r7}
        0x100007b8:    bc08        ..      POP      {r3}
        0x100007ba:    b004        ..      ADD      sp,sp,#0x10
        0x100007bc:    4718        .G      BX       r3
        0x100007be:    4b60        `K      LDR      r3,[pc,#384] ; [0x10000940] = 0x200039b0
        0x100007c0:    2417        .$      MOVS     r4,#0x17
        0x100007c2:    681a        .h      LDR      r2,[r3,#0]
        0x100007c4:    4362        bC      MULS     r2,r4,r2
        0x100007c6:    4c5f        _L      LDR      r4,[pc,#380] ; [0x10000944] = 0x20003528
        0x100007c8:    3408        .4      ADDS     r4,r4,#8
        0x100007ca:    54a1        .T      STRB     r1,[r4,r2]
        0x100007cc:    2201        ."      MOVS     r2,#1
        0x100007ce:    e007        ..      B        0x100007e0 ; ble_gatt_write + 70
        0x100007d0:    1885        ..      ADDS     r5,r0,r2
        0x100007d2:    79ae        .y      LDRB     r6,[r5,#6]
        0x100007d4:    681d        .h      LDR      r5,[r3,#0]
        0x100007d6:    2717        .'      MOVS     r7,#0x17
        0x100007d8:    437d        }C      MULS     r5,r7,r5
        0x100007da:    192d        -.      ADDS     r5,r5,r4
        0x100007dc:    54ae        .T      STRB     r6,[r5,r2]
        0x100007de:    1c52        R.      ADDS     r2,r2,#1
        0x100007e0:    4291        .B      CMP      r1,r2
        0x100007e2:    d2f5        ..      BCS      0x100007d0 ; ble_gatt_write + 54
        0x100007e4:    681a        .h      LDR      r2,[r3,#0]
        0x100007e6:    1c52        R.      ADDS     r2,r2,#1
        0x100007e8:    601a        .`      STR      r2,[r3,#0]
        0x100007ea:    2a32        2*      CMP      r2,#0x32
        0x100007ec:    d301        ..      BCC      0x100007f2 ; ble_gatt_write + 88
        0x100007ee:    2200        ."      MOVS     r2,#0
        0x100007f0:    601a        .`      STR      r2,[r3,#0]
        0x100007f2:    1dc0        ..      ADDS     r0,r0,#7
        0x100007f4:    f7fffd10    ....    BL       BLE_SendUARTData ; 0x10000218
        0x100007f8:    e7dd        ..      B        0x100007b6 ; ble_gatt_write + 28
    sendToUart
        0x100007fa:    b5f8        ..      PUSH     {r3-r7,lr}
        0x100007fc:    4c50        PL      LDR      r4,[pc,#320] ; [0x10000940] = 0x200039b0
        0x100007fe:    6825        %h      LDR      r5,[r4,#0]
        0x10000800:    6860        `h      LDR      r0,[r4,#4]
        0x10000802:    42a8        .B      CMP      r0,r5
        0x10000804:    d013        ..      BEQ      0x1000082e ; sendToUart + 52
        0x10000806:    4e4f        ON      LDR      r6,[pc,#316] ; [0x10000944] = 0x20003528
        0x10000808:    3608        .6      ADDS     r6,r6,#8
        0x1000080a:    2700        .'      MOVS     r7,#0
        0x1000080c:    6860        `h      LDR      r0,[r4,#4]
        0x1000080e:    42a8        .B      CMP      r0,r5
        0x10000810:    d00d        ..      BEQ      0x1000082e ; sendToUart + 52
        0x10000812:    2117        .!      MOVS     r1,#0x17
        0x10000814:    4348        HC      MULS     r0,r1,r0
        0x10000816:    5c31        1\      LDRB     r1,[r6,r0]
        0x10000818:    1980        ..      ADDS     r0,r0,r6
        0x1000081a:    1c40        @.      ADDS     r0,r0,#1
        0x1000081c:    f000f8dd    ....    BL       uart_cmd ; 0x100009da
        0x10000820:    6860        `h      LDR      r0,[r4,#4]
        0x10000822:    1c40        @.      ADDS     r0,r0,#1
        0x10000824:    6060        ``      STR      r0,[r4,#4]
        0x10000826:    2832        2(      CMP      r0,#0x32
        0x10000828:    d3f0        ..      BCC      0x1000080c ; sendToUart + 18
        0x1000082a:    6067        g`      STR      r7,[r4,#4]
        0x1000082c:    e7ee        ..      B        0x1000080c ; sendToUart + 18
        0x1000082e:    bdf8        ..      POP      {r3-r7,pc}
    ble_init
        0x10000830:    b510        ..      PUSH     {r4,lr}
        0x10000832:    b088        ..      SUB      sp,sp,#0x20
        0x10000834:    f001ff1f    ....    BL       BleInit ; 0x10002676
        0x10000838:    2001        .       MOVS     r0,#1
        0x1000083a:    f002f917    ....    BL       SetWinWideMinusCnt ; 0x10002a6c
        0x1000083e:    4844        DH      LDR      r0,[pc,#272] ; [0x10000950] = 0x20003000
        0x10000840:    3008        .0      ADDS     r0,r0,#8
        0x10000842:    f002f93e    ..>.    BL       GetGATTReportHandle ; 0x10002ac2
        0x10000846:    2103        .!      MOVS     r1,#3
        0x10000848:    466a        jF      MOV      r2,sp
        0x1000084a:    7311        .s      STRB     r1,[r2,#0xc]
        0x1000084c:    2400        .$      MOVS     r4,#0
        0x1000084e:    7354        Ts      STRB     r4,[r2,#0xd]
        0x10000850:    7b90        .{      LDRB     r0,[r2,#0xe]
        0x10000852:    22fb        ."      MOVS     r2,#0xfb
        0x10000854:    4388        .C      BICS     r0,r0,r1
        0x10000856:    1c40        @.      ADDS     r0,r0,#1
        0x10000858:    4010        .@      ANDS     r0,r0,r2
        0x1000085a:    466a        jF      MOV      r2,sp
        0x1000085c:    7390        .s      STRB     r0,[r2,#0xe]
        0x1000085e:    2010        .       MOVS     r0,#0x10
        0x10000860:    73d0        .s      STRB     r0,[r2,#0xf]
        0x10000862:    7414        .t      STRB     r4,[r2,#0x10]
        0x10000864:    7451        Qt      STRB     r1,[r2,#0x11]
        0x10000866:    a803        ..      ADD      r0,sp,#0xc
        0x10000868:    f002f8ee    ....    BL       SetSecParams ; 0x10002a48
        0x1000086c:    20c0        .       MOVS     r0,#0xc0
        0x1000086e:    9005        ..      STR      r0,[sp,#0x14]
        0x10000870:    484a        JH      LDR      r0,[pc,#296] ; [0x1000099c] = 0x1000031b
        0x10000872:    9006        ..      STR      r0,[sp,#0x18]
        0x10000874:    a805        ..      ADD      r0,sp,#0x14
        0x10000876:    f002f909    ....    BL       SetEvtCallback ; 0x10002a8c
        0x1000087a:    2000        .       MOVS     r0,#0
        0x1000087c:    f002fae7    ....    BL       SetBondManagerIndex ; 0x10002e4e
        0x10000880:    f7fffc5e    ..^.    BL       setup_adv_data ; 0x10000140
        0x10000884:    466a        jF      MOV      r2,sp
        0x10000886:    7014        .p      STRB     r4,[r2,#0]
        0x10000888:    70d4        .p      STRB     r4,[r2,#3]
        0x1000088a:    7114        .q      STRB     r4,[r2,#4]
        0x1000088c:    7054        Tp      STRB     r4,[r2,#1]
        0x1000088e:    2001        .       MOVS     r0,#1
        0x10000890:    7094        .p      STRB     r4,[r2,#2]
        0x10000892:    1dd1        ..      ADDS     r1,r2,#7
        0x10000894:    0280        ..      LSLS     r0,r0,#10
        0x10000896:    f003fcec    ....    BL       __aeabi_uwrite4 ; 0x10004272
        0x1000089a:    4668        hF      MOV      r0,sp
        0x1000089c:    f002fa3c    ..<.    BL       WakeupConfig ; 0x10002d18
        0x100008a0:    b008        ..      ADD      sp,sp,#0x20
        0x100008a2:    bd10        ..      POP      {r4,pc}
    $d
        0x100008a4:    4e4e4f43    CONN    DCD    1313754947
        0x100008a8:    4450555f    _UPD    DCD    1146115423
        0x100008ac:    5f455441    ATE_    DCD    1598379073
        0x100008b0:    504d4f43    COMP    DCD    1347243843
        0x100008b4:    6425203a    : %d    DCD    1680154682
        0x100008b8:    6425202c    , %d    DCD    1680154668
        0x100008bc:    6425202c    , %d    DCD    1680154668
        0x100008c0:    00000a0d    ....    DCD    2573
        0x100008c4:    2000303c    <0.     DCD    536883260
        0x100008c8:    2000303d    =0.     DCD    536883261
        0x100008cc:    2041544f    OTA     DCD    541152335
        0x100008d0:    696e6966    fini    DCD    1768843622
        0x100008d4:    0a0d6873    sh..    DCD    168650867
        0x100008d8:    00000000    ....    DCD    0
        0x100008dc:    72617453    Star    DCD    1918989395
        0x100008e0:    65522074    t Re    DCD    1699881076
        0x100008e4:    20746573    set     DCD    544499059
        0x100008e8:    30303031    1000    DCD    808464433
        0x100008ec:    000a0d73    s...    DCD    658803
        0x100008f0:    2041544f    OTA     DCD    541152335
        0x100008f4:    72617473    star    DCD    1918989427
        0x100008f8:    000a0d74    t...    DCD    658804
        0x100008fc:    2041544f    OTA     DCD    541152335
        0x10000900:    6c696166    fail    DCD    1818845542
        0x10000904:    000a0d65    e...    DCD    658789
        0x10000908:    343a3032    20:4    DCD    876228658
        0x1000090c:    33323a37    7:23    DCD    858929719
        0x10000910:    00000000    ....    DCD    0
        0x10000914:    20766f4e    Nov     DCD    544632654
        0x10000918:    32203132    21 2    DCD    840970546
        0x1000091c:    00393130    019.    DCD    3748144
        0x10000920:    38647953    Syd8    DCD    946108755
        0x10000924:    5f313138    811_    DCD    1597059384
        0x10000928:    54524155    UART    DCD    1414676821
        0x1000092c:    3a732520     %s:    DCD    980624672
        0x10000930:    0a0d7325    %s..    DCD    168653605
        0x10000934:    00000000    ....    DCD    0
        0x10000938:    200039e0    .9.     DCD    536885728
        0x1000093c:    20003a10    .:.     DCD    536885776
        0x10000940:    200039b0    .9.     DCD    536885680
        0x10000944:    20003528    (5.     DCD    536884520
        0x10000948:    200030f0    .0.     DCD    536883440
        0x1000094c:    20003108    .1.     DCD    536883464
        0x10000950:    20003000    .0.     DCD    536883200
        0x10000954:    5f545645    EVT_    DCD    1599362629
        0x10000958:    4f5f5331    1S_O    DCD    1331647281
        0x1000095c:    0a0d4154    TA..    DCD    168640852
        0x10000960:    00000000    ....    DCD    0
        0x10000964:    45435452    RTCE    DCD    1162040402
        0x10000968:    315f5456    VT_1    DCD    828331094
        0x1000096c:    0a0d5330    0S..    DCD    168645424
        0x10000970:    00000000    ....    DCD    0
        0x10000974:    45435452    RTCE    DCD    1162040402
        0x10000978:    315f5456    VT_1    DCD    828331094
        0x1000097c:    0d533538    85S.    DCD    223556920
        0x10000980:    0000000a    ....    DCD    10
        0x10000984:    3a525245    ERR:    DCD    978473541
        0x10000988:    72614820     Har    DCD    1918978080
        0x1000098c:    75614664    dFau    DCD    1969309284
        0x10000990:    0d21746c    lt!.    DCD    220296300
        0x10000994:    0000000a    ....    DCD    10
        0x10000998:    0000ff01    ....    DCD    65281
        0x1000099c:    1000031b    ....    DCD    268436251
    $t
    .text
    uartRx_callback
        0x100009a0:    b5fe        ..      PUSH     {r1-r7,lr}
        0x100009a2:    a901        ..      ADD      r1,sp,#4
        0x100009a4:    4668        hF      MOV      r0,sp
        0x100009a6:    f000fc5a    ..Z.    BL       uart_0_read ; 0x1000125e
        0x100009aa:    2000        .       MOVS     r0,#0
        0x100009ac:    2601        .&      MOVS     r6,#1
        0x100009ae:    466a        jF      MOV      r2,sp
        0x100009b0:    4910        .I      LDR      r1,[pc,#64] ; [0x100009f4] = 0x20003528
        0x100009b2:    ac01        ..      ADD      r4,sp,#4
        0x100009b4:    4d10        .M      LDR      r5,[pc,#64] ; [0x100009f8] = 0x20003128
        0x100009b6:    02b6        ..      LSLS     r6,r6,#10
        0x100009b8:    7813        .x      LDRB     r3,[r2,#0]
        0x100009ba:    e00b        ..      B        0x100009d4 ; uartRx_callback + 52
        0x100009bc:    680f        .h      LDR      r7,[r1,#0]
        0x100009be:    5c22        "\      LDRB     r2,[r4,r0]
        0x100009c0:    55ea        .U      STRB     r2,[r5,r7]
        0x100009c2:    680a        .h      LDR      r2,[r1,#0]
        0x100009c4:    1c52        R.      ADDS     r2,r2,#1
        0x100009c6:    600a        .`      STR      r2,[r1,#0]
        0x100009c8:    42b2        .B      CMP      r2,r6
        0x100009ca:    d301        ..      BCC      0x100009d0 ; uartRx_callback + 48
        0x100009cc:    2200        ."      MOVS     r2,#0
        0x100009ce:    600a        .`      STR      r2,[r1,#0]
        0x100009d0:    1c40        @.      ADDS     r0,r0,#1
        0x100009d2:    b2c0        ..      UXTB     r0,r0
        0x100009d4:    4298        .B      CMP      r0,r3
        0x100009d6:    d3f1        ..      BCC      0x100009bc ; uartRx_callback + 28
        0x100009d8:    bdfe        ..      POP      {r1-r7,pc}
    uart_cmd
        0x100009da:    b570        p.      PUSH     {r4-r6,lr}
        0x100009dc:    460d        .F      MOV      r5,r1
        0x100009de:    4606        .F      MOV      r6,r0
        0x100009e0:    2400        .$      MOVS     r4,#0
        0x100009e2:    e004        ..      B        0x100009ee ; uart_cmd + 20
        0x100009e4:    5d30        0]      LDRB     r0,[r6,r4]
        0x100009e6:    f000fc2f    ../.    BL       uart_0_write ; 0x10001248
        0x100009ea:    1c64        d.      ADDS     r4,r4,#1
        0x100009ec:    b2e4        ..      UXTB     r4,r4
        0x100009ee:    42ac        .B      CMP      r4,r5
        0x100009f0:    d3f8        ..      BCC      0x100009e4 ; uart_cmd + 10
        0x100009f2:    bd70        p.      POP      {r4-r6,pc}
    $d
        0x100009f4:    20003528    (5.     DCD    536884520
        0x100009f8:    20003128    (1.     DCD    536883496
    $t
    .text
    delay_ms
        0x100009fc:    2200        ."      MOVS     r2,#0
        0x100009fe:    4b06        .K      LDR      r3,[pc,#24] ; [0x10000a18] = 0xa8c
        0x10000a00:    e006        ..      B        0x10000a10 ; delay_ms + 20
        0x10000a02:    2100        .!      MOVS     r1,#0
        0x10000a04:    1c49        I.      ADDS     r1,r1,#1
        0x10000a06:    b289        ..      UXTH     r1,r1
        0x10000a08:    4299        .B      CMP      r1,r3
        0x10000a0a:    d3fb        ..      BCC      0x10000a04 ; delay_ms + 8
        0x10000a0c:    1c52        R.      ADDS     r2,r2,#1
        0x10000a0e:    b292        ..      UXTH     r2,r2
        0x10000a10:    4282        .B      CMP      r2,r0
        0x10000a12:    d3f6        ..      BCC      0x10000a02 ; delay_ms + 6
        0x10000a14:    4770        pG      BX       lr
    $d
        0x10000a16:    0000        ..      DCW    0
        0x10000a18:    00000a8c    ....    DCD    2700
    $t
    .text
    EvtCommandComplete
        0x10000a1c:    b510        ..      PUSH     {r4,lr}
        0x10000a1e:    4be3        .K      LDR      r3,[pc,#908] ; [0x10000dac] = 0x2000303c
        0x10000a20:    240e        .$      MOVS     r4,#0xe
        0x10000a22:    691b        .i      LDR      r3,[r3,#0x10]
        0x10000a24:    701c        .p      STRB     r4,[r3,#0]
        0x10000a26:    1c54        T.      ADDS     r4,r2,#1
        0x10000a28:    705c        \p      STRB     r4,[r3,#1]
        0x10000a2a:    7098        .p      STRB     r0,[r3,#2]
        0x10000a2c:    1cd8        ..      ADDS     r0,r3,#3
        0x10000a2e:    f003fbe9    ....    BL       __aeabi_memcpy ; 0x10004204
        0x10000a32:    bd10        ..      POP      {r4,pc}
    CmdFwErase
        0x10000a34:    b508        ..      PUSH     {r3,lr}
        0x10000a36:    f002fa67    ..g.    BL       CodeErase ; 0x10002f08
        0x10000a3a:    2000        .       MOVS     r0,#0
        0x10000a3c:    4669        iF      MOV      r1,sp
        0x10000a3e:    7008        .p      STRB     r0,[r1,#0]
        0x10000a40:    2201        ."      MOVS     r2,#1
        0x10000a42:    2016        .       MOVS     r0,#0x16
        0x10000a44:    f7ffffea    ....    BL       EvtCommandComplete ; 0x10000a1c
        0x10000a48:    bd08        ..      POP      {r3,pc}
    ota_variable_clear
        0x10000a4a:    2200        ."      MOVS     r2,#0
        0x10000a4c:    49d7        .I      LDR      r1,[pc,#860] ; [0x10000dac] = 0x2000303c
        0x10000a4e:    2800        .(      CMP      r0,#0
        0x10000a50:    d001        ..      BEQ      0x10000a56 ; ota_variable_clear + 12
        0x10000a52:    700a        .p      STRB     r2,[r1,#0]
        0x10000a54:    704a        Jp      STRB     r2,[r1,#1]
        0x10000a56:    804a        J.      STRH     r2,[r1,#2]
        0x10000a58:    80ca        ..      STRH     r2,[r1,#6]
        0x10000a5a:    808a        ..      STRH     r2,[r1,#4]
        0x10000a5c:    810a        ..      STRH     r2,[r1,#8]
        0x10000a5e:    60ca        .`      STR      r2,[r1,#0xc]
        0x10000a60:    4770        pG      BX       lr
    ota_cmd
        0x10000a62:    b5fe        ..      PUSH     {r1-r7,lr}
        0x10000a64:    4dd1        .M      LDR      r5,[pc,#836] ; [0x10000dac] = 0x2000303c
        0x10000a66:    460e        .F      MOV      r6,r1
        0x10000a68:    8869        i.      LDRH     r1,[r5,#2]
        0x10000a6a:    2400        .$      MOVS     r4,#0
        0x10000a6c:    2900        .)      CMP      r1,#0
        0x10000a6e:    d005        ..      BEQ      0x10000a7c ; ota_cmd + 26
        0x10000a70:    782a        *x      LDRB     r2,[r5,#0]
        0x10000a72:    2a00        .*      CMP      r2,#0
        0x10000a74:    d002        ..      BEQ      0x10000a7c ; ota_cmd + 26
        0x10000a76:    706c        lp      STRB     r4,[r5,#1]
        0x10000a78:    2100        .!      MOVS     r1,#0
        0x10000a7a:    e09f        ..      B        0x10000bbc ; ota_cmd + 346
        0x10000a7c:    7801        .x      LDRB     r1,[r0,#0]
        0x10000a7e:    2603        .&      MOVS     r6,#3
        0x10000a80:    2915        .)      CMP      r1,#0x15
        0x10000a82:    d06d        m.      BEQ      0x10000b60 ; ota_cmd + 254
        0x10000a84:    dc1c        ..      BGT      0x10000ac0 ; ota_cmd + 94
        0x10000a86:    2911        .)      CMP      r1,#0x11
        0x10000a88:    d035        5.      BEQ      0x10000af6 ; ota_cmd + 148
        0x10000a8a:    2912        .)      CMP      r1,#0x12
        0x10000a8c:    d03e        >.      BEQ      0x10000b0c ; ota_cmd + 170
        0x10000a8e:    2913        .)      CMP      r1,#0x13
        0x10000a90:    d041        A.      BEQ      0x10000b16 ; ota_cmd + 180
        0x10000a92:    2914        .)      CMP      r1,#0x14
        0x10000a94:    d122        ".      BNE      0x10000adc ; ota_cmd + 122
        0x10000a96:    79c1        .y      LDRB     r1,[r0,#7]
        0x10000a98:    7982        .y      LDRB     r2,[r0,#6]
        0x10000a9a:    020e        ..      LSLS     r6,r1,#8
        0x10000a9c:    4316        .C      ORRS     r6,r6,r2
        0x10000a9e:    806e        n.      STRH     r6,[r5,#2]
        0x10000aa0:    7a41        Az      LDRB     r1,[r0,#9]
        0x10000aa2:    7a02        .z      LDRB     r2,[r0,#8]
        0x10000aa4:    020f        ..      LSLS     r7,r1,#8
        0x10000aa6:    4317        .C      ORRS     r7,r7,r2
        0x10000aa8:    80ef        ..      STRH     r7,[r5,#6]
        0x10000aaa:    1c80        ..      ADDS     r0,r0,#2
        0x10000aac:    f003fbd7    ....    BL       __aeabi_uread4 ; 0x1000425e
        0x10000ab0:    60e8        .`      STR      r0,[r5,#0xc]
        0x10000ab2:    80ac        ..      STRH     r4,[r5,#4]
        0x10000ab4:    812c        ,.      STRH     r4,[r5,#8]
        0x10000ab6:    4633        3F      MOV      r3,r6
        0x10000ab8:    4602        .F      MOV      r2,r0
        0x10000aba:    a1bd        ..      ADR      r1,{pc}+0x2f6 ; 0x10000db0
        0x10000abc:    9700        ..      STR      r7,[sp,#0]
        0x10000abe:    e073        s.      B        0x10000ba8 ; ota_cmd + 326
        0x10000ac0:    2701        .'      MOVS     r7,#1
        0x10000ac2:    027f        ..      LSLS     r7,r7,#9
        0x10000ac4:    2916        .)      CMP      r1,#0x16
        0x10000ac6:    d00a        ..      BEQ      0x10000ade ; ota_cmd + 124
        0x10000ac8:    2920         )      CMP      r1,#0x20
        0x10000aca:    d04d        M.      BEQ      0x10000b68 ; ota_cmd + 262
        0x10000acc:    2923        #)      CMP      r1,#0x23
        0x10000ace:    d057        W.      BEQ      0x10000b80 ; ota_cmd + 286
        0x10000ad0:    2924        $)      CMP      r1,#0x24
        0x10000ad2:    d103        ..      BNE      0x10000adc ; ota_cmd + 122
        0x10000ad4:    1c80        ..      ADDS     r0,r0,#2
        0x10000ad6:    f000f940    ..@.    BL       CmdFlashdataUpgradev30 ; 0x10000d5a
        0x10000ada:    702e        .p      STRB     r6,[r5,#0]
        0x10000adc:    bdfe        ..      POP      {r1-r7,pc}
        0x10000ade:    2000        .       MOVS     r0,#0
        0x10000ae0:    f7fffb60    ..`.    BL       BLSetConnectionUpdate ; 0x100001a4
        0x10000ae4:    a1bf        ..      ADR      r1,{pc}+0x300 ; 0x10000de4
        0x10000ae6:    2000        .       MOVS     r0,#0
        0x10000ae8:    f000fe61    ..a.    BL       SEGGER_RTT_printf ; 0x100017ae
        0x10000aec:    4638        8F      MOV      r0,r7
        0x10000aee:    f002fef6    ....    BL       Timer_Evt_Start ; 0x100038de
        0x10000af2:    2001        .       MOVS     r0,#1
        0x10000af4:    e007        ..      B        0x10000b06 ; ota_cmd + 164
        0x10000af6:    2000        .       MOVS     r0,#0
        0x10000af8:    f7fffb54    ..T.    BL       BLSetConnectionUpdate ; 0x100001a4
        0x10000afc:    a1bd        ..      ADR      r1,{pc}+0x2f8 ; 0x10000df4
        0x10000afe:    2000        .       MOVS     r0,#0
        0x10000b00:    f000fe55    ..U.    BL       SEGGER_RTT_printf ; 0x100017ae
        0x10000b04:    2004        .       MOVS     r0,#4
        0x10000b06:    7028        (p      STRB     r0,[r5,#0]
        0x10000b08:    60ec        .`      STR      r4,[r5,#0xc]
        0x10000b0a:    bdfe        ..      POP      {r1-r7,pc}
        0x10000b0c:    1c80        ..      ADDS     r0,r0,#2
        0x10000b0e:    f000f8b7    ....    BL       Cmd4KSETTINGWrite ; 0x10000c80
        0x10000b12:    2005        .       MOVS     r0,#5
        0x10000b14:    e01e        ..      B        0x10000b54 ; ota_cmd + 242
        0x10000b16:    1c87        ..      ADDS     r7,r0,#2
        0x10000b18:    1cc0        ..      ADDS     r0,r0,#3
        0x10000b1a:    f003fba0    ....    BL       __aeabi_uread4 ; 0x1000425e
        0x10000b1e:    4601        .F      MOV      r1,r0
        0x10000b20:    783a        :x      LDRB     r2,[r7,#0]
        0x10000b22:    48b9        .H      LDR      r0,[pc,#740] ; [0x10000e08] = 0x2000074a
        0x10000b24:    f002fba5    ....    BL       Setting4kUpdate ; 0x10003272
        0x10000b28:    4606        .F      MOV      r6,r0
        0x10000b2a:    1c78        x.      ADDS     r0,r7,#1
        0x10000b2c:    f003fb97    ....    BL       __aeabi_uread4 ; 0x1000425e
        0x10000b30:    4603        .F      MOV      r3,r0
        0x10000b32:    7838        8x      LDRB     r0,[r7,#0]
        0x10000b34:    9000        ..      STR      r0,[sp,#0]
        0x10000b36:    4632        2F      MOV      r2,r6
        0x10000b38:    a1b4        ..      ADR      r1,{pc}+0x2d4 ; 0x10000e0c
        0x10000b3a:    2000        .       MOVS     r0,#0
        0x10000b3c:    f000fe37    ..7.    BL       SEGGER_RTT_printf ; 0x100017ae
        0x10000b40:    2e00        ..      CMP      r6,#0
        0x10000b42:    d009        ..      BEQ      0x10000b58 ; ota_cmd + 246
        0x10000b44:    4668        hF      MOV      r0,sp
        0x10000b46:    7104        .q      STRB     r4,[r0,#4]
        0x10000b48:    2201        ."      MOVS     r2,#1
        0x10000b4a:    a901        ..      ADD      r1,sp,#4
        0x10000b4c:    2018        .       MOVS     r0,#0x18
        0x10000b4e:    f7ffff65    ..e.    BL       EvtCommandComplete ; 0x10000a1c
        0x10000b52:    2006        .       MOVS     r0,#6
        0x10000b54:    7028        (p      STRB     r0,[r5,#0]
        0x10000b56:    bdfe        ..      POP      {r1-r7,pc}
        0x10000b58:    2001        .       MOVS     r0,#1
        0x10000b5a:    4669        iF      MOV      r1,sp
        0x10000b5c:    7108        .q      STRB     r0,[r1,#4]
        0x10000b5e:    e7f3        ..      B        0x10000b48 ; ota_cmd + 230
        0x10000b60:    1c80        ..      ADDS     r0,r0,#2
        0x10000b62:    f000f8c3    ....    BL       CmdFwUpgradev20 ; 0x10000cec
        0x10000b66:    e7b8        ..      B        0x10000ada ; ota_cmd + 120
        0x10000b68:    2000        .       MOVS     r0,#0
        0x10000b6a:    f7fffb1b    ....    BL       BLSetConnectionUpdate ; 0x100001a4
        0x10000b6e:    a1ad        ..      ADR      r1,{pc}+0x2b6 ; 0x10000e24
        0x10000b70:    2000        .       MOVS     r0,#0
        0x10000b72:    f000fe1c    ....    BL       SEGGER_RTT_printf ; 0x100017ae
        0x10000b76:    4638        8F      MOV      r0,r7
        0x10000b78:    f002feb1    ....    BL       Timer_Evt_Start ; 0x100038de
        0x10000b7c:    2007        .       MOVS     r0,#7
        0x10000b7e:    e7c2        ..      B        0x10000b06 ; ota_cmd + 164
        0x10000b80:    79c1        .y      LDRB     r1,[r0,#7]
        0x10000b82:    7982        .y      LDRB     r2,[r0,#6]
        0x10000b84:    020e        ..      LSLS     r6,r1,#8
        0x10000b86:    4316        .C      ORRS     r6,r6,r2
        0x10000b88:    806e        n.      STRH     r6,[r5,#2]
        0x10000b8a:    7a41        Az      LDRB     r1,[r0,#9]
        0x10000b8c:    7a02        .z      LDRB     r2,[r0,#8]
        0x10000b8e:    020f        ..      LSLS     r7,r1,#8
        0x10000b90:    4317        .C      ORRS     r7,r7,r2
        0x10000b92:    80ef        ..      STRH     r7,[r5,#6]
        0x10000b94:    1c80        ..      ADDS     r0,r0,#2
        0x10000b96:    f003fb62    ..b.    BL       __aeabi_uread4 ; 0x1000425e
        0x10000b9a:    60e8        .`      STR      r0,[r5,#0xc]
        0x10000b9c:    80ac        ..      STRH     r4,[r5,#4]
        0x10000b9e:    812c        ,.      STRH     r4,[r5,#8]
        0x10000ba0:    4633        3F      MOV      r3,r6
        0x10000ba2:    4602        .F      MOV      r2,r0
        0x10000ba4:    a1a4        ..      ADR      r1,{pc}+0x294 ; 0x10000e38
        0x10000ba6:    9700        ..      STR      r7,[sp,#0]
        0x10000ba8:    2000        .       MOVS     r0,#0
        0x10000baa:    f000fe00    ....    BL       SEGGER_RTT_printf ; 0x100017ae
        0x10000bae:    bdfe        ..      POP      {r1-r7,pc}
        0x10000bb0:    5c43        C\      LDRB     r3,[r0,r1]
        0x10000bb2:    892c        ,.      LDRH     r4,[r5,#8]
        0x10000bb4:    191b        ..      ADDS     r3,r3,r4
        0x10000bb6:    1c49        I.      ADDS     r1,r1,#1
        0x10000bb8:    812b        +.      STRH     r3,[r5,#8]
        0x10000bba:    b289        ..      UXTH     r1,r1
        0x10000bbc:    42b1        .B      CMP      r1,r6
        0x10000bbe:    d3f7        ..      BCC      0x10000bb0 ; ota_cmd + 334
        0x10000bc0:    0781        ..      LSLS     r1,r0,#30
        0x10000bc2:    d016        ..      BEQ      0x10000bf2 ; ota_cmd + 400
        0x10000bc4:    4601        .F      MOV      r1,r0
        0x10000bc6:    4632        2F      MOV      r2,r6
        0x10000bc8:    48a9        .H      LDR      r0,[pc,#676] ; [0x10000e70] = 0x200039b8
        0x10000bca:    f003fb1b    ....    BL       __aeabi_memcpy ; 0x10004204
        0x10000bce:    7828        (x      LDRB     r0,[r5,#0]
        0x10000bd0:    2802        .(      CMP      r0,#2
        0x10000bd2:    d002        ..      BEQ      0x10000bda ; ota_cmd + 376
        0x10000bd4:    2808        .(      CMP      r0,#8
        0x10000bd6:    d006        ..      BEQ      0x10000be6 ; ota_cmd + 388
        0x10000bd8:    e01f        ..      B        0x10000c1a ; ota_cmd + 440
        0x10000bda:    88a9        ..      LDRH     r1,[r5,#4]
        0x10000bdc:    68e8        .h      LDR      r0,[r5,#0xc]
        0x10000bde:    4aa4        .J      LDR      r2,[pc,#656] ; [0x10000e70] = 0x200039b8
        0x10000be0:    1840        @.      ADDS     r0,r0,r1
        0x10000be2:    4631        1F      MOV      r1,r6
        0x10000be4:    e011        ..      B        0x10000c0a ; ota_cmd + 424
        0x10000be6:    88a9        ..      LDRH     r1,[r5,#4]
        0x10000be8:    68e8        .h      LDR      r0,[r5,#0xc]
        0x10000bea:    4aa1        .J      LDR      r2,[pc,#644] ; [0x10000e70] = 0x200039b8
        0x10000bec:    1840        @.      ADDS     r0,r0,r1
        0x10000bee:    4631        1F      MOV      r1,r6
        0x10000bf0:    e011        ..      B        0x10000c16 ; ota_cmd + 436
        0x10000bf2:    4b6e        nK      LDR      r3,[pc,#440] ; [0x10000dac] = 0x2000303c
        0x10000bf4:    68d9        .h      LDR      r1,[r3,#0xc]
        0x10000bf6:    889b        ..      LDRH     r3,[r3,#4]
        0x10000bf8:    18cb        ..      ADDS     r3,r1,r3
        0x10000bfa:    2a02        .*      CMP      r2,#2
        0x10000bfc:    d002        ..      BEQ      0x10000c04 ; ota_cmd + 418
        0x10000bfe:    2a08        .*      CMP      r2,#8
        0x10000c00:    d006        ..      BEQ      0x10000c10 ; ota_cmd + 430
        0x10000c02:    e00a        ..      B        0x10000c1a ; ota_cmd + 440
        0x10000c04:    4602        .F      MOV      r2,r0
        0x10000c06:    4631        1F      MOV      r1,r6
        0x10000c08:    4618        .F      MOV      r0,r3
        0x10000c0a:    f002f9f0    ....    BL       CodeWrite ; 0x10002fee
        0x10000c0e:    e004        ..      B        0x10000c1a ; ota_cmd + 440
        0x10000c10:    4602        .F      MOV      r2,r0
        0x10000c12:    4631        1F      MOV      r1,r6
        0x10000c14:    4618        .F      MOV      r0,r3
        0x10000c16:    f002f963    ..c.    BL       WriteFlashData ; 0x10002ee0
        0x10000c1a:    88a8        ..      LDRH     r0,[r5,#4]
        0x10000c1c:    1980        ..      ADDS     r0,r0,r6
        0x10000c1e:    b281        ..      UXTH     r1,r0
        0x10000c20:    80a9        ..      STRH     r1,[r5,#4]
        0x10000c22:    8868        h.      LDRH     r0,[r5,#2]
        0x10000c24:    4281        .B      CMP      r1,r0
        0x10000c26:    d3c2        ..      BCC      0x10000bae ; ota_cmd + 332
        0x10000c28:    892a        *.      LDRH     r2,[r5,#8]
        0x10000c2a:    88e8        ..      LDRH     r0,[r5,#6]
        0x10000c2c:    4282        .B      CMP      r2,r0
        0x10000c2e:    d104        ..      BNE      0x10000c3a ; ota_cmd + 472
        0x10000c30:    2000        .       MOVS     r0,#0
        0x10000c32:    f000f84c    ..L.    BL       CmdFwWriteStart ; 0x10000cce
        0x10000c36:    a18f        ..      ADR      r1,{pc}+0x23e ; 0x10000e74
        0x10000c38:    e003        ..      B        0x10000c42 ; ota_cmd + 480
        0x10000c3a:    2001        .       MOVS     r0,#1
        0x10000c3c:    f000f847    ..G.    BL       CmdFwWriteStart ; 0x10000cce
        0x10000c40:    a190        ..      ADR      r1,{pc}+0x244 ; 0x10000e84
        0x10000c42:    2000        .       MOVS     r0,#0
        0x10000c44:    f000fdb3    ....    BL       SEGGER_RTT_printf ; 0x100017ae
        0x10000c48:    88eb        ..      LDRH     r3,[r5,#6]
        0x10000c4a:    892a        *.      LDRH     r2,[r5,#8]
        0x10000c4c:    a191        ..      ADR      r1,{pc}+0x248 ; 0x10000e94
        0x10000c4e:    2000        .       MOVS     r0,#0
        0x10000c50:    f000fdad    ....    BL       SEGGER_RTT_printf ; 0x100017ae
        0x10000c54:    2000        .       MOVS     r0,#0
        0x10000c56:    f7fffef8    ....    BL       ota_variable_clear ; 0x10000a4a
        0x10000c5a:    bdfe        ..      POP      {r1-r7,pc}
    ota_rsp
        0x10000c5c:    b570        p.      PUSH     {r4-r6,lr}
        0x10000c5e:    4c53        SL      LDR      r4,[pc,#332] ; [0x10000dac] = 0x2000303c
        0x10000c60:    460d        .F      MOV      r5,r1
        0x10000c62:    6921        !i      LDR      r1,[r4,#0x10]
        0x10000c64:    784a        Jx      LDRB     r2,[r1,#1]
        0x10000c66:    4621        !F      MOV      r1,r4
        0x10000c68:    3114        .1      ADDS     r1,r1,#0x14
        0x10000c6a:    1c92        ..      ADDS     r2,r2,#2
        0x10000c6c:    f003faca    ....    BL       __aeabi_memcpy ; 0x10004204
        0x10000c70:    6920         i      LDR      r0,[r4,#0x10]
        0x10000c72:    7840        @x      LDRB     r0,[r0,#1]
        0x10000c74:    1c80        ..      ADDS     r0,r0,#2
        0x10000c76:    7028        (p      STRB     r0,[r5,#0]
        0x10000c78:    2000        .       MOVS     r0,#0
        0x10000c7a:    6160        `a      STR      r0,[r4,#0x14]
        0x10000c7c:    61a0        .a      STR      r0,[r4,#0x18]
        0x10000c7e:    bd70        p.      POP      {r4-r6,pc}
    Cmd4KSETTINGWrite
        0x10000c80:    b538        8.      PUSH     {r3-r5,lr}
        0x10000c82:    4604        .F      MOV      r4,r0
        0x10000c84:    7840        @x      LDRB     r0,[r0,#1]
        0x10000c86:    7821        !x      LDRB     r1,[r4,#0]
        0x10000c88:    0200        ..      LSLS     r0,r0,#8
        0x10000c8a:    4308        .C      ORRS     r0,r0,r1
        0x10000c8c:    2101        .!      MOVS     r1,#1
        0x10000c8e:    0309        ..      LSLS     r1,r1,#12
        0x10000c90:    4288        .B      CMP      r0,r1
        0x10000c92:    d81b        ..      BHI      0x10000ccc ; Cmd4KSETTINGWrite + 76
        0x10000c94:    78a2        .x      LDRB     r2,[r4,#2]
        0x10000c96:    1882        ..      ADDS     r2,r0,r2
        0x10000c98:    428a        .B      CMP      r2,r1
        0x10000c9a:    d901        ..      BLS      0x10000ca0 ; Cmd4KSETTINGWrite + 32
        0x10000c9c:    1a09        ..      SUBS     r1,r1,r0
        0x10000c9e:    70a1        .p      STRB     r1,[r4,#2]
        0x10000ca0:    4959        YI      LDR      r1,[pc,#356] ; [0x10000e08] = 0x2000074a
        0x10000ca2:    78a2        .x      LDRB     r2,[r4,#2]
        0x10000ca4:    1840        @.      ADDS     r0,r0,r1
        0x10000ca6:    1ce1        ..      ADDS     r1,r4,#3
        0x10000ca8:    f003faac    ....    BL       __aeabi_memcpy ; 0x10004204
        0x10000cac:    7860        `x      LDRB     r0,[r4,#1]
        0x10000cae:    7821        !x      LDRB     r1,[r4,#0]
        0x10000cb0:    0202        ..      LSLS     r2,r0,#8
        0x10000cb2:    430a        .C      ORRS     r2,r2,r1
        0x10000cb4:    78a3        .x      LDRB     r3,[r4,#2]
        0x10000cb6:    a182        ..      ADR      r1,{pc}+0x20a ; 0x10000ec0
        0x10000cb8:    2000        .       MOVS     r0,#0
        0x10000cba:    f000fd78    ..x.    BL       SEGGER_RTT_printf ; 0x100017ae
        0x10000cbe:    2000        .       MOVS     r0,#0
        0x10000cc0:    4669        iF      MOV      r1,sp
        0x10000cc2:    7008        .p      STRB     r0,[r1,#0]
        0x10000cc4:    2201        ."      MOVS     r2,#1
        0x10000cc6:    2017        .       MOVS     r0,#0x17
        0x10000cc8:    f7fffea8    ....    BL       EvtCommandComplete ; 0x10000a1c
        0x10000ccc:    bd38        8.      POP      {r3-r5,pc}
    CmdFwWriteStart
        0x10000cce:    b51c        ..      PUSH     {r2-r4,lr}
        0x10000cd0:    466b        kF      MOV      r3,sp
        0x10000cd2:    7059        Yp      STRB     r1,[r3,#1]
        0x10000cd4:    0a09        ..      LSRS     r1,r1,#8
        0x10000cd6:    7099        .p      STRB     r1,[r3,#2]
        0x10000cd8:    70da        .p      STRB     r2,[r3,#3]
        0x10000cda:    0a11        ..      LSRS     r1,r2,#8
        0x10000cdc:    7119        .q      STRB     r1,[r3,#4]
        0x10000cde:    7018        .p      STRB     r0,[r3,#0]
        0x10000ce0:    2205        ."      MOVS     r2,#5
        0x10000ce2:    4669        iF      MOV      r1,sp
        0x10000ce4:    2014        .       MOVS     r0,#0x14
        0x10000ce6:    f7fffe99    ....    BL       EvtCommandComplete ; 0x10000a1c
        0x10000cea:    bd1c        ..      POP      {r2-r4,pc}
    CmdFwUpgradev20
        0x10000cec:    b538        8.      PUSH     {r3-r5,lr}
        0x10000cee:    4604        .F      MOV      r4,r0
        0x10000cf0:    485f        _H      LDR      r0,[pc,#380] ; [0x10000e70] = 0x200039b8
        0x10000cf2:    3020         0      ADDS     r0,r0,#0x20
        0x10000cf4:    7901        .y      LDRB     r1,[r0,#4]
        0x10000cf6:    2900        .)      CMP      r1,#0
        0x10000cf8:    d005        ..      BEQ      0x10000d06 ; CmdFwUpgradev20 + 26
        0x10000cfa:    3820         8      SUBS     r0,r0,#0x20
        0x10000cfc:    6a00        .j      LDR      r0,[r0,#0x20]
        0x10000cfe:    4a5c        \J      LDR      r2,[pc,#368] ; [0x10000e70] = 0x200039b8
        0x10000d00:    0140        @.      LSLS     r0,r0,#5
        0x10000d02:    f002f974    ..t.    BL       CodeWrite ; 0x10002fee
        0x10000d06:    4620         F      MOV      r0,r4
        0x10000d08:    f003faa9    ....    BL       __aeabi_uread4 ; 0x1000425e
        0x10000d0c:    7961        ay      LDRB     r1,[r4,#5]
        0x10000d0e:    7922        "y      LDRB     r2,[r4,#4]
        0x10000d10:    020b        ..      LSLS     r3,r1,#8
        0x10000d12:    4313        .C      ORRS     r3,r3,r2
        0x10000d14:    4602        .F      MOV      r2,r0
        0x10000d16:    a171        q.      ADR      r1,{pc}+0x1c6 ; 0x10000edc
        0x10000d18:    2000        .       MOVS     r0,#0
        0x10000d1a:    f000fd48    ..H.    BL       SEGGER_RTT_printf ; 0x100017ae
        0x10000d1e:    4620         F      MOV      r0,r4
        0x10000d20:    f003fa9d    ....    BL       __aeabi_uread4 ; 0x1000425e
        0x10000d24:    7961        ay      LDRB     r1,[r4,#5]
        0x10000d26:    7922        "y      LDRB     r2,[r4,#4]
        0x10000d28:    020b        ..      LSLS     r3,r1,#8
        0x10000d2a:    4313        .C      ORRS     r3,r3,r2
        0x10000d2c:    4602        .F      MOV      r2,r0
        0x10000d2e:    2100        .!      MOVS     r1,#0
        0x10000d30:    4608        .F      MOV      r0,r1
        0x10000d32:    f002f96c    ..l.    BL       CodeUpdate ; 0x1000300e
        0x10000d36:    4604        .F      MOV      r4,r0
        0x10000d38:    4602        .F      MOV      r2,r0
        0x10000d3a:    a16e        n.      ADR      r1,{pc}+0x1ba ; 0x10000ef4
        0x10000d3c:    2000        .       MOVS     r0,#0
        0x10000d3e:    f000fd36    ..6.    BL       SEGGER_RTT_printf ; 0x100017ae
        0x10000d42:    2c00        .,      CMP      r4,#0
        0x10000d44:    d007        ..      BEQ      0x10000d56 ; CmdFwUpgradev20 + 106
        0x10000d46:    2000        .       MOVS     r0,#0
        0x10000d48:    4669        iF      MOV      r1,sp
        0x10000d4a:    7008        .p      STRB     r0,[r1,#0]
        0x10000d4c:    2201        ."      MOVS     r2,#1
        0x10000d4e:    2018        .       MOVS     r0,#0x18
        0x10000d50:    f7fffe64    ..d.    BL       EvtCommandComplete ; 0x10000a1c
        0x10000d54:    bd38        8.      POP      {r3-r5,pc}
        0x10000d56:    2001        .       MOVS     r0,#1
        0x10000d58:    e7f6        ..      B        0x10000d48 ; CmdFwUpgradev20 + 92
    CmdFlashdataUpgradev30
        0x10000d5a:    b538        8.      PUSH     {r3-r5,lr}
        0x10000d5c:    4604        .F      MOV      r4,r0
        0x10000d5e:    f003fa7e    ..~.    BL       __aeabi_uread4 ; 0x1000425e
        0x10000d62:    7961        ay      LDRB     r1,[r4,#5]
        0x10000d64:    7922        "y      LDRB     r2,[r4,#4]
        0x10000d66:    020b        ..      LSLS     r3,r1,#8
        0x10000d68:    4313        .C      ORRS     r3,r3,r2
        0x10000d6a:    4602        .F      MOV      r2,r0
        0x10000d6c:    a15b        [.      ADR      r1,{pc}+0x170 ; 0x10000edc
        0x10000d6e:    2000        .       MOVS     r0,#0
        0x10000d70:    f000fd1d    ....    BL       SEGGER_RTT_printf ; 0x100017ae
        0x10000d74:    4620         F      MOV      r0,r4
        0x10000d76:    f003fa72    ..r.    BL       __aeabi_uread4 ; 0x1000425e
        0x10000d7a:    7961        ay      LDRB     r1,[r4,#5]
        0x10000d7c:    7922        "y      LDRB     r2,[r4,#4]
        0x10000d7e:    0209        ..      LSLS     r1,r1,#8
        0x10000d80:    4311        .C      ORRS     r1,r1,r2
        0x10000d82:    f002f949    ..I.    BL       FlashDataUpdate ; 0x10003018
        0x10000d86:    4604        .F      MOV      r4,r0
        0x10000d88:    4602        .F      MOV      r2,r0
        0x10000d8a:    a15f        _.      ADR      r1,{pc}+0x17e ; 0x10000f08
        0x10000d8c:    2000        .       MOVS     r0,#0
        0x10000d8e:    f000fd0e    ....    BL       SEGGER_RTT_printf ; 0x100017ae
        0x10000d92:    2c00        .,      CMP      r4,#0
        0x10000d94:    d007        ..      BEQ      0x10000da6 ; CmdFlashdataUpgradev30 + 76
        0x10000d96:    2000        .       MOVS     r0,#0
        0x10000d98:    4669        iF      MOV      r1,sp
        0x10000d9a:    7008        .p      STRB     r0,[r1,#0]
        0x10000d9c:    2201        ."      MOVS     r2,#1
        0x10000d9e:    2018        .       MOVS     r0,#0x18
        0x10000da0:    f7fffe3c    ..<.    BL       EvtCommandComplete ; 0x10000a1c
        0x10000da4:    bd38        8.      POP      {r3-r5,pc}
        0x10000da6:    2001        .       MOVS     r0,#1
        0x10000da8:    e7f6        ..      B        0x10000d98 ; CmdFlashdataUpgradev30 + 62
    $d
        0x10000daa:    0000        ..      DCW    0
        0x10000dac:    2000303c    <0.     DCD    536883260
        0x10000db0:    5f444d43    CMD_    DCD    1598311747
        0x10000db4:    575f5746    FW_W    DCD    1465866054
        0x10000db8:    45544952    RITE    DCD    1163151698
        0x10000dbc:    4154535f    _STA    DCD    1096045407
        0x10000dc0:    6f205452    RT o    DCD    1864389714
        0x10000dc4:    65736666    ffse    DCD    1702061670
        0x10000dc8:    78253a74    t:%x    DCD    2015705716
        0x10000dcc:    7a69732c    ,siz    DCD    2053731116
        0x10000dd0:    78253a65    e:%x    DCD    2015705701
        0x10000dd4:    65686320     che    DCD    1701339936
        0x10000dd8:    75736b63    cksu    DCD    1970498403
        0x10000ddc:    78253a6d    m:%x    DCD    2015705709
        0x10000de0:    00000a0d    ....    DCD    2573
        0x10000de4:    5f444d43    CMD_    DCD    1598311747
        0x10000de8:    455f5746    FW_E    DCD    1163876166
        0x10000dec:    45534152    RASE    DCD    1163084114
        0x10000df0:    00000a0d    ....    DCD    2573
        0x10000df4:    45534b34    4KSE    DCD    1163086644
        0x10000df8:    4e495454    TTIN    DCD    1313428564
        0x10000dfc:    52455f47    G_ER    DCD    1380278087
        0x10000e00:    20455341    ASE     DCD    541414209
        0x10000e04:    00000a0d    ....    DCD    2573
        0x10000e08:    2000074a    J..     DCD    536872778
        0x10000e0c:    65646f43    Code    DCD    1701080899
        0x10000e10:    61647055    Upda    DCD    1633972309
        0x10000e14:    253d6574    te=%    DCD    624780660
        0x10000e18:    78252064    d %x    DCD    2015699044
        0x10000e1c:    0d782520     %x.    DCD    225977632
        0x10000e20:    0000000a    ....    DCD    10
        0x10000e24:    53414c46    FLAS    DCD    1396788294
        0x10000e28:    54414448    HDAT    DCD    1413563464
        0x10000e2c:    52455f41    A_ER    DCD    1380278081
        0x10000e30:    20455341    ASE     DCD    541414209
        0x10000e34:    00000a0d    ....    DCD    2573
        0x10000e38:    53414c46    FLAS    DCD    1396788294
        0x10000e3c:    54414448    HDAT    DCD    1413563464
        0x10000e40:    52575f41    A_WR    DCD    1381457729
        0x10000e44:    5f455449    ITE_    DCD    1598379081
        0x10000e48:    52415453    STAR    DCD    1380013139
        0x10000e4c:    666f2054    T of    DCD    1718558804
        0x10000e50:    74657366    fset    DCD    1952805734
        0x10000e54:    2c78253a    :%x,    DCD    746071354
        0x10000e58:    657a6973    size    DCD    1702521203
        0x10000e5c:    2078253a    :%x     DCD    544744762
        0x10000e60:    63656863    chec    DCD    1667590243
        0x10000e64:    6d75736b    ksum    DCD    1836413803
        0x10000e68:    0d78253a    :%x.    DCD    225977658
        0x10000e6c:    0000000a    ....    DCD    10
        0x10000e70:    200039b8    .9.     DCD    536885688
        0x10000e74:    74636573    sect    DCD    1952671091
        0x10000e78:    206e6f69    ion     DCD    544108393
        0x10000e7c:    20214b4f    OK!     DCD    539052879
        0x10000e80:    00000000    ....    DCD    0
        0x10000e84:    74636573    sect    DCD    1952671091
        0x10000e88:    206e6f69    ion     DCD    544108393
        0x10000e8c:    6c696166    fail    DCD    1818845542
        0x10000e90:    00202165    e! .    DCD    2105701
        0x10000e94:    5f61746f    ota_    DCD    1600222319
        0x10000e98:    65636572    rece    DCD    1701012850
        0x10000e9c:    5f657669    ive_    DCD    1600484969
        0x10000ea0:    63656863    chec    DCD    1667590243
        0x10000ea4:    78253a6b    k:%x    DCD    2015705707
        0x10000ea8:    61746f20     ota    DCD    1635020576
        0x10000eac:    6365735f    _sec    DCD    1667593055
        0x10000eb0:    6e6f6974    tion    DCD    1852795252
        0x10000eb4:    6568635f    _che    DCD    1701339999
        0x10000eb8:    253a6b63    ck:%    DCD    624585571
        0x10000ebc:    000a0d78    x...    DCD    658808
        0x10000ec0:    34646d63    cmd4    DCD    878996835
        0x10000ec4:    5445534b    KSET    DCD    1413829451
        0x10000ec8:    474e4954    TING    DCD    1196312916
        0x10000ecc:    74697257    Writ    DCD    1953067607
        0x10000ed0:    78252065    e %x    DCD    2015699045
        0x10000ed4:    0d782520     %x.    DCD    225977632
        0x10000ed8:    0000000a    ....    DCD    10
        0x10000edc:    2061746f    ota     DCD    543257711
        0x10000ee0:    253a7a73    sz:%    DCD    624589427
        0x10000ee4:    68632078    x ch    DCD    1751326840
        0x10000ee8:    736b6365    ecks    DCD    1936417637
        0x10000eec:    253a6d75    um:%    DCD    624586101
        0x10000ef0:    00002078    x ..    DCD    8312
        0x10000ef4:    65646f43    Code    DCD    1701080899
        0x10000ef8:    61647055    Upda    DCD    1633972309
        0x10000efc:    32766574    tev2    DCD    846620020
        0x10000f00:    64253d30    0=%d    DCD    1680162096
        0x10000f04:    00000a0d    ....    DCD    2573
        0x10000f08:    65646f43    Code    DCD    1701080899
        0x10000f0c:    61647055    Upda    DCD    1633972309
        0x10000f10:    33766574    tev3    DCD    863397236
        0x10000f14:    64253d30    0=%d    DCD    1680162096
        0x10000f18:    00000a0d    ....    DCD    2573
    $t
    .text
    PIN_Pullup_Enable
        0x10000f1c:    b5f0        ..      PUSH     {r4-r7,lr}
        0x10000f1e:    4c9e        .L      LDR      r4,[pc,#632] ; [0x10001198] = 0x50001080
        0x10000f20:    1d22        ".      ADDS     r2,r4,#4
        0x10000f22:    4694        .F      MOV      r12,r2
        0x10000f24:    2800        .(      CMP      r0,#0
        0x10000f26:    d029        ).      BEQ      0x10000f7c ; PIN_Pullup_Enable + 96
        0x10000f28:    2801        .(      CMP      r0,#1
        0x10000f2a:    d126        &.      BNE      0x10000f7a ; PIN_Pullup_Enable + 94
        0x10000f2c:    4b9b        .K      LDR      r3,[pc,#620] ; [0x1000119c] = 0x20003088
        0x10000f2e:    2b00        .+      CMP      r3,#0
        0x10000f30:    d023        #.      BEQ      0x10000f7a ; PIN_Pullup_Enable + 94
        0x10000f32:    2000        .       MOVS     r0,#0
        0x10000f34:    2201        ."      MOVS     r2,#1
        0x10000f36:    4082        .@      LSLS     r2,r2,r0
        0x10000f38:    4211        .B      TST      r1,r2
        0x10000f3a:    d007        ..      BEQ      0x10000f4c ; PIN_Pullup_Enable + 48
        0x10000f3c:    5c1f        .\      LDRB     r7,[r3,r0]
        0x10000f3e:    2501        .%      MOVS     r5,#1
        0x10000f40:    6826        &h      LDR      r6,[r4,#0]
        0x10000f42:    40bd        .@      LSLS     r5,r5,r7
        0x10000f44:    432e        .C      ORRS     r6,r6,r5
        0x10000f46:    6026        &`      STR      r6,[r4,#0]
        0x10000f48:    4391        .C      BICS     r1,r1,r2
        0x10000f4a:    d002        ..      BEQ      0x10000f52 ; PIN_Pullup_Enable + 54
        0x10000f4c:    1c40        @.      ADDS     r0,r0,#1
        0x10000f4e:    2818        .(      CMP      r0,#0x18
        0x10000f50:    d3f0        ..      BCC      0x10000f34 ; PIN_Pullup_Enable + 24
        0x10000f52:    2018        .       MOVS     r0,#0x18
        0x10000f54:    2501        .%      MOVS     r5,#1
        0x10000f56:    462a        *F      MOV      r2,r5
        0x10000f58:    4082        .@      LSLS     r2,r2,r0
        0x10000f5a:    462b        +F      MOV      r3,r5
        0x10000f5c:    4211        .B      TST      r1,r2
        0x10000f5e:    d009        ..      BEQ      0x10000f74 ; PIN_Pullup_Enable + 88
        0x10000f60:    4664        dF      MOV      r4,r12
        0x10000f62:    4606        .F      MOV      r6,r0
        0x10000f64:    7824        $x      LDRB     r4,[r4,#0]
        0x10000f66:    3e18        .>      SUBS     r6,r6,#0x18
        0x10000f68:    40b3        .@      LSLS     r3,r3,r6
        0x10000f6a:    431c        .C      ORRS     r4,r4,r3
        0x10000f6c:    4663        cF      MOV      r3,r12
        0x10000f6e:    701c        .p      STRB     r4,[r3,#0]
        0x10000f70:    4391        .C      BICS     r1,r1,r2
        0x10000f72:    d002        ..      BEQ      0x10000f7a ; PIN_Pullup_Enable + 94
        0x10000f74:    1c40        @.      ADDS     r0,r0,#1
        0x10000f76:    2820         (      CMP      r0,#0x20
        0x10000f78:    d3ed        ..      BCC      0x10000f56 ; PIN_Pullup_Enable + 58
        0x10000f7a:    bdf0        ..      POP      {r4-r7,pc}
        0x10000f7c:    4b87        .K      LDR      r3,[pc,#540] ; [0x1000119c] = 0x20003088
        0x10000f7e:    3b18        .;      SUBS     r3,r3,#0x18
        0x10000f80:    e7d5        ..      B        0x10000f2e ; PIN_Pullup_Enable + 18
    PIN_Pullup_Disable
        0x10000f82:    b5f0        ..      PUSH     {r4-r7,lr}
        0x10000f84:    4c84        .L      LDR      r4,[pc,#528] ; [0x10001198] = 0x50001080
        0x10000f86:    1d22        ".      ADDS     r2,r4,#4
        0x10000f88:    4694        .F      MOV      r12,r2
        0x10000f8a:    2800        .(      CMP      r0,#0
        0x10000f8c:    d029        ).      BEQ      0x10000fe2 ; PIN_Pullup_Disable + 96
        0x10000f8e:    2801        .(      CMP      r0,#1
        0x10000f90:    d126        &.      BNE      0x10000fe0 ; PIN_Pullup_Disable + 94
        0x10000f92:    4b82        .K      LDR      r3,[pc,#520] ; [0x1000119c] = 0x20003088
        0x10000f94:    2b00        .+      CMP      r3,#0
        0x10000f96:    d023        #.      BEQ      0x10000fe0 ; PIN_Pullup_Disable + 94
        0x10000f98:    2000        .       MOVS     r0,#0
        0x10000f9a:    2201        ."      MOVS     r2,#1
        0x10000f9c:    4082        .@      LSLS     r2,r2,r0
        0x10000f9e:    4211        .B      TST      r1,r2
        0x10000fa0:    d007        ..      BEQ      0x10000fb2 ; PIN_Pullup_Disable + 48
        0x10000fa2:    5c1f        .\      LDRB     r7,[r3,r0]
        0x10000fa4:    2501        .%      MOVS     r5,#1
        0x10000fa6:    6826        &h      LDR      r6,[r4,#0]
        0x10000fa8:    40bd        .@      LSLS     r5,r5,r7
        0x10000faa:    43ae        .C      BICS     r6,r6,r5
        0x10000fac:    6026        &`      STR      r6,[r4,#0]
        0x10000fae:    4391        .C      BICS     r1,r1,r2
        0x10000fb0:    d002        ..      BEQ      0x10000fb8 ; PIN_Pullup_Disable + 54
        0x10000fb2:    1c40        @.      ADDS     r0,r0,#1
        0x10000fb4:    2818        .(      CMP      r0,#0x18
        0x10000fb6:    d3f0        ..      BCC      0x10000f9a ; PIN_Pullup_Disable + 24
        0x10000fb8:    2018        .       MOVS     r0,#0x18
        0x10000fba:    2501        .%      MOVS     r5,#1
        0x10000fbc:    462a        *F      MOV      r2,r5
        0x10000fbe:    4082        .@      LSLS     r2,r2,r0
        0x10000fc0:    462b        +F      MOV      r3,r5
        0x10000fc2:    4211        .B      TST      r1,r2
        0x10000fc4:    d009        ..      BEQ      0x10000fda ; PIN_Pullup_Disable + 88
        0x10000fc6:    4664        dF      MOV      r4,r12
        0x10000fc8:    7826        &x      LDRB     r6,[r4,#0]
        0x10000fca:    4604        .F      MOV      r4,r0
        0x10000fcc:    3c18        .<      SUBS     r4,r4,#0x18
        0x10000fce:    40a3        .@      LSLS     r3,r3,r4
        0x10000fd0:    439e        .C      BICS     r6,r6,r3
        0x10000fd2:    4663        cF      MOV      r3,r12
        0x10000fd4:    701e        .p      STRB     r6,[r3,#0]
        0x10000fd6:    4391        .C      BICS     r1,r1,r2
        0x10000fd8:    d002        ..      BEQ      0x10000fe0 ; PIN_Pullup_Disable + 94
        0x10000fda:    1c40        @.      ADDS     r0,r0,#1
        0x10000fdc:    2820         (      CMP      r0,#0x20
        0x10000fde:    d3ed        ..      BCC      0x10000fbc ; PIN_Pullup_Disable + 58
        0x10000fe0:    bdf0        ..      POP      {r4-r7,pc}
        0x10000fe2:    4b6e        nK      LDR      r3,[pc,#440] ; [0x1000119c] = 0x20003088
        0x10000fe4:    3b18        .;      SUBS     r3,r3,#0x18
        0x10000fe6:    e7d5        ..      B        0x10000f94 ; PIN_Pullup_Disable + 18
    GPIO_Set_Output
        0x10000fe8:    496c        lI      LDR      r1,[pc,#432] ; [0x1000119c] = 0x20003088
        0x10000fea:    b510        ..      PUSH     {r4,lr}
        0x10000fec:    3930        09      SUBS     r1,r1,#0x30
        0x10000fee:    684a        Jh      LDR      r2,[r1,#4]
        0x10000ff0:    7814        .x      LDRB     r4,[r2,#0]
        0x10000ff2:    4621        !F      MOV      r1,r4
        0x10000ff4:    7854        Tx      LDRB     r4,[r2,#1]
        0x10000ff6:    0224        $.      LSLS     r4,r4,#8
        0x10000ff8:    4321        !C      ORRS     r1,r1,r4
        0x10000ffa:    7894        .x      LDRB     r4,[r2,#2]
        0x10000ffc:    78d3        .x      LDRB     r3,[r2,#3]
        0x10000ffe:    0424        $.      LSLS     r4,r4,#16
        0x10001000:    4321        !C      ORRS     r1,r1,r4
        0x10001002:    061b        ..      LSLS     r3,r3,#24
        0x10001004:    4319        .C      ORRS     r1,r1,r3
        0x10001006:    4381        .C      BICS     r1,r1,r0
        0x10001008:    7011        .p      STRB     r1,[r2,#0]
        0x1000100a:    0a08        ..      LSRS     r0,r1,#8
        0x1000100c:    7050        Pp      STRB     r0,[r2,#1]
        0x1000100e:    0c08        ..      LSRS     r0,r1,#16
        0x10001010:    7090        .p      STRB     r0,[r2,#2]
        0x10001012:    0e08        ..      LSRS     r0,r1,#24
        0x10001014:    70d0        .p      STRB     r0,[r2,#3]
        0x10001016:    bd10        ..      POP      {r4,pc}
    GPIO_Set_Input
        0x10001018:    b570        p.      PUSH     {r4-r6,lr}
        0x1000101a:    4e60        `N      LDR      r6,[pc,#384] ; [0x1000119c] = 0x20003088
        0x1000101c:    3e30        0>      SUBS     r6,r6,#0x30
        0x1000101e:    6873        sh      LDR      r3,[r6,#4]
        0x10001020:    781d        .x      LDRB     r5,[r3,#0]
        0x10001022:    462a        *F      MOV      r2,r5
        0x10001024:    785d        ]x      LDRB     r5,[r3,#1]
        0x10001026:    022d        -.      LSLS     r5,r5,#8
        0x10001028:    432a        *C      ORRS     r2,r2,r5
        0x1000102a:    789d        .x      LDRB     r5,[r3,#2]
        0x1000102c:    78dc        .x      LDRB     r4,[r3,#3]
        0x1000102e:    042d        -.      LSLS     r5,r5,#16
        0x10001030:    432a        *C      ORRS     r2,r2,r5
        0x10001032:    0624        $.      LSLS     r4,r4,#24
        0x10001034:    4322        "C      ORRS     r2,r2,r4
        0x10001036:    4302        .C      ORRS     r2,r2,r0
        0x10001038:    701a        .p      STRB     r2,[r3,#0]
        0x1000103a:    0a14        ..      LSRS     r4,r2,#8
        0x1000103c:    705c        \p      STRB     r4,[r3,#1]
        0x1000103e:    0c14        ..      LSRS     r4,r2,#16
        0x10001040:    709c        .p      STRB     r4,[r3,#2]
        0x10001042:    0e12        ..      LSRS     r2,r2,#24
        0x10001044:    70da        .p      STRB     r2,[r3,#3]
        0x10001046:    68f3        .h      LDR      r3,[r6,#0xc]
        0x10001048:    781d        .x      LDRB     r5,[r3,#0]
        0x1000104a:    462a        *F      MOV      r2,r5
        0x1000104c:    785d        ]x      LDRB     r5,[r3,#1]
        0x1000104e:    022d        -.      LSLS     r5,r5,#8
        0x10001050:    432a        *C      ORRS     r2,r2,r5
        0x10001052:    789d        .x      LDRB     r5,[r3,#2]
        0x10001054:    78dc        .x      LDRB     r4,[r3,#3]
        0x10001056:    042d        -.      LSLS     r5,r5,#16
        0x10001058:    432a        *C      ORRS     r2,r2,r5
        0x1000105a:    0624        $.      LSLS     r4,r4,#24
        0x1000105c:    4322        "C      ORRS     r2,r2,r4
        0x1000105e:    4302        .C      ORRS     r2,r2,r0
        0x10001060:    701a        .p      STRB     r2,[r3,#0]
        0x10001062:    0a14        ..      LSRS     r4,r2,#8
        0x10001064:    705c        \p      STRB     r4,[r3,#1]
        0x10001066:    0c14        ..      LSRS     r4,r2,#16
        0x10001068:    709c        .p      STRB     r4,[r3,#2]
        0x1000106a:    0e12        ..      LSRS     r2,r2,#24
        0x1000106c:    70da        .p      STRB     r2,[r3,#3]
        0x1000106e:    2208        ."      MOVS     r2,#8
        0x10001070:    189c        ..      ADDS     r4,r3,r2
        0x10001072:    7825        %x      LDRB     r5,[r4,#0]
        0x10001074:    462a        *F      MOV      r2,r5
        0x10001076:    7865        ex      LDRB     r5,[r4,#1]
        0x10001078:    022d        -.      LSLS     r5,r5,#8
        0x1000107a:    432a        *C      ORRS     r2,r2,r5
        0x1000107c:    78a5        .x      LDRB     r5,[r4,#2]
        0x1000107e:    78e4        .x      LDRB     r4,[r4,#3]
        0x10001080:    042d        -.      LSLS     r5,r5,#16
        0x10001082:    432a        *C      ORRS     r2,r2,r5
        0x10001084:    0624        $.      LSLS     r4,r4,#24
        0x10001086:    4322        "C      ORRS     r2,r2,r4
        0x10001088:    4382        .C      BICS     r2,r2,r0
        0x1000108a:    721a        .r      STRB     r2,[r3,#8]
        0x1000108c:    0a10        ..      LSRS     r0,r2,#8
        0x1000108e:    7258        Xr      STRB     r0,[r3,#9]
        0x10001090:    0c10        ..      LSRS     r0,r2,#16
        0x10001092:    7298        .r      STRB     r0,[r3,#0xa]
        0x10001094:    0e10        ..      LSRS     r0,r2,#24
        0x10001096:    72d8        .r      STRB     r0,[r3,#0xb]
        0x10001098:    2008        .       MOVS     r0,#8
        0x1000109a:    181a        ..      ADDS     r2,r3,r0
        0x1000109c:    7814        .x      LDRB     r4,[r2,#0]
        0x1000109e:    4620         F      MOV      r0,r4
        0x100010a0:    7854        Tx      LDRB     r4,[r2,#1]
        0x100010a2:    0224        $.      LSLS     r4,r4,#8
        0x100010a4:    4320         C      ORRS     r0,r0,r4
        0x100010a6:    7894        .x      LDRB     r4,[r2,#2]
        0x100010a8:    78d2        .x      LDRB     r2,[r2,#3]
        0x100010aa:    0424        $.      LSLS     r4,r4,#16
        0x100010ac:    4320         C      ORRS     r0,r0,r4
        0x100010ae:    0612        ..      LSLS     r2,r2,#24
        0x100010b0:    4310        .C      ORRS     r0,r0,r2
        0x100010b2:    4308        .C      ORRS     r0,r0,r1
        0x100010b4:    7218        .r      STRB     r0,[r3,#8]
        0x100010b6:    0a01        ..      LSRS     r1,r0,#8
        0x100010b8:    7259        Yr      STRB     r1,[r3,#9]
        0x100010ba:    0c01        ..      LSRS     r1,r0,#16
        0x100010bc:    7299        .r      STRB     r1,[r3,#0xa]
        0x100010be:    0e00        ..      LSRS     r0,r0,#24
        0x100010c0:    72d8        .r      STRB     r0,[r3,#0xb]
        0x100010c2:    bd70        p.      POP      {r4-r6,pc}
    GPIO_Pin_Set
        0x100010c4:    4935        5I      LDR      r1,[pc,#212] ; [0x1000119c] = 0x20003088
        0x100010c6:    b510        ..      PUSH     {r4,lr}
        0x100010c8:    3930        09      SUBS     r1,r1,#0x30
        0x100010ca:    688a        .h      LDR      r2,[r1,#8]
        0x100010cc:    7814        .x      LDRB     r4,[r2,#0]
        0x100010ce:    4621        !F      MOV      r1,r4
        0x100010d0:    7854        Tx      LDRB     r4,[r2,#1]
        0x100010d2:    0224        $.      LSLS     r4,r4,#8
        0x100010d4:    4321        !C      ORRS     r1,r1,r4
        0x100010d6:    7894        .x      LDRB     r4,[r2,#2]
        0x100010d8:    78d3        .x      LDRB     r3,[r2,#3]
        0x100010da:    0424        $.      LSLS     r4,r4,#16
        0x100010dc:    4321        !C      ORRS     r1,r1,r4
        0x100010de:    061b        ..      LSLS     r3,r3,#24
        0x100010e0:    4319        .C      ORRS     r1,r1,r3
        0x100010e2:    4301        .C      ORRS     r1,r1,r0
        0x100010e4:    7011        .p      STRB     r1,[r2,#0]
        0x100010e6:    0a08        ..      LSRS     r0,r1,#8
        0x100010e8:    7050        Pp      STRB     r0,[r2,#1]
        0x100010ea:    0c08        ..      LSRS     r0,r1,#16
        0x100010ec:    7090        .p      STRB     r0,[r2,#2]
        0x100010ee:    0e08        ..      LSRS     r0,r1,#24
        0x100010f0:    70d0        .p      STRB     r0,[r2,#3]
        0x100010f2:    bd10        ..      POP      {r4,pc}
    GPIO_Pin_Clear
        0x100010f4:    4929        )I      LDR      r1,[pc,#164] ; [0x1000119c] = 0x20003088
        0x100010f6:    b510        ..      PUSH     {r4,lr}
        0x100010f8:    3930        09      SUBS     r1,r1,#0x30
        0x100010fa:    688a        .h      LDR      r2,[r1,#8]
        0x100010fc:    7814        .x      LDRB     r4,[r2,#0]
        0x100010fe:    4621        !F      MOV      r1,r4
        0x10001100:    7854        Tx      LDRB     r4,[r2,#1]
        0x10001102:    0224        $.      LSLS     r4,r4,#8
        0x10001104:    4321        !C      ORRS     r1,r1,r4
        0x10001106:    7894        .x      LDRB     r4,[r2,#2]
        0x10001108:    78d3        .x      LDRB     r3,[r2,#3]
        0x1000110a:    0424        $.      LSLS     r4,r4,#16
        0x1000110c:    4321        !C      ORRS     r1,r1,r4
        0x1000110e:    061b        ..      LSLS     r3,r3,#24
        0x10001110:    4319        .C      ORRS     r1,r1,r3
        0x10001112:    4381        .C      BICS     r1,r1,r0
        0x10001114:    7011        .p      STRB     r1,[r2,#0]
        0x10001116:    0a08        ..      LSRS     r0,r1,#8
        0x10001118:    7050        Pp      STRB     r0,[r2,#1]
        0x1000111a:    0c08        ..      LSRS     r0,r1,#16
        0x1000111c:    7090        .p      STRB     r0,[r2,#2]
        0x1000111e:    0e08        ..      LSRS     r0,r1,#24
        0x10001120:    70d0        .p      STRB     r0,[r2,#3]
        0x10001122:    bd10        ..      POP      {r4,pc}
    GPIO_IRQHandler
        0x10001124:    b510        ..      PUSH     {r4,lr}
        0x10001126:    4c1d        .L      LDR      r4,[pc,#116] ; [0x1000119c] = 0x20003088
        0x10001128:    2018        .       MOVS     r0,#0x18
        0x1000112a:    3c30        0<      SUBS     r4,r4,#0x30
        0x1000112c:    6923        #i      LDR      r3,[r4,#0x10]
        0x1000112e:    1819        ..      ADDS     r1,r3,r0
        0x10001130:    780a        .x      LDRB     r2,[r1,#0]
        0x10001132:    4610        .F      MOV      r0,r2
        0x10001134:    784a        Jx      LDRB     r2,[r1,#1]
        0x10001136:    0212        ..      LSLS     r2,r2,#8
        0x10001138:    4310        .C      ORRS     r0,r0,r2
        0x1000113a:    788a        .x      LDRB     r2,[r1,#2]
        0x1000113c:    78c9        .x      LDRB     r1,[r1,#3]
        0x1000113e:    0412        ..      LSLS     r2,r2,#16
        0x10001140:    4310        .C      ORRS     r0,r0,r2
        0x10001142:    0609        ..      LSLS     r1,r1,#24
        0x10001144:    4308        .C      ORRS     r0,r0,r1
        0x10001146:    2110        .!      MOVS     r1,#0x10
        0x10001148:    185a        Z.      ADDS     r2,r3,r1
        0x1000114a:    7813        .x      LDRB     r3,[r2,#0]
        0x1000114c:    4619        .F      MOV      r1,r3
        0x1000114e:    7853        Sx      LDRB     r3,[r2,#1]
        0x10001150:    021b        ..      LSLS     r3,r3,#8
        0x10001152:    4319        .C      ORRS     r1,r1,r3
        0x10001154:    7893        .x      LDRB     r3,[r2,#2]
        0x10001156:    78d2        .x      LDRB     r2,[r2,#3]
        0x10001158:    041b        ..      LSLS     r3,r3,#16
        0x1000115a:    4319        .C      ORRS     r1,r1,r3
        0x1000115c:    0612        ..      LSLS     r2,r2,#24
        0x1000115e:    4311        .C      ORRS     r1,r1,r2
        0x10001160:    4388        .C      BICS     r0,r0,r1
        0x10001162:    d018        ..      BEQ      0x10001196 ; GPIO_IRQHandler + 114
        0x10001164:    6960        `i      LDR      r0,[r4,#0x14]
        0x10001166:    2800        .(      CMP      r0,#0
        0x10001168:    d000        ..      BEQ      0x1000116c ; GPIO_IRQHandler + 72
        0x1000116a:    4780        .G      BLX      r0
        0x1000116c:    6921        !i      LDR      r1,[r4,#0x10]
        0x1000116e:    2018        .       MOVS     r0,#0x18
        0x10001170:    180a        ..      ADDS     r2,r1,r0
        0x10001172:    7813        .x      LDRB     r3,[r2,#0]
        0x10001174:    4618        .F      MOV      r0,r3
        0x10001176:    7853        Sx      LDRB     r3,[r2,#1]
        0x10001178:    021b        ..      LSLS     r3,r3,#8
        0x1000117a:    4318        .C      ORRS     r0,r0,r3
        0x1000117c:    7893        .x      LDRB     r3,[r2,#2]
        0x1000117e:    78d2        .x      LDRB     r2,[r2,#3]
        0x10001180:    041b        ..      LSLS     r3,r3,#16
        0x10001182:    4318        .C      ORRS     r0,r0,r3
        0x10001184:    0612        ..      LSLS     r2,r2,#24
        0x10001186:    4310        .C      ORRS     r0,r0,r2
        0x10001188:    7008        .p      STRB     r0,[r1,#0]
        0x1000118a:    0a02        ..      LSRS     r2,r0,#8
        0x1000118c:    704a        Jp      STRB     r2,[r1,#1]
        0x1000118e:    0c02        ..      LSRS     r2,r0,#16
        0x10001190:    708a        .p      STRB     r2,[r1,#2]
        0x10001192:    0e00        ..      LSRS     r0,r0,#24
        0x10001194:    70c8        .p      STRB     r0,[r1,#3]
        0x10001196:    bd10        ..      POP      {r4,pc}
    $d
        0x10001198:    50001080    ...P    DCD    1342181504
        0x1000119c:    20003088    .0.     DCD    536883336
    $t
    .text
    uart_0_init
        0x100011a0:    b570        p.      PUSH     {r4-r6,lr}
        0x100011a2:    484d        MH      LDR      r0,[pc,#308] ; [0x100012d8] = 0x20003058
        0x100011a4:    6800        .h      LDR      r0,[r0,#0]
        0x100011a6:    7b01        .{      LDRB     r1,[r0,#0xc]
        0x100011a8:    0989        ..      LSRS     r1,r1,#6
        0x100011aa:    0189        ..      LSLS     r1,r1,#6
        0x100011ac:    1cc9        ..      ADDS     r1,r1,#3
        0x100011ae:    7301        .s      STRB     r1,[r0,#0xc]
        0x100011b0:    7b81        .{      LDRB     r1,[r0,#0xe]
        0x100011b2:    0989        ..      LSRS     r1,r1,#6
        0x100011b4:    0189        ..      LSLS     r1,r1,#6
        0x100011b6:    1d09        ..      ADDS     r1,r1,#4
        0x100011b8:    7381        .s      STRB     r1,[r0,#0xe]
        0x100011ba:    3020         0      ADDS     r0,r0,#0x20
        0x100011bc:    7881        .x      LDRB     r1,[r0,#2]
        0x100011be:    22df        ."      MOVS     r2,#0xdf
        0x100011c0:    4011        .@      ANDS     r1,r1,r2
        0x100011c2:    7081        .p      STRB     r1,[r0,#2]
        0x100011c4:    7883        .x      LDRB     r3,[r0,#2]
        0x100011c6:    21bf        .!      MOVS     r1,#0xbf
        0x100011c8:    400b        .@      ANDS     r3,r3,r1
        0x100011ca:    7083        .p      STRB     r3,[r0,#2]
        0x100011cc:    4843        CH      LDR      r0,[pc,#268] ; [0x100012dc] = 0x200030a0
        0x100011ce:    6800        .h      LDR      r0,[r0,#0]
        0x100011d0:    7883        .x      LDRB     r3,[r0,#2]
        0x100011d2:    085b        [.      LSRS     r3,r3,#1
        0x100011d4:    005b        [.      LSLS     r3,r3,#1
        0x100011d6:    7083        .p      STRB     r3,[r0,#2]
        0x100011d8:    7803        .x      LDRB     r3,[r0,#0]
        0x100011da:    091b        ..      LSRS     r3,r3,#4
        0x100011dc:    011b        ..      LSLS     r3,r3,#4
        0x100011de:    3308        .3      ADDS     r3,r3,#8
        0x100011e0:    7003        .p      STRB     r3,[r0,#0]
        0x100011e2:    7803        .x      LDRB     r3,[r0,#0]
        0x100011e4:    065b        [.      LSLS     r3,r3,#25
        0x100011e6:    0e5b        [.      LSRS     r3,r3,#25
        0x100011e8:    7003        .p      STRB     r3,[r0,#0]
        0x100011ea:    7803        .x      LDRB     r3,[r0,#0]
        0x100011ec:    400b        .@      ANDS     r3,r3,r1
        0x100011ee:    7003        .p      STRB     r3,[r0,#0]
        0x100011f0:    78c3        .x      LDRB     r3,[r0,#3]
        0x100011f2:    2410        .$      MOVS     r4,#0x10
        0x100011f4:    4323        #C      ORRS     r3,r3,r4
        0x100011f6:    70c3        .p      STRB     r3,[r0,#3]
        0x100011f8:    7883        .x      LDRB     r3,[r0,#2]
        0x100011fa:    2404        .$      MOVS     r4,#4
        0x100011fc:    4323        #C      ORRS     r3,r3,r4
        0x100011fe:    7083        .p      STRB     r3,[r0,#2]
        0x10001200:    7884        .x      LDRB     r4,[r0,#2]
        0x10001202:    2320         #      MOVS     r3,#0x20
        0x10001204:    431c        .C      ORRS     r4,r4,r3
        0x10001206:    7084        .p      STRB     r4,[r0,#2]
        0x10001208:    7885        .x      LDRB     r5,[r0,#2]
        0x1000120a:    24ef        .$      MOVS     r4,#0xef
        0x1000120c:    4025        %@      ANDS     r5,r5,r4
        0x1000120e:    7085        .p      STRB     r5,[r0,#2]
        0x10001210:    7885        .x      LDRB     r5,[r0,#2]
        0x10001212:    2680        .&      MOVS     r6,#0x80
        0x10001214:    4335        5C      ORRS     r5,r5,r6
        0x10001216:    7085        .p      STRB     r5,[r0,#2]
        0x10001218:    7885        .x      LDRB     r5,[r0,#2]
        0x1000121a:    400d        .@      ANDS     r5,r5,r1
        0x1000121c:    7085        .p      STRB     r5,[r0,#2]
        0x1000121e:    7801        .x      LDRB     r1,[r0,#0]
        0x10001220:    4021        !@      ANDS     r1,r1,r4
        0x10001222:    7001        .p      STRB     r1,[r0,#0]
        0x10001224:    7801        .x      LDRB     r1,[r0,#0]
        0x10001226:    4011        .@      ANDS     r1,r1,r2
        0x10001228:    7001        .p      STRB     r1,[r0,#0]
        0x1000122a:    7881        .x      LDRB     r1,[r0,#2]
        0x1000122c:    2202        ."      MOVS     r2,#2
        0x1000122e:    4311        .C      ORRS     r1,r1,r2
        0x10001230:    7081        .p      STRB     r1,[r0,#2]
        0x10001232:    78c1        .x      LDRB     r1,[r0,#3]
        0x10001234:    4319        .C      ORRS     r1,r1,r3
        0x10001236:    70c1        .p      STRB     r1,[r0,#3]
        0x10001238:    4a29        )J      LDR      r2,[pc,#164] ; [0x100012e0] = 0xe000e100
        0x1000123a:    2140        @!      MOVS     r1,#0x40
        0x1000123c:    6011        .`      STR      r1,[r2,#0]
        0x1000123e:    7881        .x      LDRB     r1,[r0,#2]
        0x10001240:    2208        ."      MOVS     r2,#8
        0x10001242:    4311        .C      ORRS     r1,r1,r2
        0x10001244:    7081        .p      STRB     r1,[r0,#2]
        0x10001246:    bd70        p.      POP      {r4-r6,pc}
    uart_0_write
        0x10001248:    4924        $I      LDR      r1,[pc,#144] ; [0x100012dc] = 0x200030a0
        0x1000124a:    6809        .h      LDR      r1,[r1,#0]
        0x1000124c:    7048        Hp      STRB     r0,[r1,#1]
        0x1000124e:    7808        .x      LDRB     r0,[r1,#0]
        0x10001250:    0680        ..      LSLS     r0,r0,#26
        0x10001252:    d5fc        ..      BPL      0x1000124e ; uart_0_write + 6
        0x10001254:    7808        .x      LDRB     r0,[r1,#0]
        0x10001256:    22df        ."      MOVS     r2,#0xdf
        0x10001258:    4010        .@      ANDS     r0,r0,r2
        0x1000125a:    7008        .p      STRB     r0,[r1,#0]
        0x1000125c:    4770        pG      BX       lr
    uart_0_read
        0x1000125e:    b538        8.      PUSH     {r3-r5,lr}
        0x10001260:    2200        ."      MOVS     r2,#0
        0x10001262:    466c        lF      MOV      r4,sp
        0x10001264:    7022        "p      STRB     r2,[r4,#0]
        0x10001266:    4b1d        .K      LDR      r3,[pc,#116] ; [0x100012dc] = 0x200030a0
        0x10001268:    681b        .h      LDR      r3,[r3,#0]
        0x1000126a:    e00d        ..      B        0x10001288 ; uart_0_read + 42
        0x1000126c:    791c        .y      LDRB     r4,[r3,#4]
        0x1000126e:    548c        .T      STRB     r4,[r1,r2]
        0x10001270:    466d        mF      MOV      r5,sp
        0x10001272:    1c52        R.      ADDS     r2,r2,#1
        0x10001274:    782c        ,x      LDRB     r4,[r5,#0]
        0x10001276:    b2d2        ..      UXTB     r2,r2
        0x10001278:    1c64        d.      ADDS     r4,r4,#1
        0x1000127a:    702c        ,p      STRB     r4,[r5,#0]
        0x1000127c:    782c        ,x      LDRB     r4,[r5,#0]
        0x1000127e:    1c64        d.      ADDS     r4,r4,#1
        0x10001280:    702c        ,p      STRB     r4,[r5,#0]
        0x10001282:    782c        ,x      LDRB     r4,[r5,#0]
        0x10001284:    1c64        d.      ADDS     r4,r4,#1
        0x10001286:    702c        ,p      STRB     r4,[r5,#0]
        0x10001288:    78dc        .x      LDRB     r4,[r3,#3]
        0x1000128a:    07e4        ..      LSLS     r4,r4,#31
        0x1000128c:    d0ee        ..      BEQ      0x1000126c ; uart_0_read + 14
        0x1000128e:    7002        .p      STRB     r2,[r0,#0]
        0x10001290:    bd38        8.      POP      {r3-r5,pc}
    UART0_IRQHandler
        0x10001292:    b510        ..      PUSH     {r4,lr}
        0x10001294:    4c11        .L      LDR      r4,[pc,#68] ; [0x100012dc] = 0x200030a0
        0x10001296:    6820         h      LDR      r0,[r4,#0]
        0x10001298:    7801        .x      LDRB     r1,[r0,#0]
        0x1000129a:    06c9        ..      LSLS     r1,r1,#27
        0x1000129c:    d505        ..      BPL      0x100012aa ; UART0_IRQHandler + 24
        0x1000129e:    7801        .x      LDRB     r1,[r0,#0]
        0x100012a0:    22ef        ."      MOVS     r2,#0xef
        0x100012a2:    4011        .@      ANDS     r1,r1,r2
        0x100012a4:    7001        .p      STRB     r1,[r0,#0]
        0x100012a6:    f7fffb7b    ..{.    BL       uartRx_callback ; 0x100009a0
        0x100012aa:    6820         h      LDR      r0,[r4,#0]
        0x100012ac:    7881        .x      LDRB     r1,[r0,#2]
        0x100012ae:    0789        ..      LSLS     r1,r1,#30
        0x100012b0:    d503        ..      BPL      0x100012ba ; UART0_IRQHandler + 40
        0x100012b2:    7881        .x      LDRB     r1,[r0,#2]
        0x100012b4:    2202        ."      MOVS     r2,#2
        0x100012b6:    4311        .C      ORRS     r1,r1,r2
        0x100012b8:    7081        .p      STRB     r1,[r0,#2]
        0x100012ba:    bd10        ..      POP      {r4,pc}
    UART1_IRQHandler
        0x100012bc:    b510        ..      PUSH     {r4,lr}
        0x100012be:    4807        .H      LDR      r0,[pc,#28] ; [0x100012dc] = 0x200030a0
        0x100012c0:    6840        @h      LDR      r0,[r0,#4]
        0x100012c2:    7801        .x      LDRB     r1,[r0,#0]
        0x100012c4:    06c9        ..      LSLS     r1,r1,#27
        0x100012c6:    d505        ..      BPL      0x100012d4 ; UART1_IRQHandler + 24
        0x100012c8:    7801        .x      LDRB     r1,[r0,#0]
        0x100012ca:    22ef        ."      MOVS     r2,#0xef
        0x100012cc:    4011        .@      ANDS     r1,r1,r2
        0x100012ce:    7001        .p      STRB     r1,[r0,#0]
        0x100012d0:    f7fffb66    ..f.    BL       uartRx_callback ; 0x100009a0
        0x100012d4:    bd10        ..      POP      {r4,pc}
    $d
        0x100012d6:    0000        ..      DCW    0
        0x100012d8:    20003058    X0.     DCD    536883288
        0x100012dc:    200030a0    .0.     DCD    536883360
        0x100012e0:    e000e100    ....    DCD    3758153984
    $t
    .text
    Timer_Evt_2s
        0x100012e4:    480f        .H      LDR      r0,[pc,#60] ; [0x10001324] = 0x200030f0
        0x100012e6:    22ff        ."      MOVS     r2,#0xff
        0x100012e8:    6801        .h      LDR      r1,[r0,#0]
        0x100012ea:    3201        .2      ADDS     r2,#1
        0x100012ec:    4311        .C      ORRS     r1,r1,r2
        0x100012ee:    6001        .`      STR      r1,[r0,#0]
        0x100012f0:    4770        pG      BX       lr
    Timer_EVT_1S_OTA
        0x100012f2:    480c        .H      LDR      r0,[pc,#48] ; [0x10001324] = 0x200030f0
        0x100012f4:    2201        ."      MOVS     r2,#1
        0x100012f6:    6801        .h      LDR      r1,[r0,#0]
        0x100012f8:    0252        R.      LSLS     r2,r2,#9
        0x100012fa:    4311        .C      ORRS     r1,r1,r2
        0x100012fc:    6001        .`      STR      r1,[r0,#0]
        0x100012fe:    4770        pG      BX       lr
    Timer_Evt_List
        0x10001300:    b510        ..      PUSH     {r4,lr}
        0x10001302:    247d        }$      MOVS     r4,#0x7d
        0x10001304:    0124        $.      LSLS     r4,r4,#4
        0x10001306:    20ff        .       MOVS     r0,#0xff
        0x10001308:    2300        .#      MOVS     r3,#0
        0x1000130a:    4a07        .J      LDR      r2,[pc,#28] ; [0x10001328] = 0x100012e5
        0x1000130c:    4621        !F      MOV      r1,r4
        0x1000130e:    3001        .0      ADDS     r0,#1
        0x10001310:    f002f9fa    ....    BL       Timer_Evt_Creat ; 0x10003708
        0x10001314:    2001        .       MOVS     r0,#1
        0x10001316:    2300        .#      MOVS     r3,#0
        0x10001318:    4a04        .J      LDR      r2,[pc,#16] ; [0x1000132c] = 0x100012f3
        0x1000131a:    4621        !F      MOV      r1,r4
        0x1000131c:    0240        @.      LSLS     r0,r0,#9
        0x1000131e:    f002f9f3    ....    BL       Timer_Evt_Creat ; 0x10003708
        0x10001322:    bd10        ..      POP      {r4,pc}
    $d
        0x10001324:    200030f0    .0.     DCD    536883440
        0x10001328:    100012e5    ....    DCD    268440293
        0x1000132c:    100012f3    ....    DCD    268440307
    $t
    .text
    RTC_Evt_10S
        0x10001330:    480f        .H      LDR      r0,[pc,#60] ; [0x10001370] = 0x20003108
        0x10001332:    2201        ."      MOVS     r2,#1
        0x10001334:    6801        .h      LDR      r1,[r0,#0]
        0x10001336:    4311        .C      ORRS     r1,r1,r2
        0x10001338:    6001        .`      STR      r1,[r0,#0]
        0x1000133a:    4770        pG      BX       lr
    RTC_Evt_185s
        0x1000133c:    480c        .H      LDR      r0,[pc,#48] ; [0x10001370] = 0x20003108
        0x1000133e:    2204        ."      MOVS     r2,#4
        0x10001340:    6801        .h      LDR      r1,[r0,#0]
        0x10001342:    4311        .C      ORRS     r1,r1,r2
        0x10001344:    6001        .`      STR      r1,[r0,#0]
        0x10001346:    4770        pG      BX       lr
    RTC_Evt_List
        0x10001348:    b510        ..      PUSH     {r4,lr}
        0x1000134a:    2300        .#      MOVS     r3,#0
        0x1000134c:    4a09        .J      LDR      r2,[pc,#36] ; [0x10001374] = 0x10001331
        0x1000134e:    210a        .!      MOVS     r1,#0xa
        0x10001350:    2001        .       MOVS     r0,#1
        0x10001352:    f002fcec    ....    BL       RTC_EVT_Creat ; 0x10003d2e
        0x10001356:    2300        .#      MOVS     r3,#0
        0x10001358:    4a07        .J      LDR      r2,[pc,#28] ; [0x10001378] = 0x1000133d
        0x1000135a:    21b9        .!      MOVS     r1,#0xb9
        0x1000135c:    2004        .       MOVS     r0,#4
        0x1000135e:    f002fce6    ....    BL       RTC_EVT_Creat ; 0x10003d2e
        0x10001362:    2001        .       MOVS     r0,#1
        0x10001364:    f002fd8f    ....    BL       RTC_EVT_Start ; 0x10003e86
        0x10001368:    2004        .       MOVS     r0,#4
        0x1000136a:    f002fd8c    ....    BL       RTC_EVT_Start ; 0x10003e86
        0x1000136e:    bd10        ..      POP      {r4,pc}
    $d
        0x10001370:    20003108    .1.     DCD    536883464
        0x10001374:    10001331    1...    DCD    268440369
        0x10001378:    1000133d    =...    DCD    268440381
    $t
    .text
    _DoInit
        0x1000137c:    b510        ..      PUSH     {r4,lr}
        0x1000137e:    4c60        `L      LDR      r4,[pc,#384] ; [0x10001500] = 0x20003a40
        0x10001380:    2001        .       MOVS     r0,#1
        0x10001382:    6120         a      STR      r0,[r4,#0x10]
        0x10001384:    6160        `a      STR      r0,[r4,#0x14]
        0x10001386:    a05f        _.      ADR      r0,{pc}+0x17e ; 0x10001504
        0x10001388:    61a0        .a      STR      r0,[r4,#0x18]
        0x1000138a:    4620         F      MOV      r0,r4
        0x1000138c:    3048        H0      ADDS     r0,r0,#0x48
        0x1000138e:    61e0        .a      STR      r0,[r4,#0x1c]
        0x10001390:    2001        .       MOVS     r0,#1
        0x10001392:    0280        ..      LSLS     r0,r0,#10
        0x10001394:    2100        .!      MOVS     r1,#0
        0x10001396:    62a1        .b      STR      r1,[r4,#0x28]
        0x10001398:    6220         b      STR      r0,[r4,#0x20]
        0x1000139a:    6261        ab      STR      r1,[r4,#0x24]
        0x1000139c:    a059        Y.      ADR      r0,{pc}+0x168 ; 0x10001504
        0x1000139e:    62e1        .b      STR      r1,[r4,#0x2c]
        0x100013a0:    6320         c      STR      r0,[r4,#0x30]
        0x100013a2:    485b        [H      LDR      r0,[pc,#364] ; [0x10001510] = 0x20003e88
        0x100013a4:    6360        `c      STR      r0,[r4,#0x34]
        0x100013a6:    6421        !d      STR      r1,[r4,#0x40]
        0x100013a8:    2010        .       MOVS     r0,#0x10
        0x100013aa:    63e1        .c      STR      r1,[r4,#0x3c]
        0x100013ac:    63a0        .c      STR      r0,[r4,#0x38]
        0x100013ae:    6461        ad      STR      r1,[r4,#0x44]
        0x100013b0:    a158        X.      ADR      r1,{pc}+0x164 ; 0x10001514
        0x100013b2:    1de0        ..      ADDS     r0,r4,#7
        0x100013b4:    f002ff4a    ..J.    BL       strcpy ; 0x1000424c
        0x100013b8:    a157        W.      ADR      r1,{pc}+0x160 ; 0x10001518
        0x100013ba:    4620         F      MOV      r0,r4
        0x100013bc:    f002ff46    ..F.    BL       strcpy ; 0x1000424c
        0x100013c0:    2020                MOVS     r0,#0x20
        0x100013c2:    71a0        .q      STRB     r0,[r4,#6]
        0x100013c4:    bd10        ..      POP      {r4,pc}
    _WriteBlocking
        0x100013c6:    b5f7        ..      PUSH     {r0-r2,r4-r7,lr}
        0x100013c8:    4605        .F      MOV      r5,r0
        0x100013ca:    b082        ..      SUB      sp,sp,#8
        0x100013cc:    2000        .       MOVS     r0,#0
        0x100013ce:    9000        ..      STR      r0,[sp,#0]
        0x100013d0:    68ec        .h      LDR      r4,[r5,#0xc]
        0x100013d2:    4617        .F      MOV      r7,r2
        0x100013d4:    6928        (i      LDR      r0,[r5,#0x10]
        0x100013d6:    42a0        .B      CMP      r0,r4
        0x100013d8:    d901        ..      BLS      0x100013de ; _WriteBlocking + 24
        0x100013da:    1b06        ..      SUBS     r6,r0,r4
        0x100013dc:    e002        ..      B        0x100013e4 ; _WriteBlocking + 30
        0x100013de:    68a9        .h      LDR      r1,[r5,#8]
        0x100013e0:    1a20         .      SUBS     r0,r4,r0
        0x100013e2:    1a0e        ..      SUBS     r6,r1,r0
        0x100013e4:    68a8        .h      LDR      r0,[r5,#8]
        0x100013e6:    1e76        v.      SUBS     r6,r6,#1
        0x100013e8:    1b00        ..      SUBS     r0,r0,r4
        0x100013ea:    42b0        .B      CMP      r0,r6
        0x100013ec:    d800        ..      BHI      0x100013f0 ; _WriteBlocking + 42
        0x100013ee:    4606        .F      MOV      r6,r0
        0x100013f0:    42be        .B      CMP      r6,r7
        0x100013f2:    d300        ..      BCC      0x100013f6 ; _WriteBlocking + 48
        0x100013f4:    463e        >F      MOV      r6,r7
        0x100013f6:    6868        hh      LDR      r0,[r5,#4]
        0x100013f8:    4632        2F      MOV      r2,r6
        0x100013fa:    1900        ..      ADDS     r0,r0,r4
        0x100013fc:    9903        ..      LDR      r1,[sp,#0xc]
        0x100013fe:    f002ff01    ....    BL       __aeabi_memcpy ; 0x10004204
        0x10001402:    9800        ..      LDR      r0,[sp,#0]
        0x10001404:    1bbf        ..      SUBS     r7,r7,r6
        0x10001406:    1980        ..      ADDS     r0,r0,r6
        0x10001408:    9000        ..      STR      r0,[sp,#0]
        0x1000140a:    9803        ..      LDR      r0,[sp,#0xc]
        0x1000140c:    19a4        ..      ADDS     r4,r4,r6
        0x1000140e:    1980        ..      ADDS     r0,r0,r6
        0x10001410:    9003        ..      STR      r0,[sp,#0xc]
        0x10001412:    68a8        .h      LDR      r0,[r5,#8]
        0x10001414:    42a0        .B      CMP      r0,r4
        0x10001416:    d100        ..      BNE      0x1000141a ; _WriteBlocking + 84
        0x10001418:    2400        .$      MOVS     r4,#0
        0x1000141a:    60ec        .`      STR      r4,[r5,#0xc]
        0x1000141c:    2f00        ./      CMP      r7,#0
        0x1000141e:    d1d9        ..      BNE      0x100013d4 ; _WriteBlocking + 14
        0x10001420:    9800        ..      LDR      r0,[sp,#0]
        0x10001422:    b005        ..      ADD      sp,sp,#0x14
        0x10001424:    bdf0        ..      POP      {r4-r7,pc}
    _WriteNoCheck
        0x10001426:    b5f7        ..      PUSH     {r0-r2,r4-r7,lr}
        0x10001428:    4604        .F      MOV      r4,r0
        0x1000142a:    68c7        .h      LDR      r7,[r0,#0xc]
        0x1000142c:    6880        .h      LDR      r0,[r0,#8]
        0x1000142e:    68e1        .h      LDR      r1,[r4,#0xc]
        0x10001430:    1bc5        ..      SUBS     r5,r0,r7
        0x10001432:    6860        `h      LDR      r0,[r4,#4]
        0x10001434:    4616        .F      MOV      r6,r2
        0x10001436:    1840        @.      ADDS     r0,r0,r1
        0x10001438:    42b5        .B      CMP      r5,r6
        0x1000143a:    d905        ..      BLS      0x10001448 ; _WriteNoCheck + 34
        0x1000143c:    9901        ..      LDR      r1,[sp,#4]
        0x1000143e:    f002fee1    ....    BL       __aeabi_memcpy ; 0x10004204
        0x10001442:    19b8        ..      ADDS     r0,r7,r6
        0x10001444:    60e0        .`      STR      r0,[r4,#0xc]
        0x10001446:    bdfe        ..      POP      {r1-r7,pc}
        0x10001448:    462a        *F      MOV      r2,r5
        0x1000144a:    9901        ..      LDR      r1,[sp,#4]
        0x1000144c:    f002feda    ....    BL       __aeabi_memcpy ; 0x10004204
        0x10001450:    9801        ..      LDR      r0,[sp,#4]
        0x10001452:    1b76        v.      SUBS     r6,r6,r5
        0x10001454:    1941        A.      ADDS     r1,r0,r5
        0x10001456:    4632        2F      MOV      r2,r6
        0x10001458:    6860        `h      LDR      r0,[r4,#4]
        0x1000145a:    f002fed3    ....    BL       __aeabi_memcpy ; 0x10004204
        0x1000145e:    60e6        .`      STR      r6,[r4,#0xc]
        0x10001460:    bdfe        ..      POP      {r1-r7,pc}
    SEGGER_RTT_WriteNoLock
        0x10001462:    b570        p.      PUSH     {r4-r6,lr}
        0x10001464:    460e        .F      MOV      r6,r1
        0x10001466:    2118        .!      MOVS     r1,#0x18
        0x10001468:    4348        HC      MULS     r0,r1,r0
        0x1000146a:    4925        %I      LDR      r1,[pc,#148] ; [0x10001500] = 0x20003a40
        0x1000146c:    4614        .F      MOV      r4,r2
        0x1000146e:    1845        E.      ADDS     r5,r0,r1
        0x10001470:    6ae8        .j      LDR      r0,[r5,#0x2c]
        0x10001472:    3518        .5      ADDS     r5,r5,#0x18
        0x10001474:    2800        .(      CMP      r0,#0
        0x10001476:    d004        ..      BEQ      0x10001482 ; SEGGER_RTT_WriteNoLock + 32
        0x10001478:    2801        .(      CMP      r0,#1
        0x1000147a:    d00f        ..      BEQ      0x1000149c ; SEGGER_RTT_WriteNoLock + 58
        0x1000147c:    2802        .(      CMP      r0,#2
        0x1000147e:    d105        ..      BNE      0x1000148c ; SEGGER_RTT_WriteNoLock + 42
        0x10001480:    e013        ..      B        0x100014aa ; SEGGER_RTT_WriteNoLock + 72
        0x10001482:    4628        (F      MOV      r0,r5
        0x10001484:    f000f831    ..1.    BL       _GetAvailWriteSpace ; 0x100014ea
        0x10001488:    42a0        .B      CMP      r0,r4
        0x1000148a:    d201        ..      BCS      0x10001490 ; SEGGER_RTT_WriteNoLock + 46
        0x1000148c:    2400        .$      MOVS     r4,#0
        0x1000148e:    e011        ..      B        0x100014b4 ; SEGGER_RTT_WriteNoLock + 82
        0x10001490:    4622        "F      MOV      r2,r4
        0x10001492:    4631        1F      MOV      r1,r6
        0x10001494:    4628        (F      MOV      r0,r5
        0x10001496:    f7ffffc6    ....    BL       _WriteNoCheck ; 0x10001426
        0x1000149a:    e00b        ..      B        0x100014b4 ; SEGGER_RTT_WriteNoLock + 82
        0x1000149c:    4628        (F      MOV      r0,r5
        0x1000149e:    f000f824    ..$.    BL       _GetAvailWriteSpace ; 0x100014ea
        0x100014a2:    42a0        .B      CMP      r0,r4
        0x100014a4:    d2f4        ..      BCS      0x10001490 ; SEGGER_RTT_WriteNoLock + 46
        0x100014a6:    4604        .F      MOV      r4,r0
        0x100014a8:    e7f2        ..      B        0x10001490 ; SEGGER_RTT_WriteNoLock + 46
        0x100014aa:    4631        1F      MOV      r1,r6
        0x100014ac:    4628        (F      MOV      r0,r5
        0x100014ae:    f7ffff8a    ....    BL       _WriteBlocking ; 0x100013c6
        0x100014b2:    4604        .F      MOV      r4,r0
        0x100014b4:    4620         F      MOV      r0,r4
        0x100014b6:    bd70        p.      POP      {r4-r6,pc}
    SEGGER_RTT_Write
        0x100014b8:    b5f8        ..      PUSH     {r3-r7,lr}
        0x100014ba:    4607        .F      MOV      r7,r0
        0x100014bc:    4810        .H      LDR      r0,[pc,#64] ; [0x10001500] = 0x20003a40
        0x100014be:    4615        .F      MOV      r5,r2
        0x100014c0:    7800        .x      LDRB     r0,[r0,#0]
        0x100014c2:    460e        .F      MOV      r6,r1
        0x100014c4:    2800        .(      CMP      r0,#0
        0x100014c6:    d101        ..      BNE      0x100014cc ; SEGGER_RTT_Write + 20
        0x100014c8:    f7ffff58    ..X.    BL       _DoInit ; 0x1000137c
        0x100014cc:    f3ef8410    ....    MRS      r4,PRIMASK
        0x100014d0:    2001        .       MOVS     r0,#1
        0x100014d2:    f3808810    ....    MSR      PRIMASK,r0
        0x100014d6:    462a        *F      MOV      r2,r5
        0x100014d8:    4631        1F      MOV      r1,r6
        0x100014da:    4638        8F      MOV      r0,r7
        0x100014dc:    f7ffffc1    ....    BL       SEGGER_RTT_WriteNoLock ; 0x10001462
        0x100014e0:    b2e1        ..      UXTB     r1,r4
        0x100014e2:    f3818810    ....    MSR      PRIMASK,r1
        0x100014e6:    bdf8        ..      POP      {r3-r7,pc}
    SEGGER_RTT_Init
        0x100014e8:    e748        H.      B        _DoInit ; 0x1000137c
    _GetAvailWriteSpace
        0x100014ea:    6902        .i      LDR      r2,[r0,#0x10]
        0x100014ec:    68c1        .h      LDR      r1,[r0,#0xc]
        0x100014ee:    428a        .B      CMP      r2,r1
        0x100014f0:    d803        ..      BHI      0x100014fa ; _GetAvailWriteSpace + 16
        0x100014f2:    6880        .h      LDR      r0,[r0,#8]
        0x100014f4:    1a40        @.      SUBS     r0,r0,r1
        0x100014f6:    1880        ..      ADDS     r0,r0,r2
        0x100014f8:    e000        ..      B        0x100014fc ; _GetAvailWriteSpace + 18
        0x100014fa:    1a50        P.      SUBS     r0,r2,r1
        0x100014fc:    1e40        @.      SUBS     r0,r0,#1
        0x100014fe:    4770        pG      BX       lr
    $d
        0x10001500:    20003a40    @:.     DCD    536885824
        0x10001504:    6d726554    Term    DCD    1836213588
        0x10001508:    6c616e69    inal    DCD    1818324585
        0x1000150c:    00000000    ....    DCD    0
        0x10001510:    20003e88    .>.     DCD    536886920
        0x10001514:    00545452    RTT.    DCD    5526610
        0x10001518:    47474553    SEGG    DCD    1195853139
        0x1000151c:    00005245    ER..    DCD    21061
    $t
    .text
    _StoreChar
        0x10001520:    b510        ..      PUSH     {r4,lr}
        0x10001522:    4604        .F      MOV      r4,r0
        0x10001524:    6880        .h      LDR      r0,[r0,#8]
        0x10001526:    6863        ch      LDR      r3,[r4,#4]
        0x10001528:    1c42        B.      ADDS     r2,r0,#1
        0x1000152a:    4293        .B      CMP      r3,r2
        0x1000152c:    d305        ..      BCC      0x1000153a ; _StoreChar + 26
        0x1000152e:    6823        #h      LDR      r3,[r4,#0]
        0x10001530:    5419        .T      STRB     r1,[r3,r0]
        0x10001532:    60a2        .`      STR      r2,[r4,#8]
        0x10001534:    68e0        .h      LDR      r0,[r4,#0xc]
        0x10001536:    1c40        @.      ADDS     r0,r0,#1
        0x10001538:    60e0        .`      STR      r0,[r4,#0xc]
        0x1000153a:    68a2        .h      LDR      r2,[r4,#8]
        0x1000153c:    6860        `h      LDR      r0,[r4,#4]
        0x1000153e:    4282        .B      CMP      r2,r0
        0x10001540:    d109        ..      BNE      0x10001556 ; _StoreChar + 54
        0x10001542:    6821        !h      LDR      r1,[r4,#0]
        0x10001544:    6920         i      LDR      r0,[r4,#0x10]
        0x10001546:    f7ffffb7    ....    BL       SEGGER_RTT_Write ; 0x100014b8
        0x1000154a:    68a1        .h      LDR      r1,[r4,#8]
        0x1000154c:    4288        .B      CMP      r0,r1
        0x1000154e:    d003        ..      BEQ      0x10001558 ; _StoreChar + 56
        0x10001550:    2000        .       MOVS     r0,#0
        0x10001552:    43c0        .C      MVNS     r0,r0
        0x10001554:    60e0        .`      STR      r0,[r4,#0xc]
        0x10001556:    bd10        ..      POP      {r4,pc}
        0x10001558:    2000        .       MOVS     r0,#0
        0x1000155a:    60a0        .`      STR      r0,[r4,#8]
        0x1000155c:    bd10        ..      POP      {r4,pc}
    _PrintUnsigned
        0x1000155e:    b5ff        ..      PUSH     {r0-r7,lr}
        0x10001560:    b081        ..      SUB      sp,sp,#4
        0x10001562:    2601        .&      MOVS     r6,#1
        0x10001564:    461f        .F      MOV      r7,r3
        0x10001566:    4635        5F      MOV      r5,r6
        0x10001568:    9c0a        ..      LDR      r4,[sp,#0x28]
        0x1000156a:    9802        ..      LDR      r0,[sp,#8]
        0x1000156c:    e002        ..      B        0x10001574 ; _PrintUnsigned + 22
        0x1000156e:    f002fe1f    ....    BL       __aeabi_uidiv ; 0x100041b0
        0x10001572:    1c6d        m.      ADDS     r5,r5,#1
        0x10001574:    9903        ..      LDR      r1,[sp,#0xc]
        0x10001576:    4288        .B      CMP      r0,r1
        0x10001578:    d2f9        ..      BCS      0x1000156e ; _PrintUnsigned + 16
        0x1000157a:    42af        .B      CMP      r7,r5
        0x1000157c:    d900        ..      BLS      0x10001580 ; _PrintUnsigned + 34
        0x1000157e:    463d        =F      MOV      r5,r7
        0x10001580:    980b        ..      LDR      r0,[sp,#0x2c]
        0x10001582:    07c0        ..      LSLS     r0,r0,#31
        0x10001584:    d118        ..      BNE      0x100015b8 ; _PrintUnsigned + 90
        0x10001586:    2c00        .,      CMP      r4,#0
        0x10001588:    d016        ..      BEQ      0x100015b8 ; _PrintUnsigned + 90
        0x1000158a:    980b        ..      LDR      r0,[sp,#0x2c]
        0x1000158c:    0780        ..      LSLS     r0,r0,#30
        0x1000158e:    d501        ..      BPL      0x10001594 ; _PrintUnsigned + 54
        0x10001590:    2f00        ./      CMP      r7,#0
        0x10001592:    d002        ..      BEQ      0x1000159a ; _PrintUnsigned + 60
        0x10001594:    2020                MOVS     r0,#0x20
        0x10001596:    9000        ..      STR      r0,[sp,#0]
        0x10001598:    e00c        ..      B        0x100015b4 ; _PrintUnsigned + 86
        0x1000159a:    2030        0       MOVS     r0,#0x30
        0x1000159c:    e7fb        ..      B        0x10001596 ; _PrintUnsigned + 56
        0x1000159e:    1e64        d.      SUBS     r4,r4,#1
        0x100015a0:    9900        ..      LDR      r1,[sp,#0]
        0x100015a2:    9801        ..      LDR      r0,[sp,#4]
        0x100015a4:    f7ffffbc    ....    BL       _StoreChar ; 0x10001520
        0x100015a8:    9801        ..      LDR      r0,[sp,#4]
        0x100015aa:    68c0        .h      LDR      r0,[r0,#0xc]
        0x100015ac:    2800        .(      CMP      r0,#0
        0x100015ae:    db3d        =.      BLT      0x1000162c ; _PrintUnsigned + 206
        0x100015b0:    2c00        .,      CMP      r4,#0
        0x100015b2:    d001        ..      BEQ      0x100015b8 ; _PrintUnsigned + 90
        0x100015b4:    42a5        .B      CMP      r5,r4
        0x100015b6:    d3f2        ..      BCC      0x1000159e ; _PrintUnsigned + 64
        0x100015b8:    9801        ..      LDR      r0,[sp,#4]
        0x100015ba:    68c0        .h      LDR      r0,[r0,#0xc]
        0x100015bc:    2800        .(      CMP      r0,#0
        0x100015be:    db35        5.      BLT      0x1000162c ; _PrintUnsigned + 206
        0x100015c0:    2f01        ./      CMP      r7,#1
        0x100015c2:    d901        ..      BLS      0x100015c8 ; _PrintUnsigned + 106
        0x100015c4:    1e7f        ..      SUBS     r7,r7,#1
        0x100015c6:    e006        ..      B        0x100015d6 ; _PrintUnsigned + 120
        0x100015c8:    4631        1F      MOV      r1,r6
        0x100015ca:    9802        ..      LDR      r0,[sp,#8]
        0x100015cc:    f002fdf0    ....    BL       __aeabi_uidiv ; 0x100041b0
        0x100015d0:    9903        ..      LDR      r1,[sp,#0xc]
        0x100015d2:    4288        .B      CMP      r0,r1
        0x100015d4:    d302        ..      BCC      0x100015dc ; _PrintUnsigned + 126
        0x100015d6:    9803        ..      LDR      r0,[sp,#0xc]
        0x100015d8:    4346        FC      MULS     r6,r0,r6
        0x100015da:    e7f1        ..      B        0x100015c0 ; _PrintUnsigned + 98
        0x100015dc:    4fc1        .O      LDR      r7,[pc,#772] ; [0x100018e4] = 0x10004946
        0x100015de:    4631        1F      MOV      r1,r6
        0x100015e0:    9802        ..      LDR      r0,[sp,#8]
        0x100015e2:    f002fde5    ....    BL       __aeabi_uidiv ; 0x100041b0
        0x100015e6:    4601        .F      MOV      r1,r0
        0x100015e8:    9a02        ..      LDR      r2,[sp,#8]
        0x100015ea:    4371        qC      MULS     r1,r6,r1
        0x100015ec:    1a51        Q.      SUBS     r1,r2,r1
        0x100015ee:    9102        ..      STR      r1,[sp,#8]
        0x100015f0:    5c39        9\      LDRB     r1,[r7,r0]
        0x100015f2:    9801        ..      LDR      r0,[sp,#4]
        0x100015f4:    f7ffff94    ....    BL       _StoreChar ; 0x10001520
        0x100015f8:    9801        ..      LDR      r0,[sp,#4]
        0x100015fa:    68c0        .h      LDR      r0,[r0,#0xc]
        0x100015fc:    2800        .(      CMP      r0,#0
        0x100015fe:    db05        ..      BLT      0x1000160c ; _PrintUnsigned + 174
        0x10001600:    4630        0F      MOV      r0,r6
        0x10001602:    9903        ..      LDR      r1,[sp,#0xc]
        0x10001604:    f002fdd4    ....    BL       __aeabi_uidiv ; 0x100041b0
        0x10001608:    0006        ..      MOVS     r6,r0
        0x1000160a:    d1e8        ..      BNE      0x100015de ; _PrintUnsigned + 128
        0x1000160c:    980b        ..      LDR      r0,[sp,#0x2c]
        0x1000160e:    07c0        ..      LSLS     r0,r0,#31
        0x10001610:    d00c        ..      BEQ      0x1000162c ; _PrintUnsigned + 206
        0x10001612:    2c00        .,      CMP      r4,#0
        0x10001614:    d00a        ..      BEQ      0x1000162c ; _PrintUnsigned + 206
        0x10001616:    42a5        .B      CMP      r5,r4
        0x10001618:    d208        ..      BCS      0x1000162c ; _PrintUnsigned + 206
        0x1000161a:    2120         !      MOVS     r1,#0x20
        0x1000161c:    1e64        d.      SUBS     r4,r4,#1
        0x1000161e:    9801        ..      LDR      r0,[sp,#4]
        0x10001620:    f7ffff7e    ..~.    BL       _StoreChar ; 0x10001520
        0x10001624:    9801        ..      LDR      r0,[sp,#4]
        0x10001626:    68c0        .h      LDR      r0,[r0,#0xc]
        0x10001628:    2800        .(      CMP      r0,#0
        0x1000162a:    daf2        ..      BGE      0x10001612 ; _PrintUnsigned + 180
        0x1000162c:    b005        ..      ADD      sp,sp,#0x14
        0x1000162e:    bdf0        ..      POP      {r4-r7,pc}
    SEGGER_RTT_vprintf
        0x10001630:    b5f7        ..      PUSH     {r0-r2,r4-r7,lr}
        0x10001632:    b098        ..      SUB      sp,sp,#0x60
        0x10001634:    a807        ..      ADD      r0,sp,#0x1c
        0x10001636:    9002        ..      STR      r0,[sp,#8]
        0x10001638:    2040        @       MOVS     r0,#0x40
        0x1000163a:    9003        ..      STR      r0,[sp,#0xc]
        0x1000163c:    2000        .       MOVS     r0,#0
        0x1000163e:    460c        .F      MOV      r4,r1
        0x10001640:    9004        ..      STR      r0,[sp,#0x10]
        0x10001642:    9918        ..      LDR      r1,[sp,#0x60]
        0x10001644:    4615        .F      MOV      r5,r2
        0x10001646:    2608        .&      MOVS     r6,#8
        0x10001648:    9106        ..      STR      r1,[sp,#0x18]
        0x1000164a:    9005        ..      STR      r0,[sp,#0x14]
        0x1000164c:    7821        !x      LDRB     r1,[r4,#0]
        0x1000164e:    1c64        d.      ADDS     r4,r4,#1
        0x10001650:    2900        .)      CMP      r1,#0
        0x10001652:    d070        p.      BEQ      0x10001736 ; SEGGER_RTT_vprintf + 262
        0x10001654:    2925        %)      CMP      r1,#0x25
        0x10001656:    d007        ..      BEQ      0x10001668 ; SEGGER_RTT_vprintf + 56
        0x10001658:    a802        ..      ADD      r0,sp,#8
        0x1000165a:    f7ffff61    ..a.    BL       _StoreChar ; 0x10001520
        0x1000165e:    9805        ..      LDR      r0,[sp,#0x14]
        0x10001660:    2800        .(      CMP      r0,#0
        0x10001662:    daf3        ..      BGE      0x1000164c ; SEGGER_RTT_vprintf + 28
        0x10001664:    b01b        ..      ADD      sp,sp,#0x6c
        0x10001666:    bdf0        ..      POP      {r4-r7,pc}
        0x10001668:    2201        ."      MOVS     r2,#1
        0x1000166a:    2000        .       MOVS     r0,#0
        0x1000166c:    4613        .F      MOV      r3,r2
        0x1000166e:    2702        .'      MOVS     r7,#2
        0x10001670:    7821        !x      LDRB     r1,[r4,#0]
        0x10001672:    2923        #)      CMP      r1,#0x23
        0x10001674:    d01b        ..      BEQ      0x100016ae ; SEGGER_RTT_vprintf + 126
        0x10001676:    292b        +)      CMP      r1,#0x2b
        0x10001678:    d016        ..      BEQ      0x100016a8 ; SEGGER_RTT_vprintf + 120
        0x1000167a:    292d        -)      CMP      r1,#0x2d
        0x1000167c:    d002        ..      BEQ      0x10001684 ; SEGGER_RTT_vprintf + 84
        0x1000167e:    2930        0)      CMP      r1,#0x30
        0x10001680:    d106        ..      BNE      0x10001690 ; SEGGER_RTT_vprintf + 96
        0x10001682:    e001        ..      B        0x10001688 ; SEGGER_RTT_vprintf + 88
        0x10001684:    4318        .C      ORRS     r0,r0,r3
        0x10001686:    e000        ..      B        0x1000168a ; SEGGER_RTT_vprintf + 90
        0x10001688:    4338        8C      ORRS     r0,r0,r7
        0x1000168a:    1c64        d.      ADDS     r4,r4,#1
        0x1000168c:    2a00        .*      CMP      r2,#0
        0x1000168e:    d1ef        ..      BNE      0x10001670 ; SEGGER_RTT_vprintf + 64
        0x10001690:    2100        .!      MOVS     r1,#0
        0x10001692:    7822        "x      LDRB     r2,[r4,#0]
        0x10001694:    4613        .F      MOV      r3,r2
        0x10001696:    3b30        0;      SUBS     r3,r3,#0x30
        0x10001698:    2b0a        .+      CMP      r3,#0xa
        0x1000169a:    d20a        ..      BCS      0x100016b2 ; SEGGER_RTT_vprintf + 130
        0x1000169c:    230a        .#      MOVS     r3,#0xa
        0x1000169e:    4359        YC      MULS     r1,r3,r1
        0x100016a0:    1889        ..      ADDS     r1,r1,r2
        0x100016a2:    3930        09      SUBS     r1,r1,#0x30
        0x100016a4:    1c64        d.      ADDS     r4,r4,#1
        0x100016a6:    e7f4        ..      B        0x10001692 ; SEGGER_RTT_vprintf + 98
        0x100016a8:    2104        .!      MOVS     r1,#4
        0x100016aa:    4308        .C      ORRS     r0,r0,r1
        0x100016ac:    e7ed        ..      B        0x1000168a ; SEGGER_RTT_vprintf + 90
        0x100016ae:    4330        0C      ORRS     r0,r0,r6
        0x100016b0:    e7eb        ..      B        0x1000168a ; SEGGER_RTT_vprintf + 90
        0x100016b2:    2300        .#      MOVS     r3,#0
        0x100016b4:    b2d7        ..      UXTB     r7,r2
        0x100016b6:    2f2e        ./      CMP      r7,#0x2e
        0x100016b8:    d10a        ..      BNE      0x100016d0 ; SEGGER_RTT_vprintf + 160
        0x100016ba:    1c64        d.      ADDS     r4,r4,#1
        0x100016bc:    7822        "x      LDRB     r2,[r4,#0]
        0x100016be:    4617        .F      MOV      r7,r2
        0x100016c0:    3f30        0?      SUBS     r7,r7,#0x30
        0x100016c2:    2f0a        ./      CMP      r7,#0xa
        0x100016c4:    d204        ..      BCS      0x100016d0 ; SEGGER_RTT_vprintf + 160
        0x100016c6:    270a        .'      MOVS     r7,#0xa
        0x100016c8:    437b        {C      MULS     r3,r7,r3
        0x100016ca:    189b        ..      ADDS     r3,r3,r2
        0x100016cc:    3b30        0;      SUBS     r3,r3,#0x30
        0x100016ce:    e7f4        ..      B        0x100016ba ; SEGGER_RTT_vprintf + 138
        0x100016d0:    2a6c        l*      CMP      r2,#0x6c
        0x100016d2:    d00d        ..      BEQ      0x100016f0 ; SEGGER_RTT_vprintf + 192
        0x100016d4:    2a68        h*      CMP      r2,#0x68
        0x100016d6:    d00b        ..      BEQ      0x100016f0 ; SEGGER_RTT_vprintf + 192
        0x100016d8:    2a70        p*      CMP      r2,#0x70
        0x100016da:    d048        H.      BEQ      0x1000176e ; SEGGER_RTT_vprintf + 318
        0x100016dc:    dc0b        ..      BGT      0x100016f6 ; SEGGER_RTT_vprintf + 198
        0x100016de:    2a25        %*      CMP      r2,#0x25
        0x100016e0:    d04f        O.      BEQ      0x10001782 ; SEGGER_RTT_vprintf + 338
        0x100016e2:    2a58        X*      CMP      r2,#0x58
        0x100016e4:    d028        (.      BEQ      0x10001738 ; SEGGER_RTT_vprintf + 264
        0x100016e6:    2a63        c*      CMP      r2,#0x63
        0x100016e8:    d00c        ..      BEQ      0x10001704 ; SEGGER_RTT_vprintf + 212
        0x100016ea:    2a64        d*      CMP      r2,#0x64
        0x100016ec:    d14d        M.      BNE      0x1000178a ; SEGGER_RTT_vprintf + 346
        0x100016ee:    e00e        ..      B        0x1000170e ; SEGGER_RTT_vprintf + 222
        0x100016f0:    7862        bx      LDRB     r2,[r4,#1]
        0x100016f2:    1c64        d.      ADDS     r4,r4,#1
        0x100016f4:    e7ec        ..      B        0x100016d0 ; SEGGER_RTT_vprintf + 160
        0x100016f6:    2a73        s*      CMP      r2,#0x73
        0x100016f8:    d02a        *.      BEQ      0x10001750 ; SEGGER_RTT_vprintf + 288
        0x100016fa:    2a75        u*      CMP      r2,#0x75
        0x100016fc:    d013        ..      BEQ      0x10001726 ; SEGGER_RTT_vprintf + 246
        0x100016fe:    2a78        x*      CMP      r2,#0x78
        0x10001700:    d143        C.      BNE      0x1000178a ; SEGGER_RTT_vprintf + 346
        0x10001702:    e019        ..      B        0x10001738 ; SEGGER_RTT_vprintf + 264
        0x10001704:    6828        (h      LDR      r0,[r5,#0]
        0x10001706:    1d01        ..      ADDS     r1,r0,#4
        0x10001708:    6029        )`      STR      r1,[r5,#0]
        0x1000170a:    7801        .x      LDRB     r1,[r0,#0]
        0x1000170c:    e03a        :.      B        0x10001784 ; SEGGER_RTT_vprintf + 340
        0x1000170e:    682a        *h      LDR      r2,[r5,#0]
        0x10001710:    1d17        ..      ADDS     r7,r2,#4
        0x10001712:    602f        /`      STR      r7,[r5,#0]
        0x10001714:    6817        .h      LDR      r7,[r2,#0]
        0x10001716:    9100        ..      STR      r1,[sp,#0]
        0x10001718:    9001        ..      STR      r0,[sp,#4]
        0x1000171a:    220a        ."      MOVS     r2,#0xa
        0x1000171c:    4639        9F      MOV      r1,r7
        0x1000171e:    a802        ..      ADD      r0,sp,#8
        0x10001720:    f000f87b    ..{.    BL       _PrintInt ; 0x1000181a
        0x10001724:    e031        1.      B        0x1000178a ; SEGGER_RTT_vprintf + 346
        0x10001726:    682a        *h      LDR      r2,[r5,#0]
        0x10001728:    1d17        ..      ADDS     r7,r2,#4
        0x1000172a:    602f        /`      STR      r7,[r5,#0]
        0x1000172c:    6817        .h      LDR      r7,[r2,#0]
        0x1000172e:    220a        ."      MOVS     r2,#0xa
        0x10001730:    9100        ..      STR      r1,[sp,#0]
        0x10001732:    9001        ..      STR      r0,[sp,#4]
        0x10001734:    e007        ..      B        0x10001746 ; SEGGER_RTT_vprintf + 278
        0x10001736:    e02a        *.      B        0x1000178e ; SEGGER_RTT_vprintf + 350
        0x10001738:    682a        *h      LDR      r2,[r5,#0]
        0x1000173a:    1d17        ..      ADDS     r7,r2,#4
        0x1000173c:    602f        /`      STR      r7,[r5,#0]
        0x1000173e:    6817        .h      LDR      r7,[r2,#0]
        0x10001740:    2210        ."      MOVS     r2,#0x10
        0x10001742:    9100        ..      STR      r1,[sp,#0]
        0x10001744:    9001        ..      STR      r0,[sp,#4]
        0x10001746:    4639        9F      MOV      r1,r7
        0x10001748:    a802        ..      ADD      r0,sp,#8
        0x1000174a:    f7ffff08    ....    BL       _PrintUnsigned ; 0x1000155e
        0x1000174e:    e01c        ..      B        0x1000178a ; SEGGER_RTT_vprintf + 346
        0x10001750:    6828        (h      LDR      r0,[r5,#0]
        0x10001752:    1d01        ..      ADDS     r1,r0,#4
        0x10001754:    6029        )`      STR      r1,[r5,#0]
        0x10001756:    6807        .h      LDR      r7,[r0,#0]
        0x10001758:    7839        9x      LDRB     r1,[r7,#0]
        0x1000175a:    1c7f        ..      ADDS     r7,r7,#1
        0x1000175c:    2900        .)      CMP      r1,#0
        0x1000175e:    d014        ..      BEQ      0x1000178a ; SEGGER_RTT_vprintf + 346
        0x10001760:    a802        ..      ADD      r0,sp,#8
        0x10001762:    f7fffedd    ....    BL       _StoreChar ; 0x10001520
        0x10001766:    9805        ..      LDR      r0,[sp,#0x14]
        0x10001768:    2800        .(      CMP      r0,#0
        0x1000176a:    daf5        ..      BGE      0x10001758 ; SEGGER_RTT_vprintf + 296
        0x1000176c:    e00d        ..      B        0x1000178a ; SEGGER_RTT_vprintf + 346
        0x1000176e:    6828        (h      LDR      r0,[r5,#0]
        0x10001770:    2308        .#      MOVS     r3,#8
        0x10001772:    1d01        ..      ADDS     r1,r0,#4
        0x10001774:    6029        )`      STR      r1,[r5,#0]
        0x10001776:    6801        .h      LDR      r1,[r0,#0]
        0x10001778:    2000        .       MOVS     r0,#0
        0x1000177a:    2210        ."      MOVS     r2,#0x10
        0x1000177c:    9600        ..      STR      r6,[sp,#0]
        0x1000177e:    9001        ..      STR      r0,[sp,#4]
        0x10001780:    e7e2        ..      B        0x10001748 ; SEGGER_RTT_vprintf + 280
        0x10001782:    2125        %!      MOVS     r1,#0x25
        0x10001784:    a802        ..      ADD      r0,sp,#8
        0x10001786:    f7fffecb    ....    BL       _StoreChar ; 0x10001520
        0x1000178a:    1c64        d.      ADDS     r4,r4,#1
        0x1000178c:    e767        g.      B        0x1000165e ; SEGGER_RTT_vprintf + 46
        0x1000178e:    2800        .(      CMP      r0,#0
        0x10001790:    dc00        ..      BGT      0x10001794 ; SEGGER_RTT_vprintf + 356
        0x10001792:    e767        g.      B        0x10001664 ; SEGGER_RTT_vprintf + 52
        0x10001794:    9804        ..      LDR      r0,[sp,#0x10]
        0x10001796:    2800        .(      CMP      r0,#0
        0x10001798:    d004        ..      BEQ      0x100017a4 ; SEGGER_RTT_vprintf + 372
        0x1000179a:    4602        .F      MOV      r2,r0
        0x1000179c:    a907        ..      ADD      r1,sp,#0x1c
        0x1000179e:    9818        ..      LDR      r0,[sp,#0x60]
        0x100017a0:    f7fffe8a    ....    BL       SEGGER_RTT_Write ; 0x100014b8
        0x100017a4:    9904        ..      LDR      r1,[sp,#0x10]
        0x100017a6:    9805        ..      LDR      r0,[sp,#0x14]
        0x100017a8:    1840        @.      ADDS     r0,r0,r1
        0x100017aa:    9005        ..      STR      r0,[sp,#0x14]
        0x100017ac:    e75a        Z.      B        0x10001664 ; SEGGER_RTT_vprintf + 52
    SEGGER_RTT_printf
        0x100017ae:    b40f        ..      PUSH     {r0-r3}
        0x100017b0:    b508        ..      PUSH     {r3,lr}
        0x100017b2:    a904        ..      ADD      r1,sp,#0x10
        0x100017b4:    9100        ..      STR      r1,[sp,#0]
        0x100017b6:    466a        jF      MOV      r2,sp
        0x100017b8:    9903        ..      LDR      r1,[sp,#0xc]
        0x100017ba:    f7ffff39    ..9.    BL       SEGGER_RTT_vprintf ; 0x10001630
        0x100017be:    b001        ..      ADD      sp,sp,#4
        0x100017c0:    bc08        ..      POP      {r3}
        0x100017c2:    b004        ..      ADD      sp,sp,#0x10
        0x100017c4:    4718        .G      BX       r3
    SEGGER_RTT_hexdump
        0x100017c6:    b5ff        ..      PUSH     {r0-r7,lr}
        0x100017c8:    2400        .$      MOVS     r4,#0
        0x100017ca:    b081        ..      SUB      sp,sp,#4
        0x100017cc:    461d        .F      MOV      r5,r3
        0x100017ce:    4616        .F      MOV      r6,r2
        0x100017d0:    2900        .)      CMP      r1,#0
        0x100017d2:    d002        ..      BEQ      0x100017da ; SEGGER_RTT_hexdump + 20
        0x100017d4:    9801        ..      LDR      r0,[sp,#4]
        0x100017d6:    f7ffffea    ....    BL       SEGGER_RTT_printf ; 0x100017ae
        0x100017da:    2701        .'      MOVS     r7,#1
        0x100017dc:    077f        ..      LSLS     r7,r7,#29
        0x100017de:    e013        ..      B        0x10001808 ; SEGGER_RTT_hexdump + 66
        0x100017e0:    0760        `.      LSLS     r0,r4,#29
        0x100017e2:    d104        ..      BNE      0x100017ee ; SEGGER_RTT_hexdump + 40
        0x100017e4:    b2a2        ..      UXTH     r2,r4
        0x100017e6:    a140        @.      ADR      r1,{pc}+0x102 ; 0x100018e8
        0x100017e8:    9801        ..      LDR      r0,[sp,#4]
        0x100017ea:    f7ffffe0    ....    BL       SEGGER_RTT_printf ; 0x100017ae
        0x100017ee:    5d32        2]      LDRB     r2,[r6,r4]
        0x100017f0:    a13f        ?.      ADR      r1,{pc}+0x100 ; 0x100018f0
        0x100017f2:    9801        ..      LDR      r0,[sp,#4]
        0x100017f4:    f7ffffdb    ....    BL       SEGGER_RTT_printf ; 0x100017ae
        0x100017f8:    0760        `.      LSLS     r0,r4,#29
        0x100017fa:    42f8        .B      CMN      r0,r7
        0x100017fc:    d103        ..      BNE      0x10001806 ; SEGGER_RTT_hexdump + 64
        0x100017fe:    a13e        >.      ADR      r1,{pc}+0xfa ; 0x100018f8
        0x10001800:    9801        ..      LDR      r0,[sp,#4]
        0x10001802:    f7ffffd4    ....    BL       SEGGER_RTT_printf ; 0x100017ae
        0x10001806:    1c64        d.      ADDS     r4,r4,#1
        0x10001808:    42ac        .B      CMP      r4,r5
        0x1000180a:    dbe9        ..      BLT      0x100017e0 ; SEGGER_RTT_hexdump + 26
        0x1000180c:    0760        `.      LSLS     r0,r4,#29
        0x1000180e:    d003        ..      BEQ      0x10001818 ; SEGGER_RTT_hexdump + 82
        0x10001810:    a139        9.      ADR      r1,{pc}+0xe8 ; 0x100018f8
        0x10001812:    9801        ..      LDR      r0,[sp,#4]
        0x10001814:    f7ffffcb    ....    BL       SEGGER_RTT_printf ; 0x100017ae
        0x10001818:    e708        ..      B        0x1000162c ; _PrintUnsigned + 206
    _PrintInt
        0x1000181a:    b5ff        ..      PUSH     {r0-r7,lr}
        0x1000181c:    b083        ..      SUB      sp,sp,#0xc
        0x1000181e:    460e        .F      MOV      r6,r1
        0x10001820:    4270        pB      RSBS     r0,r6,#0
        0x10001822:    9f0d        ..      LDR      r7,[sp,#0x34]
        0x10001824:    9c0c        ..      LDR      r4,[sp,#0x30]
        0x10001826:    9000        ..      STR      r0,[sp,#0]
        0x10001828:    2900        .)      CMP      r1,#0
        0x1000182a:    db00        ..      BLT      0x1000182e ; _PrintInt + 20
        0x1000182c:    4608        .F      MOV      r0,r1
        0x1000182e:    2501        .%      MOVS     r5,#1
        0x10001830:    e002        ..      B        0x10001838 ; _PrintInt + 30
        0x10001832:    f002fcd3    ....    BL       __aeabi_idiv ; 0x100041dc
        0x10001836:    1c6d        m.      ADDS     r5,r5,#1
        0x10001838:    9905        ..      LDR      r1,[sp,#0x14]
        0x1000183a:    4288        .B      CMP      r0,r1
        0x1000183c:    daf9        ..      BGE      0x10001832 ; _PrintInt + 24
        0x1000183e:    9806        ..      LDR      r0,[sp,#0x18]
        0x10001840:    42a8        .B      CMP      r0,r5
        0x10001842:    d900        ..      BLS      0x10001846 ; _PrintInt + 44
        0x10001844:    4605        .F      MOV      r5,r0
        0x10001846:    2c00        .,      CMP      r4,#0
        0x10001848:    d004        ..      BEQ      0x10001854 ; _PrintInt + 58
        0x1000184a:    2e00        ..      CMP      r6,#0
        0x1000184c:    db01        ..      BLT      0x10001852 ; _PrintInt + 56
        0x1000184e:    0778        x.      LSLS     r0,r7,#29
        0x10001850:    d500        ..      BPL      0x10001854 ; _PrintInt + 58
        0x10001852:    1e64        d.      SUBS     r4,r4,#1
        0x10001854:    07b8        ..      LSLS     r0,r7,#30
        0x10001856:    d502        ..      BPL      0x1000185e ; _PrintInt + 68
        0x10001858:    9806        ..      LDR      r0,[sp,#0x18]
        0x1000185a:    2800        .(      CMP      r0,#0
        0x1000185c:    d010        ..      BEQ      0x10001880 ; _PrintInt + 102
        0x1000185e:    07f8        ..      LSLS     r0,r7,#31
        0x10001860:    d10e        ..      BNE      0x10001880 ; _PrintInt + 102
        0x10001862:    2c00        .,      CMP      r4,#0
        0x10001864:    d00c        ..      BEQ      0x10001880 ; _PrintInt + 102
        0x10001866:    42a5        .B      CMP      r5,r4
        0x10001868:    d20a        ..      BCS      0x10001880 ; _PrintInt + 102
        0x1000186a:    2120         !      MOVS     r1,#0x20
        0x1000186c:    1e64        d.      SUBS     r4,r4,#1
        0x1000186e:    9803        ..      LDR      r0,[sp,#0xc]
        0x10001870:    f7fffe56    ..V.    BL       _StoreChar ; 0x10001520
        0x10001874:    9803        ..      LDR      r0,[sp,#0xc]
        0x10001876:    68c0        .h      LDR      r0,[r0,#0xc]
        0x10001878:    2800        .(      CMP      r0,#0
        0x1000187a:    daf2        ..      BGE      0x10001862 ; _PrintInt + 72
        0x1000187c:    b007        ..      ADD      sp,sp,#0x1c
        0x1000187e:    bdf0        ..      POP      {r4-r7,pc}
        0x10001880:    9803        ..      LDR      r0,[sp,#0xc]
        0x10001882:    68c0        .h      LDR      r0,[r0,#0xc]
        0x10001884:    2800        .(      CMP      r0,#0
        0x10001886:    dbf9        ..      BLT      0x1000187c ; _PrintInt + 98
        0x10001888:    2e00        ..      CMP      r6,#0
        0x1000188a:    da02        ..      BGE      0x10001892 ; _PrintInt + 120
        0x1000188c:    212d        -!      MOVS     r1,#0x2d
        0x1000188e:    9e00        ..      LDR      r6,[sp,#0]
        0x10001890:    e002        ..      B        0x10001898 ; _PrintInt + 126
        0x10001892:    0778        x.      LSLS     r0,r7,#29
        0x10001894:    d507        ..      BPL      0x100018a6 ; _PrintInt + 140
        0x10001896:    212b        +!      MOVS     r1,#0x2b
        0x10001898:    9803        ..      LDR      r0,[sp,#0xc]
        0x1000189a:    f7fffe41    ..A.    BL       _StoreChar ; 0x10001520
        0x1000189e:    9803        ..      LDR      r0,[sp,#0xc]
        0x100018a0:    68c0        .h      LDR      r0,[r0,#0xc]
        0x100018a2:    2800        .(      CMP      r0,#0
        0x100018a4:    dbea        ..      BLT      0x1000187c ; _PrintInt + 98
        0x100018a6:    07b8        ..      LSLS     r0,r7,#30
        0x100018a8:    0f80        ..      LSRS     r0,r0,#30
        0x100018aa:    2802        .(      CMP      r0,#2
        0x100018ac:    d110        ..      BNE      0x100018d0 ; _PrintInt + 182
        0x100018ae:    9806        ..      LDR      r0,[sp,#0x18]
        0x100018b0:    2800        .(      CMP      r0,#0
        0x100018b2:    d10d        ..      BNE      0x100018d0 ; _PrintInt + 182
        0x100018b4:    2c00        .,      CMP      r4,#0
        0x100018b6:    d00b        ..      BEQ      0x100018d0 ; _PrintInt + 182
        0x100018b8:    42a5        .B      CMP      r5,r4
        0x100018ba:    d209        ..      BCS      0x100018d0 ; _PrintInt + 182
        0x100018bc:    2130        0!      MOVS     r1,#0x30
        0x100018be:    1e64        d.      SUBS     r4,r4,#1
        0x100018c0:    9803        ..      LDR      r0,[sp,#0xc]
        0x100018c2:    f7fffe2d    ..-.    BL       _StoreChar ; 0x10001520
        0x100018c6:    9803        ..      LDR      r0,[sp,#0xc]
        0x100018c8:    68c0        .h      LDR      r0,[r0,#0xc]
        0x100018ca:    2800        .(      CMP      r0,#0
        0x100018cc:    daf2        ..      BGE      0x100018b4 ; _PrintInt + 154
        0x100018ce:    e7d5        ..      B        0x1000187c ; _PrintInt + 98
        0x100018d0:    9701        ..      STR      r7,[sp,#4]
        0x100018d2:    9400        ..      STR      r4,[sp,#0]
        0x100018d4:    4631        1F      MOV      r1,r6
        0x100018d6:    9b06        ..      LDR      r3,[sp,#0x18]
        0x100018d8:    9a05        ..      LDR      r2,[sp,#0x14]
        0x100018da:    9803        ..      LDR      r0,[sp,#0xc]
        0x100018dc:    f7fffe3f    ..?.    BL       _PrintUnsigned ; 0x1000155e
        0x100018e0:    e7cc        ..      B        0x1000187c ; _PrintInt + 98
    $d
        0x100018e2:    0000        ..      DCW    0
        0x100018e4:    10004946    FI..    DCD    268454214
        0x100018e8:    3430255b    [%04    DCD    875570523
        0x100018ec:    00205d78    x] .    DCD    2121080
        0x100018f0:    78323025    %02x    DCD    2016555045
        0x100018f4:    00000020     ...    DCD    32
        0x100018f8:    00000a0d    ....    DCD    2573
    $t
    .text
    Reset_Handler
        0x100018fc:    4804        .H      LDR      r0,[pc,#16] ; [0x10001910] = 0x10001919
        0x100018fe:    4780        .G      BLX      r0
        0x10001900:    4804        .H      LDR      r0,[pc,#16] ; [0x10001914] = 0x100000c1
        0x10001902:    4700        .G      BX       r0
    NMI_Handler
        0x10001904:    e7fe        ..      B        NMI_Handler ; 0x10001904
        0x10001906:    e7fe        ..      B        0x10001906 ; NMI_Handler + 2
    SVC_Handler
        0x10001908:    e7fe        ..      B        SVC_Handler ; 0x10001908
    PendSV_Handler
        0x1000190a:    e7fe        ..      B        PendSV_Handler ; 0x1000190a
    SysTick_Handler
        0x1000190c:    e7fe        ..      B        SysTick_Handler ; 0x1000190c
    CAP_IRQHandler
    GPADC_IRQHandler
    HID_IRQHandler
    HPWM_IRQHandler
    HTIMER_IRQHandler
    I2C0_IRQHandler
    I2C1_IRQHandler
    IR_Rx_IRQHandler
    IR_Tx_IRQHandler
    ISO_7816_IRQHandler
    LLC2_IRQHandler
    LLC_IRQHandler
    SPIM_IRQHandler
    SW_IRQHandler
    TIMER3_IRQHandler
    TOUCH_IRQHandler
        0x1000190e:    e7fe        ..      B        CAP_IRQHandler ; 0x1000190e
    $d
        0x10001910:    10001919    ....    DCD    268441881
        0x10001914:    100000c1    ....    DCD    268435649
    $t
    .text
    SystemInit
        0x10001918:    4902        .I      LDR      r1,[pc,#8] ; [0x10001924] = 0x200030ac
        0x1000191a:    4801        .H      LDR      r0,[pc,#4] ; [0x10001920] = 0xf42400
        0x1000191c:    6008        .`      STR      r0,[r1,#0]
        0x1000191e:    4770        pG      BX       lr
    $d
        0x10001920:    00f42400    .$..    DCD    16000000
        0x10001924:    200030ac    .0.     DCD    536883372
    $t
    .text
    _LCDisConnect
        0x10001928:    b5f1        ..      PUSH     {r0,r4-r7,lr}
        0x1000192a:    48f8        .H      LDR      r0,[pc,#992] ; [0x10001d0c] = 0x65bf
        0x1000192c:    4780        .G      BLX      r0
        0x1000192e:    4607        .F      MOV      r7,r0
        0x10001930:    48f7        .H      LDR      r0,[pc,#988] ; [0x10001d10] = 0x6a77
        0x10001932:    4780        .G      BLX      r0
        0x10001934:    4606        .F      MOV      r6,r0
        0x10001936:    4cf5        .L      LDR      r4,[pc,#980] ; [0x10001d0c] = 0x65bf
        0x10001938:    2001        .       MOVS     r0,#1
        0x1000193a:    3c18        .<      SUBS     r4,r4,#0x18
        0x1000193c:    47a0        .G      BLX      r4
        0x1000193e:    4df4        .M      LDR      r5,[pc,#976] ; [0x10001d10] = 0x6a77
        0x10001940:    2000        .       MOVS     r0,#0
        0x10001942:    350c        .5      ADDS     r5,r5,#0xc
        0x10001944:    47a8        .G      BLX      r5
        0x10001946:    49f3        .I      LDR      r1,[pc,#972] ; [0x10001d14] = 0x16cf
        0x10001948:    9800        ..      LDR      r0,[sp,#0]
        0x1000194a:    4788        .G      BLX      r1
        0x1000194c:    4630        0F      MOV      r0,r6
        0x1000194e:    47a8        .G      BLX      r5
        0x10001950:    4638        8F      MOV      r0,r7
        0x10001952:    47a0        .G      BLX      r4
        0x10001954:    bdf8        ..      POP      {r3-r7,pc}
    _LCTimer_Handler
        0x10001956:    b5f0        ..      PUSH     {r4-r7,lr}
        0x10001958:    4def        .M      LDR      r5,[pc,#956] ; [0x10001d18] = 0x200030b0
        0x1000195a:    48f0        .H      LDR      r0,[pc,#960] ; [0x10001d1c] = 0x3ce
        0x1000195c:    68a9        .h      LDR      r1,[r5,#8]
        0x1000195e:    b085        ..      SUB      sp,sp,#0x14
        0x10001960:    1808        ..      ADDS     r0,r1,r0
        0x10001962:    4604        .F      MOV      r4,r0
        0x10001964:    f002fc7b    ..{.    BL       __aeabi_uread4 ; 0x1000425e
        0x10001968:    4621        !F      MOV      r1,r4
        0x1000196a:    1c40        @.      ADDS     r0,r0,#1
        0x1000196c:    f002fc81    ....    BL       __aeabi_uwrite4 ; 0x10004272
        0x10001970:    2400        .$      MOVS     r4,#0
        0x10001972:    48e9        .H      LDR      r0,[pc,#932] ; [0x10001d18] = 0x200030b0
        0x10001974:    2501        .%      MOVS     r5,#1
        0x10001976:    6886        .h      LDR      r6,[r0,#8]
        0x10001978:    48e8        .H      LDR      r0,[pc,#928] ; [0x10001d1c] = 0x3ce
        0x1000197a:    380c        .8      SUBS     r0,r0,#0xc
        0x1000197c:    1831        1.      ADDS     r1,r6,r0
        0x1000197e:    9103        ..      STR      r1,[sp,#0xc]
        0x10001980:    7c48        H|      LDRB     r0,[r1,#0x11]
        0x10001982:    7c09        .|      LDRB     r1,[r1,#0x10]
        0x10001984:    0200        ..      LSLS     r0,r0,#8
        0x10001986:    4308        .C      ORRS     r0,r0,r1
        0x10001988:    40a5        .@      LSLS     r5,r5,r4
        0x1000198a:    4228        (B      TST      r0,r5
        0x1000198c:    9002        ..      STR      r0,[sp,#8]
        0x1000198e:    d03b        ;.      BEQ      0x10001a08 ; _LCTimer_Handler + 178
        0x10001990:    200b        .       MOVS     r0,#0xb
        0x10001992:    4360        `C      MULS     r0,r4,r0
        0x10001994:    1981        ..      ADDS     r1,r0,r6
        0x10001996:    48e1        .H      LDR      r0,[pc,#900] ; [0x10001d1c] = 0x3ce
        0x10001998:    9100        ..      STR      r1,[sp,#0]
        0x1000199a:    3009        .0      ADDS     r0,r0,#9
        0x1000199c:    1808        ..      ADDS     r0,r1,r0
        0x1000199e:    9001        ..      STR      r0,[sp,#4]
        0x100019a0:    f002fc5d    ..].    BL       __aeabi_uread4 ; 0x1000425e
        0x100019a4:    4607        .F      MOV      r7,r0
        0x100019a6:    48dd        .H      LDR      r0,[pc,#884] ; [0x10001d1c] = 0x3ce
        0x100019a8:    1830        0.      ADDS     r0,r6,r0
        0x100019aa:    f002fc58    ..X.    BL       __aeabi_uread4 ; 0x1000425e
        0x100019ae:    4287        .B      CMP      r7,r0
        0x100019b0:    d12a        *.      BNE      0x10001a08 ; _LCTimer_Handler + 178
        0x100019b2:    210f        .!      MOVS     r1,#0xf
        0x100019b4:    9800        ..      LDR      r0,[sp,#0]
        0x100019b6:    0189        ..      LSLS     r1,r1,#6
        0x100019b8:    1840        @.      ADDS     r0,r0,r1
        0x100019ba:    7d00        .}      LDRB     r0,[r0,#0x14]
        0x100019bc:    2800        .(      CMP      r0,#0
        0x100019be:    d00c        ..      BEQ      0x100019da ; _LCTimer_Handler + 132
        0x100019c0:    4ad6        .J      LDR      r2,[pc,#856] ; [0x10001d1c] = 0x3ce
        0x100019c2:    9900        ..      LDR      r1,[sp,#0]
        0x100019c4:    3a0d        .:      SUBS     r2,r2,#0xd
        0x100019c6:    188a        ..      ADDS     r2,r1,r2
        0x100019c8:    7d51        Q}      LDRB     r1,[r2,#0x15]
        0x100019ca:    7d12        .}      LDRB     r2,[r2,#0x14]
        0x100019cc:    0209        ..      LSLS     r1,r1,#8
        0x100019ce:    4311        .C      ORRS     r1,r1,r2
        0x100019d0:    1878        x.      ADDS     r0,r7,r1
        0x100019d2:    9901        ..      LDR      r1,[sp,#4]
        0x100019d4:    f002fc4d    ..M.    BL       __aeabi_uwrite4 ; 0x10004272
        0x100019d8:    e005        ..      B        0x100019e6 ; _LCTimer_Handler + 144
        0x100019da:    9802        ..      LDR      r0,[sp,#8]
        0x100019dc:    9903        ..      LDR      r1,[sp,#0xc]
        0x100019de:    43a8        .C      BICS     r0,r0,r5
        0x100019e0:    7408        .t      STRB     r0,[r1,#0x10]
        0x100019e2:    0a00        ..      LSRS     r0,r0,#8
        0x100019e4:    7448        Ht      STRB     r0,[r1,#0x11]
        0x100019e6:    48cd        .H      LDR      r0,[pc,#820] ; [0x10001d1c] = 0x3ce
        0x100019e8:    9900        ..      LDR      r1,[sp,#0]
        0x100019ea:    300d        .0      ADDS     r0,r0,#0xd
        0x100019ec:    1808        ..      ADDS     r0,r1,r0
        0x100019ee:    f002fc36    ..6.    BL       __aeabi_uread4 ; 0x1000425e
        0x100019f2:    2800        .(      CMP      r0,#0
        0x100019f4:    d008        ..      BEQ      0x10001a08 ; _LCTimer_Handler + 178
        0x100019f6:    2d02        .-      CMP      r5,#2
        0x100019f8:    d019        ..      BEQ      0x10001a2e ; _LCTimer_Handler + 216
        0x100019fa:    2d04        .-      CMP      r5,#4
        0x100019fc:    d017        ..      BEQ      0x10001a2e ; _LCTimer_Handler + 216
        0x100019fe:    2d08        .-      CMP      r5,#8
        0x10001a00:    d015        ..      BEQ      0x10001a2e ; _LCTimer_Handler + 216
        0x10001a02:    2d10        .-      CMP      r5,#0x10
        0x10001a04:    d01a        ..      BEQ      0x10001a3c ; _LCTimer_Handler + 230
        0x10001a06:    4780        .G      BLX      r0
        0x10001a08:    1c64        d.      ADDS     r4,r4,#1
        0x10001a0a:    b2e4        ..      UXTB     r4,r4
        0x10001a0c:    2c0a        .,      CMP      r4,#0xa
        0x10001a0e:    d3b0        ..      BCC      0x10001972 ; _LCTimer_Handler + 28
        0x10001a10:    48c1        .H      LDR      r0,[pc,#772] ; [0x10001d18] = 0x200030b0
        0x10001a12:    6881        .h      LDR      r1,[r0,#8]
        0x10001a14:    48c1        .H      LDR      r0,[pc,#772] ; [0x10001d1c] = 0x3ce
        0x10001a16:    380c        .8      SUBS     r0,r0,#0xc
        0x10001a18:    1809        ..      ADDS     r1,r1,r0
        0x10001a1a:    7c48        H|      LDRB     r0,[r1,#0x11]
        0x10001a1c:    7c09        .|      LDRB     r1,[r1,#0x10]
        0x10001a1e:    0200        ..      LSLS     r0,r0,#8
        0x10001a20:    4308        .C      ORRS     r0,r0,r1
        0x10001a22:    0580        ..      LSLS     r0,r0,#22
        0x10001a24:    d101        ..      BNE      0x10001a2a ; _LCTimer_Handler + 212
        0x10001a26:    48be        .H      LDR      r0,[pc,#760] ; [0x10001d20] = 0x1201
        0x10001a28:    4780        .G      BLX      r0
        0x10001a2a:    b005        ..      ADD      sp,sp,#0x14
        0x10001a2c:    bdf0        ..      POP      {r4-r7,pc}
        0x10001a2e:    49bd        .I      LDR      r1,[pc,#756] ; [0x10001d24] = 0xaf5
        0x10001a30:    2001        .       MOVS     r0,#1
        0x10001a32:    4788        .G      BLX      r1
        0x10001a34:    2800        .(      CMP      r0,#0
        0x10001a36:    d0e7        ..      BEQ      0x10001a08 ; _LCTimer_Handler + 178
        0x10001a38:    2022        "       MOVS     r0,#0x22
        0x10001a3a:    e005        ..      B        0x10001a48 ; _LCTimer_Handler + 242
        0x10001a3c:    49b9        .I      LDR      r1,[pc,#740] ; [0x10001d24] = 0xaf5
        0x10001a3e:    2001        .       MOVS     r0,#1
        0x10001a40:    4788        .G      BLX      r1
        0x10001a42:    2800        .(      CMP      r0,#0
        0x10001a44:    d0e0        ..      BEQ      0x10001a08 ; _LCTimer_Handler + 178
        0x10001a46:    203b        ;       MOVS     r0,#0x3b
        0x10001a48:    f7ffff6e    ..n.    BL       _LCDisConnect ; 0x10001928
        0x10001a4c:    e7dc        ..      B        0x10001a08 ; _LCTimer_Handler + 178
    _LCRxPkt_Handler
        0x10001a4e:    b5f0        ..      PUSH     {r4-r7,lr}
        0x10001a50:    b085        ..      SUB      sp,sp,#0x14
        0x10001a52:    2000        .       MOVS     r0,#0
        0x10001a54:    4669        iF      MOV      r1,sp
        0x10001a56:    7308        .s      STRB     r0,[r1,#0xc]
        0x10001a58:    7208        .r      STRB     r0,[r1,#8]
        0x10001a5a:    4fb3        .O      LDR      r7,[pc,#716] ; [0x10001d28] = 0x5749
        0x10001a5c:    7408        .t      STRB     r0,[r1,#0x10]
        0x10001a5e:    4eb3        .N      LDR      r6,[pc,#716] ; [0x10001d2c] = 0x1979
        0x10001a60:    4cad        .L      LDR      r4,[pc,#692] ; [0x10001d18] = 0x200030b0
        0x10001a62:    47b8        .G      BLX      r7
        0x10001a64:    9001        ..      STR      r0,[sp,#4]
        0x10001a66:    ab04        ..      ADD      r3,sp,#0x10
        0x10001a68:    aa02        ..      ADD      r2,sp,#8
        0x10001a6a:    a903        ..      ADD      r1,sp,#0xc
        0x10001a6c:    6920         i      LDR      r0,[r4,#0x10]
        0x10001a6e:    f001fdf7    ....    BL       _BBRXFIFORead ; 0x10003660
        0x10001a72:    2800        .(      CMP      r0,#0
        0x10001a74:    d0d9        ..      BEQ      0x10001a2a ; _LCTimer_Handler + 212
        0x10001a76:    2008        .       MOVS     r0,#8
        0x10001a78:    47b0        .G      BLX      r6
        0x10001a7a:    2800        .(      CMP      r0,#0
        0x10001a7c:    d003        ..      BEQ      0x10001a86 ; _LCRxPkt_Handler + 56
        0x10001a7e:    2002        .       MOVS     r0,#2
        0x10001a80:    47b0        .G      BLX      r6
        0x10001a82:    2800        .(      CMP      r0,#0
        0x10001a84:    d00f        ..      BEQ      0x10001aa6 ; _LCRxPkt_Handler + 88
        0x10001a86:    4668        hF      MOV      r0,sp
        0x10001a88:    7a00        .z      LDRB     r0,[r0,#8]
        0x10001a8a:    2801        .(      CMP      r0,#1
        0x10001a8c:    d011        ..      BEQ      0x10001ab2 ; _LCRxPkt_Handler + 100
        0x10001a8e:    68a0        .h      LDR      r0,[r4,#8]
        0x10001a90:    6925        %i      LDR      r5,[r4,#0x10]
        0x10001a92:    7a40        @z      LDRB     r0,[r0,#9]
        0x10001a94:    2801        .(      CMP      r0,#1
        0x10001a96:    d026        &.      BEQ      0x10001ae6 ; _LCRxPkt_Handler + 152
        0x10001a98:    2802        .(      CMP      r0,#2
        0x10001a9a:    d1e2        ..      BNE      0x10001a62 ; _LCRxPkt_Handler + 20
        0x10001a9c:    4aa4        .J      LDR      r2,[pc,#656] ; [0x10001d30] = 0x1e8b
        0x10001a9e:    4628        (F      MOV      r0,r5
        0x10001aa0:    9901        ..      LDR      r1,[sp,#4]
        0x10001aa2:    4790        .G      BLX      r2
        0x10001aa4:    e7dd        ..      B        0x10001a62 ; _LCRxPkt_Handler + 20
        0x10001aa6:    2101        .!      MOVS     r1,#1
        0x10001aa8:    4668        hF      MOV      r0,sp
        0x10001aaa:    7201        .r      STRB     r1,[r0,#8]
        0x10001aac:    7c00        .|      LDRB     r0,[r0,#0x10]
        0x10001aae:    2800        .(      CMP      r0,#0
        0x10001ab0:    d015        ..      BEQ      0x10001ade ; _LCRxPkt_Handler + 144
        0x10001ab2:    2125        %!      MOVS     r1,#0x25
        0x10001ab4:    68a0        .h      LDR      r0,[r4,#8]
        0x10001ab6:    0149        I.      LSLS     r1,r1,#5
        0x10001ab8:    1841        A.      ADDS     r1,r0,r1
        0x10001aba:    7b49        I{      LDRB     r1,[r1,#0xd]
        0x10001abc:    2900        .)      CMP      r1,#0
        0x10001abe:    d008        ..      BEQ      0x10001ad2 ; _LCRxPkt_Handler + 132
        0x10001ac0:    4996        .I      LDR      r1,[pc,#600] ; [0x10001d1c] = 0x3ce
        0x10001ac2:    31d4        .1      ADDS     r1,r1,#0xd4
        0x10001ac4:    1840        @.      ADDS     r0,r0,r1
        0x10001ac6:    7b41        A{      LDRB     r1,[r0,#0xd]
        0x10001ac8:    7b02        .{      LDRB     r2,[r0,#0xc]
        0x10001aca:    0208        ..      LSLS     r0,r1,#8
        0x10001acc:    4999        .I      LDR      r1,[pc,#612] ; [0x10001d34] = 0x622b
        0x10001ace:    4310        .C      ORRS     r0,r0,r2
        0x10001ad0:    4788        .G      BLX      r1
        0x10001ad2:    4668        hF      MOV      r0,sp
        0x10001ad4:    4a96        .J      LDR      r2,[pc,#600] ; [0x10001d30] = 0x1e8b
        0x10001ad6:    7b01        .{      LDRB     r1,[r0,#0xc]
        0x10001ad8:    3296        .2      ADDS     r2,r2,#0x96
        0x10001ada:    6920         i      LDR      r0,[r4,#0x10]
        0x10001adc:    e7e1        ..      B        0x10001aa2 ; _LCRxPkt_Handler + 84
        0x10001ade:    203d        =       MOVS     r0,#0x3d
        0x10001ae0:    f7ffff22    ..".    BL       _LCDisConnect ; 0x10001928
        0x10001ae4:    e7a1        ..      B        0x10001a2a ; _LCTimer_Handler + 212
        0x10001ae6:    7828        (x      LDRB     r0,[r5,#0]
        0x10001ae8:    0700        ..      LSLS     r0,r0,#28
        0x10001aea:    0f00        ..      LSRS     r0,r0,#28
        0x10001aec:    2805        .(      CMP      r0,#5
        0x10001aee:    d1b8        ..      BNE      0x10001a62 ; _LCRxPkt_Handler + 20
        0x10001af0:    498d        .I      LDR      r1,[pc,#564] ; [0x10001d28] = 0x5749
        0x10001af2:    31ee        .1      ADDS     r1,r1,#0xee
        0x10001af4:    1ca8        ..      ADDS     r0,r5,#2
        0x10001af6:    4788        .G      BLX      r1
        0x10001af8:    7828        (x      LDRB     r0,[r5,#0]
        0x10001afa:    2287        ."      MOVS     r2,#0x87
        0x10001afc:    0640        @.      LSLS     r0,r0,#25
        0x10001afe:    0fc1        ..      LSRS     r1,r0,#31
        0x10001b00:    68a0        .h      LDR      r0,[r4,#8]
        0x10001b02:    5411        .T      STRB     r1,[r2,r0]
        0x10001b04:    2206        ."      MOVS     r2,#6
        0x10001b06:    1ca9        ..      ADDS     r1,r5,#2
        0x10001b08:    3088        .0      ADDS     r0,r0,#0x88
        0x10001b0a:    f002fb7b    ..{.    BL       __aeabi_memcpy ; 0x10004204
        0x10001b0e:    2137        7!      MOVS     r1,#0x37
        0x10001b10:    68e0        .h      LDR      r0,[r4,#0xc]
        0x10001b12:    f002fb90    ....    BL       __aeabi_memclr ; 0x10004236
        0x10001b16:    e7a4        ..      B        0x10001a62 ; _LCRxPkt_Handler + 20
    _LCTxPkt_Handler
        0x10001b18:    b5f0        ..      PUSH     {r4-r7,lr}
        0x10001b1a:    4982        .I      LDR      r1,[pc,#520] ; [0x10001d24] = 0xaf5
        0x10001b1c:    b099        ..      SUB      sp,sp,#0x64
        0x10001b1e:    2004        .       MOVS     r0,#4
        0x10001b20:    4788        .G      BLX      r1
        0x10001b22:    2800        .(      CMP      r0,#0
        0x10001b24:    d00e        ..      BEQ      0x10001b44 ; _LCTxPkt_Handler + 44
        0x10001b26:    497f        .I      LDR      r1,[pc,#508] ; [0x10001d24] = 0xaf5
        0x10001b28:    2004        .       MOVS     r0,#4
        0x10001b2a:    311a        .1      ADDS     r1,r1,#0x1a
        0x10001b2c:    4788        .G      BLX      r1
        0x10001b2e:    497c        |I      LDR      r1,[pc,#496] ; [0x10001d20] = 0x1201
        0x10001b30:    201f        .       MOVS     r0,#0x1f
        0x10001b32:    31ac        .1      ADDS     r1,r1,#0xac
        0x10001b34:    4788        .G      BLX      r1
        0x10001b36:    4880        .H      LDR      r0,[pc,#512] ; [0x10001d38] = 0x60bd
        0x10001b38:    4780        .G      BLX      r0
        0x10001b3a:    2016        .       MOVS     r0,#0x16
        0x10001b3c:    f7fffef4    ....    BL       _LCDisConnect ; 0x10001928
        0x10001b40:    b019        ..      ADD      sp,sp,#0x64
        0x10001b42:    bdf0        ..      POP      {r4-r7,pc}
        0x10001b44:    487d        }H      LDR      r0,[pc,#500] ; [0x10001d3c] = 0x4e05
        0x10001b46:    4780        .G      BLX      r0
        0x10001b48:    2800        .(      CMP      r0,#0
        0x10001b4a:    d010        ..      BEQ      0x10001b6e ; _LCTxPkt_Handler + 86
        0x10001b4c:    4d72        rM      LDR      r5,[pc,#456] ; [0x10001d18] = 0x200030b0
        0x10001b4e:    68ac        .h      LDR      r4,[r5,#8]
        0x10001b50:    79a1        .y      LDRB     r1,[r4,#6]
        0x10001b52:    0708        ..      LSLS     r0,r1,#28
        0x10001b54:    d5f4        ..      BPL      0x10001b40 ; _LCTxPkt_Handler + 40
        0x10001b56:    79e0        .y      LDRB     r0,[r4,#7]
        0x10001b58:    07c2        ..      LSLS     r2,r0,#31
        0x10001b5a:    d01c        ..      BEQ      0x10001b96 ; _LCTxPkt_Handler + 126
        0x10001b5c:    4978        xI      LDR      r1,[pc,#480] ; [0x10001d40] = 0x2627
        0x10001b5e:    4620         F      MOV      r0,r4
        0x10001b60:    3098        .0      ADDS     r0,r0,#0x98
        0x10001b62:    4788        .G      BLX      r1
        0x10001b64:    68a8        .h      LDR      r0,[r5,#8]
        0x10001b66:    79c1        .y      LDRB     r1,[r0,#7]
        0x10001b68:    0849        I.      LSRS     r1,r1,#1
        0x10001b6a:    0049        I.      LSLS     r1,r1,#1
        0x10001b6c:    e01f        ..      B        0x10001bae ; _LCTxPkt_Handler + 150
        0x10001b6e:    4e73        sN      LDR      r6,[pc,#460] ; [0x10001d3c] = 0x4e05
        0x10001b70:    4f71        qO      LDR      r7,[pc,#452] ; [0x10001d38] = 0x60bd
        0x10001b72:    4d71        qM      LDR      r5,[pc,#452] ; [0x10001d38] = 0x60bd
        0x10001b74:    36b2        .6      ADDS     r6,r6,#0xb2
        0x10001b76:    371c        .7      ADDS     r7,r7,#0x1c
        0x10001b78:    466c        lF      MOV      r4,sp
        0x10001b7a:    3510        .5      ADDS     r5,r5,#0x10
        0x10001b7c:    e007        ..      B        0x10001b8e ; _LCTxPkt_Handler + 118
        0x10001b7e:    4668        hF      MOV      r0,sp
        0x10001b80:    47b0        .G      BLX      r6
        0x10001b82:    2801        .(      CMP      r0,#1
        0x10001b84:    d1dc        ..      BNE      0x10001b40 ; _LCTxPkt_Handler + 40
        0x10001b86:    4668        hF      MOV      r0,sp
        0x10001b88:    7801        .x      LDRB     r1,[r0,#0]
        0x10001b8a:    1c60        `.      ADDS     r0,r4,#1
        0x10001b8c:    47b8        .G      BLX      r7
        0x10001b8e:    47a8        .G      BLX      r5
        0x10001b90:    2800        .(      CMP      r0,#0
        0x10001b92:    d0f4        ..      BEQ      0x10001b7e ; _LCTxPkt_Handler + 102
        0x10001b94:    e7d4        ..      B        0x10001b40 ; _LCTxPkt_Handler + 40
        0x10001b96:    0782        ..      LSLS     r2,r0,#30
        0x10001b98:    d50b        ..      BPL      0x10001bb2 ; _LCTxPkt_Handler + 154
        0x10001b9a:    4a69        iJ      LDR      r2,[pc,#420] ; [0x10001d40] = 0x2627
        0x10001b9c:    4620         F      MOV      r0,r4
        0x10001b9e:    321c        .2      ADDS     r2,r2,#0x1c
        0x10001ba0:    308e        .0      ADDS     r0,r0,#0x8e
        0x10001ba2:    1c81        ..      ADDS     r1,r0,#2
        0x10001ba4:    4790        .G      BLX      r2
        0x10001ba6:    68a8        .h      LDR      r0,[r5,#8]
        0x10001ba8:    22fd        ."      MOVS     r2,#0xfd
        0x10001baa:    79c1        .y      LDRB     r1,[r0,#7]
        0x10001bac:    e023        #.      B        0x10001bf6 ; _LCTxPkt_Handler + 222
        0x10001bae:    71c1        .q      STRB     r1,[r0,#7]
        0x10001bb0:    e7c6        ..      B        0x10001b40 ; _LCTxPkt_Handler + 40
        0x10001bb2:    0742        B.      LSLS     r2,r0,#29
        0x10001bb4:    d508        ..      BPL      0x10001bc8 ; _LCTxPkt_Handler + 176
        0x10001bb6:    4962        bI      LDR      r1,[pc,#392] ; [0x10001d40] = 0x2627
        0x10001bb8:    4620         F      MOV      r0,r4
        0x10001bba:    3160        `1      ADDS     r1,r1,#0x60
        0x10001bbc:    30a8        .0      ADDS     r0,r0,#0xa8
        0x10001bbe:    4788        .G      BLX      r1
        0x10001bc0:    68a8        .h      LDR      r0,[r5,#8]
        0x10001bc2:    22fb        ."      MOVS     r2,#0xfb
        0x10001bc4:    79c1        .y      LDRB     r1,[r0,#7]
        0x10001bc6:    e016        ..      B        0x10001bf6 ; _LCTxPkt_Handler + 222
        0x10001bc8:    0702        ..      LSLS     r2,r0,#28
        0x10001bca:    26f7        .&      MOVS     r6,#0xf7
        0x10001bcc:    2a00        .*      CMP      r2,#0
        0x10001bce:    da09        ..      BGE      0x10001be4 ; _LCTxPkt_Handler + 204
        0x10001bd0:    4a5b        [J      LDR      r2,[pc,#364] ; [0x10001d40] = 0x2627
        0x10001bd2:    4621        !F      MOV      r1,r4
        0x10001bd4:    3242        B2      ADDS     r2,r2,#0x42
        0x10001bd6:    7aa0        .z      LDRB     r0,[r4,#0xa]
        0x10001bd8:    310b        .1      ADDS     r1,r1,#0xb
        0x10001bda:    4790        .G      BLX      r2
        0x10001bdc:    68a8        .h      LDR      r0,[r5,#8]
        0x10001bde:    79c1        .y      LDRB     r1,[r0,#7]
        0x10001be0:    4031        1@      ANDS     r1,r1,r6
        0x10001be2:    e7e4        ..      B        0x10001bae ; _LCTxPkt_Handler + 150
        0x10001be4:    06c0        ..      LSLS     r0,r0,#27
        0x10001be6:    d508        ..      BPL      0x10001bfa ; _LCTxPkt_Handler + 226
        0x10001be8:    4955        UI      LDR      r1,[pc,#340] ; [0x10001d40] = 0x2627
        0x10001bea:    4668        hF      MOV      r0,sp
        0x10001bec:    317c        |1      ADDS     r1,r1,#0x7c
        0x10001bee:    4788        .G      BLX      r1
        0x10001bf0:    68a8        .h      LDR      r0,[r5,#8]
        0x10001bf2:    22ef        ."      MOVS     r2,#0xef
        0x10001bf4:    79c1        .y      LDRB     r1,[r0,#7]
        0x10001bf6:    4011        .@      ANDS     r1,r1,r2
        0x10001bf8:    e7d9        ..      B        0x10001bae ; _LCTxPkt_Handler + 150
        0x10001bfa:    4620         F      MOV      r0,r4
        0x10001bfc:    4031        1@      ANDS     r1,r1,r6
        0x10001bfe:    30ff        .0      ADDS     r0,r0,#0xff
        0x10001c00:    71a1        .q      STRB     r1,[r4,#6]
        0x10001c02:    3021        !0      ADDS     r0,r0,#0x21
        0x10001c04:    7d01        .}      LDRB     r1,[r0,#0x14]
        0x10001c06:    2600        .&      MOVS     r6,#0
        0x10001c08:    2900        .)      CMP      r1,#0
        0x10001c0a:    d010        ..      BEQ      0x10001c2e ; _LCTxPkt_Handler + 278
        0x10001c0c:    7506        .u      STRB     r6,[r0,#0x14]
        0x10001c0e:    4621        !F      MOV      r1,r4
        0x10001c10:    2207        ."      MOVS     r2,#7
        0x10001c12:    3187        .1      ADDS     r1,r1,#0x87
        0x10001c14:    a80c        ..      ADD      r0,sp,#0x30
        0x10001c16:    f002faf5    ....    BL       __aeabi_memcpy ; 0x10004204
        0x10001c1a:    4621        !F      MOV      r1,r4
        0x10001c1c:    a80d        ..      ADD      r0,sp,#0x34
        0x10001c1e:    222a        *"      MOVS     r2,#0x2a
        0x10001c20:    318e        .1      ADDS     r1,r1,#0x8e
        0x10001c22:    3003        .0      ADDS     r0,#3
        0x10001c24:    f002faee    ....    BL       __aeabi_memcpy ; 0x10004204
        0x10001c28:    4946        FI      LDR      r1,[pc,#280] ; [0x10001d44] = 0x47df
        0x10001c2a:    a80c        ..      ADD      r0,sp,#0x30
        0x10001c2c:    4788        .G      BLX      r1
        0x10001c2e:    2001        .       MOVS     r0,#1
        0x10001c30:    4669        iF      MOV      r1,sp
        0x10001c32:    7008        .p      STRB     r0,[r1,#0]
        0x10001c34:    7048        Hp      STRB     r0,[r1,#1]
        0x10001c36:    708e        .p      STRB     r6,[r1,#2]
        0x10001c38:    68a9        .h      LDR      r1,[r5,#8]
        0x10001c3a:    a800        ..      ADD      r0,sp,#0
        0x10001c3c:    222a        *"      MOVS     r2,#0x2a
        0x10001c3e:    3003        .0      ADDS     r0,#3
        0x10001c40:    318e        .1      ADDS     r1,r1,#0x8e
        0x10001c42:    f002fadf    ....    BL       __aeabi_memcpy ; 0x10004204
        0x10001c46:    222d        -"      MOVS     r2,#0x2d
        0x10001c48:    2108        .!      MOVS     r1,#8
        0x10001c4a:    4c3f        ?L      LDR      r4,[pc,#252] ; [0x10001d48] = 0x3ea1
        0x10001c4c:    466b        kF      MOV      r3,sp
        0x10001c4e:    2000        .       MOVS     r0,#0
        0x10001c50:    47a0        .G      BLX      r4
        0x10001c52:    e775        u.      B        0x10001b40 ; _LCTxPkt_Handler + 40
    _BBGetMask
        0x10001c54:    4930        0I      LDR      r1,[pc,#192] ; [0x10001d18] = 0x200030b0
        0x10001c56:    2801        .(      CMP      r0,#1
        0x10001c58:    6a09        .j      LDR      r1,[r1,#0x20]
        0x10001c5a:    d00f        ..      BEQ      0x10001c7c ; _BBGetMask + 40
        0x10001c5c:    2802        .(      CMP      r0,#2
        0x10001c5e:    d011        ..      BEQ      0x10001c84 ; _BBGetMask + 48
        0x10001c60:    2804        .(      CMP      r0,#4
        0x10001c62:    d012        ..      BEQ      0x10001c8a ; _BBGetMask + 54
        0x10001c64:    2808        .(      CMP      r0,#8
        0x10001c66:    d013        ..      BEQ      0x10001c90 ; _BBGetMask + 60
        0x10001c68:    2810        .(      CMP      r0,#0x10
        0x10001c6a:    d014        ..      BEQ      0x10001c96 ; _BBGetMask + 66
        0x10001c6c:    2820         (      CMP      r0,#0x20
        0x10001c6e:    d015        ..      BEQ      0x10001c9c ; _BBGetMask + 72
        0x10001c70:    2840        @(      CMP      r0,#0x40
        0x10001c72:    d016        ..      BEQ      0x10001ca2 ; _BBGetMask + 78
        0x10001c74:    2880        .(      CMP      r0,#0x80
        0x10001c76:    d018        ..      BEQ      0x10001caa ; _BBGetMask + 86
        0x10001c78:    2001        .       MOVS     r0,#1
        0x10001c7a:    4770        pG      BX       lr
        0x10001c7c:    7888        .x      LDRB     r0,[r1,#2]
        0x10001c7e:    07c0        ..      LSLS     r0,r0,#31
        0x10001c80:    0fc0        ..      LSRS     r0,r0,#31
        0x10001c82:    4770        pG      BX       lr
        0x10001c84:    7888        .x      LDRB     r0,[r1,#2]
        0x10001c86:    0780        ..      LSLS     r0,r0,#30
        0x10001c88:    e00d        ..      B        0x10001ca6 ; _BBGetMask + 82
        0x10001c8a:    7888        .x      LDRB     r0,[r1,#2]
        0x10001c8c:    0740        @.      LSLS     r0,r0,#29
        0x10001c8e:    e00a        ..      B        0x10001ca6 ; _BBGetMask + 82
        0x10001c90:    7888        .x      LDRB     r0,[r1,#2]
        0x10001c92:    0700        ..      LSLS     r0,r0,#28
        0x10001c94:    e007        ..      B        0x10001ca6 ; _BBGetMask + 82
        0x10001c96:    7888        .x      LDRB     r0,[r1,#2]
        0x10001c98:    06c0        ..      LSLS     r0,r0,#27
        0x10001c9a:    e004        ..      B        0x10001ca6 ; _BBGetMask + 82
        0x10001c9c:    7888        .x      LDRB     r0,[r1,#2]
        0x10001c9e:    0680        ..      LSLS     r0,r0,#26
        0x10001ca0:    e001        ..      B        0x10001ca6 ; _BBGetMask + 82
        0x10001ca2:    7888        .x      LDRB     r0,[r1,#2]
        0x10001ca4:    0640        @.      LSLS     r0,r0,#25
        0x10001ca6:    0fc0        ..      LSRS     r0,r0,#31
        0x10001ca8:    4770        pG      BX       lr
        0x10001caa:    7888        .x      LDRB     r0,[r1,#2]
        0x10001cac:    09c0        ..      LSRS     r0,r0,#7
        0x10001cae:    4770        pG      BX       lr
    Lib_LLEvtCallback
        0x10001cb0:    b510        ..      PUSH     {r4,lr}
        0x10001cb2:    7801        .x      LDRB     r1,[r0,#0]
        0x10001cb4:    2901        .)      CMP      r1,#1
        0x10001cb6:    d120         .      BNE      0x10001cfa ; Lib_LLEvtCallback + 74
        0x10001cb8:    1c40        @.      ADDS     r0,r0,#1
        0x10001cba:    f002fad0    ....    BL       __aeabi_uread4 ; 0x1000425e
        0x10001cbe:    4a16        .J      LDR      r2,[pc,#88] ; [0x10001d18] = 0x200030b0
        0x10001cc0:    2810        .(      CMP      r0,#0x10
        0x10001cc2:    d05b        [.      BEQ      0x10001d7c ; Lib_LLEvtCallback + 204
        0x10001cc4:    dc0e        ..      BGT      0x10001ce4 ; Lib_LLEvtCallback + 52
        0x10001cc6:    2801        .(      CMP      r0,#1
        0x10001cc8:    d018        ..      BEQ      0x10001cfc ; Lib_LLEvtCallback + 76
        0x10001cca:    2802        .(      CMP      r0,#2
        0x10001ccc:    d03e        >.      BEQ      0x10001d4c ; Lib_LLEvtCallback + 156
        0x10001cce:    2804        .(      CMP      r0,#4
        0x10001cd0:    d044        D.      BEQ      0x10001d5c ; Lib_LLEvtCallback + 172
        0x10001cd2:    2808        .(      CMP      r0,#8
        0x10001cd4:    d111        ..      BNE      0x10001cfa ; Lib_LLEvtCallback + 74
        0x10001cd6:    f7ffffbd    ....    BL       _BBGetMask ; 0x10001c54
        0x10001cda:    2800        .(      CMP      r0,#0
        0x10001cdc:    d10d        ..      BNE      0x10001cfa ; Lib_LLEvtCallback + 74
        0x10001cde:    480d        .H      LDR      r0,[pc,#52] ; [0x10001d14] = 0x16cf
        0x10001ce0:    3856        V8      SUBS     r0,r0,#0x56
        0x10001ce2:    e009        ..      B        0x10001cf8 ; Lib_LLEvtCallback + 72
        0x10001ce4:    2820         (      CMP      r0,#0x20
        0x10001ce6:    d059        Y.      BEQ      0x10001d9c ; Lib_LLEvtCallback + 236
        0x10001ce8:    2840        @(      CMP      r0,#0x40
        0x10001cea:    d106        ..      BNE      0x10001cfa ; Lib_LLEvtCallback + 74
        0x10001cec:    f7ffffb2    ....    BL       _BBGetMask ; 0x10001c54
        0x10001cf0:    2800        .(      CMP      r0,#0
        0x10001cf2:    d102        ..      BNE      0x10001cfa ; Lib_LLEvtCallback + 74
        0x10001cf4:    4807        .H      LDR      r0,[pc,#28] ; [0x10001d14] = 0x16cf
        0x10001cf6:    1e80        ..      SUBS     r0,r0,#2
        0x10001cf8:    4780        .G      BLX      r0
        0x10001cfa:    bd10        ..      POP      {r4,pc}
        0x10001cfc:    2001        .       MOVS     r0,#1
        0x10001cfe:    f7ffffa9    ....    BL       _BBGetMask ; 0x10001c54
        0x10001d02:    2800        .(      CMP      r0,#0
        0x10001d04:    d1f9        ..      BNE      0x10001cfa ; Lib_LLEvtCallback + 74
        0x10001d06:    f7ffff07    ....    BL       _LCTxPkt_Handler ; 0x10001b18
        0x10001d0a:    bd10        ..      POP      {r4,pc}
    $d
        0x10001d0c:    000065bf    .e..    DCD    26047
        0x10001d10:    00006a77    wj..    DCD    27255
        0x10001d14:    000016cf    ....    DCD    5839
        0x10001d18:    200030b0    .0.     DCD    536883376
        0x10001d1c:    000003ce    ....    DCD    974
        0x10001d20:    00001201    ....    DCD    4609
        0x10001d24:    00000af5    ....    DCD    2805
        0x10001d28:    00005749    IW..    DCD    22345
        0x10001d2c:    00001979    y...    DCD    6521
        0x10001d30:    00001e8b    ....    DCD    7819
        0x10001d34:    0000622b    +b..    DCD    25131
        0x10001d38:    000060bd    .`..    DCD    24765
        0x10001d3c:    00004e05    .N..    DCD    19973
        0x10001d40:    00002627    '&..    DCD    9767
        0x10001d44:    000047df    .G..    DCD    18399
        0x10001d48:    00003ea1    .>..    DCD    16033
    $t
        0x10001d4c:    2002        .       MOVS     r0,#2
        0x10001d4e:    f7ffff81    ....    BL       _BBGetMask ; 0x10001c54
        0x10001d52:    2800        .(      CMP      r0,#0
        0x10001d54:    d1d9        ..      BNE      0x10001d0a ; Lib_LLEvtCallback + 90
        0x10001d56:    f7fffe7a    ..z.    BL       _LCRxPkt_Handler ; 0x10001a4e
        0x10001d5a:    bd10        ..      POP      {r4,pc}
        0x10001d5c:    2004        .       MOVS     r0,#4
        0x10001d5e:    f7ffff79    ..y.    BL       _BBGetMask ; 0x10001c54
        0x10001d62:    2800        .(      CMP      r0,#0
        0x10001d64:    d1f9        ..      BNE      0x10001d5a ; Lib_LLEvtCallback + 170
        0x10001d66:    6890        .h      LDR      r0,[r2,#8]
        0x10001d68:    7a40        @z      LDRB     r0,[r0,#9]
        0x10001d6a:    2801        .(      CMP      r0,#1
        0x10001d6c:    d003        ..      BEQ      0x10001d76 ; Lib_LLEvtCallback + 198
        0x10001d6e:    2802        .(      CMP      r0,#2
        0x10001d70:    d1f3        ..      BNE      0x10001d5a ; Lib_LLEvtCallback + 170
        0x10001d72:    48fe        .H      LDR      r0,[pc,#1016] ; [0x1000216c] = 0x1527
        0x10001d74:    e7c0        ..      B        0x10001cf8 ; Lib_LLEvtCallback + 72
        0x10001d76:    48fd        .H      LDR      r0,[pc,#1012] ; [0x1000216c] = 0x1527
        0x10001d78:    38ae        .8      SUBS     r0,r0,#0xae
        0x10001d7a:    e7bd        ..      B        0x10001cf8 ; Lib_LLEvtCallback + 72
        0x10001d7c:    2010        .       MOVS     r0,#0x10
        0x10001d7e:    f7ffff69    ..i.    BL       _BBGetMask ; 0x10001c54
        0x10001d82:    2800        .(      CMP      r0,#0
        0x10001d84:    d1e9        ..      BNE      0x10001d5a ; Lib_LLEvtCallback + 170
        0x10001d86:    6a10        .j      LDR      r0,[r2,#0x20]
        0x10001d88:    3020         0      ADDS     r0,r0,#0x20
        0x10001d8a:    7d40        @}      LDRB     r0,[r0,#0x15]
        0x10001d8c:    0740        @.      LSLS     r0,r0,#29
        0x10001d8e:    d501        ..      BPL      0x10001d94 ; Lib_LLEvtCallback + 228
        0x10001d90:    203e        >       MOVS     r0,#0x3e
        0x10001d92:    e000        ..      B        0x10001d96 ; Lib_LLEvtCallback + 230
        0x10001d94:    2008        .       MOVS     r0,#8
        0x10001d96:    f7fffdc7    ....    BL       _LCDisConnect ; 0x10001928
        0x10001d9a:    bd10        ..      POP      {r4,pc}
        0x10001d9c:    2020                MOVS     r0,#0x20
        0x10001d9e:    f7ffff59    ..Y.    BL       _BBGetMask ; 0x10001c54
        0x10001da2:    2800        .(      CMP      r0,#0
        0x10001da4:    d1f9        ..      BNE      0x10001d9a ; Lib_LLEvtCallback + 234
        0x10001da6:    48f2        .H      LDR      r0,[pc,#968] ; [0x10002170] = 0x16c1
        0x10001da8:    e7a6        ..      B        0x10001cf8 ; Lib_LLEvtCallback + 72
    ConnectionLatencyMode
        0x10001daa:    b570        p.      PUSH     {r4-r6,lr}
        0x10001dac:    2510        .%      MOVS     r5,#0x10
        0x10001dae:    2608        .&      MOVS     r6,#8
        0x10001db0:    4cf0        .L      LDR      r4,[pc,#960] ; [0x10002174] = 0x200030b0
        0x10001db2:    2800        .(      CMP      r0,#0
        0x10001db4:    d021        !.      BEQ      0x10001dfa ; ConnectionLatencyMode + 80
        0x10001db6:    6a20         j      LDR      r0,[r4,#0x20]
        0x10001db8:    7e81        .~      LDRB     r1,[r0,#0x1a]
        0x10001dba:    4331        1C      ORRS     r1,r1,r6
        0x10001dbc:    7681        .v      STRB     r1,[r0,#0x1a]
        0x10001dbe:    4601        .F      MOV      r1,r0
        0x10001dc0:    3160        `1      ADDS     r1,r1,#0x60
        0x10001dc2:    7e0a        .~      LDRB     r2,[r1,#0x18]
        0x10001dc4:    7863        cx      LDRB     r3,[r4,#1]
        0x10001dc6:    0952        R.      LSRS     r2,r2,#5
        0x10001dc8:    0152        R.      LSLS     r2,r2,#5
        0x10001dca:    06db        ..      LSLS     r3,r3,#27
        0x10001dcc:    0edb        ..      LSRS     r3,r3,#27
        0x10001dce:    431a        .C      ORRS     r2,r2,r3
        0x10001dd0:    760a        .v      STRB     r2,[r1,#0x18]
        0x10001dd2:    3020         0      ADDS     r0,r0,#0x20
        0x10001dd4:    7b42        B{      LDRB     r2,[r0,#0xd]
        0x10001dd6:    7b06        .{      LDRB     r6,[r0,#0xc]
        0x10001dd8:    0213        ..      LSLS     r3,r2,#8
        0x10001dda:    68a2        .h      LDR      r2,[r4,#8]
        0x10001ddc:    4333        3C      ORRS     r3,r3,r6
        0x10001dde:    3223        #2      ADDS     r2,r2,#0x23
        0x10001de0:    7c54        T|      LDRB     r4,[r2,#0x11]
        0x10001de2:    7c16        .|      LDRB     r6,[r2,#0x10]
        0x10001de4:    0222        ".      LSLS     r2,r4,#8
        0x10001de6:    4332        2C      ORRS     r2,r2,r6
        0x10001de8:    4293        .B      CMP      r3,r2
        0x10001dea:    d014        ..      BEQ      0x10001e16 ; ConnectionLatencyMode + 108
        0x10001dec:    7302        .s      STRB     r2,[r0,#0xc]
        0x10001dee:    0a12        ..      LSRS     r2,r2,#8
        0x10001df0:    7342        Bs      STRB     r2,[r0,#0xd]
        0x10001df2:    7dc8        .}      LDRB     r0,[r1,#0x17]
        0x10001df4:    4328        (C      ORRS     r0,r0,r5
        0x10001df6:    75c8        .u      STRB     r0,[r1,#0x17]
        0x10001df8:    e00d        ..      B        0x10001e16 ; ConnectionLatencyMode + 108
        0x10001dfa:    f001fc0e    ....    BL       WaitLLCOverSlpth ; 0x1000361a
        0x10001dfe:    6a20         j      LDR      r0,[r4,#0x20]
        0x10001e00:    2200        ."      MOVS     r2,#0
        0x10001e02:    4601        .F      MOV      r1,r0
        0x10001e04:    3120         1      ADDS     r1,r1,#0x20
        0x10001e06:    730a        .s      STRB     r2,[r1,#0xc]
        0x10001e08:    734a        Js      STRB     r2,[r1,#0xd]
        0x10001e0a:    3060        `0      ADDS     r0,r0,#0x60
        0x10001e0c:    7dc1        .}      LDRB     r1,[r0,#0x17]
        0x10001e0e:    4329        )C      ORRS     r1,r1,r5
        0x10001e10:    75c1        .u      STRB     r1,[r0,#0x17]
        0x10001e12:    48d9        .H      LDR      r0,[pc,#868] ; [0x10002178] = 0x40020020
        0x10001e14:    7706        .w      STRB     r6,[r0,#0x1c]
        0x10001e16:    2001        .       MOVS     r0,#1
        0x10001e18:    bd70        p.      POP      {r4-r6,pc}
    sw_timer_latency_callback
        0x10001e1a:    48d6        .H      LDR      r0,[pc,#856] ; [0x10002174] = 0x200030b0
        0x10001e1c:    6880        .h      LDR      r0,[r0,#8]
        0x10001e1e:    3023        #0      ADDS     r0,r0,#0x23
        0x10001e20:    7c41        A|      LDRB     r1,[r0,#0x11]
        0x10001e22:    7c02        .|      LDRB     r2,[r0,#0x10]
        0x10001e24:    0208        ..      LSLS     r0,r1,#8
        0x10001e26:    4310        .C      ORRS     r0,r0,r2
        0x10001e28:    d00b        ..      BEQ      0x10001e42 ; sw_timer_latency_callback + 40
        0x10001e2a:    49d4        .I      LDR      r1,[pc,#848] ; [0x1000217c] = 0x20003eef
        0x10001e2c:    7848        Hx      LDRB     r0,[r1,#1]
        0x10001e2e:    780a        .x      LDRB     r2,[r1,#0]
        0x10001e30:    0200        ..      LSLS     r0,r0,#8
        0x10001e32:    4310        .C      ORRS     r0,r0,r2
        0x10001e34:    2203        ."      MOVS     r2,#3
        0x10001e36:    4310        .C      ORRS     r0,r0,r2
        0x10001e38:    7008        .p      STRB     r0,[r1,#0]
        0x10001e3a:    0a00        ..      LSRS     r0,r0,#8
        0x10001e3c:    7048        Hp      STRB     r0,[r1,#1]
        0x10001e3e:    2001        .       MOVS     r0,#1
        0x10001e40:    e7b3        ..      B        ConnectionLatencyMode ; 0x10001daa
        0x10001e42:    4770        pG      BX       lr
    TimerStart
        0x10001e44:    b430        0.      PUSH     {r4,r5}
        0x10001e46:    4cce        .L      LDR      r4,[pc,#824] ; [0x10002180] = 0x44ab
        0x10001e48:    46a4        .F      MOV      r12,r4
        0x10001e4a:    bc30        0.      POP      {r4,r5}
        0x10001e4c:    4760        `G      BX       r12
    smart_latency_start
        0x10001e4e:    b5f8        ..      PUSH     {r3-r7,lr}
        0x10001e50:    48ca        .H      LDR      r0,[pc,#808] ; [0x1000217c] = 0x20003eef
        0x10001e52:    7a40        @z      LDRB     r0,[r0,#9]
        0x10001e54:    0600        ..      LSLS     r0,r0,#24
        0x10001e56:    d563        c.      BPL      0x10001f20 ; smart_latency_start + 210
        0x10001e58:    48c6        .H      LDR      r0,[pc,#792] ; [0x10002174] = 0x200030b0
        0x10001e5a:    6886        .h      LDR      r6,[r0,#8]
        0x10001e5c:    4630        0F      MOV      r0,r6
        0x10001e5e:    3023        #0      ADDS     r0,r0,#0x23
        0x10001e60:    7c41        A|      LDRB     r1,[r0,#0x11]
        0x10001e62:    7c00        .|      LDRB     r0,[r0,#0x10]
        0x10001e64:    020f        ..      LSLS     r7,r1,#8
        0x10001e66:    49c5        .I      LDR      r1,[pc,#788] ; [0x1000217c] = 0x20003eef
        0x10001e68:    4307        .C      ORRS     r7,r7,r0
        0x10001e6a:    7848        Hx      LDRB     r0,[r1,#1]
        0x10001e6c:    7809        .x      LDRB     r1,[r1,#0]
        0x10001e6e:    0204        ..      LSLS     r4,r0,#8
        0x10001e70:    430c        .C      ORRS     r4,r4,r1
        0x10001e72:    2f00        ./      CMP      r7,#0
        0x10001e74:    d101        ..      BNE      0x10001e7a ; smart_latency_start + 44
        0x10001e76:    0760        `.      LSLS     r0,r4,#29
        0x10001e78:    d552        R.      BPL      0x10001f20 ; smart_latency_start + 210
        0x10001e7a:    4dc0        .M      LDR      r5,[pc,#768] ; [0x1000217c] = 0x20003eef
        0x10001e7c:    7ba8        .{      LDRB     r0,[r5,#0xe]
        0x10001e7e:    7b69        i{      LDRB     r1,[r5,#0xd]
        0x10001e80:    0200        ..      LSLS     r0,r0,#8
        0x10001e82:    1c6d        m.      ADDS     r5,r5,#1
        0x10001e84:    4308        .C      ORRS     r0,r0,r1
        0x10001e86:    d04b        K.      BEQ      0x10001f20 ; smart_latency_start + 210
        0x10001e88:    2f00        ./      CMP      r7,#0
        0x10001e8a:    d049        I.      BEQ      0x10001f20 ; smart_latency_start + 210
        0x10001e8c:    7968        hy      LDRB     r0,[r5,#5]
        0x10001e8e:    7929        )y      LDRB     r1,[r5,#4]
        0x10001e90:    0200        ..      LSLS     r0,r0,#8
        0x10001e92:    4308        .C      ORRS     r0,r0,r1
        0x10001e94:    d12e        ..      BNE      0x10001ef4 ; smart_latency_start + 166
        0x10001e96:    3621        !6      ADDS     r6,r6,#0x21
        0x10001e98:    7c70        p|      LDRB     r0,[r6,#0x11]
        0x10001e9a:    7c31        1|      LDRB     r1,[r6,#0x10]
        0x10001e9c:    0200        ..      LSLS     r0,r0,#8
        0x10001e9e:    4308        .C      ORRS     r0,r0,r1
        0x10001ea0:    f002fbf8    ....    BL       __aeabi_ui2d ; 0x10004694
        0x10001ea4:    2200        ."      MOVS     r2,#0
        0x10001ea6:    4bb7        .K      LDR      r3,[pc,#732] ; [0x10002184] = 0x3ff40000
        0x10001ea8:    f002faf8    ....    BL       __aeabi_dmul ; 0x1000449c
        0x10001eac:    f002fc00    ....    BL       __aeabi_d2uiz ; 0x100046b0
        0x10001eb0:    b280        ..      UXTH     r0,r0
        0x10001eb2:    4378        xC      MULS     r0,r7,r0
        0x10001eb4:    2164        d!      MOVS     r1,#0x64
        0x10001eb6:    f002f991    ....    BL       __aeabi_idiv ; 0x100041dc
        0x10001eba:    0440        @.      LSLS     r0,r0,#17
        0x10001ebc:    0c01        ..      LSRS     r1,r0,#16
        0x10001ebe:    7129        )q      STRB     r1,[r5,#4]
        0x10001ec0:    0a08        ..      LSRS     r0,r1,#8
        0x10001ec2:    7168        hq      STRB     r0,[r5,#5]
        0x10001ec4:    200a        .       MOVS     r0,#0xa
        0x10001ec6:    4341        AC      MULS     r1,r0,r1
        0x10001ec8:    7d70        p}      LDRB     r0,[r6,#0x15]
        0x10001eca:    7d32        2}      LDRB     r2,[r6,#0x14]
        0x10001ecc:    0200        ..      LSLS     r0,r0,#8
        0x10001ece:    4310        .C      ORRS     r0,r0,r2
        0x10001ed0:    4281        .B      CMP      r1,r0
        0x10001ed2:    d306        ..      BCC      0x10001ee2 ; smart_latency_start + 148
        0x10001ed4:    210a        .!      MOVS     r1,#0xa
        0x10001ed6:    1e40        @.      SUBS     r0,r0,#1
        0x10001ed8:    f002f980    ....    BL       __aeabi_idiv ; 0x100041dc
        0x10001edc:    7128        (q      STRB     r0,[r5,#4]
        0x10001ede:    0a00        ..      LSRS     r0,r0,#8
        0x10001ee0:    7168        hq      STRB     r0,[r5,#5]
        0x10001ee2:    7968        hy      LDRB     r0,[r5,#5]
        0x10001ee4:    7929        )y      LDRB     r1,[r5,#4]
        0x10001ee6:    0200        ..      LSLS     r0,r0,#8
        0x10001ee8:    4308        .C      ORRS     r0,r0,r1
        0x10001eea:    d103        ..      BNE      0x10001ef4 ; smart_latency_start + 166
        0x10001eec:    2001        .       MOVS     r0,#1
        0x10001eee:    7128        (q      STRB     r0,[r5,#4]
        0x10001ef0:    2000        .       MOVS     r0,#0
        0x10001ef2:    7168        hq      STRB     r0,[r5,#5]
        0x10001ef4:    48a1        .H      LDR      r0,[pc,#644] ; [0x1000217c] = 0x20003eef
        0x10001ef6:    07a1        ..      LSLS     r1,r4,#30
        0x10001ef8:    d509        ..      BPL      0x10001f0e ; smart_latency_start + 192
        0x10001efa:    2102        .!      MOVS     r1,#2
        0x10001efc:    438c        .C      BICS     r4,r4,r1
        0x10001efe:    2101        .!      MOVS     r1,#1
        0x10001f00:    430c        .C      ORRS     r4,r4,r1
        0x10001f02:    7004        .p      STRB     r4,[r0,#0]
        0x10001f04:    0a21        !.      LSRS     r1,r4,#8
        0x10001f06:    7041        Ap      STRB     r1,[r0,#1]
        0x10001f08:    2000        .       MOVS     r0,#0
        0x10001f0a:    f7ffff4e    ..N.    BL       ConnectionLatencyMode ; 0x10001daa
        0x10001f0e:    7968        hy      LDRB     r0,[r5,#5]
        0x10001f10:    792a        *y      LDRB     r2,[r5,#4]
        0x10001f12:    0201        ..      LSLS     r1,r0,#8
        0x10001f14:    4311        .C      ORRS     r1,r1,r2
        0x10001f16:    4b9c        .K      LDR      r3,[pc,#624] ; [0x10002188] = 0x10001e1b
        0x10001f18:    2200        ."      MOVS     r2,#0
        0x10001f1a:    2040        @       MOVS     r0,#0x40
        0x10001f1c:    f7ffff92    ....    BL       TimerStart ; 0x10001e44
        0x10001f20:    bdf8        ..      POP      {r3-r7,pc}
    smart_update_latency_updatersp
        0x10001f22:    b51c        ..      PUSH     {r2-r4,lr}
        0x10001f24:    4995        .I      LDR      r1,[pc,#596] ; [0x1000217c] = 0x20003eef
        0x10001f26:    7a4a        Jz      LDRB     r2,[r1,#9]
        0x10001f28:    2a00        .*      CMP      r2,#0
        0x10001f2a:    d03a        :.      BEQ      0x10001fa2 ; smart_update_latency_updatersp + 128
        0x10001f2c:    784a        Jx      LDRB     r2,[r1,#1]
        0x10001f2e:    780b        .x      LDRB     r3,[r1,#0]
        0x10001f30:    0212        ..      LSLS     r2,r2,#8
        0x10001f32:    431a        .C      ORRS     r2,r2,r3
        0x10001f34:    06d3        ..      LSLS     r3,r2,#27
        0x10001f36:    d434        4.      BMI      0x10001fa2 ; smart_update_latency_updatersp + 128
        0x10001f38:    7843        Cx      LDRB     r3,[r0,#1]
        0x10001f3a:    7804        .x      LDRB     r4,[r0,#0]
        0x10001f3c:    0218        ..      LSLS     r0,r3,#8
        0x10001f3e:    4320         C      ORRS     r0,r0,r4
        0x10001f40:    2801        .(      CMP      r0,#1
        0x10001f42:    d12e        ..      BNE      0x10001fa2 ; smart_update_latency_updatersp + 128
        0x10001f44:    78c8        .x      LDRB     r0,[r1,#3]
        0x10001f46:    1e40        @.      SUBS     r0,r0,#1
        0x10001f48:    0600        ..      LSLS     r0,r0,#24
        0x10001f4a:    0e00        ..      LSRS     r0,r0,#24
        0x10001f4c:    70c8        .p      STRB     r0,[r1,#3]
        0x10001f4e:    d029        ).      BEQ      0x10001fa4 ; smart_update_latency_updatersp + 130
        0x10001f50:    4608        .F      MOV      r0,r1
        0x10001f52:    788b        .x      LDRB     r3,[r1,#2]
        0x10001f54:    7a01        .z      LDRB     r1,[r0,#8]
        0x10001f56:    79c2        .y      LDRB     r2,[r0,#7]
        0x10001f58:    0209        ..      LSLS     r1,r1,#8
        0x10001f5a:    4311        .C      ORRS     r1,r1,r2
        0x10001f5c:    7b02        .{      LDRB     r2,[r0,#0xc]
        0x10001f5e:    7ac4        .z      LDRB     r4,[r0,#0xb]
        0x10001f60:    0212        ..      LSLS     r2,r2,#8
        0x10001f62:    4322        "C      ORRS     r2,r2,r4
        0x10001f64:    1cc0        ..      ADDS     r0,r0,#3
        0x10001f66:    2b01        .+      CMP      r3,#1
        0x10001f68:    d024        $.      BEQ      0x10001fb4 ; smart_update_latency_updatersp + 146
        0x10001f6a:    1a52        R.      SUBS     r2,r2,r1
        0x10001f6c:    7202        .r      STRB     r2,[r0,#8]
        0x10001f6e:    0a12        ..      LSRS     r2,r2,#8
        0x10001f70:    7242        Br      STRB     r2,[r0,#9]
        0x10001f72:    0612        ..      LSLS     r2,r2,#24
        0x10001f74:    7a03        .z      LDRB     r3,[r0,#8]
        0x10001f76:    0c12        ..      LSRS     r2,r2,#16
        0x10001f78:    431a        .C      ORRS     r2,r2,r3
        0x10001f7a:    1a53        S.      SUBS     r3,r2,r1
        0x10001f7c:    4669        iF      MOV      r1,sp
        0x10001f7e:    800b        ..      STRH     r3,[r1,#0]
        0x10001f80:    804a        J.      STRH     r2,[r1,#2]
        0x10001f82:    497e        ~I      LDR      r1,[pc,#504] ; [0x1000217c] = 0x20003eef
        0x10001f84:    7b8a        .{      LDRB     r2,[r1,#0xe]
        0x10001f86:    7b49        I{      LDRB     r1,[r1,#0xd]
        0x10001f88:    0212        ..      LSLS     r2,r2,#8
        0x10001f8a:    430a        .C      ORRS     r2,r2,r1
        0x10001f8c:    4669        iF      MOV      r1,sp
        0x10001f8e:    808a        ..      STRH     r2,[r1,#4]
        0x10001f90:    7b41        A{      LDRB     r1,[r0,#0xd]
        0x10001f92:    7b02        .{      LDRB     r2,[r0,#0xc]
        0x10001f94:    0208        ..      LSLS     r0,r1,#8
        0x10001f96:    4310        .C      ORRS     r0,r0,r2
        0x10001f98:    4669        iF      MOV      r1,sp
        0x10001f9a:    80c8        ..      STRH     r0,[r1,#6]
        0x10001f9c:    497b        {I      LDR      r1,[pc,#492] ; [0x1000218c] = 0x4233
        0x10001f9e:    4668        hF      MOV      r0,sp
        0x10001fa0:    4788        .G      BLX      r1
        0x10001fa2:    bd1c        ..      POP      {r2-r4,pc}
        0x10001fa4:    7a88        .z      LDRB     r0,[r1,#0xa]
        0x10001fa6:    70c8        .p      STRB     r0,[r1,#3]
        0x10001fa8:    2040        @       MOVS     r0,#0x40
        0x10001faa:    4302        .C      ORRS     r2,r2,r0
        0x10001fac:    700a        .p      STRB     r2,[r1,#0]
        0x10001fae:    0a10        ..      LSRS     r0,r2,#8
        0x10001fb0:    7048        Hp      STRB     r0,[r1,#1]
        0x10001fb2:    bd1c        ..      POP      {r2-r4,pc}
        0x10001fb4:    1852        R.      ADDS     r2,r2,r1
        0x10001fb6:    e7d9        ..      B        0x10001f6c ; smart_update_latency_updatersp + 74
    BBRFRead
        0x10001fb8:    4a75        uJ      LDR      r2,[pc,#468] ; [0x10002190] = 0x61c5
        0x10001fba:    4710        .G      BX       r2
    BBRFWrite
        0x10001fbc:    4a74        tJ      LDR      r2,[pc,#464] ; [0x10002190] = 0x61c5
        0x10001fbe:    3220         2      ADDS     r2,r2,#0x20
        0x10001fc0:    4710        .G      BX       r2
    RCOSCCalibration
        0x10001fc2:    b538        8.      PUSH     {r3-r5,lr}
        0x10001fc4:    2400        .$      MOVS     r4,#0
        0x10001fc6:    4669        iF      MOV      r1,sp
        0x10001fc8:    700c        .p      STRB     r4,[r1,#0]
        0x10001fca:    4621        !F      MOV      r1,r4
        0x10001fcc:    207f        .       MOVS     r0,#0x7f
        0x10001fce:    f7fffff5    ....    BL       BBRFWrite ; 0x10001fbc
        0x10001fd2:    2100        .!      MOVS     r1,#0
        0x10001fd4:    203b        ;       MOVS     r0,#0x3b
        0x10001fd6:    f7fffff1    ....    BL       BBRFWrite ; 0x10001fbc
        0x10001fda:    2129        )!      MOVS     r1,#0x29
        0x10001fdc:    203b        ;       MOVS     r0,#0x3b
        0x10001fde:    f7ffffed    ....    BL       BBRFWrite ; 0x10001fbc
        0x10001fe2:    4669        iF      MOV      r1,sp
        0x10001fe4:    203b        ;       MOVS     r0,#0x3b
        0x10001fe6:    f7ffffe7    ....    BL       BBRFRead ; 0x10001fb8
        0x10001fea:    4668        hF      MOV      r0,sp
        0x10001fec:    7800        .x      LDRB     r0,[r0,#0]
        0x10001fee:    0780        ..      LSLS     r0,r0,#30
        0x10001ff0:    d501        ..      BPL      0x10001ff6 ; RCOSCCalibration + 52
        0x10001ff2:    2001        .       MOVS     r0,#1
        0x10001ff4:    bd38        8.      POP      {r3-r5,pc}
        0x10001ff6:    1c64        d.      ADDS     r4,r4,#1
        0x10001ff8:    b2a4        ..      UXTH     r4,r4
        0x10001ffa:    2cff        .,      CMP      r4,#0xff
        0x10001ffc:    d9f1        ..      BLS      0x10001fe2 ; RCOSCCalibration + 32
        0x10001ffe:    2000        .       MOVS     r0,#0
        0x10002000:    bd38        8.      POP      {r3-r5,pc}
    RFSleep
        0x10002002:    b510        ..      PUSH     {r4,lr}
        0x10002004:    4863        cH      LDR      r0,[pc,#396] ; [0x10002194] = 0x4707
        0x10002006:    4780        .G      BLX      r0
        0x10002008:    2001        .       MOVS     r0,#1
        0x1000200a:    bd10        ..      POP      {r4,pc}
    UartEn
        0x1000200c:    b510        ..      PUSH     {r4,lr}
        0x1000200e:    4959        YI      LDR      r1,[pc,#356] ; [0x10002174] = 0x200030b0
        0x10002010:    4a61        aJ      LDR      r2,[pc,#388] ; [0x10002198] = 0x65a7
        0x10002012:    7088        .p      STRB     r0,[r1,#2]
        0x10002014:    2800        .(      CMP      r0,#0
        0x10002016:    d107        ..      BNE      0x10002028 ; UartEn + 28
        0x10002018:    6888        .h      LDR      r0,[r1,#8]
        0x1000201a:    7880        .x      LDRB     r0,[r0,#2]
        0x1000201c:    2802        .(      CMP      r0,#2
        0x1000201e:    d003        ..      BEQ      0x10002028 ; UartEn + 28
        0x10002020:    2000        .       MOVS     r0,#0
        0x10002022:    4790        .G      BLX      r2
        0x10002024:    2001        .       MOVS     r0,#1
        0x10002026:    bd10        ..      POP      {r4,pc}
        0x10002028:    2001        .       MOVS     r0,#1
        0x1000202a:    e7fa        ..      B        0x10002022 ; UartEn + 22
    _SYS32kClockSwitch
        0x1000202c:    b510        ..      PUSH     {r4,lr}
        0x1000202e:    4c51        QL      LDR      r4,[pc,#324] ; [0x10002174] = 0x200030b0
        0x10002030:    2801        .(      CMP      r0,#1
        0x10002032:    68a1        .h      LDR      r1,[r4,#8]
        0x10002034:    7088        .p      STRB     r0,[r1,#2]
        0x10002036:    d004        ..      BEQ      0x10002042 ; _SYS32kClockSwitch + 22
        0x10002038:    2800        .(      CMP      r0,#0
        0x1000203a:    d036        6.      BEQ      0x100020aa ; _SYS32kClockSwitch + 126
        0x1000203c:    2802        .(      CMP      r0,#2
        0x1000203e:    d04b        K.      BEQ      0x100020d8 ; _SYS32kClockSwitch + 172
        0x10002040:    e05e        ^.      B        0x10002100 ; _SYS32kClockSwitch + 212
        0x10002042:    6aa0        .j      LDR      r0,[r4,#0x28]
        0x10002044:    4601        .F      MOV      r1,r0
        0x10002046:    3120         1      ADDS     r1,r1,#0x20
        0x10002048:    780a        .x      LDRB     r2,[r1,#0]
        0x1000204a:    0852        R.      LSRS     r2,r2,#1
        0x1000204c:    0052        R.      LSLS     r2,r2,#1
        0x1000204e:    700a        .p      STRB     r2,[r1,#0]
        0x10002050:    780a        .x      LDRB     r2,[r1,#0]
        0x10002052:    23fd        .#      MOVS     r3,#0xfd
        0x10002054:    401a        .@      ANDS     r2,r2,r3
        0x10002056:    700a        .p      STRB     r2,[r1,#0]
        0x10002058:    7801        .x      LDRB     r1,[r0,#0]
        0x1000205a:    0989        ..      LSRS     r1,r1,#6
        0x1000205c:    0189        ..      LSLS     r1,r1,#6
        0x1000205e:    311c        .1      ADDS     r1,r1,#0x1c
        0x10002060:    7001        .p      STRB     r1,[r0,#0]
        0x10002062:    7841        Ax      LDRB     r1,[r0,#1]
        0x10002064:    0989        ..      LSRS     r1,r1,#6
        0x10002066:    0189        ..      LSLS     r1,r1,#6
        0x10002068:    311c        .1      ADDS     r1,r1,#0x1c
        0x1000206a:    7041        Ap      STRB     r1,[r0,#1]
        0x1000206c:    2100        .!      MOVS     r1,#0
        0x1000206e:    207f        .       MOVS     r0,#0x7f
        0x10002070:    f7ffffa4    ....    BL       BBRFWrite ; 0x10001fbc
        0x10002074:    2103        .!      MOVS     r1,#3
        0x10002076:    2021        !       MOVS     r0,#0x21
        0x10002078:    f7ffffa0    ....    BL       BBRFWrite ; 0x10001fbc
        0x1000207c:    211f        .!      MOVS     r1,#0x1f
        0x1000207e:    2003        .       MOVS     r0,#3
        0x10002080:    f7ffff9c    ....    BL       BBRFWrite ; 0x10001fbc
        0x10002084:    207d        }       MOVS     r0,#0x7d
        0x10002086:    4942        BI      LDR      r1,[pc,#264] ; [0x10002190] = 0x61c5
        0x10002088:    00c0        ..      LSLS     r0,r0,#3
        0x1000208a:    3180        .1      ADDS     r1,r1,#0x80
        0x1000208c:    4788        .G      BLX      r1
        0x1000208e:    2102        .!      MOVS     r1,#2
        0x10002090:    207f        .       MOVS     r0,#0x7f
        0x10002092:    f7ffff93    ....    BL       BBRFWrite ; 0x10001fbc
        0x10002096:    2101        .!      MOVS     r1,#1
        0x10002098:    2000        .       MOVS     r0,#0
        0x1000209a:    f7ffff8f    ....    BL       BBRFWrite ; 0x10001fbc
        0x1000209e:    2100        .!      MOVS     r1,#0
        0x100020a0:    207f        .       MOVS     r0,#0x7f
        0x100020a2:    f7ffff8b    ....    BL       BBRFWrite ; 0x10001fbc
        0x100020a6:    210f        .!      MOVS     r1,#0xf
        0x100020a8:    e027        '.      B        0x100020fa ; _SYS32kClockSwitch + 206
        0x100020aa:    2100        .!      MOVS     r1,#0
        0x100020ac:    207f        .       MOVS     r0,#0x7f
        0x100020ae:    f7ffff85    ....    BL       BBRFWrite ; 0x10001fbc
        0x100020b2:    2100        .!      MOVS     r1,#0
        0x100020b4:    2004        .       MOVS     r0,#4
        0x100020b6:    f7ffff81    ....    BL       BBRFWrite ; 0x10001fbc
        0x100020ba:    2102        .!      MOVS     r1,#2
        0x100020bc:    207f        .       MOVS     r0,#0x7f
        0x100020be:    f7ffff7d    ..}.    BL       BBRFWrite ; 0x10001fbc
        0x100020c2:    2100        .!      MOVS     r1,#0
        0x100020c4:    4608        .F      MOV      r0,r1
        0x100020c6:    f7ffff79    ..y.    BL       BBRFWrite ; 0x10001fbc
        0x100020ca:    2100        .!      MOVS     r1,#0
        0x100020cc:    207f        .       MOVS     r0,#0x7f
        0x100020ce:    f7ffff75    ..u.    BL       BBRFWrite ; 0x10001fbc
        0x100020d2:    2100        .!      MOVS     r1,#0
        0x100020d4:    2003        .       MOVS     r0,#3
        0x100020d6:    e011        ..      B        0x100020fc ; _SYS32kClockSwitch + 208
        0x100020d8:    2102        .!      MOVS     r1,#2
        0x100020da:    207f        .       MOVS     r0,#0x7f
        0x100020dc:    f7ffff6e    ..n.    BL       BBRFWrite ; 0x10001fbc
        0x100020e0:    2103        .!      MOVS     r1,#3
        0x100020e2:    2000        .       MOVS     r0,#0
        0x100020e4:    f7ffff6a    ..j.    BL       BBRFWrite ; 0x10001fbc
        0x100020e8:    2100        .!      MOVS     r1,#0
        0x100020ea:    207f        .       MOVS     r0,#0x7f
        0x100020ec:    f7ffff66    ..f.    BL       BBRFWrite ; 0x10001fbc
        0x100020f0:    2100        .!      MOVS     r1,#0
        0x100020f2:    2003        .       MOVS     r0,#3
        0x100020f4:    f7ffff62    ..b.    BL       BBRFWrite ; 0x10001fbc
        0x100020f8:    2100        .!      MOVS     r1,#0
        0x100020fa:    2004        .       MOVS     r0,#4
        0x100020fc:    f7ffff5e    ..^.    BL       BBRFWrite ; 0x10001fbc
        0x10002100:    78a0        .x      LDRB     r0,[r4,#2]
        0x10002102:    f7ffff83    ....    BL       UartEn ; 0x1000200c
        0x10002106:    2001        .       MOVS     r0,#1
        0x10002108:    bd10        ..      POP      {r4,pc}
    ClockSwitch
        0x1000210a:    b510        ..      PUSH     {r4,lr}
        0x1000210c:    f7ffff8e    ....    BL       _SYS32kClockSwitch ; 0x1000202c
        0x10002110:    2001        .       MOVS     r0,#1
        0x10002112:    bd10        ..      POP      {r4,pc}
    RFWakeup
        0x10002114:    481f        .H      LDR      r0,[pc,#124] ; [0x10002194] = 0x4707
        0x10002116:    b510        ..      PUSH     {r4,lr}
        0x10002118:    300c        .0      ADDS     r0,r0,#0xc
        0x1000211a:    4780        .G      BLX      r0
        0x1000211c:    4815        .H      LDR      r0,[pc,#84] ; [0x10002174] = 0x200030b0
        0x1000211e:    6a40        @j      LDR      r0,[r0,#0x24]
        0x10002120:    7a01        .z      LDRB     r1,[r0,#8]
        0x10002122:    22df        ."      MOVS     r2,#0xdf
        0x10002124:    4011        .@      ANDS     r1,r1,r2
        0x10002126:    7201        .r      STRB     r1,[r0,#8]
        0x10002128:    2001        .       MOVS     r0,#1
        0x1000212a:    bd10        ..      POP      {r4,pc}
    LPOCalibration
        0x1000212c:    b5fe        ..      PUSH     {r1-r7,lr}
        0x1000212e:    481a        .H      LDR      r0,[pc,#104] ; [0x10002198] = 0x65a7
        0x10002130:    3018        .0      ADDS     r0,r0,#0x18
        0x10002132:    4780        .G      BLX      r0
        0x10002134:    4c0f        .L      LDR      r4,[pc,#60] ; [0x10002174] = 0x200030b0
        0x10002136:    9001        ..      STR      r0,[sp,#4]
        0x10002138:    6a60        `j      LDR      r0,[r4,#0x24]
        0x1000213a:    7a81        .z      LDRB     r1,[r0,#0xa]
        0x1000213c:    7a00        .z      LDRB     r0,[r0,#8]
        0x1000213e:    07cf        ..      LSLS     r7,r1,#31
        0x10002140:    0fff        ..      LSRS     r7,r7,#31
        0x10002142:    2600        .&      MOVS     r6,#0
        0x10002144:    b672        r.      CPSID    i
        0x10002146:    0780        ..      LSLS     r0,r0,#30
        0x10002148:    d002        ..      BEQ      0x10002150 ; LPOCalibration + 36
        0x1000214a:    2601        .&      MOVS     r6,#1
        0x1000214c:    f7ffffe2    ....    BL       RFWakeup ; 0x10002114
        0x10002150:    4808        .H      LDR      r0,[pc,#32] ; [0x10002174] = 0x200030b0
        0x10002152:    6a40        @j      LDR      r0,[r0,#0x24]
        0x10002154:    7a81        .z      LDRB     r1,[r0,#0xa]
        0x10002156:    0849        I.      LSRS     r1,r1,#1
        0x10002158:    0049        I.      LSLS     r1,r1,#1
        0x1000215a:    7281        .r      STRB     r1,[r0,#0xa]
        0x1000215c:    490e        .I      LDR      r1,[pc,#56] ; [0x10002198] = 0x65a7
        0x1000215e:    2001        .       MOVS     r0,#1
        0x10002160:    4788        .G      BLX      r1
        0x10002162:    2002        .       MOVS     r0,#2
        0x10002164:    f7ffff62    ..b.    BL       _SYS32kClockSwitch ; 0x1000202c
        0x10002168:    2064        d       MOVS     r0,#0x64
        0x1000216a:    e017        ..      B        0x1000219c ; LPOCalibration + 112
    $d
        0x1000216c:    00001527    '...    DCD    5415
        0x10002170:    000016c1    ....    DCD    5825
        0x10002174:    200030b0    .0.     DCD    536883376
        0x10002178:    40020020     ..@    DCD    1073872928
        0x1000217c:    20003eef    .>.     DCD    536887023
        0x10002180:    000044ab    .D..    DCD    17579
        0x10002184:    3ff40000    ...?    DCD    1072955392
        0x10002188:    10001e1b    ....    DCD    268443163
        0x1000218c:    00004233    3B..    DCD    16947
        0x10002190:    000061c5    .a..    DCD    25029
        0x10002194:    00004707    .G..    DCD    18183
        0x10002198:    000065a7    .e..    DCD    26023
    $t
        0x1000219c:    49fe        .I      LDR      r1,[pc,#1016] ; [0x10002598] = 0x61c5
        0x1000219e:    3166        f1      ADDS     r1,r1,#0x66
        0x100021a0:    4788        .G      BLX      r1
        0x100021a2:    2400        .$      MOVS     r4,#0
        0x100021a4:    4669        iF      MOV      r1,sp
        0x100021a6:    700c        .p      STRB     r4,[r1,#0]
        0x100021a8:    4625        %F      MOV      r5,r4
        0x100021aa:    2101        .!      MOVS     r1,#1
        0x100021ac:    207f        .       MOVS     r0,#0x7f
        0x100021ae:    f7ffff05    ....    BL       BBRFWrite ; 0x10001fbc
        0x100021b2:    2100        .!      MOVS     r1,#0
        0x100021b4:    200a        .       MOVS     r0,#0xa
        0x100021b6:    f7ffff01    ....    BL       BBRFWrite ; 0x10001fbc
        0x100021ba:    2122        "!      MOVS     r1,#0x22
        0x100021bc:    200a        .       MOVS     r0,#0xa
        0x100021be:    f7fffefd    ....    BL       BBRFWrite ; 0x10001fbc
        0x100021c2:    4669        iF      MOV      r1,sp
        0x100021c4:    200a        .       MOVS     r0,#0xa
        0x100021c6:    f7fffef7    ....    BL       BBRFRead ; 0x10001fb8
        0x100021ca:    4668        hF      MOV      r0,sp
        0x100021cc:    7800        .x      LDRB     r0,[r0,#0]
        0x100021ce:    0740        @.      LSLS     r0,r0,#29
        0x100021d0:    d4ef        ..      BMI      0x100021b2 ; LPOCalibration + 134
        0x100021d2:    4669        iF      MOV      r1,sp
        0x100021d4:    200a        .       MOVS     r0,#0xa
        0x100021d6:    f7fffeef    ....    BL       BBRFRead ; 0x10001fb8
        0x100021da:    4668        hF      MOV      r0,sp
        0x100021dc:    7800        .x      LDRB     r0,[r0,#0]
        0x100021de:    0740        @.      LSLS     r0,r0,#29
        0x100021e0:    d505        ..      BPL      0x100021ee ; LPOCalibration + 194
        0x100021e2:    4668        hF      MOV      r0,sp
        0x100021e4:    7800        .x      LDRB     r0,[r0,#0]
        0x100021e6:    0700        ..      LSLS     r0,r0,#28
        0x100021e8:    d406        ..      BMI      0x100021f8 ; LPOCalibration + 204
        0x100021ea:    2501        .%      MOVS     r5,#1
        0x100021ec:    e004        ..      B        0x100021f8 ; LPOCalibration + 204
        0x100021ee:    1c64        d.      ADDS     r4,r4,#1
        0x100021f0:    48ea        .H      LDR      r0,[pc,#936] ; [0x1000259c] = 0xffff
        0x100021f2:    b2a4        ..      UXTH     r4,r4
        0x100021f4:    4284        .B      CMP      r4,r0
        0x100021f6:    d3ec        ..      BCC      0x100021d2 ; LPOCalibration + 166
        0x100021f8:    49e7        .I      LDR      r1,[pc,#924] ; [0x10002598] = 0x61c5
        0x100021fa:    2064        d       MOVS     r0,#0x64
        0x100021fc:    3166        f1      ADDS     r1,r1,#0x66
        0x100021fe:    4788        .G      BLX      r1
        0x10002200:    2000        .       MOVS     r0,#0
        0x10002202:    f7ffff13    ....    BL       _SYS32kClockSwitch ; 0x1000202c
        0x10002206:    49e6        .I      LDR      r1,[pc,#920] ; [0x100025a0] = 0x65a7
        0x10002208:    9801        ..      LDR      r0,[sp,#4]
        0x1000220a:    4788        .G      BLX      r1
        0x1000220c:    48e5        .H      LDR      r0,[pc,#916] ; [0x100025a4] = 0x200030b0
        0x1000220e:    6a40        @j      LDR      r0,[r0,#0x24]
        0x10002210:    7a81        .z      LDRB     r1,[r0,#0xa]
        0x10002212:    0849        I.      LSRS     r1,r1,#1
        0x10002214:    0049        I.      LSLS     r1,r1,#1
        0x10002216:    4339        9C      ORRS     r1,r1,r7
        0x10002218:    7281        .r      STRB     r1,[r0,#0xa]
        0x1000221a:    2e00        ..      CMP      r6,#0
        0x1000221c:    d001        ..      BEQ      0x10002222 ; LPOCalibration + 246
        0x1000221e:    48e2        .H      LDR      r0,[pc,#904] ; [0x100025a8] = 0x4707
        0x10002220:    4780        .G      BLX      r0
        0x10002222:    b662        b.      CPSIE    i
        0x10002224:    2d00        .-      CMP      r5,#0
        0x10002226:    d001        ..      BEQ      0x1000222c ; LPOCalibration + 256
        0x10002228:    2001        .       MOVS     r0,#1
        0x1000222a:    bdfe        ..      POP      {r1-r7,pc}
        0x1000222c:    2000        .       MOVS     r0,#0
        0x1000222e:    bdfe        ..      POP      {r1-r7,pc}
    smart_latency_clear
        0x10002230:    b510        ..      PUSH     {r4,lr}
        0x10002232:    2111        .!      MOVS     r1,#0x11
        0x10002234:    48dd        .H      LDR      r0,[pc,#884] ; [0x100025ac] = 0x20003eef
        0x10002236:    f001fffe    ....    BL       __aeabi_memclr ; 0x10004236
        0x1000223a:    bd10        ..      POP      {r4,pc}
    Lib_EvtCallback
        0x1000223c:    b570        p.      PUSH     {r4-r6,lr}
        0x1000223e:    4604        .F      MOV      r4,r0
        0x10002240:    1c40        @.      ADDS     r0,r0,#1
        0x10002242:    f002f80c    ....    BL       __aeabi_uread4 ; 0x1000425e
        0x10002246:    2802        .(      CMP      r0,#2
        0x10002248:    d018        ..      BEQ      0x1000227c ; Lib_EvtCallback + 64
        0x1000224a:    2804        .(      CMP      r0,#4
        0x1000224c:    d019        ..      BEQ      0x10002282 ; Lib_EvtCallback + 70
        0x1000224e:    2101        .!      MOVS     r1,#1
        0x10002250:    0449        I.      LSLS     r1,r1,#17
        0x10002252:    4288        .B      CMP      r0,r1
        0x10002254:    d144        D.      BNE      0x100022e0 ; Lib_EvtCallback + 164
        0x10002256:    4625        %F      MOV      r5,r4
        0x10002258:    3520         5      ADDS     r5,r5,#0x20
        0x1000225a:    7b68        h{      LDRB     r0,[r5,#0xd]
        0x1000225c:    2309        .#      MOVS     r3,#9
        0x1000225e:    0701        ..      LSLS     r1,r0,#28
        0x10002260:    0902        ..      LSRS     r2,r0,#4
        0x10002262:    0f09        ..      LSRS     r1,r1,#28
        0x10002264:    2000        .       MOVS     r0,#0
        0x10002266:    2a07        .*      CMP      r2,#7
        0x10002268:    d019        ..      BEQ      0x1000229e ; Lib_EvtCallback + 98
        0x1000226a:    2a03        .*      CMP      r2,#3
        0x1000226c:    d01d        ..      BEQ      0x100022aa ; Lib_EvtCallback + 110
        0x1000226e:    2a02        .*      CMP      r2,#2
        0x10002270:    d022        ".      BEQ      0x100022b8 ; Lib_EvtCallback + 124
        0x10002272:    2a01        .*      CMP      r2,#1
        0x10002274:    d026        &.      BEQ      0x100022c4 ; Lib_EvtCallback + 136
        0x10002276:    2a00        .*      CMP      r2,#0
        0x10002278:    d02a        *.      BEQ      0x100022d0 ; Lib_EvtCallback + 148
        0x1000227a:    e02f        /.      B        0x100022dc ; Lib_EvtCallback + 160
        0x1000227c:    f7ffffd8    ....    BL       smart_latency_clear ; 0x10002230
        0x10002280:    e037        7.      B        0x100022f2 ; Lib_EvtCallback + 182
        0x10002282:    48c8        .H      LDR      r0,[pc,#800] ; [0x100025a4] = 0x200030b0
        0x10002284:    21ff        .!      MOVS     r1,#0xff
        0x10002286:    6880        .h      LDR      r0,[r0,#8]
        0x10002288:    2201        ."      MOVS     r2,#1
        0x1000228a:    3135        51      ADDS     r1,r1,#0x35
        0x1000228c:    540a        .T      STRB     r2,[r1,r0]
        0x1000228e:    7880        .x      LDRB     r0,[r0,#2]
        0x10002290:    2800        .(      CMP      r0,#0
        0x10002292:    d101        ..      BNE      0x10002298 ; Lib_EvtCallback + 92
        0x10002294:    f7ffff4a    ..J.    BL       LPOCalibration ; 0x1000212c
        0x10002298:    f7fffe93    ....    BL       RCOSCCalibration ; 0x10001fc2
        0x1000229c:    e029        ).      B        0x100022f2 ; Lib_EvtCallback + 182
        0x1000229e:    1a58        X.      SUBS     r0,r3,r1
        0x100022a0:    2106        .!      MOVS     r1,#6
        0x100022a2:    4348        HC      MULS     r0,r1,r0
        0x100022a4:    2141        A!      MOVS     r1,#0x41
        0x100022a6:    43c9        .C      MVNS     r1,r1
        0x100022a8:    e004        ..      B        0x100022b4 ; Lib_EvtCallback + 120
        0x100022aa:    1a58        X.      SUBS     r0,r3,r1
        0x100022ac:    2106        .!      MOVS     r1,#6
        0x100022ae:    4348        HC      MULS     r0,r1,r0
        0x100022b0:    2135        5!      MOVS     r1,#0x35
        0x100022b2:    43c9        .C      MVNS     r1,r1
        0x100022b4:    1a08        ..      SUBS     r0,r1,r0
        0x100022b6:    e010        ..      B        0x100022da ; Lib_EvtCallback + 158
        0x100022b8:    1a58        X.      SUBS     r0,r3,r1
        0x100022ba:    2106        .!      MOVS     r1,#6
        0x100022bc:    4348        HC      MULS     r0,r1,r0
        0x100022be:    2123        #!      MOVS     r1,#0x23
        0x100022c0:    43c9        .C      MVNS     r1,r1
        0x100022c2:    e7f7        ..      B        0x100022b4 ; Lib_EvtCallback + 120
        0x100022c4:    1a58        X.      SUBS     r0,r3,r1
        0x100022c6:    2106        .!      MOVS     r1,#6
        0x100022c8:    4348        HC      MULS     r0,r1,r0
        0x100022ca:    2117        .!      MOVS     r1,#0x17
        0x100022cc:    43c9        .C      MVNS     r1,r1
        0x100022ce:    e7f1        ..      B        0x100022b4 ; Lib_EvtCallback + 120
        0x100022d0:    1a58        X.      SUBS     r0,r3,r1
        0x100022d2:    2106        .!      MOVS     r1,#6
        0x100022d4:    4348        HC      MULS     r0,r1,r0
        0x100022d6:    1d80        ..      ADDS     r0,r0,#6
        0x100022d8:    4240        @B      RSBS     r0,r0,#0
        0x100022da:    b240        @.      SXTB     r0,r0
        0x100022dc:    7368        hs      STRB     r0,[r5,#0xd]
        0x100022de:    e008        ..      B        0x100022f2 ; Lib_EvtCallback + 182
        0x100022e0:    2840        @(      CMP      r0,#0x40
        0x100022e2:    d01d        ..      BEQ      0x10002320 ; Lib_EvtCallback + 228
        0x100022e4:    2101        .!      MOVS     r1,#1
        0x100022e6:    03c9        ..      LSLS     r1,r1,#15
        0x100022e8:    4288        .B      CMP      r0,r1
        0x100022ea:    d102        ..      BNE      0x100022f2 ; Lib_EvtCallback + 182
        0x100022ec:    1d60        `.      ADDS     r0,r4,#5
        0x100022ee:    f7fffe18    ....    BL       smart_update_latency_updatersp ; 0x10001f22
        0x100022f2:    49ae        .I      LDR      r1,[pc,#696] ; [0x100025ac] = 0x20003eef
        0x100022f4:    7848        Hx      LDRB     r0,[r1,#1]
        0x100022f6:    7809        .x      LDRB     r1,[r1,#0]
        0x100022f8:    0200        ..      LSLS     r0,r0,#8
        0x100022fa:    4308        .C      ORRS     r0,r0,r1
        0x100022fc:    0680        ..      LSLS     r0,r0,#26
        0x100022fe:    d507        ..      BPL      0x10002310 ; Lib_EvtCallback + 212
        0x10002300:    1c60        `.      ADDS     r0,r4,#1
        0x10002302:    f001ffac    ....    BL       __aeabi_uread4 ; 0x1000425e
        0x10002306:    0500        ..      LSLS     r0,r0,#20
        0x10002308:    0f00        ..      LSRS     r0,r0,#28
        0x1000230a:    d001        ..      BEQ      0x10002310 ; Lib_EvtCallback + 212
        0x1000230c:    f7fffd9f    ....    BL       smart_latency_start ; 0x10001e4e
        0x10002310:    48a4        .H      LDR      r0,[pc,#656] ; [0x100025a4] = 0x200030b0
        0x10002312:    3030        00      ADDS     r0,r0,#0x30
        0x10002314:    f001ffa3    ....    BL       __aeabi_uread4 ; 0x1000425e
        0x10002318:    4601        .F      MOV      r1,r0
        0x1000231a:    4620         F      MOV      r0,r4
        0x1000231c:    4788        .G      BLX      r1
        0x1000231e:    bd70        p.      POP      {r4-r6,pc}
        0x10002320:    48a0        .H      LDR      r0,[pc,#640] ; [0x100025a4] = 0x200030b0
        0x10002322:    302c        ,0      ADDS     r0,r0,#0x2c
        0x10002324:    f001ff9b    ....    BL       __aeabi_uread4 ; 0x1000425e
        0x10002328:    0640        @.      LSLS     r0,r0,#25
        0x1000232a:    d5e2        ..      BPL      0x100022f2 ; Lib_EvtCallback + 182
        0x1000232c:    bd70        p.      POP      {r4-r6,pc}
    TimerStop
        0x1000232e:    49a0        .I      LDR      r1,[pc,#640] ; [0x100025b0] = 0x44b3
        0x10002330:    4708        .G      BX       r1
    smart_update_retry
        0x10002332:    b51c        ..      PUSH     {r2-r4,lr}
        0x10002334:    489d        .H      LDR      r0,[pc,#628] ; [0x100025ac] = 0x20003eef
        0x10002336:    2108        .!      MOVS     r1,#8
        0x10002338:    7001        .p      STRB     r1,[r0,#0]
        0x1000233a:    2100        .!      MOVS     r1,#0
        0x1000233c:    7041        Ap      STRB     r1,[r0,#1]
        0x1000233e:    4601        .F      MOV      r1,r0
        0x10002340:    7b08        .{      LDRB     r0,[r1,#0xc]
        0x10002342:    7aca        .z      LDRB     r2,[r1,#0xb]
        0x10002344:    0200        ..      LSLS     r0,r0,#8
        0x10002346:    1cc9        ..      ADDS     r1,r1,#3
        0x10002348:    4310        .C      ORRS     r0,r0,r2
        0x1000234a:    d02f        /.      BEQ      0x100023ac ; smart_update_retry + 122
        0x1000234c:    794a        Jy      LDRB     r2,[r1,#5]
        0x1000234e:    790b        .y      LDRB     r3,[r1,#4]
        0x10002350:    0212        ..      LSLS     r2,r2,#8
        0x10002352:    431a        .C      ORRS     r2,r2,r3
        0x10002354:    1a82        ..      SUBS     r2,r0,r2
        0x10002356:    b292        ..      UXTH     r2,r2
        0x10002358:    466b        kF      MOV      r3,sp
        0x1000235a:    801a        ..      STRH     r2,[r3,#0]
        0x1000235c:    8058        X.      STRH     r0,[r3,#2]
        0x1000235e:    2306        .#      MOVS     r3,#6
        0x10002360:    2a06        .*      CMP      r2,#6
        0x10002362:    d201        ..      BCS      0x10002368 ; smart_update_retry + 54
        0x10002364:    466a        jF      MOV      r2,sp
        0x10002366:    8013        ..      STRH     r3,[r2,#0]
        0x10002368:    2806        .(      CMP      r0,#6
        0x1000236a:    d201        ..      BCS      0x10002370 ; smart_update_retry + 62
        0x1000236c:    4668        hF      MOV      r0,sp
        0x1000236e:    8043        C.      STRH     r3,[r0,#2]
        0x10002370:    7b48        H{      LDRB     r0,[r1,#0xd]
        0x10002372:    7b09        .{      LDRB     r1,[r1,#0xc]
        0x10002374:    0200        ..      LSLS     r0,r0,#8
        0x10002376:    4308        .C      ORRS     r0,r0,r1
        0x10002378:    4669        iF      MOV      r1,sp
        0x1000237a:    80c8        ..      STRH     r0,[r1,#6]
        0x1000237c:    488b        .H      LDR      r0,[pc,#556] ; [0x100025ac] = 0x20003eef
        0x1000237e:    7b81        .{      LDRB     r1,[r0,#0xe]
        0x10002380:    7b42        B{      LDRB     r2,[r0,#0xd]
        0x10002382:    0208        ..      LSLS     r0,r1,#8
        0x10002384:    4310        .C      ORRS     r0,r0,r2
        0x10002386:    4669        iF      MOV      r1,sp
        0x10002388:    8088        ..      STRH     r0,[r1,#4]
        0x1000238a:    4886        .H      LDR      r0,[pc,#536] ; [0x100025a4] = 0x200030b0
        0x1000238c:    6880        .h      LDR      r0,[r0,#8]
        0x1000238e:    3023        #0      ADDS     r0,r0,#0x23
        0x10002390:    7c41        A|      LDRB     r1,[r0,#0x11]
        0x10002392:    7c02        .|      LDRB     r2,[r0,#0x10]
        0x10002394:    0208        ..      LSLS     r0,r1,#8
        0x10002396:    4310        .C      ORRS     r0,r0,r2
        0x10002398:    d002        ..      BEQ      0x100023a0 ; smart_update_retry + 110
        0x1000239a:    2000        .       MOVS     r0,#0
        0x1000239c:    f7fffd05    ....    BL       ConnectionLatencyMode ; 0x10001daa
        0x100023a0:    4984        .I      LDR      r1,[pc,#528] ; [0x100025b4] = 0x4233
        0x100023a2:    4668        hF      MOV      r0,sp
        0x100023a4:    4788        .G      BLX      r1
        0x100023a6:    4982        .I      LDR      r1,[pc,#520] ; [0x100025b0] = 0x44b3
        0x100023a8:    2040        @       MOVS     r0,#0x40
        0x100023aa:    4788        .G      BLX      r1
        0x100023ac:    bd1c        ..      POP      {r2-r4,pc}
    sw_timer_update_callback
        0x100023ae:    497f        .I      LDR      r1,[pc,#508] ; [0x100025ac] = 0x20003eef
        0x100023b0:    7848        Hx      LDRB     r0,[r1,#1]
        0x100023b2:    780a        .x      LDRB     r2,[r1,#0]
        0x100023b4:    0200        ..      LSLS     r0,r0,#8
        0x100023b6:    4310        .C      ORRS     r0,r0,r2
        0x100023b8:    05c2        ..      LSLS     r2,r0,#23
        0x100023ba:    d50c        ..      BPL      0x100023d6 ; sw_timer_update_callback + 40
        0x100023bc:    22ff        ."      MOVS     r2,#0xff
        0x100023be:    3201        .2      ADDS     r2,#1
        0x100023c0:    4390        .C      BICS     r0,r0,r2
        0x100023c2:    7008        .p      STRB     r0,[r1,#0]
        0x100023c4:    0a00        ..      LSRS     r0,r0,#8
        0x100023c6:    7048        Hp      STRB     r0,[r1,#1]
        0x100023c8:    7908        .y      LDRB     r0,[r1,#4]
        0x100023ca:    1e40        @.      SUBS     r0,r0,#1
        0x100023cc:    0600        ..      LSLS     r0,r0,#24
        0x100023ce:    0e00        ..      LSRS     r0,r0,#24
        0x100023d0:    7108        .q      STRB     r0,[r1,#4]
        0x100023d2:    d009        ..      BEQ      0x100023e8 ; sw_timer_update_callback + 58
        0x100023d4:    e7ad        ..      B        smart_update_retry ; 0x10002332
        0x100023d6:    2220         "      MOVS     r2,#0x20
        0x100023d8:    4310        .C      ORRS     r0,r0,r2
        0x100023da:    2210        ."      MOVS     r2,#0x10
        0x100023dc:    4390        .C      BICS     r0,r0,r2
        0x100023de:    2204        ."      MOVS     r2,#4
        0x100023e0:    4310        .C      ORRS     r0,r0,r2
        0x100023e2:    7008        .p      STRB     r0,[r1,#0]
        0x100023e4:    0a00        ..      LSRS     r0,r0,#8
        0x100023e6:    7048        Hp      STRB     r0,[r1,#1]
        0x100023e8:    4770        pG      BX       lr
    smart_update_latency_updatareq
        0x100023ea:    b5fe        ..      PUSH     {r1-r7,lr}
        0x100023ec:    4d6f        oM      LDR      r5,[pc,#444] ; [0x100025ac] = 0x20003eef
        0x100023ee:    4604        .F      MOV      r4,r0
        0x100023f0:    7868        hx      LDRB     r0,[r5,#1]
        0x100023f2:    7829        )x      LDRB     r1,[r5,#0]
        0x100023f4:    0200        ..      LSLS     r0,r0,#8
        0x100023f6:    4308        .C      ORRS     r0,r0,r1
        0x100023f8:    0700        ..      LSLS     r0,r0,#28
        0x100023fa:    d57d        }.      BPL      0x100024f8 ; smart_update_latency_updatareq + 270
        0x100023fc:    486e        nH      LDR      r0,[pc,#440] ; [0x100025b8] = 0x55bf
        0x100023fe:    4780        .G      BLX      r0
        0x10002400:    7869        ix      LDRB     r1,[r5,#1]
        0x10002402:    782a        *x      LDRB     r2,[r5,#0]
        0x10002404:    0209        ..      LSLS     r1,r1,#8
        0x10002406:    4311        .C      ORRS     r1,r1,r2
        0x10002408:    2208        ."      MOVS     r2,#8
        0x1000240a:    4391        .C      BICS     r1,r1,r2
        0x1000240c:    7029        )p      STRB     r1,[r5,#0]
        0x1000240e:    0a0a        ..      LSRS     r2,r1,#8
        0x10002410:    706a        jp      STRB     r2,[r5,#1]
        0x10002412:    7a6b        kz      LDRB     r3,[r5,#9]
        0x10002414:    4606        .F      MOV      r6,r0
        0x10002416:    4628        (F      MOV      r0,r5
        0x10002418:    061a        ..      LSLS     r2,r3,#24
        0x1000241a:    d56e        n.      BPL      0x100024fa ; smart_update_latency_updatareq + 272
        0x1000241c:    79a2        .y      LDRB     r2,[r4,#6]
        0x1000241e:    7967        gy      LDRB     r7,[r4,#5]
        0x10002420:    0212        ..      LSLS     r2,r2,#8
        0x10002422:    1c65        e.      ADDS     r5,r4,#1
        0x10002424:    433a        :C      ORRS     r2,r2,r7
        0x10002426:    4f5f        _O      LDR      r7,[pc,#380] ; [0x100025a4] = 0x200030b0
        0x10002428:    1ce4        ..      ADDS     r4,r4,#3
        0x1000242a:    2a00        .*      CMP      r2,#0
        0x1000242c:    d077        w.      BEQ      0x1000251e ; smart_update_latency_updatareq + 308
        0x1000242e:    2210        ."      MOVS     r2,#0x10
        0x10002430:    4311        .C      ORRS     r1,r1,r2
        0x10002432:    7001        .p      STRB     r1,[r0,#0]
        0x10002434:    0a0a        ..      LSRS     r2,r1,#8
        0x10002436:    7042        Bp      STRB     r2,[r0,#1]
        0x10002438:    0688        ..      LSLS     r0,r1,#26
        0x1000243a:    d45e        ^.      BMI      0x100024fa ; smart_update_latency_updatareq + 272
        0x1000243c:    7968        hy      LDRB     r0,[r5,#5]
        0x1000243e:    7929        )y      LDRB     r1,[r5,#4]
        0x10002440:    0200        ..      LSLS     r0,r0,#8
        0x10002442:    4308        .C      ORRS     r0,r0,r1
        0x10002444:    d032        2.      BEQ      0x100024ac ; smart_update_latency_updatareq + 194
        0x10002446:    f002f925    ..%.    BL       __aeabi_ui2d ; 0x10004694
        0x1000244a:    9101        ..      STR      r1,[sp,#4]
        0x1000244c:    9000        ..      STR      r0,[sp,#0]
        0x1000244e:    7860        `x      LDRB     r0,[r4,#1]
        0x10002450:    7821        !x      LDRB     r1,[r4,#0]
        0x10002452:    0200        ..      LSLS     r0,r0,#8
        0x10002454:    4308        .C      ORRS     r0,r0,r1
        0x10002456:    f002f91d    ....    BL       __aeabi_ui2d ; 0x10004694
        0x1000245a:    4c58        XL      LDR      r4,[pc,#352] ; [0x100025bc] = 0x3ff40000
        0x1000245c:    2200        ."      MOVS     r2,#0
        0x1000245e:    4623        #F      MOV      r3,r4
        0x10002460:    f002f81c    ....    BL       __aeabi_dmul ; 0x1000449c
        0x10002464:    9b01        ..      LDR      r3,[sp,#4]
        0x10002466:    9a00        ..      LDR      r2,[sp,#0]
        0x10002468:    f002f818    ....    BL       __aeabi_dmul ; 0x1000449c
        0x1000246c:    9101        ..      STR      r1,[sp,#4]
        0x1000246e:    9000        ..      STR      r0,[sp,#0]
        0x10002470:    68b8        .h      LDR      r0,[r7,#8]
        0x10002472:    3021        !0      ADDS     r0,r0,#0x21
        0x10002474:    7c41        A|      LDRB     r1,[r0,#0x11]
        0x10002476:    7c02        .|      LDRB     r2,[r0,#0x10]
        0x10002478:    0208        ..      LSLS     r0,r1,#8
        0x1000247a:    4310        .C      ORRS     r0,r0,r2
        0x1000247c:    f002f90a    ....    BL       __aeabi_ui2d ; 0x10004694
        0x10002480:    2200        ."      MOVS     r2,#0
        0x10002482:    4623        #F      MOV      r3,r4
        0x10002484:    f002f80a    ....    BL       __aeabi_dmul ; 0x1000449c
        0x10002488:    4607        .F      MOV      r7,r0
        0x1000248a:    460c        .F      MOV      r4,r1
        0x1000248c:    7a68        hz      LDRB     r0,[r5,#9]
        0x1000248e:    7a29        )z      LDRB     r1,[r5,#8]
        0x10002490:    0200        ..      LSLS     r0,r0,#8
        0x10002492:    4308        .C      ORRS     r0,r0,r1
        0x10002494:    1b80        ..      SUBS     r0,r0,r6
        0x10002496:    f002f8e9    ....    BL       __aeabi_i2d ; 0x1000466c
        0x1000249a:    463a        :F      MOV      r2,r7
        0x1000249c:    4623        #F      MOV      r3,r4
        0x1000249e:    f001fffd    ....    BL       __aeabi_dmul ; 0x1000449c
        0x100024a2:    9b01        ..      LDR      r3,[sp,#4]
        0x100024a4:    9a00        ..      LDR      r2,[sp,#0]
        0x100024a6:    f001ff47    ..G.    BL       __aeabi_dadd ; 0x10004338
        0x100024aa:    e024        $.      B        0x100024f6 ; smart_update_latency_updatareq + 268
        0x100024ac:    7860        `x      LDRB     r0,[r4,#1]
        0x100024ae:    7821        !x      LDRB     r1,[r4,#0]
        0x100024b0:    0200        ..      LSLS     r0,r0,#8
        0x100024b2:    4308        .C      ORRS     r0,r0,r1
        0x100024b4:    f002f8d2    ....    BL       __aeabi_ui2f ; 0x1000465c
        0x100024b8:    4604        .F      MOV      r4,r0
        0x100024ba:    68b8        .h      LDR      r0,[r7,#8]
        0x100024bc:    3021        !0      ADDS     r0,r0,#0x21
        0x100024be:    7c41        A|      LDRB     r1,[r0,#0x11]
        0x100024c0:    7c02        .|      LDRB     r2,[r0,#0x10]
        0x100024c2:    0208        ..      LSLS     r0,r1,#8
        0x100024c4:    4310        .C      ORRS     r0,r0,r2
        0x100024c6:    f002f8c9    ....    BL       __aeabi_ui2f ; 0x1000465c
        0x100024ca:    4621        !F      MOV      r1,r4
        0x100024cc:    f001feda    ....    BL       __aeabi_fadd ; 0x10004284
        0x100024d0:    f002f90c    ....    BL       __aeabi_f2d ; 0x100046ec
        0x100024d4:    2200        ."      MOVS     r2,#0
        0x100024d6:    4b39        9K      LDR      r3,[pc,#228] ; [0x100025bc] = 0x3ff40000
        0x100024d8:    f001ffe0    ....    BL       __aeabi_dmul ; 0x1000449c
        0x100024dc:    4607        .F      MOV      r7,r0
        0x100024de:    460c        .F      MOV      r4,r1
        0x100024e0:    7a68        hz      LDRB     r0,[r5,#9]
        0x100024e2:    7a29        )z      LDRB     r1,[r5,#8]
        0x100024e4:    0200        ..      LSLS     r0,r0,#8
        0x100024e6:    4308        .C      ORRS     r0,r0,r1
        0x100024e8:    1b80        ..      SUBS     r0,r0,r6
        0x100024ea:    f002f8bf    ....    BL       __aeabi_i2d ; 0x1000466c
        0x100024ee:    463a        :F      MOV      r2,r7
        0x100024f0:    4623        #F      MOV      r3,r4
        0x100024f2:    f001ffd3    ....    BL       __aeabi_dmul ; 0x1000449c
        0x100024f6:    e002        ..      B        0x100024fe ; smart_update_latency_updatareq + 276
        0x100024f8:    e087        ..      B        0x1000260a ; smart_update_latency_updatareq + 544
        0x100024fa:    e07d        }.      B        0x100025f8 ; smart_update_latency_updatareq + 526
        0x100024fc:    e00f        ..      B        0x1000251e ; smart_update_latency_updatareq + 308
        0x100024fe:    2200        ."      MOVS     r2,#0
        0x10002500:    4b2f        /K      LDR      r3,[pc,#188] ; [0x100025c0] = 0x40590000
        0x10002502:    f002f833    ..3.    BL       __aeabi_ddiv ; 0x1000456c
        0x10002506:    f002f8d3    ....    BL       __aeabi_d2uiz ; 0x100046b0
        0x1000250a:    0401        ..      LSLS     r1,r0,#16
        0x1000250c:    0c09        ..      LSRS     r1,r1,#16
        0x1000250e:    d100        ..      BNE      0x10002512 ; smart_update_latency_updatareq + 296
        0x10002510:    2101        .!      MOVS     r1,#1
        0x10002512:    4b2c        ,K      LDR      r3,[pc,#176] ; [0x100025c4] = 0x100023af
        0x10002514:    2200        ."      MOVS     r2,#0
        0x10002516:    2080        .       MOVS     r0,#0x80
        0x10002518:    f7fffc94    ....    BL       TimerStart ; 0x10001e44
        0x1000251c:    e06c        l.      B        0x100025f8 ; smart_update_latency_updatareq + 526
        0x1000251e:    069a        ..      LSLS     r2,r3,#26
        0x10002520:    d56a        j.      BPL      0x100025f8 ; smart_update_latency_updatareq + 526
        0x10002522:    7882        .x      LDRB     r2,[r0,#2]
        0x10002524:    2a01        .*      CMP      r2,#1
        0x10002526:    d167        g.      BNE      0x100025f8 ; smart_update_latency_updatareq + 526
        0x10002528:    068a        ..      LSLS     r2,r1,#26
        0x1000252a:    d465        e.      BMI      0x100025f8 ; smart_update_latency_updatareq + 526
        0x1000252c:    22ff        ."      MOVS     r2,#0xff
        0x1000252e:    481f        .H      LDR      r0,[pc,#124] ; [0x100025ac] = 0x20003eef
        0x10002530:    3201        .2      ADDS     r2,#1
        0x10002532:    4311        .C      ORRS     r1,r1,r2
        0x10002534:    7001        .p      STRB     r1,[r0,#0]
        0x10002536:    0a09        ..      LSRS     r1,r1,#8
        0x10002538:    7041        Ap      STRB     r1,[r0,#1]
        0x1000253a:    7860        `x      LDRB     r0,[r4,#1]
        0x1000253c:    7821        !x      LDRB     r1,[r4,#0]
        0x1000253e:    0200        ..      LSLS     r0,r0,#8
        0x10002540:    4308        .C      ORRS     r0,r0,r1
        0x10002542:    491a        .I      LDR      r1,[pc,#104] ; [0x100025ac] = 0x20003eef
        0x10002544:    7b0a        .{      LDRB     r2,[r1,#0xc]
        0x10002546:    7acb        .z      LDRB     r3,[r1,#0xb]
        0x10002548:    0211        ..      LSLS     r1,r2,#8
        0x1000254a:    4319        .C      ORRS     r1,r1,r3
        0x1000254c:    4288        .B      CMP      r0,r1
        0x1000254e:    d953        S.      BLS      0x100025f8 ; smart_update_latency_updatareq + 526
        0x10002550:    f002f884    ....    BL       __aeabi_ui2f ; 0x1000465c
        0x10002554:    4604        .F      MOV      r4,r0
        0x10002556:    68b8        .h      LDR      r0,[r7,#8]
        0x10002558:    3021        !0      ADDS     r0,r0,#0x21
        0x1000255a:    7c41        A|      LDRB     r1,[r0,#0x11]
        0x1000255c:    7c02        .|      LDRB     r2,[r0,#0x10]
        0x1000255e:    0208        ..      LSLS     r0,r1,#8
        0x10002560:    4310        .C      ORRS     r0,r0,r2
        0x10002562:    f002f87b    ..{.    BL       __aeabi_ui2f ; 0x1000465c
        0x10002566:    4621        !F      MOV      r1,r4
        0x10002568:    f001fe8c    ....    BL       __aeabi_fadd ; 0x10004284
        0x1000256c:    f002f8be    ....    BL       __aeabi_f2d ; 0x100046ec
        0x10002570:    2200        ."      MOVS     r2,#0
        0x10002572:    4b12        .K      LDR      r3,[pc,#72] ; [0x100025bc] = 0x3ff40000
        0x10002574:    f001ff92    ....    BL       __aeabi_dmul ; 0x1000449c
        0x10002578:    4607        .F      MOV      r7,r0
        0x1000257a:    460c        .F      MOV      r4,r1
        0x1000257c:    7a68        hz      LDRB     r0,[r5,#9]
        0x1000257e:    7a29        )z      LDRB     r1,[r5,#8]
        0x10002580:    0200        ..      LSLS     r0,r0,#8
        0x10002582:    4308        .C      ORRS     r0,r0,r1
        0x10002584:    1b80        ..      SUBS     r0,r0,r6
        0x10002586:    f002f871    ..q.    BL       __aeabi_i2d ; 0x1000466c
        0x1000258a:    463a        :F      MOV      r2,r7
        0x1000258c:    4623        #F      MOV      r3,r4
        0x1000258e:    f001ff85    ....    BL       __aeabi_dmul ; 0x1000449c
        0x10002592:    2200        ."      MOVS     r2,#0
        0x10002594:    4b0a        .K      LDR      r3,[pc,#40] ; [0x100025c0] = 0x40590000
        0x10002596:    e017        ..      B        0x100025c8 ; smart_update_latency_updatareq + 478
    $d
        0x10002598:    000061c5    .a..    DCD    25029
        0x1000259c:    0000ffff    ....    DCD    65535
        0x100025a0:    000065a7    .e..    DCD    26023
        0x100025a4:    200030b0    .0.     DCD    536883376
        0x100025a8:    00004707    .G..    DCD    18183
        0x100025ac:    20003eef    .>.     DCD    536887023
        0x100025b0:    000044b3    .D..    DCD    17587
        0x100025b4:    00004233    3B..    DCD    16947
        0x100025b8:    000055bf    .U..    DCD    21951
        0x100025bc:    3ff40000    ...?    DCD    1072955392
        0x100025c0:    40590000    ..Y@    DCD    1079574528
        0x100025c4:    100023af    .#..    DCD    268444591
    $t
        0x100025c8:    f001ffd0    ....    BL       __aeabi_ddiv ; 0x1000456c
        0x100025cc:    f002f870    ..p.    BL       __aeabi_d2uiz ; 0x100046b0
        0x100025d0:    0401        ..      LSLS     r1,r0,#16
        0x100025d2:    0c09        ..      LSRS     r1,r1,#16
        0x100025d4:    d100        ..      BNE      0x100025d8 ; smart_update_latency_updatareq + 494
        0x100025d6:    2101        .!      MOVS     r1,#1
        0x100025d8:    4bfe        .K      LDR      r3,[pc,#1016] ; [0x100029d4] = 0x100023af
        0x100025da:    2200        ."      MOVS     r2,#0
        0x100025dc:    2080        .       MOVS     r0,#0x80
        0x100025de:    f7fffc31    ..1.    BL       TimerStart ; 0x10001e44
        0x100025e2:    48fd        .H      LDR      r0,[pc,#1012] ; [0x100029d8] = 0x20003eef
        0x100025e4:    7841        Ax      LDRB     r1,[r0,#1]
        0x100025e6:    7802        .x      LDRB     r2,[r0,#0]
        0x100025e8:    0209        ..      LSLS     r1,r1,#8
        0x100025ea:    4311        .C      ORRS     r1,r1,r2
        0x100025ec:    22ff        ."      MOVS     r2,#0xff
        0x100025ee:    3201        .2      ADDS     r2,#1
        0x100025f0:    4311        .C      ORRS     r1,r1,r2
        0x100025f2:    7001        .p      STRB     r1,[r0,#0]
        0x100025f4:    0a09        ..      LSRS     r1,r1,#8
        0x100025f6:    7041        Ap      STRB     r1,[r0,#1]
        0x100025f8:    2003        .       MOVS     r0,#3
        0x100025fa:    4669        iF      MOV      r1,sp
        0x100025fc:    8108        ..      STRH     r0,[r1,#8]
        0x100025fe:    2202        ."      MOVS     r2,#2
        0x10002600:    0391        ..      LSLS     r1,r2,#14
        0x10002602:    4cf6        .L      LDR      r4,[pc,#984] ; [0x100029dc] = 0x3ea1
        0x10002604:    ab02        ..      ADD      r3,sp,#8
        0x10002606:    2000        .       MOVS     r0,#0
        0x10002608:    47a0        .G      BLX      r4
        0x1000260a:    bdfe        ..      POP      {r1-r7,pc}
    Lib_ProtocolHookCallback
        0x1000260c:    b510        ..      PUSH     {r4,lr}
        0x1000260e:    4604        .F      MOV      r4,r0
        0x10002610:    7800        .x      LDRB     r0,[r0,#0]
        0x10002612:    2800        .(      CMP      r0,#0
        0x10002614:    d110        ..      BNE      0x10002638 ; Lib_ProtocolHookCallback + 44
        0x10002616:    78a1        .x      LDRB     r1,[r4,#2]
        0x10002618:    7862        bx      LDRB     r2,[r4,#1]
        0x1000261a:    0208        ..      LSLS     r0,r1,#8
        0x1000261c:    4310        .C      ORRS     r0,r0,r2
        0x1000261e:    d00c        ..      BEQ      0x1000263a ; Lib_ProtocolHookCallback + 46
        0x10002620:    2801        .(      CMP      r0,#1
        0x10002622:    d109        ..      BNE      0x10002638 ; Lib_ProtocolHookCallback + 44
        0x10002624:    f000fff9    ....    BL       WaitLLCOverSlpth ; 0x1000361a
        0x10002628:    49ed        .I      LDR      r1,[pc,#948] ; [0x100029e0] = 0x5f47
        0x1000262a:    1d20         .      ADDS     r0,r4,#4
        0x1000262c:    4788        .G      BLX      r1
        0x1000262e:    2800        .(      CMP      r0,#0
        0x10002630:    d102        ..      BNE      0x10002638 ; Lib_ProtocolHookCallback + 44
        0x10002632:    2028        (       MOVS     r0,#0x28
        0x10002634:    f7fff978    ..x.    BL       _LCDisConnect ; 0x10001928
        0x10002638:    bd10        ..      POP      {r4,pc}
        0x1000263a:    f000ffee    ....    BL       WaitLLCOverSlpth ; 0x1000361a
        0x1000263e:    49e9        .I      LDR      r1,[pc,#932] ; [0x100029e4] = 0x5b5d
        0x10002640:    1d20         .      ADDS     r0,r4,#4
        0x10002642:    4788        .G      BLX      r1
        0x10002644:    2800        .(      CMP      r0,#0
        0x10002646:    d102        ..      BNE      0x1000264e ; Lib_ProtocolHookCallback + 66
        0x10002648:    2028        (       MOVS     r0,#0x28
        0x1000264a:    f7fff96d    ..m.    BL       _LCDisConnect ; 0x10001928
        0x1000264e:    1d20         .      ADDS     r0,r4,#4
        0x10002650:    f7fffecb    ....    BL       smart_update_latency_updatareq ; 0x100023ea
        0x10002654:    48e4        .H      LDR      r0,[pc,#912] ; [0x100029e8] = 0x200030b0
        0x10002656:    2101        .!      MOVS     r1,#1
        0x10002658:    6883        .h      LDR      r3,[r0,#8]
        0x1000265a:    2206        ."      MOVS     r2,#6
        0x1000265c:    0409        ..      LSLS     r1,r1,#16
        0x1000265e:    2000        .       MOVS     r0,#0
        0x10002660:    4cde        .L      LDR      r4,[pc,#888] ; [0x100029dc] = 0x3ea1
        0x10002662:    3331        13      ADDS     r3,r3,#0x31
        0x10002664:    47a0        .G      BLX      r4
        0x10002666:    bd10        ..      POP      {r4,pc}
    Lib_MiscCallback
        0x10002668:    b510        ..      PUSH     {r4,lr}
        0x1000266a:    7800        .x      LDRB     r0,[r0,#0]
        0x1000266c:    2801        .(      CMP      r0,#1
        0x1000266e:    d101        ..      BNE      0x10002674 ; Lib_MiscCallback + 12
        0x10002670:    f7fff971    ..q.    BL       _LCTimer_Handler ; 0x10001956
        0x10002674:    bd10        ..      POP      {r4,pc}
    BleInit
        0x10002676:    b570        p.      PUSH     {r4-r6,lr}
        0x10002678:    48dc        .H      LDR      r0,[pc,#880] ; [0x100029ec] = 0x3d79
        0x1000267a:    b086        ..      SUB      sp,sp,#0x18
        0x1000267c:    4780        .G      BLX      r0
        0x1000267e:    2101        .!      MOVS     r1,#1
        0x10002680:    207f        .       MOVS     r0,#0x7f
        0x10002682:    f7fffc9b    ....    BL       BBRFWrite ; 0x10001fbc
        0x10002686:    4669        iF      MOV      r1,sp
        0x10002688:    2050        P       MOVS     r0,#0x50
        0x1000268a:    f7fffc95    ....    BL       BBRFRead ; 0x10001fb8
        0x1000268e:    4668        hF      MOV      r0,sp
        0x10002690:    7800        .x      LDRB     r0,[r0,#0]
        0x10002692:    2804        .(      CMP      r0,#4
        0x10002694:    d001        ..      BEQ      0x1000269a ; BleInit + 36
        0x10002696:    48d6        .H      LDR      r0,[pc,#856] ; [0x100029f0] = 0x46f7
        0x10002698:    4780        .G      BLX      r0
        0x1000269a:    f7fffd47    ..G.    BL       LPOCalibration ; 0x1000212c
        0x1000269e:    f7fffc90    ....    BL       RCOSCCalibration ; 0x10001fc2
        0x100026a2:    2401        .$      MOVS     r4,#1
        0x100026a4:    4668        hF      MOV      r0,sp
        0x100026a6:    8044        D.      STRH     r4,[r0,#2]
        0x100026a8:    8004        ..      STRH     r4,[r0,#0]
        0x100026aa:    48d2        .H      LDR      r0,[pc,#840] ; [0x100029f4] = 0x10002669
        0x100026ac:    9001        ..      STR      r0,[sp,#4]
        0x100026ae:    49d2        .I      LDR      r1,[pc,#840] ; [0x100029f8] = 0x442f
        0x100026b0:    4668        hF      MOV      r0,sp
        0x100026b2:    4788        .G      BLX      r1
        0x100026b4:    4668        hF      MOV      r0,sp
        0x100026b6:    7004        .p      STRB     r4,[r0,#0]
        0x100026b8:    7044        Dp      STRB     r4,[r0,#1]
        0x100026ba:    2400        .$      MOVS     r4,#0
        0x100026bc:    8044        D.      STRH     r4,[r0,#2]
        0x100026be:    48cf        .H      LDR      r0,[pc,#828] ; [0x100029fc] = 0x10001cb1
        0x100026c0:    4dc9        .M      LDR      r5,[pc,#804] ; [0x100029e8] = 0x200030b0
        0x100026c2:    9001        ..      STR      r0,[sp,#4]
        0x100026c4:    4bce        .K      LDR      r3,[pc,#824] ; [0x10002a00] = 0x2ce
        0x100026c6:    68a8        .h      LDR      r0,[r5,#8]
        0x100026c8:    2208        ."      MOVS     r2,#8
        0x100026ca:    4669        iF      MOV      r1,sp
        0x100026cc:    18c0        ..      ADDS     r0,r0,r3
        0x100026ce:    f001fd99    ....    BL       __aeabi_memcpy ; 0x10004204
        0x100026d2:    2101        .!      MOVS     r1,#1
        0x100026d4:    4ecb        .N      LDR      r6,[pc,#812] ; [0x10002a04] = 0x5561
        0x100026d6:    2040        @       MOVS     r0,#0x40
        0x100026d8:    47b0        .G      BLX      r6
        0x100026da:    2101        .!      MOVS     r1,#1
        0x100026dc:    2080        .       MOVS     r0,#0x80
        0x100026de:    47b0        .G      BLX      r6
        0x100026e0:    2101        .!      MOVS     r1,#1
        0x100026e2:    2020                MOVS     r0,#0x20
        0x100026e4:    47b0        .G      BLX      r6
        0x100026e6:    2103        .!      MOVS     r1,#3
        0x100026e8:    4668        hF      MOV      r0,sp
        0x100026ea:    8001        ..      STRH     r1,[r0,#0]
        0x100026ec:    8041        A.      STRH     r1,[r0,#2]
        0x100026ee:    8084        ..      STRH     r4,[r0,#4]
        0x100026f0:    80c4        ..      STRH     r4,[r0,#6]
        0x100026f2:    8104        ..      STRH     r4,[r0,#8]
        0x100026f4:    8144        D.      STRH     r4,[r0,#0xa]
        0x100026f6:    8184        ..      STRH     r4,[r0,#0xc]
        0x100026f8:    81c4        ..      STRH     r4,[r0,#0xe]
        0x100026fa:    48c3        .H      LDR      r0,[pc,#780] ; [0x10002a08] = 0x1000260d
        0x100026fc:    49be        .I      LDR      r1,[pc,#760] ; [0x100029f8] = 0x442f
        0x100026fe:    9004        ..      STR      r0,[sp,#0x10]
        0x10002700:    4668        hF      MOV      r0,sp
        0x10002702:    39a2        .9      SUBS     r1,r1,#0xa2
        0x10002704:    4788        .G      BLX      r1
        0x10002706:    6868        hh      LDR      r0,[r5,#4]
        0x10002708:    300a        .0      ADDS     r0,r0,#0xa
        0x1000270a:    f001fda8    ....    BL       __aeabi_uread4 ; 0x1000425e
        0x1000270e:    4ab2        .J      LDR      r2,[pc,#712] ; [0x100029d8] = 0x20003eef
        0x10002710:    4bbe        .K      LDR      r3,[pc,#760] ; [0x10002a0c] = 0x5359
        0x10002712:    3a57        W:      SUBS     r2,r2,#0x57
        0x10002714:    2157        W!      MOVS     r1,#0x57
        0x10002716:    4798        .G      BLX      r3
        0x10002718:    2001        .       MOVS     r0,#1
        0x1000271a:    b006        ..      ADD      sp,sp,#0x18
        0x1000271c:    bd70        p.      POP      {r4-r6,pc}
    DisConnect
        0x1000271e:    48b3        .H      LDR      r0,[pc,#716] ; [0x100029ec] = 0x3d79
        0x10002720:    b510        ..      PUSH     {r4,lr}
        0x10002722:    300a        .0      ADDS     r0,r0,#0xa
        0x10002724:    4780        .G      BLX      r0
        0x10002726:    2001        .       MOVS     r0,#1
        0x10002728:    bd10        ..      POP      {r4,pc}
    SetDevAddr
        0x1000272a:    49b0        .I      LDR      r1,[pc,#704] ; [0x100029ec] = 0x3d79
        0x1000272c:    b510        ..      PUSH     {r4,lr}
        0x1000272e:    3128        (1      ADDS     r1,r1,#0x28
        0x10002730:    4788        .G      BLX      r1
        0x10002732:    2001        .       MOVS     r0,#1
        0x10002734:    bd10        ..      POP      {r4,pc}
    GetDevAddr
        0x10002736:    49ad        .I      LDR      r1,[pc,#692] ; [0x100029ec] = 0x3d79
        0x10002738:    b510        ..      PUSH     {r4,lr}
        0x1000273a:    315e        ^1      ADDS     r1,r1,#0x5e
        0x1000273c:    4788        .G      BLX      r1
        0x1000273e:    2001        .       MOVS     r0,#1
        0x10002740:    bd10        ..      POP      {r4,pc}
    SetLEFeature
        0x10002742:    49aa        .I      LDR      r1,[pc,#680] ; [0x100029ec] = 0x3d79
        0x10002744:    b510        ..      PUSH     {r4,lr}
        0x10002746:    316a        j1      ADDS     r1,r1,#0x6a
        0x10002748:    4788        .G      BLX      r1
        0x1000274a:    2001        .       MOVS     r0,#1
        0x1000274c:    bd10        ..      POP      {r4,pc}
    SetAdvAccCode
        0x1000274e:    49a7        .I      LDR      r1,[pc,#668] ; [0x100029ec] = 0x3d79
        0x10002750:    b510        ..      PUSH     {r4,lr}
        0x10002752:    3178        x1      ADDS     r1,r1,#0x78
        0x10002754:    4788        .G      BLX      r1
        0x10002756:    2001        .       MOVS     r0,#1
        0x10002758:    bd10        ..      POP      {r4,pc}
    SetAdvParams
        0x1000275a:    49a4        .I      LDR      r1,[pc,#656] ; [0x100029ec] = 0x3d79
        0x1000275c:    b510        ..      PUSH     {r4,lr}
        0x1000275e:    3188        .1      ADDS     r1,r1,#0x88
        0x10002760:    4788        .G      BLX      r1
        0x10002762:    2001        .       MOVS     r0,#1
        0x10002764:    bd10        ..      POP      {r4,pc}
    SetAdvData
        0x10002766:    b510        ..      PUSH     {r4,lr}
        0x10002768:    4c9c        .L      LDR      r4,[pc,#624] ; [0x100029dc] = 0x3ea1
        0x1000276a:    3c38        8<      SUBS     r4,r4,#0x38
        0x1000276c:    47a0        .G      BLX      r4
        0x1000276e:    2001        .       MOVS     r0,#1
        0x10002770:    bd10        ..      POP      {r4,pc}
    _GAPStartAdv
        0x10002772:    b5f8        ..      PUSH     {r3-r7,lr}
        0x10002774:    4c9c        .L      LDR      r4,[pc,#624] ; [0x100029e8] = 0x200030b0
        0x10002776:    49a6        .I      LDR      r1,[pc,#664] ; [0x10002a10] = 0x57b1
        0x10002778:    68a0        .h      LDR      r0,[r4,#8]
        0x1000277a:    3037        70      ADDS     r0,r0,#0x37
        0x1000277c:    4788        .G      BLX      r1
        0x1000277e:    68e0        .h      LDR      r0,[r4,#0xc]
        0x10002780:    233b        ;#      MOVS     r3,#0x3b
        0x10002782:    7801        .x      LDRB     r1,[r0,#0]
        0x10002784:    25bf        .%      MOVS     r5,#0xbf
        0x10002786:    090a        ..      LSRS     r2,r1,#4
        0x10002788:    68a1        .h      LDR      r1,[r4,#8]
        0x1000278a:    0112        ..      LSLS     r2,r2,#4
        0x1000278c:    5c5b        [\      LDRB     r3,[r3,r1]
        0x1000278e:    071b        ..      LSLS     r3,r3,#28
        0x10002790:    0f1b        ..      LSRS     r3,r3,#28
        0x10002792:    431a        .C      ORRS     r2,r2,r3
        0x10002794:    7002        .p      STRB     r2,[r0,#0]
        0x10002796:    0712        ..      LSLS     r2,r2,#28
        0x10002798:    0f12        ..      LSRS     r2,r2,#28
        0x1000279a:    2a01        .*      CMP      r2,#1
        0x1000279c:    d079        y.      BEQ      0x10002892 ; _GAPStartAdv + 288
        0x1000279e:    460b        .F      MOV      r3,r1
        0x100027a0:    3340        @3      ADDS     r3,r3,#0x40
        0x100027a2:    785a        Zx      LDRB     r2,[r3,#1]
        0x100027a4:    781b        .x      LDRB     r3,[r3,#0]
        0x100027a6:    0212        ..      LSLS     r2,r2,#8
        0x100027a8:    431a        .C      ORRS     r2,r2,r3
        0x100027aa:    460b        .F      MOV      r3,r1
        0x100027ac:    3342        B3      ADDS     r3,r3,#0x42
        0x100027ae:    701a        .p      STRB     r2,[r3,#0]
        0x100027b0:    0a12        ..      LSRS     r2,r2,#8
        0x100027b2:    705a        Zp      STRB     r2,[r3,#1]
        0x100027b4:    7802        .x      LDRB     r2,[r0,#0]
        0x100027b6:    7a8b        .z      LDRB     r3,[r1,#0xa]
        0x100027b8:    402a        *@      ANDS     r2,r2,r5
        0x100027ba:    019b        ..      LSLS     r3,r3,#6
        0x100027bc:    431a        .C      ORRS     r2,r2,r3
        0x100027be:    0652        R.      LSLS     r2,r2,#25
        0x100027c0:    0e52        R.      LSRS     r2,r2,#25
        0x100027c2:    7002        .p      STRB     r2,[r0,#0]
        0x100027c4:    2366        f#      MOVS     r3,#0x66
        0x100027c6:    5c5b        [\      LDRB     r3,[r3,r1]
        0x100027c8:    7842        Bx      LDRB     r2,[r0,#1]
        0x100027ca:    1d9b        ..      ADDS     r3,r3,#6
        0x100027cc:    0992        ..      LSRS     r2,r2,#6
        0x100027ce:    069b        ..      LSLS     r3,r3,#26
        0x100027d0:    0192        ..      LSLS     r2,r2,#6
        0x100027d2:    0e9b        ..      LSRS     r3,r3,#26
        0x100027d4:    431a        .C      ORRS     r2,r2,r3
        0x100027d6:    7042        Bp      STRB     r2,[r0,#1]
        0x100027d8:    2206        ."      MOVS     r2,#6
        0x100027da:    1c80        ..      ADDS     r0,r0,#2
        0x100027dc:    310b        .1      ADDS     r1,r1,#0xb
        0x100027de:    f001fd11    ....    BL       __aeabi_memcpy ; 0x10004204
        0x100027e2:    68a1        .h      LDR      r1,[r4,#8]
        0x100027e4:    2066        f       MOVS     r0,#0x66
        0x100027e6:    5c42        B\      LDRB     r2,[r0,r1]
        0x100027e8:    2a00        .*      CMP      r2,#0
        0x100027ea:    d004        ..      BEQ      0x100027f6 ; _GAPStartAdv + 132
        0x100027ec:    68e0        .h      LDR      r0,[r4,#0xc]
        0x100027ee:    3167        g1      ADDS     r1,r1,#0x67
        0x100027f0:    3008        .0      ADDS     r0,r0,#8
        0x100027f2:    f001fd07    ....    BL       __aeabi_memcpy ; 0x10004204
        0x100027f6:    68a0        .h      LDR      r0,[r4,#8]
        0x100027f8:    2100        .!      MOVS     r1,#0
        0x100027fa:    3020         0      ADDS     r0,r0,#0x20
        0x100027fc:    7741        Aw      STRB     r1,[r0,#0x1d]
        0x100027fe:    68e0        .h      LDR      r0,[r4,#0xc]
        0x10002800:    4a84        .J      LDR      r2,[pc,#528] ; [0x10002a14] = 0x60d9
        0x10002802:    7841        Ax      LDRB     r1,[r0,#1]
        0x10002804:    0689        ..      LSLS     r1,r1,#26
        0x10002806:    0e89        ..      LSRS     r1,r1,#26
        0x10002808:    1c89        ..      ADDS     r1,r1,#2
        0x1000280a:    4790        .G      BLX      r2
        0x1000280c:    68e0        .h      LDR      r0,[r4,#0xc]
        0x1000280e:    7801        .x      LDRB     r1,[r0,#0]
        0x10002810:    090a        ..      LSRS     r2,r1,#4
        0x10002812:    0112        ..      LSLS     r2,r2,#4
        0x10002814:    1d12        ..      ADDS     r2,r2,#4
        0x10002816:    7002        .p      STRB     r2,[r0,#0]
        0x10002818:    68a1        .h      LDR      r1,[r4,#8]
        0x1000281a:    402a        *@      ANDS     r2,r2,r5
        0x1000281c:    7a8b        .z      LDRB     r3,[r1,#0xa]
        0x1000281e:    07db        ..      LSLS     r3,r3,#31
        0x10002820:    0e5b        [.      LSRS     r3,r3,#25
        0x10002822:    431a        .C      ORRS     r2,r2,r3
        0x10002824:    7002        .p      STRB     r2,[r0,#0]
        0x10002826:    2346        F#      MOVS     r3,#0x46
        0x10002828:    5c5b        [\      LDRB     r3,[r3,r1]
        0x1000282a:    7842        Bx      LDRB     r2,[r0,#1]
        0x1000282c:    1d9b        ..      ADDS     r3,r3,#6
        0x1000282e:    0992        ..      LSRS     r2,r2,#6
        0x10002830:    069b        ..      LSLS     r3,r3,#26
        0x10002832:    0192        ..      LSLS     r2,r2,#6
        0x10002834:    0e9b        ..      LSRS     r3,r3,#26
        0x10002836:    431a        .C      ORRS     r2,r2,r3
        0x10002838:    7042        Bp      STRB     r2,[r0,#1]
        0x1000283a:    2206        ."      MOVS     r2,#6
        0x1000283c:    1c80        ..      ADDS     r0,r0,#2
        0x1000283e:    310b        .1      ADDS     r1,r1,#0xb
        0x10002840:    f001fce0    ....    BL       __aeabi_memcpy ; 0x10004204
        0x10002844:    68a1        .h      LDR      r1,[r4,#8]
        0x10002846:    2046        F       MOVS     r0,#0x46
        0x10002848:    5c42        B\      LDRB     r2,[r0,r1]
        0x1000284a:    2a00        .*      CMP      r2,#0
        0x1000284c:    d004        ..      BEQ      0x10002858 ; _GAPStartAdv + 230
        0x1000284e:    68e0        .h      LDR      r0,[r4,#0xc]
        0x10002850:    3147        G1      ADDS     r1,r1,#0x47
        0x10002852:    3008        .0      ADDS     r0,r0,#8
        0x10002854:    f001fcd6    ....    BL       __aeabi_memcpy ; 0x10004204
        0x10002858:    68e0        .h      LDR      r0,[r4,#0xc]
        0x1000285a:    4a6e        nJ      LDR      r2,[pc,#440] ; [0x10002a14] = 0x60d9
        0x1000285c:    7841        Ax      LDRB     r1,[r0,#1]
        0x1000285e:    322c        ,2      ADDS     r2,r2,#0x2c
        0x10002860:    0689        ..      LSLS     r1,r1,#26
        0x10002862:    0e89        ..      LSRS     r1,r1,#26
        0x10002864:    1c89        ..      ADDS     r1,r1,#2
        0x10002866:    4790        .G      BLX      r2
        0x10002868:    68a5        .h      LDR      r5,[r4,#8]
        0x1000286a:    2701        .'      MOVS     r7,#1
        0x1000286c:    462e        .F      MOV      r6,r5
        0x1000286e:    3620         6      ADDS     r6,r6,#0x20
        0x10002870:    7ef0        .~      LDRB     r0,[r6,#0x1b]
        0x10002872:    2801        .(      CMP      r0,#1
        0x10002874:    d03b        ;.      BEQ      0x100028ee ; _GAPStartAdv + 380
        0x10002876:    2800        .(      CMP      r0,#0
        0x10002878:    d04c        L.      BEQ      0x10002914 ; _GAPStartAdv + 418
        0x1000287a:    2802        .(      CMP      r0,#2
        0x1000287c:    d04a        J.      BEQ      0x10002914 ; _GAPStartAdv + 418
        0x1000287e:    2806        .(      CMP      r0,#6
        0x10002880:    d048        H.      BEQ      0x10002914 ; _GAPStartAdv + 418
        0x10002882:    2300        .#      MOVS     r3,#0
        0x10002884:    4c55        UL      LDR      r4,[pc,#340] ; [0x100029dc] = 0x3ea1
        0x10002886:    461a        .F      MOV      r2,r3
        0x10002888:    2101        .!      MOVS     r1,#1
        0x1000288a:    4618        .F      MOV      r0,r3
        0x1000288c:    47a0        .G      BLX      r4
        0x1000288e:    bdf8        ..      POP      {r3-r7,pc}
        0x10002890:    e7ff        ..      B        0x10002892 ; _GAPStartAdv + 288
        0x10002892:    460a        .F      MOV      r2,r1
        0x10002894:    3240        @2      ADDS     r2,r2,#0x40
        0x10002896:    7913        .y      LDRB     r3,[r2,#4]
        0x10002898:    7153        Sq      STRB     r3,[r2,#5]
        0x1000289a:    7a8b        .z      LDRB     r3,[r1,#0xa]
        0x1000289c:    7802        .x      LDRB     r2,[r0,#0]
        0x1000289e:    07db        ..      LSLS     r3,r3,#31
        0x100028a0:    402a        *@      ANDS     r2,r2,r5
        0x100028a2:    0e5b        [.      LSRS     r3,r3,#25
        0x100028a4:    431a        .C      ORRS     r2,r2,r3
        0x100028a6:    7002        .p      STRB     r2,[r0,#0]
        0x100028a8:    2387        .#      MOVS     r3,#0x87
        0x100028aa:    5c5b        [\      LDRB     r3,[r3,r1]
        0x100028ac:    0652        R.      LSLS     r2,r2,#25
        0x100028ae:    0e52        R.      LSRS     r2,r2,#25
        0x100028b0:    01db        ..      LSLS     r3,r3,#7
        0x100028b2:    431a        .C      ORRS     r2,r2,r3
        0x100028b4:    7002        .p      STRB     r2,[r0,#0]
        0x100028b6:    7842        Bx      LDRB     r2,[r0,#1]
        0x100028b8:    310b        .1      ADDS     r1,r1,#0xb
        0x100028ba:    0992        ..      LSRS     r2,r2,#6
        0x100028bc:    0192        ..      LSLS     r2,r2,#6
        0x100028be:    320c        .2      ADDS     r2,r2,#0xc
        0x100028c0:    7042        Bp      STRB     r2,[r0,#1]
        0x100028c2:    2206        ."      MOVS     r2,#6
        0x100028c4:    1c80        ..      ADDS     r0,r0,#2
        0x100028c6:    f001fc9d    ....    BL       __aeabi_memcpy ; 0x10004204
        0x100028ca:    68e0        .h      LDR      r0,[r4,#0xc]
        0x100028cc:    68a1        .h      LDR      r1,[r4,#8]
        0x100028ce:    2206        ."      MOVS     r2,#6
        0x100028d0:    3008        .0      ADDS     r0,r0,#8
        0x100028d2:    3188        .1      ADDS     r1,r1,#0x88
        0x100028d4:    f001fc96    ....    BL       __aeabi_memcpy ; 0x10004204
        0x100028d8:    68a1        .h      LDR      r1,[r4,#8]
        0x100028da:    2203        ."      MOVS     r2,#3
        0x100028dc:    203d        =       MOVS     r0,#0x3d
        0x100028de:    5442        BT      STRB     r2,[r0,r1]
        0x100028e0:    4a4b        KJ      LDR      r2,[pc,#300] ; [0x10002a10] = 0x57b1
        0x100028e2:    2087        .       MOVS     r0,#0x87
        0x100028e4:    5c40        @\      LDRB     r0,[r0,r1]
        0x100028e6:    3a32        2:      SUBS     r2,r2,#0x32
        0x100028e8:    3188        .1      ADDS     r1,r1,#0x88
        0x100028ea:    4790        .G      BLX      r2
        0x100028ec:    e787        ..      B        0x100027fe ; _GAPStartAdv + 140
        0x100028ee:    3540        @5      ADDS     r5,r5,#0x40
        0x100028f0:    7968        hy      LDRB     r0,[r5,#5]
        0x100028f2:    2800        .(      CMP      r0,#0
        0x100028f4:    d00a        ..      BEQ      0x1000290c ; _GAPStartAdv + 410
        0x100028f6:    2028        (       MOVS     r0,#0x28
        0x100028f8:    2106        .!      MOVS     r1,#6
        0x100028fa:    6a22        "j      LDR      r2,[r4,#0x20]
        0x100028fc:    7e93        .~      LDRB     r3,[r2,#0x1a]
        0x100028fe:    24fd        .$      MOVS     r4,#0xfd
        0x10002900:    4023        #@      ANDS     r3,r3,r4
        0x10002902:    7693        .v      STRB     r3,[r2,#0x1a]
        0x10002904:    7517        .u      STRB     r7,[r2,#0x14]
        0x10002906:    7f73        s.      LDRB     r3,[r6,#0x1d]
        0x10002908:    7f32        2.      LDRB     r2,[r6,#0x1c]
        0x1000290a:    e03a        :.      B        0x10002982 ; _GAPStartAdv + 528
        0x1000290c:    2001        .       MOVS     r0,#1
        0x1000290e:    716f        oq      STRB     r7,[r5,#5]
        0x10002910:    4601        .F      MOV      r1,r0
        0x10002912:    e7f2        ..      B        0x100028fa ; _GAPStartAdv + 392
        0x10002914:    462c        ,F      MOV      r4,r5
        0x10002916:    3442        B4      ADDS     r4,r4,#0x42
        0x10002918:    7860        `x      LDRB     r0,[r4,#1]
        0x1000291a:    7821        !x      LDRB     r1,[r4,#0]
        0x1000291c:    0202        ..      LSLS     r2,r0,#8
        0x1000291e:    430a        .C      ORRS     r2,r2,r1
        0x10002920:    d016        ..      BEQ      0x10002950 ; _GAPStartAdv + 478
        0x10002922:    3522        "5      ADDS     r5,r5,#0x22
        0x10002924:    7f69        i.      LDRB     r1,[r5,#0x1d]
        0x10002926:    2019        .       MOVS     r0,#0x19
        0x10002928:    7f2b        +.      LDRB     r3,[r5,#0x1c]
        0x1000292a:    0180        ..      LSLS     r0,r0,#6
        0x1000292c:    0209        ..      LSLS     r1,r1,#8
        0x1000292e:    4342        BC      MULS     r2,r0,r2
        0x10002930:    4319        .C      ORRS     r1,r1,r3
        0x10002932:    2001        .       MOVS     r0,#1
        0x10002934:    0489        ..      LSLS     r1,r1,#18
        0x10002936:    0c89        ..      LSRS     r1,r1,#18
        0x10002938:    9100        ..      STR      r1,[sp,#0]
        0x1000293a:    d005        ..      BEQ      0x10002948 ; _GAPStartAdv + 470
        0x1000293c:    4610        .F      MOV      r0,r2
        0x1000293e:    f001fc37    ..7.    BL       __aeabi_uidiv ; 0x100041b0
        0x10002942:    1c40        @.      ADDS     r0,r0,#1
        0x10002944:    287f        .(      CMP      r0,#0x7f
        0x10002946:    d809        ..      BHI      0x1000295c ; _GAPStartAdv + 490
        0x10002948:    b2c5        ..      UXTB     r5,r0
        0x1000294a:    7027        'p      STRB     r7,[r4,#0]
        0x1000294c:    0a38        8.      LSRS     r0,r7,#8
        0x1000294e:    e00c        ..      B        0x1000296a ; _GAPStartAdv + 504
        0x10002950:    0a38        8.      LSRS     r0,r7,#8
        0x10002952:    7027        'p      STRB     r7,[r4,#0]
        0x10002954:    7060        `p      STRB     r0,[r4,#1]
        0x10002956:    2501        .%      MOVS     r5,#1
        0x10002958:    9500        ..      STR      r5,[sp,#0]
        0x1000295a:    e007        ..      B        0x1000296c ; _GAPStartAdv + 506
        0x1000295c:    257f        .%      MOVS     r5,#0x7f
        0x1000295e:    4629        )F      MOV      r1,r5
        0x10002960:    307e        ~0      ADDS     r0,r0,#0x7e
        0x10002962:    f001fc25    ..%.    BL       __aeabi_uidiv ; 0x100041b0
        0x10002966:    7020         p      STRB     r0,[r4,#0]
        0x10002968:    0a00        ..      LSRS     r0,r0,#8
        0x1000296a:    7060        `p      STRB     r0,[r4,#1]
        0x1000296c:    481e        .H      LDR      r0,[pc,#120] ; [0x100029e8] = 0x200030b0
        0x1000296e:    6a00        .j      LDR      r0,[r0,#0x20]
        0x10002970:    7e81        .~      LDRB     r1,[r0,#0x1a]
        0x10002972:    2202        ."      MOVS     r2,#2
        0x10002974:    4311        .C      ORRS     r1,r1,r2
        0x10002976:    7681        .v      STRB     r1,[r0,#0x1a]
        0x10002978:    7507        .u      STRB     r7,[r0,#0x14]
        0x1000297a:    7f73        s.      LDRB     r3,[r6,#0x1d]
        0x1000297c:    7f32        2.      LDRB     r2,[r6,#0x1c]
        0x1000297e:    9900        ..      LDR      r1,[sp,#0]
        0x10002980:    4628        (F      MOV      r0,r5
        0x10002982:    4c20         L      LDR      r4,[pc,#128] ; [0x10002a04] = 0x5561
        0x10002984:    34fe        .4      ADDS     r4,r4,#0xfe
        0x10002986:    47a0        .G      BLX      r4
        0x10002988:    4823        #H      LDR      r0,[pc,#140] ; [0x10002a18] = 0x569d
        0x1000298a:    4780        .G      BLX      r0
        0x1000298c:    e77f        ..      B        0x1000288e ; _GAPStartAdv + 284
    StartAdv
        0x1000298e:    b510        ..      PUSH     {r4,lr}
        0x10002990:    f7fffeef    ....    BL       _GAPStartAdv ; 0x10002772
        0x10002994:    2001        .       MOVS     r0,#1
        0x10002996:    bd10        ..      POP      {r4,pc}
    StopAdv
        0x10002998:    b510        ..      PUSH     {r4,lr}
        0x1000299a:    4920         I      LDR      r1,[pc,#128] ; [0x10002a1c] = 0x40020000
        0x1000299c:    2003        .       MOVS     r0,#3
        0x1000299e:    7008        .p      STRB     r0,[r1,#0]
        0x100029a0:    491f        .I      LDR      r1,[pc,#124] ; [0x10002a20] = 0x6245
        0x100029a2:    2064        d       MOVS     r0,#0x64
        0x100029a4:    4788        .G      BLX      r1
        0x100029a6:    4812        .H      LDR      r0,[pc,#72] ; [0x100029f0] = 0x46f7
        0x100029a8:    3010        .0      ADDS     r0,r0,#0x10
        0x100029aa:    4780        .G      BLX      r0
        0x100029ac:    2001        .       MOVS     r0,#1
        0x100029ae:    bd10        ..      POP      {r4,pc}
    StopAdv_Noreset
        0x100029b0:    b672        r.      CPSID    i
        0x100029b2:    2100        .!      MOVS     r1,#0
        0x100029b4:    4a0c        .J      LDR      r2,[pc,#48] ; [0x100029e8] = 0x200030b0
        0x100029b6:    6a10        .j      LDR      r0,[r2,#0x20]
        0x100029b8:    7541        Au      STRB     r1,[r0,#0x15]
        0x100029ba:    7c03        .|      LDRB     r3,[r0,#0x10]
        0x100029bc:    2101        .!      MOVS     r1,#1
        0x100029be:    430b        .C      ORRS     r3,r3,r1
        0x100029c0:    7403        .t      STRB     r3,[r0,#0x10]
        0x100029c2:    6890        .h      LDR      r0,[r2,#8]
        0x100029c4:    2245        E"      MOVS     r2,#0x45
        0x100029c6:    5411        .T      STRB     r1,[r2,r0]
        0x100029c8:    3042        B0      ADDS     r0,r0,#0x42
        0x100029ca:    7001        .p      STRB     r1,[r0,#0]
        0x100029cc:    2100        .!      MOVS     r1,#0
        0x100029ce:    7041        Ap      STRB     r1,[r0,#1]
        0x100029d0:    b662        b.      CPSIE    i
        0x100029d2:    e027        '.      B        0x10002a24 ; StopAdv_Noreset + 116
    $d
        0x100029d4:    100023af    .#..    DCD    268444591
        0x100029d8:    20003eef    .>.     DCD    536887023
        0x100029dc:    00003ea1    .>..    DCD    16033
        0x100029e0:    00005f47    G_..    DCD    24391
        0x100029e4:    00005b5d    ][..    DCD    23389
        0x100029e8:    200030b0    .0.     DCD    536883376
        0x100029ec:    00003d79    y=..    DCD    15737
        0x100029f0:    000046f7    .F..    DCD    18167
        0x100029f4:    10002669    i&..    DCD    268445289
        0x100029f8:    0000442f    /D..    DCD    17455
        0x100029fc:    10001cb1    ....    DCD    268442801
        0x10002a00:    000002ce    ....    DCD    718
        0x10002a04:    00005561    aU..    DCD    21857
        0x10002a08:    1000260d    .&..    DCD    268445197
        0x10002a0c:    00005359    YS..    DCD    21337
        0x10002a10:    000057b1    .W..    DCD    22449
        0x10002a14:    000060d9    .`..    DCD    24793
        0x10002a18:    0000569d    .V..    DCD    22173
        0x10002a1c:    40020000    ...@    DCD    1073872896
        0x10002a20:    00006245    Eb..    DCD    25157
    $t
        0x10002a24:    2001        .       MOVS     r0,#1
        0x10002a26:    4770        pG      BX       lr
    SetScanParams
        0x10002a28:    b510        ..      PUSH     {r4,lr}
        0x10002a2a:    49f8        .I      LDR      r1,[pc,#992] ; [0x10002e0c] = 0x4101
        0x10002a2c:    4788        .G      BLX      r1
        0x10002a2e:    2001        .       MOVS     r0,#1
        0x10002a30:    bd10        ..      POP      {r4,pc}
    StartScan
        0x10002a32:    48f6        .H      LDR      r0,[pc,#984] ; [0x10002e0c] = 0x4101
        0x10002a34:    b510        ..      PUSH     {r4,lr}
        0x10002a36:    305c        \0      ADDS     r0,r0,#0x5c
        0x10002a38:    4780        .G      BLX      r0
        0x10002a3a:    2001        .       MOVS     r0,#1
        0x10002a3c:    bd10        ..      POP      {r4,pc}
    StopScan
        0x10002a3e:    b510        ..      PUSH     {r4,lr}
        0x10002a40:    48f3        .H      LDR      r0,[pc,#972] ; [0x10002e10] = 0x421d
        0x10002a42:    4780        .G      BLX      r0
        0x10002a44:    2001        .       MOVS     r0,#1
        0x10002a46:    bd10        ..      POP      {r4,pc}
    SetSecParams
        0x10002a48:    49f1        .I      LDR      r1,[pc,#964] ; [0x10002e10] = 0x421d
        0x10002a4a:    b510        ..      PUSH     {r4,lr}
        0x10002a4c:    3108        .1      ADDS     r1,r1,#8
        0x10002a4e:    4788        .G      BLX      r1
        0x10002a50:    2001        .       MOVS     r0,#1
        0x10002a52:    bd10        ..      POP      {r4,pc}
    SetConnectionUpdate
        0x10002a54:    49ee        .I      LDR      r1,[pc,#952] ; [0x10002e10] = 0x421d
        0x10002a56:    b510        ..      PUSH     {r4,lr}
        0x10002a58:    3116        .1      ADDS     r1,r1,#0x16
        0x10002a5a:    4788        .G      BLX      r1
        0x10002a5c:    2001        .       MOVS     r0,#1
        0x10002a5e:    bd10        ..      POP      {r4,pc}
    GetLinkParameters
        0x10002a60:    49eb        .I      LDR      r1,[pc,#940] ; [0x10002e10] = 0x421d
        0x10002a62:    b510        ..      PUSH     {r4,lr}
        0x10002a64:    3178        x1      ADDS     r1,r1,#0x78
        0x10002a66:    4788        .G      BLX      r1
        0x10002a68:    2001        .       MOVS     r0,#1
        0x10002a6a:    bd10        ..      POP      {r4,pc}
    SetWinWideMinusCnt
        0x10002a6c:    49e9        .I      LDR      r1,[pc,#932] ; [0x10002e14] = 0x200030b0
        0x10002a6e:    7048        Hp      STRB     r0,[r1,#1]
        0x10002a70:    2001        .       MOVS     r0,#1
        0x10002a72:    4770        pG      BX       lr
    SetPasskey
        0x10002a74:    49e6        .I      LDR      r1,[pc,#920] ; [0x10002e10] = 0x421d
        0x10002a76:    b510        ..      PUSH     {r4,lr}
        0x10002a78:    3186        .1      ADDS     r1,r1,#0x86
        0x10002a7a:    4788        .G      BLX      r1
        0x10002a7c:    2001        .       MOVS     r0,#1
        0x10002a7e:    bd10        ..      POP      {r4,pc}
    SecurityReq
        0x10002a80:    4ae3        .J      LDR      r2,[pc,#908] ; [0x10002e10] = 0x421d
        0x10002a82:    b510        ..      PUSH     {r4,lr}
        0x10002a84:    328e        .2      ADDS     r2,r2,#0x8e
        0x10002a86:    4790        .G      BLX      r2
        0x10002a88:    2001        .       MOVS     r0,#1
        0x10002a8a:    bd10        ..      POP      {r4,pc}
    SetEvtCallback
        0x10002a8c:    b57c        |.      PUSH     {r2-r6,lr}
        0x10002a8e:    4605        .F      MOV      r5,r0
        0x10002a90:    f001fbe5    ....    BL       __aeabi_uread4 ; 0x1000425e
        0x10002a94:    49df        .I      LDR      r1,[pc,#892] ; [0x10002e14] = 0x200030b0
        0x10002a96:    4604        .F      MOV      r4,r0
        0x10002a98:    312c        ,1      ADDS     r1,r1,#0x2c
        0x10002a9a:    f001fbea    ....    BL       __aeabi_uwrite4 ; 0x10004272
        0x10002a9e:    1d28        (.      ADDS     r0,r5,#4
        0x10002aa0:    f001fbdd    ....    BL       __aeabi_uread4 ; 0x1000425e
        0x10002aa4:    49db        .I      LDR      r1,[pc,#876] ; [0x10002e14] = 0x200030b0
        0x10002aa6:    3130        01      ADDS     r1,r1,#0x30
        0x10002aa8:    f001fbe3    ....    BL       __aeabi_uwrite4 ; 0x10004272
        0x10002aac:    2040        @       MOVS     r0,#0x40
        0x10002aae:    4384        .C      BICS     r4,r4,r0
        0x10002ab0:    48d9        .H      LDR      r0,[pc,#868] ; [0x10002e18] = 0x1000223d
        0x10002ab2:    49d7        .I      LDR      r1,[pc,#860] ; [0x10002e10] = 0x421d
        0x10002ab4:    9001        ..      STR      r0,[sp,#4]
        0x10002ab6:    9400        ..      STR      r4,[sp,#0]
        0x10002ab8:    4668        hF      MOV      r0,sp
        0x10002aba:    3196        .1      ADDS     r1,r1,#0x96
        0x10002abc:    4788        .G      BLX      r1
        0x10002abe:    2001        .       MOVS     r0,#1
        0x10002ac0:    bd7c        |.      POP      {r2-r6,pc}
    GetGATTReportHandle
        0x10002ac2:    b510        ..      PUSH     {r4,lr}
        0x10002ac4:    49d5        .I      LDR      r1,[pc,#852] ; [0x10002e1c] = 0x432d
        0x10002ac6:    4788        .G      BLX      r1
        0x10002ac8:    2001        .       MOVS     r0,#1
        0x10002aca:    bd10        ..      POP      {r4,pc}
    SetGATTReadRsp
        0x10002acc:    4ad3        .J      LDR      r2,[pc,#844] ; [0x10002e1c] = 0x432d
        0x10002ace:    b510        ..      PUSH     {r4,lr}
        0x10002ad0:    3208        .2      ADDS     r2,r2,#8
        0x10002ad2:    4790        .G      BLX      r2
        0x10002ad4:    2001        .       MOVS     r0,#1
        0x10002ad6:    bd10        ..      POP      {r4,pc}
    CheckFIFOFull
        0x10002ad8:    b510        ..      PUSH     {r4,lr}
        0x10002ada:    48d1        .H      LDR      r0,[pc,#836] ; [0x10002e20] = 0x4e2b
        0x10002adc:    4780        .G      BLX      r0
        0x10002ade:    2802        .(      CMP      r0,#2
        0x10002ae0:    d901        ..      BLS      0x10002ae6 ; CheckFIFOFull + 14
        0x10002ae2:    2000        .       MOVS     r0,#0
        0x10002ae4:    bd10        ..      POP      {r4,pc}
        0x10002ae6:    2001        .       MOVS     r0,#1
        0x10002ae8:    bd10        ..      POP      {r4,pc}
    GATTDataSend
        0x10002aea:    b5f8        ..      PUSH     {r3-r7,lr}
        0x10002aec:    460e        .F      MOV      r6,r1
        0x10002aee:    4607        .F      MOV      r7,r0
        0x10002af0:    49cc        .I      LDR      r1,[pc,#816] ; [0x10002e24] = 0xaf5
        0x10002af2:    461c        .F      MOV      r4,r3
        0x10002af4:    4615        .F      MOV      r5,r2
        0x10002af6:    2001        .       MOVS     r0,#1
        0x10002af8:    4788        .G      BLX      r1
        0x10002afa:    2800        .(      CMP      r0,#0
        0x10002afc:    d00a        ..      BEQ      0x10002b14 ; GATTDataSend + 42
        0x10002afe:    48c8        .H      LDR      r0,[pc,#800] ; [0x10002e20] = 0x4e2b
        0x10002b00:    4780        .G      BLX      r0
        0x10002b02:    2802        .(      CMP      r0,#2
        0x10002b04:    d907        ..      BLS      0x10002b16 ; GATTDataSend + 44
        0x10002b06:    4623        #F      MOV      r3,r4
        0x10002b08:    4cc4        .L      LDR      r4,[pc,#784] ; [0x10002e1c] = 0x432d
        0x10002b0a:    462a        *F      MOV      r2,r5
        0x10002b0c:    4631        1F      MOV      r1,r6
        0x10002b0e:    4638        8F      MOV      r0,r7
        0x10002b10:    3418        .4      ADDS     r4,r4,#0x18
        0x10002b12:    47a0        .G      BLX      r4
        0x10002b14:    e6bb        ..      B        0x1000288e ; _GAPStartAdv + 284
        0x10002b16:    2000        .       MOVS     r0,#0
        0x10002b18:    e6b9        ..      B        0x1000288e ; _GAPStartAdv + 284
    ATTCSetCallback
        0x10002b1a:    49c3        .I      LDR      r1,[pc,#780] ; [0x10002e28] = 0x3ab7
        0x10002b1c:    4708        .G      BX       r1
    ATTCMTUReq
        0x10002b1e:    b510        ..      PUSH     {r4,lr}
        0x10002b20:    4604        .F      MOV      r4,r0
        0x10002b22:    49c0        .I      LDR      r1,[pc,#768] ; [0x10002e24] = 0xaf5
        0x10002b24:    2001        .       MOVS     r0,#1
        0x10002b26:    4788        .G      BLX      r1
        0x10002b28:    2800        .(      CMP      r0,#0
        0x10002b2a:    d003        ..      BEQ      0x10002b34 ; ATTCMTUReq + 22
        0x10002b2c:    49be        .I      LDR      r1,[pc,#760] ; [0x10002e28] = 0x3ab7
        0x10002b2e:    4620         F      MOV      r0,r4
        0x10002b30:    3108        .1      ADDS     r1,r1,#8
        0x10002b32:    4788        .G      BLX      r1
        0x10002b34:    bd10        ..      POP      {r4,pc}
    ATTCFindInfoReq
        0x10002b36:    b570        p.      PUSH     {r4-r6,lr}
        0x10002b38:    4605        .F      MOV      r5,r0
        0x10002b3a:    4aba        .J      LDR      r2,[pc,#744] ; [0x10002e24] = 0xaf5
        0x10002b3c:    460c        .F      MOV      r4,r1
        0x10002b3e:    2001        .       MOVS     r0,#1
        0x10002b40:    4790        .G      BLX      r2
        0x10002b42:    2800        .(      CMP      r0,#0
        0x10002b44:    d004        ..      BEQ      0x10002b50 ; ATTCFindInfoReq + 26
        0x10002b46:    4ab8        .J      LDR      r2,[pc,#736] ; [0x10002e28] = 0x3ab7
        0x10002b48:    4621        !F      MOV      r1,r4
        0x10002b4a:    4628        (F      MOV      r0,r5
        0x10002b4c:    3222        "2      ADDS     r2,r2,#0x22
        0x10002b4e:    4790        .G      BLX      r2
        0x10002b50:    bd70        p.      POP      {r4-r6,pc}
    ATTCFindByTypeValueReq
        0x10002b52:    b5ff        ..      PUSH     {r0-r7,lr}
        0x10002b54:    460f        .F      MOV      r7,r1
        0x10002b56:    b081        ..      SUB      sp,sp,#4
        0x10002b58:    49b2        .I      LDR      r1,[pc,#712] ; [0x10002e24] = 0xaf5
        0x10002b5a:    461d        .F      MOV      r5,r3
        0x10002b5c:    4616        .F      MOV      r6,r2
        0x10002b5e:    2001        .       MOVS     r0,#1
        0x10002b60:    9c0a        ..      LDR      r4,[sp,#0x28]
        0x10002b62:    4788        .G      BLX      r1
        0x10002b64:    2800        .(      CMP      r0,#0
        0x10002b66:    d007        ..      BEQ      0x10002b78 ; ATTCFindByTypeValueReq + 38
        0x10002b68:    9400        ..      STR      r4,[sp,#0]
        0x10002b6a:    4caf        .L      LDR      r4,[pc,#700] ; [0x10002e28] = 0x3ab7
        0x10002b6c:    462b        +F      MOV      r3,r5
        0x10002b6e:    4632        2F      MOV      r2,r6
        0x10002b70:    4639        9F      MOV      r1,r7
        0x10002b72:    3444        D4      ADDS     r4,r4,#0x44
        0x10002b74:    9801        ..      LDR      r0,[sp,#4]
        0x10002b76:    47a0        .G      BLX      r4
        0x10002b78:    b005        ..      ADD      sp,sp,#0x14
        0x10002b7a:    bdf0        ..      POP      {r4-r7,pc}
    ATTCReadByTypeReq
        0x10002b7c:    b5f8        ..      PUSH     {r3-r7,lr}
        0x10002b7e:    460e        .F      MOV      r6,r1
        0x10002b80:    4607        .F      MOV      r7,r0
        0x10002b82:    49a8        .I      LDR      r1,[pc,#672] ; [0x10002e24] = 0xaf5
        0x10002b84:    461c        .F      MOV      r4,r3
        0x10002b86:    4615        .F      MOV      r5,r2
        0x10002b88:    2001        .       MOVS     r0,#1
        0x10002b8a:    4788        .G      BLX      r1
        0x10002b8c:    2800        .(      CMP      r0,#0
        0x10002b8e:    d006        ..      BEQ      0x10002b9e ; ATTCReadByTypeReq + 34
        0x10002b90:    4623        #F      MOV      r3,r4
        0x10002b92:    4ca5        .L      LDR      r4,[pc,#660] ; [0x10002e28] = 0x3ab7
        0x10002b94:    462a        *F      MOV      r2,r5
        0x10002b96:    4631        1F      MOV      r1,r6
        0x10002b98:    4638        8F      MOV      r0,r7
        0x10002b9a:    347c        |4      ADDS     r4,r4,#0x7c
        0x10002b9c:    47a0        .G      BLX      r4
        0x10002b9e:    e676        v.      B        0x1000288e ; _GAPStartAdv + 284
    ATTCReadReq
        0x10002ba0:    b510        ..      PUSH     {r4,lr}
        0x10002ba2:    4604        .F      MOV      r4,r0
        0x10002ba4:    499f        .I      LDR      r1,[pc,#636] ; [0x10002e24] = 0xaf5
        0x10002ba6:    2001        .       MOVS     r0,#1
        0x10002ba8:    4788        .G      BLX      r1
        0x10002baa:    2800        .(      CMP      r0,#0
        0x10002bac:    d003        ..      BEQ      0x10002bb6 ; ATTCReadReq + 22
        0x10002bae:    499e        .I      LDR      r1,[pc,#632] ; [0x10002e28] = 0x3ab7
        0x10002bb0:    4620         F      MOV      r0,r4
        0x10002bb2:    31ac        .1      ADDS     r1,r1,#0xac
        0x10002bb4:    4788        .G      BLX      r1
        0x10002bb6:    bd10        ..      POP      {r4,pc}
    ATTCReadBlobReq
        0x10002bb8:    b570        p.      PUSH     {r4-r6,lr}
        0x10002bba:    4605        .F      MOV      r5,r0
        0x10002bbc:    4a99        .J      LDR      r2,[pc,#612] ; [0x10002e24] = 0xaf5
        0x10002bbe:    460c        .F      MOV      r4,r1
        0x10002bc0:    2001        .       MOVS     r0,#1
        0x10002bc2:    4790        .G      BLX      r2
        0x10002bc4:    2800        .(      CMP      r0,#0
        0x10002bc6:    d004        ..      BEQ      0x10002bd2 ; ATTCReadBlobReq + 26
        0x10002bc8:    4a97        .J      LDR      r2,[pc,#604] ; [0x10002e28] = 0x3ab7
        0x10002bca:    4621        !F      MOV      r1,r4
        0x10002bcc:    4628        (F      MOV      r0,r5
        0x10002bce:    32c6        .2      ADDS     r2,r2,#0xc6
        0x10002bd0:    4790        .G      BLX      r2
        0x10002bd2:    bd70        p.      POP      {r4-r6,pc}
    ATTCReadMultipleReq
        0x10002bd4:    b570        p.      PUSH     {r4-r6,lr}
        0x10002bd6:    4605        .F      MOV      r5,r0
        0x10002bd8:    4a92        .J      LDR      r2,[pc,#584] ; [0x10002e24] = 0xaf5
        0x10002bda:    460c        .F      MOV      r4,r1
        0x10002bdc:    2001        .       MOVS     r0,#1
        0x10002bde:    4790        .G      BLX      r2
        0x10002be0:    2800        .(      CMP      r0,#0
        0x10002be2:    d004        ..      BEQ      0x10002bee ; ATTCReadMultipleReq + 26
        0x10002be4:    4a90        .J      LDR      r2,[pc,#576] ; [0x10002e28] = 0x3ab7
        0x10002be6:    4621        !F      MOV      r1,r4
        0x10002be8:    4628        (F      MOV      r0,r5
        0x10002bea:    32e8        .2      ADDS     r2,r2,#0xe8
        0x10002bec:    4790        .G      BLX      r2
        0x10002bee:    bd70        p.      POP      {r4-r6,pc}
    ATTCReadByGroupTypeReq
        0x10002bf0:    b5f8        ..      PUSH     {r3-r7,lr}
        0x10002bf2:    460e        .F      MOV      r6,r1
        0x10002bf4:    4607        .F      MOV      r7,r0
        0x10002bf6:    498b        .I      LDR      r1,[pc,#556] ; [0x10002e24] = 0xaf5
        0x10002bf8:    461c        .F      MOV      r4,r3
        0x10002bfa:    4615        .F      MOV      r5,r2
        0x10002bfc:    2001        .       MOVS     r0,#1
        0x10002bfe:    4788        .G      BLX      r1
        0x10002c00:    2800        .(      CMP      r0,#0
        0x10002c02:    d005        ..      BEQ      0x10002c10 ; ATTCReadByGroupTypeReq + 32
        0x10002c04:    4623        #F      MOV      r3,r4
        0x10002c06:    4c89        .L      LDR      r4,[pc,#548] ; [0x10002e2c] = 0x3bbb
        0x10002c08:    462a        *F      MOV      r2,r5
        0x10002c0a:    4631        1F      MOV      r1,r6
        0x10002c0c:    4638        8F      MOV      r0,r7
        0x10002c0e:    47a0        .G      BLX      r4
        0x10002c10:    e63d        =.      B        0x1000288e ; _GAPStartAdv + 284
    ATTCWriteReq
        0x10002c12:    b570        p.      PUSH     {r4-r6,lr}
        0x10002c14:    460d        .F      MOV      r5,r1
        0x10002c16:    4606        .F      MOV      r6,r0
        0x10002c18:    4982        .I      LDR      r1,[pc,#520] ; [0x10002e24] = 0xaf5
        0x10002c1a:    4614        .F      MOV      r4,r2
        0x10002c1c:    2001        .       MOVS     r0,#1
        0x10002c1e:    4788        .G      BLX      r1
        0x10002c20:    2800        .(      CMP      r0,#0
        0x10002c22:    d005        ..      BEQ      0x10002c30 ; ATTCWriteReq + 30
        0x10002c24:    4b81        .K      LDR      r3,[pc,#516] ; [0x10002e2c] = 0x3bbb
        0x10002c26:    4622        "F      MOV      r2,r4
        0x10002c28:    4629        )F      MOV      r1,r5
        0x10002c2a:    4630        0F      MOV      r0,r6
        0x10002c2c:    3330        03      ADDS     r3,r3,#0x30
        0x10002c2e:    4798        .G      BLX      r3
        0x10002c30:    bd70        p.      POP      {r4-r6,pc}
    ATTCWriteCmdReq
        0x10002c32:    b570        p.      PUSH     {r4-r6,lr}
        0x10002c34:    460d        .F      MOV      r5,r1
        0x10002c36:    4606        .F      MOV      r6,r0
        0x10002c38:    497a        zI      LDR      r1,[pc,#488] ; [0x10002e24] = 0xaf5
        0x10002c3a:    4614        .F      MOV      r4,r2
        0x10002c3c:    2001        .       MOVS     r0,#1
        0x10002c3e:    4788        .G      BLX      r1
        0x10002c40:    2800        .(      CMP      r0,#0
        0x10002c42:    d005        ..      BEQ      0x10002c50 ; ATTCWriteCmdReq + 30
        0x10002c44:    4b79        yK      LDR      r3,[pc,#484] ; [0x10002e2c] = 0x3bbb
        0x10002c46:    4622        "F      MOV      r2,r4
        0x10002c48:    4629        )F      MOV      r1,r5
        0x10002c4a:    4630        0F      MOV      r0,r6
        0x10002c4c:    335c        \3      ADDS     r3,r3,#0x5c
        0x10002c4e:    4798        .G      BLX      r3
        0x10002c50:    bd70        p.      POP      {r4-r6,pc}
    ATTCPrepareWriteReq
        0x10002c52:    b5f8        ..      PUSH     {r3-r7,lr}
        0x10002c54:    460e        .F      MOV      r6,r1
        0x10002c56:    4607        .F      MOV      r7,r0
        0x10002c58:    4972        rI      LDR      r1,[pc,#456] ; [0x10002e24] = 0xaf5
        0x10002c5a:    461c        .F      MOV      r4,r3
        0x10002c5c:    4615        .F      MOV      r5,r2
        0x10002c5e:    2001        .       MOVS     r0,#1
        0x10002c60:    4788        .G      BLX      r1
        0x10002c62:    2800        .(      CMP      r0,#0
        0x10002c64:    d006        ..      BEQ      0x10002c74 ; ATTCPrepareWriteReq + 34
        0x10002c66:    4623        #F      MOV      r3,r4
        0x10002c68:    4c70        pL      LDR      r4,[pc,#448] ; [0x10002e2c] = 0x3bbb
        0x10002c6a:    462a        *F      MOV      r2,r5
        0x10002c6c:    4631        1F      MOV      r1,r6
        0x10002c6e:    4638        8F      MOV      r0,r7
        0x10002c70:    3488        .4      ADDS     r4,r4,#0x88
        0x10002c72:    47a0        .G      BLX      r4
        0x10002c74:    e60b        ..      B        0x1000288e ; _GAPStartAdv + 284
    ATTCExecuteWriteReq
        0x10002c76:    b510        ..      PUSH     {r4,lr}
        0x10002c78:    4604        .F      MOV      r4,r0
        0x10002c7a:    496a        jI      LDR      r1,[pc,#424] ; [0x10002e24] = 0xaf5
        0x10002c7c:    2001        .       MOVS     r0,#1
        0x10002c7e:    4788        .G      BLX      r1
        0x10002c80:    2800        .(      CMP      r0,#0
        0x10002c82:    d003        ..      BEQ      0x10002c8c ; ATTCExecuteWriteReq + 22
        0x10002c84:    4969        iI      LDR      r1,[pc,#420] ; [0x10002e2c] = 0x3bbb
        0x10002c86:    4620         F      MOV      r0,r4
        0x10002c88:    31b8        .1      ADDS     r1,r1,#0xb8
        0x10002c8a:    4788        .G      BLX      r1
        0x10002c8c:    bd10        ..      POP      {r4,pc}
    ATTCConfirmation
        0x10002c8e:    b510        ..      PUSH     {r4,lr}
        0x10002c90:    4964        dI      LDR      r1,[pc,#400] ; [0x10002e24] = 0xaf5
        0x10002c92:    2001        .       MOVS     r0,#1
        0x10002c94:    4788        .G      BLX      r1
        0x10002c96:    2800        .(      CMP      r0,#0
        0x10002c98:    d002        ..      BEQ      0x10002ca0 ; ATTCConfirmation + 18
        0x10002c9a:    4864        dH      LDR      r0,[pc,#400] ; [0x10002e2c] = 0x3bbb
        0x10002c9c:    30cc        .0      ADDS     r0,r0,#0xcc
        0x10002c9e:    4780        .G      BLX      r0
        0x10002ca0:    bd10        ..      POP      {r4,pc}
    _SYSClockSwitch
        0x10002ca2:    b570        p.      PUSH     {r4-r6,lr}
        0x10002ca4:    4d5b        [M      LDR      r5,[pc,#364] ; [0x10002e14] = 0x200030b0
        0x10002ca6:    4604        .F      MOV      r4,r0
        0x10002ca8:    2808        .(      CMP      r0,#8
        0x10002caa:    d004        ..      BEQ      0x10002cb6 ; _SYSClockSwitch + 20
        0x10002cac:    68a8        .h      LDR      r0,[r5,#8]
        0x10002cae:    7840        @x      LDRB     r0,[r0,#1]
        0x10002cb0:    2808        .(      CMP      r0,#8
        0x10002cb2:    d00d        ..      BEQ      0x10002cd0 ; _SYSClockSwitch + 46
        0x10002cb4:    e014        ..      B        0x10002ce0 ; _SYSClockSwitch + 62
        0x10002cb6:    2100        .!      MOVS     r1,#0
        0x10002cb8:    207f        .       MOVS     r0,#0x7f
        0x10002cba:    f7fff97f    ....    BL       BBRFWrite ; 0x10001fbc
        0x10002cbe:    2101        .!      MOVS     r1,#1
        0x10002cc0:    2040        @       MOVS     r0,#0x40
        0x10002cc2:    f7fff97b    ..{.    BL       BBRFWrite ; 0x10001fbc
        0x10002cc6:    6a68        hj      LDR      r0,[r5,#0x24]
        0x10002cc8:    7801        .x      LDRB     r1,[r0,#0]
        0x10002cca:    08c9        ..      LSRS     r1,r1,#3
        0x10002ccc:    00c9        ..      LSLS     r1,r1,#3
        0x10002cce:    e00e        ..      B        0x10002cee ; _SYSClockSwitch + 76
        0x10002cd0:    2100        .!      MOVS     r1,#0
        0x10002cd2:    207f        .       MOVS     r0,#0x7f
        0x10002cd4:    f7fff972    ..r.    BL       BBRFWrite ; 0x10001fbc
        0x10002cd8:    2100        .!      MOVS     r1,#0
        0x10002cda:    2040        @       MOVS     r0,#0x40
        0x10002cdc:    f7fff96e    ..n.    BL       BBRFWrite ; 0x10001fbc
        0x10002ce0:    6a68        hj      LDR      r0,[r5,#0x24]
        0x10002ce2:    7801        .x      LDRB     r1,[r0,#0]
        0x10002ce4:    0762        b.      LSLS     r2,r4,#29
        0x10002ce6:    08c9        ..      LSRS     r1,r1,#3
        0x10002ce8:    00c9        ..      LSLS     r1,r1,#3
        0x10002cea:    0f52        R.      LSRS     r2,r2,#29
        0x10002cec:    4311        .C      ORRS     r1,r1,r2
        0x10002cee:    7001        .p      STRB     r1,[r0,#0]
        0x10002cf0:    68a8        .h      LDR      r0,[r5,#8]
        0x10002cf2:    7044        Dp      STRB     r4,[r0,#1]
        0x10002cf4:    2001        .       MOVS     r0,#1
        0x10002cf6:    bd70        p.      POP      {r4-r6,pc}
    MCUClockSwitch
        0x10002cf8:    e7d3        ..      B        _SYSClockSwitch ; 0x10002ca2
    GetMCUClock
        0x10002cfa:    b510        ..      PUSH     {r4,lr}
        0x10002cfc:    4604        .F      MOV      r4,r0
        0x10002cfe:    484c        LH      LDR      r0,[pc,#304] ; [0x10002e30] = 0x449f
        0x10002d00:    4780        .G      BLX      r0
        0x10002d02:    7020         p      STRB     r0,[r4,#0]
        0x10002d04:    2001        .       MOVS     r0,#1
        0x10002d06:    bd10        ..      POP      {r4,pc}
    GetClock
        0x10002d08:    b510        ..      PUSH     {r4,lr}
        0x10002d0a:    4604        .F      MOV      r4,r0
        0x10002d0c:    4848        HH      LDR      r0,[pc,#288] ; [0x10002e30] = 0x449f
        0x10002d0e:    1d80        ..      ADDS     r0,r0,#6
        0x10002d10:    4780        .G      BLX      r0
        0x10002d12:    7020         p      STRB     r0,[r4,#0]
        0x10002d14:    2001        .       MOVS     r0,#1
        0x10002d16:    bd10        ..      POP      {r4,pc}
    WakeupConfig
        0x10002d18:    4945        EI      LDR      r1,[pc,#276] ; [0x10002e30] = 0x449f
        0x10002d1a:    b510        ..      PUSH     {r4,lr}
        0x10002d1c:    311c        .1      ADDS     r1,r1,#0x1c
        0x10002d1e:    4788        .G      BLX      r1
        0x10002d20:    2001        .       MOVS     r0,#1
        0x10002d22:    bd10        ..      POP      {r4,pc}
    LLSleep
        0x10002d24:    4842        BH      LDR      r0,[pc,#264] ; [0x10002e30] = 0x449f
        0x10002d26:    b510        ..      PUSH     {r4,lr}
        0x10002d28:    3072        r0      ADDS     r0,r0,#0x72
        0x10002d2a:    4780        .G      BLX      r0
        0x10002d2c:    2001        .       MOVS     r0,#1
        0x10002d2e:    bd10        ..      POP      {r4,pc}
    Rand
        0x10002d30:    4840        @H      LDR      r0,[pc,#256] ; [0x10002e34] = 0x5ffb
        0x10002d32:    4700        .G      BX       r0
    DelayUS
        0x10002d34:    4940        @I      LDR      r1,[pc,#256] ; [0x10002e38] = 0x622b
        0x10002d36:    4708        .G      BX       r1
    DelayMS
        0x10002d38:    493f        ?I      LDR      r1,[pc,#252] ; [0x10002e38] = 0x622b
        0x10002d3a:    311a        .1      ADDS     r1,r1,#0x1a
        0x10002d3c:    4708        .G      BX       r1
    GetCompanyID
        0x10002d3e:    b508        ..      PUSH     {r3,lr}
        0x10002d40:    493e        >I      LDR      r1,[pc,#248] ; [0x10002e3c] = 0x654d
        0x10002d42:    4668        hF      MOV      r0,sp
        0x10002d44:    4788        .G      BLX      r1
        0x10002d46:    4668        hF      MOV      r0,sp
        0x10002d48:    78c0        .x      LDRB     r0,[r0,#3]
        0x10002d4a:    0780        ..      LSLS     r0,r0,#30
        0x10002d4c:    0fc0        ..      LSRS     r0,r0,#31
        0x10002d4e:    bd08        ..      POP      {r3,pc}
    GetQFNType
        0x10002d50:    b508        ..      PUSH     {r3,lr}
        0x10002d52:    493a        :I      LDR      r1,[pc,#232] ; [0x10002e3c] = 0x654d
        0x10002d54:    4668        hF      MOV      r0,sp
        0x10002d56:    4788        .G      BLX      r1
        0x10002d58:    4668        hF      MOV      r0,sp
        0x10002d5a:    78c0        .x      LDRB     r0,[r0,#3]
        0x10002d5c:    09c0        ..      LSRS     r0,r0,#7
        0x10002d5e:    d000        ..      BEQ      0x10002d62 ; GetQFNType + 18
        0x10002d60:    2001        .       MOVS     r0,#1
        0x10002d62:    bd08        ..      POP      {r3,pc}
    RFRead
        0x10002d64:    b510        ..      PUSH     {r4,lr}
        0x10002d66:    f7fff927    ..'.    BL       BBRFRead ; 0x10001fb8
        0x10002d6a:    bd10        ..      POP      {r4,pc}
    RFWrite
        0x10002d6c:    b510        ..      PUSH     {r4,lr}
        0x10002d6e:    f7fff925    ..%.    BL       BBRFWrite ; 0x10001fbc
        0x10002d72:    bd10        ..      POP      {r4,pc}
    lib_check_ble_fsm_state
        0x10002d74:    4827        'H      LDR      r0,[pc,#156] ; [0x10002e14] = 0x200030b0
        0x10002d76:    6a00        .j      LDR      r0,[r0,#0x20]
        0x10002d78:    7bc0        .{      LDRB     r0,[r0,#0xf]
        0x10002d7a:    2805        .(      CMP      r0,#5
        0x10002d7c:    d005        ..      BEQ      0x10002d8a ; lib_check_ble_fsm_state + 22
        0x10002d7e:    2806        .(      CMP      r0,#6
        0x10002d80:    d003        ..      BEQ      0x10002d8a ; lib_check_ble_fsm_state + 22
        0x10002d82:    280f        .(      CMP      r0,#0xf
        0x10002d84:    d001        ..      BEQ      0x10002d8a ; lib_check_ble_fsm_state + 22
        0x10002d86:    2000        .       MOVS     r0,#0
        0x10002d88:    4770        pG      BX       lr
        0x10002d8a:    2001        .       MOVS     r0,#1
        0x10002d8c:    4770        pG      BX       lr
    SystemSleep
        0x10002d8e:    b510        ..      PUSH     {r4,lr}
        0x10002d90:    f7fffff0    ....    BL       lib_check_ble_fsm_state ; 0x10002d74
        0x10002d94:    2800        .(      CMP      r0,#0
        0x10002d96:    d102        ..      BNE      0x10002d9e ; SystemSleep + 16
        0x10002d98:    4825        %H      LDR      r0,[pc,#148] ; [0x10002e30] = 0x449f
        0x10002d9a:    3052        R0      ADDS     r0,r0,#0x52
        0x10002d9c:    4780        .G      BLX      r0
        0x10002d9e:    2001        .       MOVS     r0,#1
        0x10002da0:    bd10        ..      POP      {r4,pc}
    SystemPowerDown
        0x10002da2:    b510        ..      PUSH     {r4,lr}
        0x10002da4:    491b        .I      LDR      r1,[pc,#108] ; [0x10002e14] = 0x200030b0
        0x10002da6:    2201        ."      MOVS     r2,#1
        0x10002da8:    6a08        .j      LDR      r0,[r1,#0x20]
        0x10002daa:    7542        Bu      STRB     r2,[r0,#0x15]
        0x10002dac:    7c43        C|      LDRB     r3,[r0,#0x11]
        0x10002dae:    09db        ..      LSRS     r3,r3,#7
        0x10002db0:    01db        ..      LSLS     r3,r3,#7
        0x10002db2:    1c9b        ..      ADDS     r3,r3,#2
        0x10002db4:    7443        Ct      STRB     r3,[r0,#0x11]
        0x10002db6:    1e93        ..      SUBS     r3,r2,#2
        0x10002db8:    7483        .t      STRB     r3,[r0,#0x12]
        0x10002dba:    0a1b        ..      LSRS     r3,r3,#8
        0x10002dbc:    74c3        .t      STRB     r3,[r0,#0x13]
        0x10002dbe:    6a49        Ij      LDR      r1,[r1,#0x24]
        0x10002dc0:    7acb        .z      LDRB     r3,[r1,#0xb]
        0x10002dc2:    24ef        .$      MOVS     r4,#0xef
        0x10002dc4:    4023        #@      ANDS     r3,r3,r4
        0x10002dc6:    72cb        .r      STRB     r3,[r1,#0xb]
        0x10002dc8:    7b4b        K{      LDRB     r3,[r1,#0xd]
        0x10002dca:    4393        .C      BICS     r3,r3,r2
        0x10002dcc:    734b        Ks      STRB     r3,[r1,#0xd]
        0x10002dce:    7a8b        .z      LDRB     r3,[r1,#0xa]
        0x10002dd0:    4313        .C      ORRS     r3,r3,r2
        0x10002dd2:    728b        .r      STRB     r3,[r1,#0xa]
        0x10002dd4:    7e81        .~      LDRB     r1,[r0,#0x1a]
        0x10002dd6:    2302        .#      MOVS     r3,#2
        0x10002dd8:    4319        .C      ORRS     r1,r1,r3
        0x10002dda:    7681        .v      STRB     r1,[r0,#0x1a]
        0x10002ddc:    7c01        .|      LDRB     r1,[r0,#0x10]
        0x10002dde:    4311        .C      ORRS     r1,r1,r2
        0x10002de0:    7401        .t      STRB     r1,[r0,#0x10]
        0x10002de2:    4915        .I      LDR      r1,[pc,#84] ; [0x10002e38] = 0x622b
        0x10002de4:    2005        .       MOVS     r0,#5
        0x10002de6:    311a        .1      ADDS     r1,r1,#0x1a
        0x10002de8:    4788        .G      BLX      r1
        0x10002dea:    4815        .H      LDR      r0,[pc,#84] ; [0x10002e40] = 0x46e5
        0x10002dec:    4780        .G      BLX      r0
        0x10002dee:    2001        .       MOVS     r0,#1
        0x10002df0:    bd10        ..      POP      {r4,pc}
    SystemReset
        0x10002df2:    4813        .H      LDR      r0,[pc,#76] ; [0x10002e40] = 0x46e5
        0x10002df4:    b510        ..      PUSH     {r4,lr}
        0x10002df6:    3012        .0      ADDS     r0,r0,#0x12
        0x10002df8:    4780        .G      BLX      r0
        0x10002dfa:    2001        .       MOVS     r0,#1
        0x10002dfc:    bd10        ..      POP      {r4,pc}
    CapdetEn
        0x10002dfe:    490f        .I      LDR      r1,[pc,#60] ; [0x10002e3c] = 0x654d
        0x10002e00:    b510        ..      PUSH     {r4,lr}
        0x10002e02:    317e        ~1      ADDS     r1,r1,#0x7e
        0x10002e04:    4788        .G      BLX      r1
        0x10002e06:    2001        .       MOVS     r0,#1
        0x10002e08:    bd10        ..      POP      {r4,pc}
    $d
        0x10002e0a:    0000        ..      DCW    0
        0x10002e0c:    00004101    .A..    DCD    16641
        0x10002e10:    0000421d    .B..    DCD    16925
        0x10002e14:    200030b0    .0.     DCD    536883376
        0x10002e18:    1000223d    ="..    DCD    268444221
        0x10002e1c:    0000432d    -C..    DCD    17197
        0x10002e20:    00004e2b    +N..    DCD    20011
        0x10002e24:    00000af5    ....    DCD    2805
        0x10002e28:    00003ab7    .:..    DCD    15031
        0x10002e2c:    00003bbb    .;..    DCD    15291
        0x10002e30:    0000449f    .D..    DCD    17567
        0x10002e34:    00005ffb    ._..    DCD    24571
        0x10002e38:    0000622b    +b..    DCD    25131
        0x10002e3c:    0000654d    Me..    DCD    25933
        0x10002e40:    000046e5    .F..    DCD    18149
    $t
    PowerDownLPOEn
        0x10002e44:    b510        ..      PUSH     {r4,lr}
        0x10002e46:    49f9        .I      LDR      r1,[pc,#996] ; [0x1000322c] = 0x65e3
        0x10002e48:    4788        .G      BLX      r1
        0x10002e4a:    2001        .       MOVS     r0,#1
        0x10002e4c:    e7dc        ..      B        0x10002e08 ; CapdetEn + 10
    SetBondManagerIndex
        0x10002e4e:    b510        ..      PUSH     {r4,lr}
        0x10002e50:    49f7        .I      LDR      r1,[pc,#988] ; [0x10003230] = 0x473d
        0x10002e52:    4788        .G      BLX      r1
        0x10002e54:    2001        .       MOVS     r0,#1
        0x10002e56:    e7d7        ..      B        0x10002e08 ; CapdetEn + 10
    GetBondDevice
        0x10002e58:    49f5        .I      LDR      r1,[pc,#980] ; [0x10003230] = 0x473d
        0x10002e5a:    3154        T1      ADDS     r1,r1,#0x54
        0x10002e5c:    4708        .G      BX       r1
    AddBondDevice
        0x10002e5e:    49f4        .I      LDR      r1,[pc,#976] ; [0x10003230] = 0x473d
        0x10002e60:    b510        ..      PUSH     {r4,lr}
        0x10002e62:    31a2        .1      ADDS     r1,r1,#0xa2
        0x10002e64:    4788        .G      BLX      r1
        0x10002e66:    2001        .       MOVS     r0,#1
        0x10002e68:    e7ce        ..      B        0x10002e08 ; CapdetEn + 10
    DelAllBondDevice
        0x10002e6a:    48f1        .H      LDR      r0,[pc,#964] ; [0x10003230] = 0x473d
        0x10002e6c:    b510        ..      PUSH     {r4,lr}
        0x10002e6e:    30c6        .0      ADDS     r0,r0,#0xc6
        0x10002e70:    4780        .G      BLX      r0
        0x10002e72:    2001        .       MOVS     r0,#1
        0x10002e74:    e7c8        ..      B        0x10002e08 ; CapdetEn + 10
    DelBondDevice
        0x10002e76:    48ee        .H      LDR      r0,[pc,#952] ; [0x10003230] = 0x473d
        0x10002e78:    b510        ..      PUSH     {r4,lr}
        0x10002e7a:    30de        .0      ADDS     r0,r0,#0xde
        0x10002e7c:    4780        .G      BLX      r0
        0x10002e7e:    2001        .       MOVS     r0,#1
        0x10002e80:    e7c2        ..      B        0x10002e08 ; CapdetEn + 10
    ReadProfileData
        0x10002e82:    4bec        .K      LDR      r3,[pc,#944] ; [0x10003234] = 0x48a5
        0x10002e84:    4718        .G      BX       r3
    WriteProfileData
        0x10002e86:    4beb        .K      LDR      r3,[pc,#940] ; [0x10003234] = 0x48a5
        0x10002e88:    3336        63      ADDS     r3,r3,#0x36
        0x10002e8a:    4718        .G      BX       r3
    EraseFlashData
        0x10002e8c:    b5f8        ..      PUSH     {r3-r7,lr}
        0x10002e8e:    2000        .       MOVS     r0,#0
        0x10002e90:    460d        .F      MOV      r5,r1
        0x10002e92:    4604        .F      MOV      r4,r0
        0x10002e94:    4ee8        .N      LDR      r6,[pc,#928] ; [0x10003238] = 0x200030b0
        0x10002e96:    4fe9        .O      LDR      r7,[pc,#932] ; [0x1000323c] = 0x5443
        0x10002e98:    e00b        ..      B        0x10002eb2 ; EraseFlashData + 38
        0x10002e9a:    b672        r.      CPSID    i
        0x10002e9c:    6870        ph      LDR      r0,[r6,#4]
        0x10002e9e:    3028        (0      ADDS     r0,r0,#0x28
        0x10002ea0:    f001f9dd    ....    BL       __aeabi_uread4 ; 0x1000425e
        0x10002ea4:    0321        !.      LSLS     r1,r4,#12
        0x10002ea6:    1840        @.      ADDS     r0,r0,r1
        0x10002ea8:    2101        .!      MOVS     r1,#1
        0x10002eaa:    47b8        .G      BLX      r7
        0x10002eac:    b662        b.      CPSIE    i
        0x10002eae:    1c64        d.      ADDS     r4,r4,#1
        0x10002eb0:    b2e4        ..      UXTB     r4,r4
        0x10002eb2:    42ac        .B      CMP      r4,r5
        0x10002eb4:    d3f1        ..      BCC      0x10002e9a ; EraseFlashData + 14
        0x10002eb6:    e4ea        ..      B        0x1000288e ; _GAPStartAdv + 284
    ReadFlashData
        0x10002eb8:    b570        p.      PUSH     {r4-r6,lr}
        0x10002eba:    4604        .F      MOV      r4,r0
        0x10002ebc:    48de        .H      LDR      r0,[pc,#888] ; [0x10003238] = 0x200030b0
        0x10002ebe:    4615        .F      MOV      r5,r2
        0x10002ec0:    6840        @h      LDR      r0,[r0,#4]
        0x10002ec2:    460e        .F      MOV      r6,r1
        0x10002ec4:    3028        (0      ADDS     r0,r0,#0x28
        0x10002ec6:    f001f9ca    ....    BL       __aeabi_uread4 ; 0x1000425e
        0x10002eca:    2800        .(      CMP      r0,#0
        0x10002ecc:    d007        ..      BEQ      0x10002ede ; ReadFlashData + 38
        0x10002ece:    b672        r.      CPSID    i
        0x10002ed0:    1900        ..      ADDS     r0,r0,r4
        0x10002ed2:    4bda        .K      LDR      r3,[pc,#872] ; [0x1000323c] = 0x5443
        0x10002ed4:    462a        *F      MOV      r2,r5
        0x10002ed6:    4631        1F      MOV      r1,r6
        0x10002ed8:    3bea        .;      SUBS     r3,r3,#0xea
        0x10002eda:    4798        .G      BLX      r3
        0x10002edc:    b662        b.      CPSIE    i
        0x10002ede:    bd70        p.      POP      {r4-r6,pc}
    WriteFlashData
        0x10002ee0:    b570        p.      PUSH     {r4-r6,lr}
        0x10002ee2:    4604        .F      MOV      r4,r0
        0x10002ee4:    48d4        .H      LDR      r0,[pc,#848] ; [0x10003238] = 0x200030b0
        0x10002ee6:    4615        .F      MOV      r5,r2
        0x10002ee8:    6840        @h      LDR      r0,[r0,#4]
        0x10002eea:    460e        .F      MOV      r6,r1
        0x10002eec:    3028        (0      ADDS     r0,r0,#0x28
        0x10002eee:    f001f9b6    ....    BL       __aeabi_uread4 ; 0x1000425e
        0x10002ef2:    2800        .(      CMP      r0,#0
        0x10002ef4:    d007        ..      BEQ      0x10002f06 ; WriteFlashData + 38
        0x10002ef6:    b672        r.      CPSID    i
        0x10002ef8:    1900        ..      ADDS     r0,r0,r4
        0x10002efa:    4bd0        .K      LDR      r3,[pc,#832] ; [0x1000323c] = 0x5443
        0x10002efc:    462a        *F      MOV      r2,r5
        0x10002efe:    4631        1F      MOV      r1,r6
        0x10002f00:    3b82        .;      SUBS     r3,r3,#0x82
        0x10002f02:    4798        .G      BLX      r3
        0x10002f04:    b662        b.      CPSIE    i
        0x10002f06:    bd70        p.      POP      {r4-r6,pc}
    CodeErase
        0x10002f08:    b570        p.      PUSH     {r4-r6,lr}
        0x10002f0a:    48cd        .H      LDR      r0,[pc,#820] ; [0x10003240] = 0x20003e98
        0x10002f0c:    2400        .$      MOVS     r4,#0
        0x10002f0e:    7800        .x      LDRB     r0,[r0,#0]
        0x10002f10:    4eca        .N      LDR      r6,[pc,#808] ; [0x1000323c] = 0x5443
        0x10002f12:    4dc9        .M      LDR      r5,[pc,#804] ; [0x10003238] = 0x200030b0
        0x10002f14:    2800        .(      CMP      r0,#0
        0x10002f16:    d00d        ..      BEQ      0x10002f34 ; CodeErase + 44
        0x10002f18:    2801        .(      CMP      r0,#1
        0x10002f1a:    d01e        ..      BEQ      0x10002f5a ; CodeErase + 82
        0x10002f1c:    e024        $.      B        0x10002f68 ; CodeErase + 96
        0x10002f1e:    b672        r.      CPSID    i
        0x10002f20:    3014        .0      ADDS     r0,r0,#0x14
        0x10002f22:    f001f99c    ....    BL       __aeabi_uread4 ; 0x1000425e
        0x10002f26:    0321        !.      LSLS     r1,r4,#12
        0x10002f28:    1840        @.      ADDS     r0,r0,r1
        0x10002f2a:    2101        .!      MOVS     r1,#1
        0x10002f2c:    47b0        .G      BLX      r6
        0x10002f2e:    b662        b.      CPSIE    i
        0x10002f30:    1c64        d.      ADDS     r4,r4,#1
        0x10002f32:    b2e4        ..      UXTB     r4,r4
        0x10002f34:    6868        hh      LDR      r0,[r5,#4]
        0x10002f36:    7bc1        .{      LDRB     r1,[r0,#0xf]
        0x10002f38:    7b82        .{      LDRB     r2,[r0,#0xe]
        0x10002f3a:    0209        ..      LSLS     r1,r1,#8
        0x10002f3c:    4311        .C      ORRS     r1,r1,r2
        0x10002f3e:    42a1        .B      CMP      r1,r4
        0x10002f40:    d8ed        ..      BHI      0x10002f1e ; CodeErase + 22
        0x10002f42:    e011        ..      B        0x10002f68 ; CodeErase + 96
        0x10002f44:    b672        r.      CPSID    i
        0x10002f46:    3010        .0      ADDS     r0,r0,#0x10
        0x10002f48:    f001f989    ....    BL       __aeabi_uread4 ; 0x1000425e
        0x10002f4c:    0321        !.      LSLS     r1,r4,#12
        0x10002f4e:    1840        @.      ADDS     r0,r0,r1
        0x10002f50:    2101        .!      MOVS     r1,#1
        0x10002f52:    47b0        .G      BLX      r6
        0x10002f54:    b662        b.      CPSIE    i
        0x10002f56:    1c64        d.      ADDS     r4,r4,#1
        0x10002f58:    b2e4        ..      UXTB     r4,r4
        0x10002f5a:    6868        hh      LDR      r0,[r5,#4]
        0x10002f5c:    7bc1        .{      LDRB     r1,[r0,#0xf]
        0x10002f5e:    7b82        .{      LDRB     r2,[r0,#0xe]
        0x10002f60:    0209        ..      LSLS     r1,r1,#8
        0x10002f62:    4311        .C      ORRS     r1,r1,r2
        0x10002f64:    42a1        .B      CMP      r1,r4
        0x10002f66:    d8ed        ..      BHI      0x10002f44 ; CodeErase + 60
        0x10002f68:    2001        .       MOVS     r0,#1
        0x10002f6a:    bd70        p.      POP      {r4-r6,pc}
    CodeErase_sector
        0x10002f6c:    b570        p.      PUSH     {r4-r6,lr}
        0x10002f6e:    4604        .F      MOV      r4,r0
        0x10002f70:    460d        .F      MOV      r5,r1
        0x10002f72:    0b00        ..      LSRS     r0,r0,#12
        0x10002f74:    1942        B.      ADDS     r2,r0,r5
        0x10002f76:    48b0        .H      LDR      r0,[pc,#704] ; [0x10003238] = 0x200030b0
        0x10002f78:    6840        @h      LDR      r0,[r0,#4]
        0x10002f7a:    7bc1        .{      LDRB     r1,[r0,#0xf]
        0x10002f7c:    7b83        .{      LDRB     r3,[r0,#0xe]
        0x10002f7e:    0209        ..      LSLS     r1,r1,#8
        0x10002f80:    4319        .C      ORRS     r1,r1,r3
        0x10002f82:    428a        .B      CMP      r2,r1
        0x10002f84:    d901        ..      BLS      0x10002f8a ; CodeErase_sector + 30
        0x10002f86:    2000        .       MOVS     r0,#0
        0x10002f88:    bd70        p.      POP      {r4-r6,pc}
        0x10002f8a:    49ad        .I      LDR      r1,[pc,#692] ; [0x10003240] = 0x20003e98
        0x10002f8c:    4eab        .N      LDR      r6,[pc,#684] ; [0x1000323c] = 0x5443
        0x10002f8e:    7809        .x      LDRB     r1,[r1,#0]
        0x10002f90:    2900        .)      CMP      r1,#0
        0x10002f92:    d002        ..      BEQ      0x10002f9a ; CodeErase_sector + 46
        0x10002f94:    2901        .)      CMP      r1,#1
        0x10002f96:    d003        ..      BEQ      0x10002fa0 ; CodeErase_sector + 52
        0x10002f98:    e00a        ..      B        0x10002fb0 ; CodeErase_sector + 68
        0x10002f9a:    b672        r.      CPSID    i
        0x10002f9c:    3014        .0      ADDS     r0,r0,#0x14
        0x10002f9e:    e001        ..      B        0x10002fa4 ; CodeErase_sector + 56
        0x10002fa0:    b672        r.      CPSID    i
        0x10002fa2:    3010        .0      ADDS     r0,r0,#0x10
        0x10002fa4:    f001f95b    ..[.    BL       __aeabi_uread4 ; 0x1000425e
        0x10002fa8:    1900        ..      ADDS     r0,r0,r4
        0x10002faa:    4629        )F      MOV      r1,r5
        0x10002fac:    47b0        .G      BLX      r6
        0x10002fae:    b662        b.      CPSIE    i
        0x10002fb0:    2001        .       MOVS     r0,#1
        0x10002fb2:    bd70        p.      POP      {r4-r6,pc}
    _FMCodeWrite
        0x10002fb4:    b5f8        ..      PUSH     {r3-r7,lr}
        0x10002fb6:    4604        .F      MOV      r4,r0
        0x10002fb8:    48a1        .H      LDR      r0,[pc,#644] ; [0x10003240] = 0x20003e98
        0x10002fba:    460f        .F      MOV      r7,r1
        0x10002fbc:    7801        .x      LDRB     r1,[r0,#0]
        0x10002fbe:    489e        .H      LDR      r0,[pc,#632] ; [0x10003238] = 0x200030b0
        0x10002fc0:    4d9e        .M      LDR      r5,[pc,#632] ; [0x1000323c] = 0x5443
        0x10002fc2:    6840        @h      LDR      r0,[r0,#4]
        0x10002fc4:    3d82        .=      SUBS     r5,r5,#0x82
        0x10002fc6:    4616        .F      MOV      r6,r2
        0x10002fc8:    2900        .)      CMP      r1,#0
        0x10002fca:    d002        ..      BEQ      0x10002fd2 ; _FMCodeWrite + 30
        0x10002fcc:    2901        .)      CMP      r1,#1
        0x10002fce:    d003        ..      BEQ      0x10002fd8 ; _FMCodeWrite + 36
        0x10002fd0:    e00b        ..      B        0x10002fea ; _FMCodeWrite + 54
        0x10002fd2:    b672        r.      CPSID    i
        0x10002fd4:    3014        .0      ADDS     r0,r0,#0x14
        0x10002fd6:    e001        ..      B        0x10002fdc ; _FMCodeWrite + 40
        0x10002fd8:    b672        r.      CPSID    i
        0x10002fda:    3010        .0      ADDS     r0,r0,#0x10
        0x10002fdc:    f001f93f    ..?.    BL       __aeabi_uread4 ; 0x1000425e
        0x10002fe0:    1900        ..      ADDS     r0,r0,r4
        0x10002fe2:    4632        2F      MOV      r2,r6
        0x10002fe4:    4639        9F      MOV      r1,r7
        0x10002fe6:    47a8        .G      BLX      r5
        0x10002fe8:    b662        b.      CPSIE    i
        0x10002fea:    2001        .       MOVS     r0,#1
        0x10002fec:    e44f        O.      B        0x1000288e ; _GAPStartAdv + 284
    CodeWrite
        0x10002fee:    b430        0.      PUSH     {r4,r5}
        0x10002ff0:    4b91        .K      LDR      r3,[pc,#580] ; [0x10003238] = 0x200030b0
        0x10002ff2:    685c        \h      LDR      r4,[r3,#4]
        0x10002ff4:    7be3        .{      LDRB     r3,[r4,#0xf]
        0x10002ff6:    7ba4        .{      LDRB     r4,[r4,#0xe]
        0x10002ff8:    021b        ..      LSLS     r3,r3,#8
        0x10002ffa:    4323        #C      ORRS     r3,r3,r4
        0x10002ffc:    031b        ..      LSLS     r3,r3,#12
        0x10002ffe:    4283        .B      CMP      r3,r0
        0x10003000:    d202        ..      BCS      0x10003008 ; CodeWrite + 26
        0x10003002:    bc30        0.      POP      {r4,r5}
        0x10003004:    2000        .       MOVS     r0,#0
        0x10003006:    4770        pG      BX       lr
        0x10003008:    bc30        0.      POP      {r4,r5}
        0x1000300a:    b2c9        ..      UXTB     r1,r1
        0x1000300c:    e7d2        ..      B        _FMCodeWrite ; 0x10002fb4
    CodeUpdate
        0x1000300e:    b430        0.      PUSH     {r4,r5}
        0x10003010:    4c8c        .L      LDR      r4,[pc,#560] ; [0x10003244] = 0x4a7b
        0x10003012:    46a4        .F      MOV      r12,r4
        0x10003014:    bc30        0.      POP      {r4,r5}
        0x10003016:    4760        `G      BX       r12
    FlashDataUpdate
        0x10003018:    b5f3        ..      PUSH     {r0,r1,r4-r7,lr}
        0x1000301a:    4887        .H      LDR      r0,[pc,#540] ; [0x10003238] = 0x200030b0
        0x1000301c:    b089        ..      SUB      sp,sp,#0x24
        0x1000301e:    6840        @h      LDR      r0,[r0,#4]
        0x10003020:    2400        .$      MOVS     r4,#0
        0x10003022:    3028        (0      ADDS     r0,r0,#0x28
        0x10003024:    f001f91b    ....    BL       __aeabi_uread4 ; 0x1000425e
        0x10003028:    4607        .F      MOV      r7,r0
        0x1000302a:    9809        ..      LDR      r0,[sp,#0x24]
        0x1000302c:    0946        F.      LSRS     r6,r0,#5
        0x1000302e:    2500        .%      MOVS     r5,#0
        0x10003030:    e011        ..      B        0x10003056 ; FlashDataUpdate + 62
        0x10003032:    b672        r.      CPSID    i
        0x10003034:    0168        h.      LSLS     r0,r5,#5
        0x10003036:    4b81        .K      LDR      r3,[pc,#516] ; [0x1000323c] = 0x5443
        0x10003038:    19c0        ..      ADDS     r0,r0,r7
        0x1000303a:    2120         !      MOVS     r1,#0x20
        0x1000303c:    466a        jF      MOV      r2,sp
        0x1000303e:    3bea        .;      SUBS     r3,r3,#0xea
        0x10003040:    4798        .G      BLX      r3
        0x10003042:    b662        b.      CPSIE    i
        0x10003044:    2000        .       MOVS     r0,#0
        0x10003046:    4669        iF      MOV      r1,sp
        0x10003048:    5c0a        .\      LDRB     r2,[r1,r0]
        0x1000304a:    1c40        @.      ADDS     r0,r0,#1
        0x1000304c:    1912        ..      ADDS     r2,r2,r4
        0x1000304e:    b294        ..      UXTH     r4,r2
        0x10003050:    2820         (      CMP      r0,#0x20
        0x10003052:    d3f9        ..      BCC      0x10003048 ; FlashDataUpdate + 48
        0x10003054:    1c6d        m.      ADDS     r5,r5,#1
        0x10003056:    42b5        .B      CMP      r5,r6
        0x10003058:    d3eb        ..      BCC      0x10003032 ; FlashDataUpdate + 26
        0x1000305a:    9809        ..      LDR      r0,[sp,#0x24]
        0x1000305c:    06c6        ..      LSLS     r6,r0,#27
        0x1000305e:    0ef6        ..      LSRS     r6,r6,#27
        0x10003060:    b672        r.      CPSID    i
        0x10003062:    4631        1F      MOV      r1,r6
        0x10003064:    0168        h.      LSLS     r0,r5,#5
        0x10003066:    4b75        uK      LDR      r3,[pc,#468] ; [0x1000323c] = 0x5443
        0x10003068:    19c0        ..      ADDS     r0,r0,r7
        0x1000306a:    466a        jF      MOV      r2,sp
        0x1000306c:    3bea        .;      SUBS     r3,r3,#0xea
        0x1000306e:    4798        .G      BLX      r3
        0x10003070:    b662        b.      CPSIE    i
        0x10003072:    2000        .       MOVS     r0,#0
        0x10003074:    4669        iF      MOV      r1,sp
        0x10003076:    e003        ..      B        0x10003080 ; FlashDataUpdate + 104
        0x10003078:    5c0a        .\      LDRB     r2,[r1,r0]
        0x1000307a:    1912        ..      ADDS     r2,r2,r4
        0x1000307c:    b294        ..      UXTH     r4,r2
        0x1000307e:    1c40        @.      ADDS     r0,r0,#1
        0x10003080:    42b0        .B      CMP      r0,r6
        0x10003082:    d3f9        ..      BCC      0x10003078 ; FlashDataUpdate + 96
        0x10003084:    980a        ..      LDR      r0,[sp,#0x28]
        0x10003086:    4284        .B      CMP      r4,r0
        0x10003088:    d102        ..      BNE      0x10003090 ; FlashDataUpdate + 120
        0x1000308a:    2001        .       MOVS     r0,#1
        0x1000308c:    b00b        ..      ADD      sp,sp,#0x2c
        0x1000308e:    bdf0        ..      POP      {r4-r7,pc}
        0x10003090:    2000        .       MOVS     r0,#0
        0x10003092:    e7fb        ..      B        0x1000308c ; FlashDataUpdate + 116
    ble_sched_execute
        0x10003094:    b5f8        ..      PUSH     {r3-r7,lr}
        0x10003096:    4866        fH      LDR      r0,[pc,#408] ; [0x10003230] = 0x473d
        0x10003098:    38e2        .8      SUBS     r0,r0,#0xe2
        0x1000309a:    4780        .G      BLX      r0
        0x1000309c:    4c68        hL      LDR      r4,[pc,#416] ; [0x10003240] = 0x20003e98
        0x1000309e:    3457        W4      ADDS     r4,r4,#0x57
        0x100030a0:    7a60        `z      LDRB     r0,[r4,#9]
        0x100030a2:    2800        .(      CMP      r0,#0
        0x100030a4:    d040        @.      BEQ      0x10003128 ; ble_sched_execute + 148
        0x100030a6:    0600        ..      LSLS     r0,r0,#24
        0x100030a8:    2504        .%      MOVS     r5,#4
        0x100030aa:    2800        .(      CMP      r0,#0
        0x100030ac:    da0f        ..      BGE      0x100030ce ; ble_sched_execute + 58
        0x100030ae:    7860        `x      LDRB     r0,[r4,#1]
        0x100030b0:    7821        !x      LDRB     r1,[r4,#0]
        0x100030b2:    0200        ..      LSLS     r0,r0,#8
        0x100030b4:    4308        .C      ORRS     r0,r0,r1
        0x100030b6:    0740        @.      LSLS     r0,r0,#29
        0x100030b8:    d509        ..      BPL      0x100030ce ; ble_sched_execute + 58
        0x100030ba:    f7fefec8    ....    BL       smart_latency_start ; 0x10001e4e
        0x100030be:    7860        `x      LDRB     r0,[r4,#1]
        0x100030c0:    7821        !x      LDRB     r1,[r4,#0]
        0x100030c2:    0200        ..      LSLS     r0,r0,#8
        0x100030c4:    4308        .C      ORRS     r0,r0,r1
        0x100030c6:    43a8        .C      BICS     r0,r0,r5
        0x100030c8:    7020         p      STRB     r0,[r4,#0]
        0x100030ca:    0a00        ..      LSRS     r0,r0,#8
        0x100030cc:    7060        `p      STRB     r0,[r4,#1]
        0x100030ce:    7860        `x      LDRB     r0,[r4,#1]
        0x100030d0:    7821        !x      LDRB     r1,[r4,#0]
        0x100030d2:    0200        ..      LSLS     r0,r0,#8
        0x100030d4:    4308        .C      ORRS     r0,r0,r1
        0x100030d6:    4f5c        \O      LDR      r7,[pc,#368] ; [0x10003248] = 0x8000
        0x100030d8:    4e5c        \N      LDR      r6,[pc,#368] ; [0x1000324c] = 0x3ea1
        0x100030da:    0641        A.      LSLS     r1,r0,#25
        0x100030dc:    d50c        ..      BPL      0x100030f8 ; ble_sched_execute + 100
        0x100030de:    2140        @!      MOVS     r1,#0x40
        0x100030e0:    4388        .C      BICS     r0,r0,r1
        0x100030e2:    7020         p      STRB     r0,[r4,#0]
        0x100030e4:    0a00        ..      LSRS     r0,r0,#8
        0x100030e6:    7060        `p      STRB     r0,[r4,#1]
        0x100030e8:    2002        .       MOVS     r0,#2
        0x100030ea:    4669        iF      MOV      r1,sp
        0x100030ec:    8008        ..      STRH     r0,[r1,#0]
        0x100030ee:    4602        .F      MOV      r2,r0
        0x100030f0:    466b        kF      MOV      r3,sp
        0x100030f2:    4639        9F      MOV      r1,r7
        0x100030f4:    2000        .       MOVS     r0,#0
        0x100030f6:    47b0        .G      BLX      r6
        0x100030f8:    7860        `x      LDRB     r0,[r4,#1]
        0x100030fa:    7821        !x      LDRB     r1,[r4,#0]
        0x100030fc:    0200        ..      LSLS     r0,r0,#8
        0x100030fe:    4308        .C      ORRS     r0,r0,r1
        0x10003100:    07c1        ..      LSLS     r1,r0,#31
        0x10003102:    d011        ..      BEQ      0x10003128 ; ble_sched_execute + 148
        0x10003104:    0840        @.      LSRS     r0,r0,#1
        0x10003106:    0040        @.      LSLS     r0,r0,#1
        0x10003108:    7020         p      STRB     r0,[r4,#0]
        0x1000310a:    0a01        ..      LSRS     r1,r0,#8
        0x1000310c:    7061        ap      STRB     r1,[r4,#1]
        0x1000310e:    0780        ..      LSLS     r0,r0,#30
        0x10003110:    d502        ..      BPL      0x10003118 ; ble_sched_execute + 132
        0x10003112:    4668        hF      MOV      r0,sp
        0x10003114:    8005        ..      STRH     r5,[r0,#0]
        0x10003116:    e002        ..      B        0x1000311e ; ble_sched_execute + 138
        0x10003118:    2005        .       MOVS     r0,#5
        0x1000311a:    4669        iF      MOV      r1,sp
        0x1000311c:    8008        ..      STRH     r0,[r1,#0]
        0x1000311e:    2202        ."      MOVS     r2,#2
        0x10003120:    466b        kF      MOV      r3,sp
        0x10003122:    4639        9F      MOV      r1,r7
        0x10003124:    2000        .       MOVS     r0,#0
        0x10003126:    47b0        .G      BLX      r6
        0x10003128:    e430        0.      B        0x1000298c ; _GAPStartAdv + 538
    ble_sched_finish
        0x1000312a:    4849        IH      LDR      r0,[pc,#292] ; [0x10003250] = 0x4bf9
        0x1000312c:    4700        .G      BX       r0
    syd52832_chip_confirm
        0x1000312e:    b538        8.      PUSH     {r3-r5,lr}
        0x10003130:    4c41        AL      LDR      r4,[pc,#260] ; [0x10003238] = 0x200030b0
        0x10003132:    7820         x      LDRB     r0,[r4,#0]
        0x10003134:    2800        .(      CMP      r0,#0
        0x10003136:    d105        ..      BNE      0x10003144 ; syd52832_chip_confirm + 22
        0x10003138:    493c        <I      LDR      r1,[pc,#240] ; [0x1000322c] = 0x65e3
        0x1000313a:    4668        hF      MOV      r0,sp
        0x1000313c:    3996        .9      SUBS     r1,r1,#0x96
        0x1000313e:    4788        .G      BLX      r1
        0x10003140:    2001        .       MOVS     r0,#1
        0x10003142:    7020         p      STRB     r0,[r4,#0]
        0x10003144:    2001        .       MOVS     r0,#1
        0x10003146:    bd38        8.      POP      {r3-r5,pc}
    gap_s_smart_update_latency
        0x10003148:    b570        p.      PUSH     {r4-r6,lr}
        0x1000314a:    7802        .x      LDRB     r2,[r0,#0]
        0x1000314c:    2a00        .*      CMP      r2,#0
        0x1000314e:    d04b        K.      BEQ      0x100031e8 ; gap_s_smart_update_latency + 160
        0x10003150:    493b        ;I      LDR      r1,[pc,#236] ; [0x10003240] = 0x20003e98
        0x10003152:    3157        W1      ADDS     r1,r1,#0x57
        0x10003154:    724a        Jr      STRB     r2,[r1,#9]
        0x10003156:    7842        Bx      LDRB     r2,[r0,#1]
        0x10003158:    728a        .r      STRB     r2,[r1,#0xa]
        0x1000315a:    2a00        .*      CMP      r2,#0
        0x1000315c:    d001        ..      BEQ      0x10003162 ; gap_s_smart_update_latency + 26
        0x1000315e:    2a04        .*      CMP      r2,#4
        0x10003160:    d901        ..      BLS      0x10003166 ; gap_s_smart_update_latency + 30
        0x10003162:    2204        ."      MOVS     r2,#4
        0x10003164:    728a        .r      STRB     r2,[r1,#0xa]
        0x10003166:    78c2        .x      LDRB     r2,[r0,#3]
        0x10003168:    7884        .x      LDRB     r4,[r0,#2]
        0x1000316a:    0213        ..      LSLS     r3,r2,#8
        0x1000316c:    4a34        4J      LDR      r2,[pc,#208] ; [0x10003240] = 0x20003e98
        0x1000316e:    4323        #C      ORRS     r3,r3,r4
        0x10003170:    3257        W2      ADDS     r2,r2,#0x57
        0x10003172:    72d3        .r      STRB     r3,[r2,#0xb]
        0x10003174:    0a1c        ..      LSRS     r4,r3,#8
        0x10003176:    7314        .s      STRB     r4,[r2,#0xc]
        0x10003178:    7944        Dy      LDRB     r4,[r0,#5]
        0x1000317a:    7905        .y      LDRB     r5,[r0,#4]
        0x1000317c:    0224        $.      LSLS     r4,r4,#8
        0x1000317e:    432c        ,C      ORRS     r4,r4,r5
        0x10003180:    4615        .F      MOV      r5,r2
        0x10003182:    736c        ls      STRB     r4,[r5,#0xd]
        0x10003184:    0a24        $.      LSRS     r4,r4,#8
        0x10003186:    73ac        .s      STRB     r4,[r5,#0xe]
        0x10003188:    79c4        .y      LDRB     r4,[r0,#7]
        0x1000318a:    7985        .y      LDRB     r5,[r0,#6]
        0x1000318c:    0220         .      LSLS     r0,r4,#8
        0x1000318e:    4328        (C      ORRS     r0,r0,r5
        0x10003190:    73d0        .s      STRB     r0,[r2,#0xf]
        0x10003192:    0a00        ..      LSRS     r0,r0,#8
        0x10003194:    7410        .t      STRB     r0,[r2,#0x10]
        0x10003196:    4828        (H      LDR      r0,[pc,#160] ; [0x10003238] = 0x200030b0
        0x10003198:    2508        .%      MOVS     r5,#8
        0x1000319a:    6880        .h      LDR      r0,[r0,#8]
        0x1000319c:    1cd2        ..      ADDS     r2,r2,#3
        0x1000319e:    3021        !0      ADDS     r0,r0,#0x21
        0x100031a0:    7c44        D|      LDRB     r4,[r0,#0x11]
        0x100031a2:    7c00        .|      LDRB     r0,[r0,#0x10]
        0x100031a4:    0224        $.      LSLS     r4,r4,#8
        0x100031a6:    4304        .C      ORRS     r4,r4,r0
        0x100031a8:    2001        .       MOVS     r0,#1
        0x100031aa:    42a3        .B      CMP      r3,r4
        0x100031ac:    7088        .p      STRB     r0,[r1,#2]
        0x100031ae:    d908        ..      BLS      0x100031c2 ; gap_s_smart_update_latency + 122
        0x100031b0:    1b1b        ..      SUBS     r3,r3,r4
        0x100031b2:    e007        ..      B        0x100031c4 ; gap_s_smart_update_latency + 124
        0x100031b4:    7110        .q      STRB     r0,[r2,#4]
        0x100031b6:    0a00        ..      LSRS     r0,r0,#8
        0x100031b8:    e001        ..      B        0x100031be ; gap_s_smart_update_latency + 118
        0x100031ba:    7115        .q      STRB     r5,[r2,#4]
        0x100031bc:    0a28        (.      LSRS     r0,r5,#8
        0x100031be:    7150        Pq      STRB     r0,[r2,#5]
        0x100031c0:    e007        ..      B        0x100031d2 ; gap_s_smart_update_latency + 138
        0x100031c2:    1ae3        ..      SUBS     r3,r4,r3
        0x100031c4:    7a8c        .z      LDRB     r4,[r1,#0xa]
        0x100031c6:    42a3        .B      CMP      r3,r4
        0x100031c8:    da0a        ..      BGE      0x100031e0 ; gap_s_smart_update_latency + 152
        0x100031ca:    7110        .q      STRB     r0,[r2,#4]
        0x100031cc:    0a00        ..      LSRS     r0,r0,#8
        0x100031ce:    7150        Pq      STRB     r0,[r2,#5]
        0x100031d0:    728b        .r      STRB     r3,[r1,#0xa]
        0x100031d2:    7a88        .z      LDRB     r0,[r1,#0xa]
        0x100031d4:    70c8        .p      STRB     r0,[r1,#3]
        0x100031d6:    7108        .q      STRB     r0,[r1,#4]
        0x100031d8:    f7fff8ab    ....    BL       smart_update_retry ; 0x10002332
        0x100031dc:    2001        .       MOVS     r0,#1
        0x100031de:    bd70        p.      POP      {r4-r6,pc}
        0x100031e0:    00e4        ..      LSLS     r4,r4,#3
        0x100031e2:    42a3        .B      CMP      r3,r4
        0x100031e4:    dae9        ..      BGE      0x100031ba ; gap_s_smart_update_latency + 114
        0x100031e6:    e7e5        ..      B        0x100031b4 ; gap_s_smart_update_latency + 108
        0x100031e8:    2000        .       MOVS     r0,#0
        0x100031ea:    bd70        p.      POP      {r4-r6,pc}
    eFuseManual
        0x100031ec:    4912        .I      LDR      r1,[pc,#72] ; [0x10003238] = 0x200030b0
        0x100031ee:    69c9        .i      LDR      r1,[r1,#0x1c]
        0x100031f0:    7008        .p      STRB     r0,[r1,#0]
        0x100031f2:    0a02        ..      LSRS     r2,r0,#8
        0x100031f4:    704a        Jp      STRB     r2,[r1,#1]
        0x100031f6:    0c02        ..      LSRS     r2,r0,#16
        0x100031f8:    708a        .p      STRB     r2,[r1,#2]
        0x100031fa:    0e00        ..      LSRS     r0,r0,#24
        0x100031fc:    70c8        .p      STRB     r0,[r1,#3]
        0x100031fe:    7a48        Hz      LDRB     r0,[r1,#9]
        0x10003200:    2202        ."      MOVS     r2,#2
        0x10003202:    4310        .C      ORRS     r0,r0,r2
        0x10003204:    7248        Hr      STRB     r0,[r1,#9]
        0x10003206:    4770        pG      BX       lr
    GPADC_Manual_Calibration
        0x10003208:    b538        8.      PUSH     {r3-r5,lr}
        0x1000320a:    4604        .F      MOV      r4,r0
        0x1000320c:    2000        .       MOVS     r0,#0
        0x1000320e:    4907        .I      LDR      r1,[pc,#28] ; [0x1000322c] = 0x65e3
        0x10003210:    9000        ..      STR      r0,[sp,#0]
        0x10003212:    4668        hF      MOV      r0,sp
        0x10003214:    3996        .9      SUBS     r1,r1,#0x96
        0x10003216:    4788        .G      BLX      r1
        0x10003218:    9900        ..      LDR      r1,[sp,#0]
        0x1000321a:    20f8        .       MOVS     r0,#0xf8
        0x1000321c:    4381        .C      BICS     r1,r1,r0
        0x1000321e:    06e0        ..      LSLS     r0,r4,#27
        0x10003220:    0e00        ..      LSRS     r0,r0,#24
        0x10003222:    4308        .C      ORRS     r0,r0,r1
        0x10003224:    9000        ..      STR      r0,[sp,#0]
        0x10003226:    f7ffffe1    ....    BL       eFuseManual ; 0x100031ec
        0x1000322a:    bd38        8.      POP      {r3-r5,pc}
    $d
        0x1000322c:    000065e3    .e..    DCD    26083
        0x10003230:    0000473d    =G..    DCD    18237
        0x10003234:    000048a5    .H..    DCD    18597
        0x10003238:    200030b0    .0.     DCD    536883376
        0x1000323c:    00005443    CT..    DCD    21571
        0x10003240:    20003e98    .>.     DCD    536886936
        0x10003244:    00004a7b    {J..    DCD    19067
        0x10003248:    00008000    ....    DCD    32768
        0x1000324c:    00003ea1    .>..    DCD    16033
        0x10003250:    00004bf9    .K..    DCD    19449
    $t
    GAPGetUartEn
        0x10003254:    48fa        .H      LDR      r0,[pc,#1000] ; [0x10003640] = 0x65bf
        0x10003256:    4700        .G      BX       r0
    GAPUartEn
        0x10003258:    49f9        .I      LDR      r1,[pc,#996] ; [0x10003640] = 0x65bf
        0x1000325a:    3918        .9      SUBS     r1,r1,#0x18
        0x1000325c:    4708        .G      BX       r1
    GAPBBDelayUS
        0x1000325e:    49f9        .I      LDR      r1,[pc,#996] ; [0x10003644] = 0x622b
        0x10003260:    4708        .G      BX       r1
    GAPBBDelayMS
        0x10003262:    49f8        .I      LDR      r1,[pc,#992] ; [0x10003644] = 0x622b
        0x10003264:    311a        .1      ADDS     r1,r1,#0x1a
        0x10003266:    4708        .G      BX       r1
    GAPGetRFAutoSleep
        0x10003268:    48f7        .H      LDR      r0,[pc,#988] ; [0x10003648] = 0x6a77
        0x1000326a:    4700        .G      BX       r0
    GAPSetRFAutoSleep
        0x1000326c:    49f6        .I      LDR      r1,[pc,#984] ; [0x10003648] = 0x6a77
        0x1000326e:    310c        .1      ADDS     r1,r1,#0xc
        0x10003270:    4708        .G      BX       r1
    Setting4kUpdate
        0x10003272:    b5f8        ..      PUSH     {r3-r7,lr}
        0x10003274:    2600        .&      MOVS     r6,#0
        0x10003276:    460b        .F      MOV      r3,r1
        0x10003278:    4604        .F      MOV      r4,r0
        0x1000327a:    2501        .%      MOVS     r5,#1
        0x1000327c:    4630        0F      MOV      r0,r6
        0x1000327e:    4631        1F      MOV      r1,r6
        0x10003280:    032d        -.      LSLS     r5,r5,#12
        0x10003282:    5c67        g\      LDRB     r7,[r4,r1]
        0x10003284:    1c49        I.      ADDS     r1,r1,#1
        0x10003286:    19be        ..      ADDS     r6,r7,r6
        0x10003288:    42a9        .B      CMP      r1,r5
        0x1000328a:    d3fa        ..      BCC      0x10003282 ; Setting4kUpdate + 16
        0x1000328c:    2100        .!      MOVS     r1,#0
        0x1000328e:    5c67        g\      LDRB     r7,[r4,r1]
        0x10003290:    1c49        I.      ADDS     r1,r1,#1
        0x10003292:    4078        x@      EORS     r0,r0,r7
        0x10003294:    42a9        .B      CMP      r1,r5
        0x10003296:    d3fa        ..      BCC      0x1000328e ; Setting4kUpdate + 28
        0x10003298:    429e        .B      CMP      r6,r3
        0x1000329a:    d121        !.      BNE      0x100032e0 ; Setting4kUpdate + 110
        0x1000329c:    4290        .B      CMP      r0,r2
        0x1000329e:    d11f        ..      BNE      0x100032e0 ; Setting4kUpdate + 110
        0x100032a0:    4eea        .N      LDR      r6,[pc,#936] ; [0x1000364c] = 0x200030b0
        0x100032a2:    6870        ph      LDR      r0,[r6,#4]
        0x100032a4:    300a        .0      ADDS     r0,r0,#0xa
        0x100032a6:    f000ffda    ....    BL       __aeabi_uread4 ; 0x1000425e
        0x100032aa:    1900        ..      ADDS     r0,r0,r4
        0x100032ac:    2257        W"      MOVS     r2,#0x57
        0x100032ae:    49e8        .I      LDR      r1,[pc,#928] ; [0x10003650] = 0x20003e98
        0x100032b0:    f000ffa8    ....    BL       __aeabi_memcpy ; 0x10004204
        0x100032b4:    6870        ph      LDR      r0,[r6,#4]
        0x100032b6:    301c        .0      ADDS     r0,r0,#0x1c
        0x100032b8:    f000ffd1    ....    BL       __aeabi_uread4 ; 0x1000425e
        0x100032bc:    68b1        .h      LDR      r1,[r6,#8]
        0x100032be:    1900        ..      ADDS     r0,r0,r4
        0x100032c0:    2207        ."      MOVS     r2,#7
        0x100032c2:    310a        .1      ADDS     r1,r1,#0xa
        0x100032c4:    f000ff9e    ....    BL       __aeabi_memcpy ; 0x10004204
        0x100032c8:    2101        .!      MOVS     r1,#1
        0x100032ca:    4ae2        .J      LDR      r2,[pc,#904] ; [0x10003654] = 0x5443
        0x100032cc:    2000        .       MOVS     r0,#0
        0x100032ce:    4790        .G      BLX      r2
        0x100032d0:    4be0        .K      LDR      r3,[pc,#896] ; [0x10003654] = 0x5443
        0x100032d2:    2000        .       MOVS     r0,#0
        0x100032d4:    4622        "F      MOV      r2,r4
        0x100032d6:    4629        )F      MOV      r1,r5
        0x100032d8:    3b82        .;      SUBS     r3,r3,#0x82
        0x100032da:    4798        .G      BLX      r3
        0x100032dc:    2001        .       MOVS     r0,#1
        0x100032de:    e419        ..      B        0x10002b14 ; GATTDataSend + 42
        0x100032e0:    2000        .       MOVS     r0,#0
        0x100032e2:    e417        ..      B        0x10002b14 ; GATTDataSend + 42
    SetDevAddr_toflash
        0x100032e4:    b570        p.      PUSH     {r4-r6,lr}
        0x100032e6:    2601        .&      MOVS     r6,#1
        0x100032e8:    4605        .F      MOV      r5,r0
        0x100032ea:    4cd8        .L      LDR      r4,[pc,#864] ; [0x1000364c] = 0x200030b0
        0x100032ec:    0336        6.      LSLS     r6,r6,#12
        0x100032ee:    4bd9        .K      LDR      r3,[pc,#868] ; [0x10003654] = 0x5443
        0x100032f0:    2000        .       MOVS     r0,#0
        0x100032f2:    4631        1F      MOV      r1,r6
        0x100032f4:    3bea        .;      SUBS     r3,r3,#0xea
        0x100032f6:    6962        bi      LDR      r2,[r4,#0x14]
        0x100032f8:    4798        .G      BLX      r3
        0x100032fa:    49d7        .I      LDR      r1,[pc,#860] ; [0x10003658] = 0x3da1
        0x100032fc:    4628        (F      MOV      r0,r5
        0x100032fe:    4788        .G      BLX      r1
        0x10003300:    6860        `h      LDR      r0,[r4,#4]
        0x10003302:    301c        .0      ADDS     r0,r0,#0x1c
        0x10003304:    f000ffab    ....    BL       __aeabi_uread4 ; 0x1000425e
        0x10003308:    6961        ai      LDR      r1,[r4,#0x14]
        0x1000330a:    2207        ."      MOVS     r2,#7
        0x1000330c:    1840        @.      ADDS     r0,r0,r1
        0x1000330e:    68a1        .h      LDR      r1,[r4,#8]
        0x10003310:    310a        .1      ADDS     r1,r1,#0xa
        0x10003312:    f000ff77    ..w.    BL       __aeabi_memcpy ; 0x10004204
        0x10003316:    2101        .!      MOVS     r1,#1
        0x10003318:    4ace        .J      LDR      r2,[pc,#824] ; [0x10003654] = 0x5443
        0x1000331a:    2000        .       MOVS     r0,#0
        0x1000331c:    4790        .G      BLX      r2
        0x1000331e:    4bcd        .K      LDR      r3,[pc,#820] ; [0x10003654] = 0x5443
        0x10003320:    2000        .       MOVS     r0,#0
        0x10003322:    4631        1F      MOV      r1,r6
        0x10003324:    3b82        .;      SUBS     r3,r3,#0x82
        0x10003326:    6962        bi      LDR      r2,[r4,#0x14]
        0x10003328:    4798        .G      BLX      r3
        0x1000332a:    bd70        p.      POP      {r4-r6,pc}
    gap_s_verdor_datas_get
        0x1000332c:    b510        ..      PUSH     {r4,lr}
        0x1000332e:    4604        .F      MOV      r4,r0
        0x10003330:    48c6        .H      LDR      r0,[pc,#792] ; [0x1000364c] = 0x200030b0
        0x10003332:    6840        @h      LDR      r0,[r0,#4]
        0x10003334:    300a        .0      ADDS     r0,r0,#0xa
        0x10003336:    f000ff92    ....    BL       __aeabi_uread4 ; 0x1000425e
        0x1000333a:    4bc6        .K      LDR      r3,[pc,#792] ; [0x10003654] = 0x5443
        0x1000333c:    2110        .!      MOVS     r1,#0x10
        0x1000333e:    3bea        .;      SUBS     r3,r3,#0xea
        0x10003340:    4622        "F      MOV      r2,r4
        0x10003342:    3057        W0      ADDS     r0,r0,#0x57
        0x10003344:    4798        .G      BLX      r3
        0x10003346:    e55f        _.      B        0x10002e08 ; CapdetEn + 10
    gap_s_verdor_datas_set
        0x10003348:    b570        p.      PUSH     {r4-r6,lr}
        0x1000334a:    2601        .&      MOVS     r6,#1
        0x1000334c:    4605        .F      MOV      r5,r0
        0x1000334e:    4cbf        .L      LDR      r4,[pc,#764] ; [0x1000364c] = 0x200030b0
        0x10003350:    0336        6.      LSLS     r6,r6,#12
        0x10003352:    4bc0        .K      LDR      r3,[pc,#768] ; [0x10003654] = 0x5443
        0x10003354:    2000        .       MOVS     r0,#0
        0x10003356:    4631        1F      MOV      r1,r6
        0x10003358:    3bea        .;      SUBS     r3,r3,#0xea
        0x1000335a:    6962        bi      LDR      r2,[r4,#0x14]
        0x1000335c:    4798        .G      BLX      r3
        0x1000335e:    2101        .!      MOVS     r1,#1
        0x10003360:    4abc        .J      LDR      r2,[pc,#752] ; [0x10003654] = 0x5443
        0x10003362:    2000        .       MOVS     r0,#0
        0x10003364:    4790        .G      BLX      r2
        0x10003366:    6860        `h      LDR      r0,[r4,#4]
        0x10003368:    300a        .0      ADDS     r0,r0,#0xa
        0x1000336a:    f000ff78    ..x.    BL       __aeabi_uread4 ; 0x1000425e
        0x1000336e:    6961        ai      LDR      r1,[r4,#0x14]
        0x10003370:    2210        ."      MOVS     r2,#0x10
        0x10003372:    3157        W1      ADDS     r1,r1,#0x57
        0x10003374:    1840        @.      ADDS     r0,r0,r1
        0x10003376:    4629        )F      MOV      r1,r5
        0x10003378:    f000ff44    ..D.    BL       __aeabi_memcpy ; 0x10004204
        0x1000337c:    4bb5        .K      LDR      r3,[pc,#724] ; [0x10003654] = 0x5443
        0x1000337e:    2000        .       MOVS     r0,#0
        0x10003380:    4631        1F      MOV      r1,r6
        0x10003382:    3b82        .;      SUBS     r3,r3,#0x82
        0x10003384:    6962        bi      LDR      r2,[r4,#0x14]
        0x10003386:    4798        .G      BLX      r3
        0x10003388:    bd70        p.      POP      {r4-r6,pc}
    gap_s_is_ll_start_enc
        0x1000338a:    48b0        .H      LDR      r0,[pc,#704] ; [0x1000364c] = 0x200030b0
        0x1000338c:    6900        .i      LDR      r0,[r0,#0x10]
        0x1000338e:    7801        .x      LDRB     r1,[r0,#0]
        0x10003390:    43c9        .C      MVNS     r1,r1
        0x10003392:    0789        ..      LSLS     r1,r1,#30
        0x10003394:    d102        ..      BNE      0x1000339c ; gap_s_is_ll_start_enc + 18
        0x10003396:    7880        .x      LDRB     r0,[r0,#2]
        0x10003398:    2806        .(      CMP      r0,#6
        0x1000339a:    d001        ..      BEQ      0x100033a0 ; gap_s_is_ll_start_enc + 22
        0x1000339c:    2000        .       MOVS     r0,#0
        0x1000339e:    4770        pG      BX       lr
        0x100033a0:    2001        .       MOVS     r0,#1
        0x100033a2:    4770        pG      BX       lr
    GAPBBTXFIFO0Write
        0x100033a4:    4aad        .J      LDR      r2,[pc,#692] ; [0x1000365c] = 0x60d9
        0x100033a6:    4710        .G      BX       r2
    flash_peotect_key_confirm
        0x100033a8:    b5f3        ..      PUSH     {r0,r1,r4-r7,lr}
        0x100033aa:    b081        ..      SUB      sp,sp,#4
        0x100033ac:    0006        ..      MOVS     r6,r0
        0x100033ae:    d025        %.      BEQ      0x100033fc ; flash_peotect_key_confirm + 84
        0x100033b0:    4fa6        .O      LDR      r7,[pc,#664] ; [0x1000364c] = 0x200030b0
        0x100033b2:    69b8        .i      LDR      r0,[r7,#0x18]
        0x100033b4:    4604        .F      MOV      r4,r0
        0x100033b6:    79c1        .y      LDRB     r1,[r0,#7]
        0x100033b8:    7980        .y      LDRB     r0,[r0,#6]
        0x100033ba:    020d        ..      LSLS     r5,r1,#8
        0x100033bc:    4305        .C      ORRS     r5,r5,r0
        0x100033be:    1ce0        ..      ADDS     r0,r4,#3
        0x100033c0:    f000ff4d    ..M.    BL       __aeabi_uread4 ; 0x1000425e
        0x100033c4:    0201        ..      LSLS     r1,r0,#8
        0x100033c6:    78a0        .x      LDRB     r0,[r4,#2]
        0x100033c8:    4301        .C      ORRS     r1,r1,r0
        0x100033ca:    460c        .F      MOV      r4,r1
        0x100033cc:    2d00        .-      CMP      r5,#0
        0x100033ce:    d017        ..      BEQ      0x10003400 ; flash_peotect_key_confirm + 88
        0x100033d0:    2c00        .,      CMP      r4,#0
        0x100033d2:    d015        ..      BEQ      0x10003400 ; flash_peotect_key_confirm + 88
        0x100033d4:    2101        .!      MOVS     r1,#1
        0x100033d6:    4b9f        .K      LDR      r3,[pc,#636] ; [0x10003654] = 0x5443
        0x100033d8:    0309        ..      LSLS     r1,r1,#12
        0x100033da:    2000        .       MOVS     r0,#0
        0x100033dc:    3bea        .;      SUBS     r3,r3,#0xea
        0x100033de:    697a        zi      LDR      r2,[r7,#0x14]
        0x100033e0:    4798        .G      BLX      r3
        0x100033e2:    6878        xh      LDR      r0,[r7,#4]
        0x100033e4:    300a        .0      ADDS     r0,r0,#0xa
        0x100033e6:    f000ff3a    ..:.    BL       __aeabi_uread4 ; 0x1000425e
        0x100033ea:    6979        yi      LDR      r1,[r7,#0x14]
        0x100033ec:    3167        g1      ADDS     r1,r1,#0x67
        0x100033ee:    5c40        @\      LDRB     r0,[r0,r1]
        0x100033f0:    1c40        @.      ADDS     r0,r0,#1
        0x100033f2:    b2c7        ..      UXTB     r7,r0
        0x100033f4:    2f03        ./      CMP      r7,#3
        0x100033f6:    d905        ..      BLS      0x10003404 ; flash_peotect_key_confirm + 92
        0x100033f8:    2002        .       MOVS     r0,#2
        0x100033fa:    bdfe        ..      POP      {r1-r7,pc}
        0x100033fc:    2001        .       MOVS     r0,#1
        0x100033fe:    bdfe        ..      POP      {r1-r7,pc}
        0x10003400:    2004        .       MOVS     r0,#4
        0x10003402:    bdfe        ..      POP      {r1-r7,pc}
        0x10003404:    42b5        .B      CMP      r5,r6
        0x10003406:    d104        ..      BNE      0x10003412 ; flash_peotect_key_confirm + 106
        0x10003408:    9802        ..      LDR      r0,[sp,#8]
        0x1000340a:    4284        .B      CMP      r4,r0
        0x1000340c:    d101        ..      BNE      0x10003412 ; flash_peotect_key_confirm + 106
        0x1000340e:    2000        .       MOVS     r0,#0
        0x10003410:    bdfe        ..      POP      {r1-r7,pc}
        0x10003412:    2101        .!      MOVS     r1,#1
        0x10003414:    4a8f        .J      LDR      r2,[pc,#572] ; [0x10003654] = 0x5443
        0x10003416:    2000        .       MOVS     r0,#0
        0x10003418:    4790        .G      BLX      r2
        0x1000341a:    4c8c        .L      LDR      r4,[pc,#560] ; [0x1000364c] = 0x200030b0
        0x1000341c:    6860        `h      LDR      r0,[r4,#4]
        0x1000341e:    300a        .0      ADDS     r0,r0,#0xa
        0x10003420:    f000ff1d    ....    BL       __aeabi_uread4 ; 0x1000425e
        0x10003424:    6962        bi      LDR      r2,[r4,#0x14]
        0x10003426:    4b8b        .K      LDR      r3,[pc,#556] ; [0x10003654] = 0x5443
        0x10003428:    4611        .F      MOV      r1,r2
        0x1000342a:    3167        g1      ADDS     r1,r1,#0x67
        0x1000342c:    5447        GT      STRB     r7,[r0,r1]
        0x1000342e:    2101        .!      MOVS     r1,#1
        0x10003430:    0309        ..      LSLS     r1,r1,#12
        0x10003432:    2000        .       MOVS     r0,#0
        0x10003434:    3b82        .;      SUBS     r3,r3,#0x82
        0x10003436:    4798        .G      BLX      r3
        0x10003438:    2003        .       MOVS     r0,#3
        0x1000343a:    bdfe        ..      POP      {r1-r7,pc}
    flash_data_offect_get
        0x1000343c:    4884        .H      LDR      r0,[pc,#528] ; [0x10003650] = 0x20003e98
        0x1000343e:    2101        .!      MOVS     r1,#1
        0x10003440:    7802        .x      LDRB     r2,[r0,#0]
        0x10003442:    4882        .H      LDR      r0,[pc,#520] ; [0x1000364c] = 0x200030b0
        0x10003444:    0709        ..      LSLS     r1,r1,#28
        0x10003446:    6840        @h      LDR      r0,[r0,#4]
        0x10003448:    2a00        .*      CMP      r2,#0
        0x1000344a:    d003        ..      BEQ      0x10003454 ; flash_data_offect_get + 24
        0x1000344c:    2a01        .*      CMP      r2,#1
        0x1000344e:    d007        ..      BEQ      0x10003460 ; flash_data_offect_get + 36
        0x10003450:    2000        .       MOVS     r0,#0
        0x10003452:    4770        pG      BX       lr
        0x10003454:    7bc2        .{      LDRB     r2,[r0,#0xf]
        0x10003456:    7b83        .{      LDRB     r3,[r0,#0xe]
        0x10003458:    0210        ..      LSLS     r0,r2,#8
        0x1000345a:    4318        .C      ORRS     r0,r0,r3
        0x1000345c:    0340        @.      LSLS     r0,r0,#13
        0x1000345e:    e004        ..      B        0x1000346a ; flash_data_offect_get + 46
        0x10003460:    7bc2        .{      LDRB     r2,[r0,#0xf]
        0x10003462:    7b83        .{      LDRB     r3,[r0,#0xe]
        0x10003464:    0210        ..      LSLS     r0,r2,#8
        0x10003466:    4318        .C      ORRS     r0,r0,r3
        0x10003468:    0300        ..      LSLS     r0,r0,#12
        0x1000346a:    1840        @.      ADDS     r0,r0,r1
        0x1000346c:    4770        pG      BX       lr
    EraseCodeB
        0x1000346e:    b570        p.      PUSH     {r4-r6,lr}
        0x10003470:    4604        .F      MOV      r4,r0
        0x10003472:    4877        wH      LDR      r0,[pc,#476] ; [0x10003650] = 0x20003e98
        0x10003474:    460d        .F      MOV      r5,r1
        0x10003476:    7801        .x      LDRB     r1,[r0,#0]
        0x10003478:    4874        tH      LDR      r0,[pc,#464] ; [0x1000364c] = 0x200030b0
        0x1000347a:    2601        .&      MOVS     r6,#1
        0x1000347c:    03b6        ..      LSLS     r6,r6,#14
        0x1000347e:    6840        @h      LDR      r0,[r0,#4]
        0x10003480:    2900        .)      CMP      r1,#0
        0x10003482:    d003        ..      BEQ      0x1000348c ; EraseCodeB + 30
        0x10003484:    2901        .)      CMP      r1,#1
        0x10003486:    d003        ..      BEQ      0x10003490 ; EraseCodeB + 34
        0x10003488:    2000        .       MOVS     r0,#0
        0x1000348a:    bd70        p.      POP      {r4-r6,pc}
        0x1000348c:    3014        .0      ADDS     r0,r0,#0x14
        0x1000348e:    e000        ..      B        0x10003492 ; EraseCodeB + 36
        0x10003490:    3010        .0      ADDS     r0,r0,#0x10
        0x10003492:    f000fee4    ....    BL       __aeabi_uread4 ; 0x1000425e
        0x10003496:    1980        ..      ADDS     r0,r0,r6
        0x10003498:    b672        r.      CPSID    i
        0x1000349a:    1900        ..      ADDS     r0,r0,r4
        0x1000349c:    4a6d        mJ      LDR      r2,[pc,#436] ; [0x10003654] = 0x5443
        0x1000349e:    4629        )F      MOV      r1,r5
        0x100034a0:    4790        .G      BLX      r2
        0x100034a2:    b662        b.      CPSIE    i
        0x100034a4:    bd70        p.      POP      {r4-r6,pc}
    ReadCodeB
        0x100034a6:    b5f8        ..      PUSH     {r3-r7,lr}
        0x100034a8:    4605        .F      MOV      r5,r0
        0x100034aa:    4869        iH      LDR      r0,[pc,#420] ; [0x10003650] = 0x20003e98
        0x100034ac:    460f        .F      MOV      r7,r1
        0x100034ae:    7801        .x      LDRB     r1,[r0,#0]
        0x100034b0:    4866        fH      LDR      r0,[pc,#408] ; [0x1000364c] = 0x200030b0
        0x100034b2:    2401        .$      MOVS     r4,#1
        0x100034b4:    03a4        ..      LSLS     r4,r4,#14
        0x100034b6:    6840        @h      LDR      r0,[r0,#4]
        0x100034b8:    4616        .F      MOV      r6,r2
        0x100034ba:    2900        .)      CMP      r1,#0
        0x100034bc:    d003        ..      BEQ      0x100034c6 ; ReadCodeB + 32
        0x100034be:    2901        .)      CMP      r1,#1
        0x100034c0:    d003        ..      BEQ      0x100034ca ; ReadCodeB + 36
        0x100034c2:    2000        .       MOVS     r0,#0
        0x100034c4:    e4f7        ..      B        0x10002eb6 ; EraseFlashData + 42
        0x100034c6:    3014        .0      ADDS     r0,r0,#0x14
        0x100034c8:    e000        ..      B        0x100034cc ; ReadCodeB + 38
        0x100034ca:    3010        .0      ADDS     r0,r0,#0x10
        0x100034cc:    f000fec7    ....    BL       __aeabi_uread4 ; 0x1000425e
        0x100034d0:    1900        ..      ADDS     r0,r0,r4
        0x100034d2:    b672        r.      CPSID    i
        0x100034d4:    1940        @.      ADDS     r0,r0,r5
        0x100034d6:    4b5f        _K      LDR      r3,[pc,#380] ; [0x10003654] = 0x5443
        0x100034d8:    4632        2F      MOV      r2,r6
        0x100034da:    4639        9F      MOV      r1,r7
        0x100034dc:    3bea        .;      SUBS     r3,r3,#0xea
        0x100034de:    4798        .G      BLX      r3
        0x100034e0:    b662        b.      CPSIE    i
        0x100034e2:    e4e8        ..      B        0x10002eb6 ; EraseFlashData + 42
    WriteCodeB
        0x100034e4:    b5f8        ..      PUSH     {r3-r7,lr}
        0x100034e6:    4605        .F      MOV      r5,r0
        0x100034e8:    4859        YH      LDR      r0,[pc,#356] ; [0x10003650] = 0x20003e98
        0x100034ea:    460f        .F      MOV      r7,r1
        0x100034ec:    7801        .x      LDRB     r1,[r0,#0]
        0x100034ee:    4857        WH      LDR      r0,[pc,#348] ; [0x1000364c] = 0x200030b0
        0x100034f0:    2401        .$      MOVS     r4,#1
        0x100034f2:    03a4        ..      LSLS     r4,r4,#14
        0x100034f4:    6840        @h      LDR      r0,[r0,#4]
        0x100034f6:    4616        .F      MOV      r6,r2
        0x100034f8:    2900        .)      CMP      r1,#0
        0x100034fa:    d003        ..      BEQ      0x10003504 ; WriteCodeB + 32
        0x100034fc:    2901        .)      CMP      r1,#1
        0x100034fe:    d003        ..      BEQ      0x10003508 ; WriteCodeB + 36
        0x10003500:    2000        .       MOVS     r0,#0
        0x10003502:    e4d8        ..      B        0x10002eb6 ; EraseFlashData + 42
        0x10003504:    3014        .0      ADDS     r0,r0,#0x14
        0x10003506:    e000        ..      B        0x1000350a ; WriteCodeB + 38
        0x10003508:    3010        .0      ADDS     r0,r0,#0x10
        0x1000350a:    f000fea8    ....    BL       __aeabi_uread4 ; 0x1000425e
        0x1000350e:    1900        ..      ADDS     r0,r0,r4
        0x10003510:    b672        r.      CPSID    i
        0x10003512:    1940        @.      ADDS     r0,r0,r5
        0x10003514:    4b4f        OK      LDR      r3,[pc,#316] ; [0x10003654] = 0x5443
        0x10003516:    4632        2F      MOV      r2,r6
        0x10003518:    4639        9F      MOV      r1,r7
        0x1000351a:    3b82        .;      SUBS     r3,r3,#0x82
        0x1000351c:    4798        .G      BLX      r3
        0x1000351e:    b662        b.      CPSIE    i
        0x10003520:    e4c9        ..      B        0x10002eb6 ; EraseFlashData + 42
    ble_SetTxPower
        0x10003522:    b510        ..      PUSH     {r4,lr}
        0x10003524:    0003        ..      MOVS     r3,r0
        0x10003526:    f001f9f2    ....    BL       __ARM_common_switch8 ; 0x1000490e
    $d
        0x1000352a:    0609        ..      DCW    1545
        0x1000352c:    2a20160c    .. *    DCD    706745868
        0x10003530:    5b413e34    4>A[    DCD    1531002420
        0x10003534:    0077        w.      DCW    119
    $t
        0x10003536:    2101        .!      MOVS     r1,#1
        0x10003538:    207f        .       MOVS     r0,#0x7f
        0x1000353a:    f7fefd3f    ..?.    BL       BBRFWrite ; 0x10001fbc
        0x1000353e:    2188        .!      MOVS     r1,#0x88
        0x10003540:    e004        ..      B        0x1000354c ; ble_SetTxPower + 42
        0x10003542:    2101        .!      MOVS     r1,#1
        0x10003544:    207f        .       MOVS     r0,#0x7f
        0x10003546:    f7fefd39    ..9.    BL       BBRFWrite ; 0x10001fbc
        0x1000354a:    218a        .!      MOVS     r1,#0x8a
        0x1000354c:    2061        a       MOVS     r0,#0x61
        0x1000354e:    f7fefd35    ..5.    BL       BBRFWrite ; 0x10001fbc
        0x10003552:    2181        .!      MOVS     r1,#0x81
        0x10003554:    e05d        ].      B        0x10003612 ; ble_SetTxPower + 240
        0x10003556:    2101        .!      MOVS     r1,#1
        0x10003558:    207f        .       MOVS     r0,#0x7f
        0x1000355a:    f7fefd2f    ../.    BL       BBRFWrite ; 0x10001fbc
        0x1000355e:    218a        .!      MOVS     r1,#0x8a
        0x10003560:    2061        a       MOVS     r0,#0x61
        0x10003562:    f7fefd2b    ..+.    BL       BBRFWrite ; 0x10001fbc
        0x10003566:    2183        .!      MOVS     r1,#0x83
        0x10003568:    e053        S.      B        0x10003612 ; ble_SetTxPower + 240
        0x1000356a:    2101        .!      MOVS     r1,#1
        0x1000356c:    207f        .       MOVS     r0,#0x7f
        0x1000356e:    f7fefd25    ..%.    BL       BBRFWrite ; 0x10001fbc
        0x10003572:    218a        .!      MOVS     r1,#0x8a
        0x10003574:    2061        a       MOVS     r0,#0x61
        0x10003576:    f7fefd21    ..!.    BL       BBRFWrite ; 0x10001fbc
        0x1000357a:    2187        .!      MOVS     r1,#0x87
        0x1000357c:    e049        I.      B        0x10003612 ; ble_SetTxPower + 240
        0x1000357e:    2101        .!      MOVS     r1,#1
        0x10003580:    207f        .       MOVS     r0,#0x7f
        0x10003582:    f7fefd1b    ....    BL       BBRFWrite ; 0x10001fbc
        0x10003586:    218a        .!      MOVS     r1,#0x8a
        0x10003588:    2061        a       MOVS     r0,#0x61
        0x1000358a:    f7fefd17    ....    BL       BBRFWrite ; 0x10001fbc
        0x1000358e:    218f        .!      MOVS     r1,#0x8f
        0x10003590:    e03f        ?.      B        0x10003612 ; ble_SetTxPower + 240
        0x10003592:    2101        .!      MOVS     r1,#1
        0x10003594:    207f        .       MOVS     r0,#0x7f
        0x10003596:    f7fefd11    ....    BL       BBRFWrite ; 0x10001fbc
        0x1000359a:    218a        .!      MOVS     r1,#0x8a
        0x1000359c:    2061        a       MOVS     r0,#0x61
        0x1000359e:    f7fefd0d    ....    BL       BBRFWrite ; 0x10001fbc
        0x100035a2:    219f        .!      MOVS     r1,#0x9f
        0x100035a4:    e035        5.      B        0x10003612 ; ble_SetTxPower + 240
        0x100035a6:    2101        .!      MOVS     r1,#1
        0x100035a8:    207f        .       MOVS     r0,#0x7f
        0x100035aa:    e02b        +.      B        0x10003604 ; ble_SetTxPower + 226
        0x100035ac:    2100        .!      MOVS     r1,#0
        0x100035ae:    207f        .       MOVS     r0,#0x7f
        0x100035b0:    f7fefd04    ....    BL       BBRFWrite ; 0x10001fbc
        0x100035b4:    2102        .!      MOVS     r1,#2
        0x100035b6:    2030        0       MOVS     r0,#0x30
        0x100035b8:    f7fefd00    ....    BL       BBRFWrite ; 0x10001fbc
        0x100035bc:    2101        .!      MOVS     r1,#1
        0x100035be:    207f        .       MOVS     r0,#0x7f
        0x100035c0:    f7fefcfc    ....    BL       BBRFWrite ; 0x10001fbc
        0x100035c4:    211f        .!      MOVS     r1,#0x1f
        0x100035c6:    2063        c       MOVS     r0,#0x63
        0x100035c8:    f7fefcf8    ....    BL       BBRFWrite ; 0x10001fbc
        0x100035cc:    2103        .!      MOVS     r1,#3
        0x100035ce:    206d        m       MOVS     r0,#0x6d
        0x100035d0:    f7fefcf4    ....    BL       BBRFWrite ; 0x10001fbc
        0x100035d4:    218a        .!      MOVS     r1,#0x8a
        0x100035d6:    2061        a       MOVS     r0,#0x61
        0x100035d8:    f7fefcf0    ....    BL       BBRFWrite ; 0x10001fbc
        0x100035dc:    21b0        .!      MOVS     r1,#0xb0
        0x100035de:    e018        ..      B        0x10003612 ; ble_SetTxPower + 240
        0x100035e0:    2100        .!      MOVS     r1,#0
        0x100035e2:    207f        .       MOVS     r0,#0x7f
        0x100035e4:    f7fefcea    ....    BL       BBRFWrite ; 0x10001fbc
        0x100035e8:    2102        .!      MOVS     r1,#2
        0x100035ea:    2030        0       MOVS     r0,#0x30
        0x100035ec:    f7fefce6    ....    BL       BBRFWrite ; 0x10001fbc
        0x100035f0:    2101        .!      MOVS     r1,#1
        0x100035f2:    207f        .       MOVS     r0,#0x7f
        0x100035f4:    f7fefce2    ....    BL       BBRFWrite ; 0x10001fbc
        0x100035f8:    211f        .!      MOVS     r1,#0x1f
        0x100035fa:    2063        c       MOVS     r0,#0x63
        0x100035fc:    f7fefcde    ....    BL       BBRFWrite ; 0x10001fbc
        0x10003600:    2107        .!      MOVS     r1,#7
        0x10003602:    206d        m       MOVS     r0,#0x6d
        0x10003604:    f7fefcda    ....    BL       BBRFWrite ; 0x10001fbc
        0x10003608:    218a        .!      MOVS     r1,#0x8a
        0x1000360a:    2061        a       MOVS     r0,#0x61
        0x1000360c:    f7fefcd6    ....    BL       BBRFWrite ; 0x10001fbc
        0x10003610:    21bf        .!      MOVS     r1,#0xbf
        0x10003612:    2065        e       MOVS     r0,#0x65
        0x10003614:    f7fefcd2    ....    BL       BBRFWrite ; 0x10001fbc
        0x10003618:    e418        ..      B        0x10002e4c ; PowerDownLPOEn + 8
    WaitLLCOverSlpth
        0x1000361a:    b510        ..      PUSH     {r4,lr}
        0x1000361c:    f000f865    ..e.    BL       GetOverSlpth ; 0x100036ea
        0x10003620:    2800        .(      CMP      r0,#0
        0x10003622:    d004        ..      BEQ      0x1000362e ; WaitLLCOverSlpth + 20
        0x10003624:    f000f861    ..a.    BL       GetOverSlpth ; 0x100036ea
        0x10003628:    2801        .(      CMP      r0,#1
        0x1000362a:    d0fb        ..      BEQ      0x10003624 ; WaitLLCOverSlpth + 10
        0x1000362c:    e40e        ..      B        0x10002e4c ; PowerDownLPOEn + 8
        0x1000362e:    f000f85c    ..\.    BL       GetOverSlpth ; 0x100036ea
        0x10003632:    2800        .(      CMP      r0,#0
        0x10003634:    d0fb        ..      BEQ      0x1000362e ; WaitLLCOverSlpth + 20
        0x10003636:    f000f858    ..X.    BL       GetOverSlpth ; 0x100036ea
        0x1000363a:    2801        .(      CMP      r0,#1
        0x1000363c:    d0fb        ..      BEQ      0x10003636 ; WaitLLCOverSlpth + 28
        0x1000363e:    e405        ..      B        0x10002e4c ; PowerDownLPOEn + 8
    $d
        0x10003640:    000065bf    .e..    DCD    26047
        0x10003644:    0000622b    +b..    DCD    25131
        0x10003648:    00006a77    wj..    DCD    27255
        0x1000364c:    200030b0    .0.     DCD    536883376
        0x10003650:    20003e98    .>.     DCD    536886936
        0x10003654:    00005443    CT..    DCD    21571
        0x10003658:    00003da1    .=..    DCD    15777
        0x1000365c:    000060d9    .`..    DCD    24793
    $t
    _BBRXFIFORead
        0x10003660:    b5f0        ..      PUSH     {r4-r7,lr}
        0x10003662:    4c28        (L      LDR      r4,[pc,#160] ; [0x10003704] = 0x200030b0
        0x10003664:    2500        .%      MOVS     r5,#0
        0x10003666:    6a24        $j      LDR      r4,[r4,#0x20]
        0x10003668:    78e6        .x      LDRB     r6,[r4,#3]
        0x1000366a:    0736        6.      LSLS     r6,r6,#28
        0x1000366c:    d501        ..      BPL      0x10003672 ; _BBRXFIFORead + 18
        0x1000366e:    2000        .       MOVS     r0,#0
        0x10003670:    bdf0        ..      POP      {r4-r7,pc}
        0x10003672:    bf00        ..      NOP      
        0x10003674:    1c6d        m.      ADDS     r5,r5,#1
        0x10003676:    b2ed        ..      UXTB     r5,r5
        0x10003678:    2d64        d-      CMP      r5,#0x64
        0x1000367a:    d3fa        ..      BCC      0x10003672 ; _BBRXFIFORead + 18
        0x1000367c:    4625        %F      MOV      r5,r4
        0x1000367e:    3540        @5      ADDS     r5,r5,#0x40
        0x10003680:    7c6e        n|      LDRB     r6,[r5,#0x11]
        0x10003682:    07b6        ..      LSLS     r6,r6,#30
        0x10003684:    d4fc        ..      BMI      0x10003680 ; _BBRXFIFORead + 32
        0x10003686:    2500        .%      MOVS     r5,#0
        0x10003688:    4626        &F      MOV      r6,r4
        0x1000368a:    36c0        .6      ADDS     r6,r6,#0xc0
        0x1000368c:    7937        7y      LDRB     r7,[r6,#4]
        0x1000368e:    5547        GU      STRB     r7,[r0,r5]
        0x10003690:    1c6d        m.      ADDS     r5,r5,#1
        0x10003692:    b2ed        ..      UXTB     r5,r5
        0x10003694:    2d02        .-      CMP      r5,#2
        0x10003696:    d3f9        ..      BCC      0x1000368c ; _BBRXFIFORead + 44
        0x10003698:    7846        Fx      LDRB     r6,[r0,#1]
        0x1000369a:    2501        .%      MOVS     r5,#1
        0x1000369c:    09f7        ..      LSRS     r7,r6,#7
        0x1000369e:    2f00        ./      CMP      r7,#0
        0x100036a0:    d008        ..      BEQ      0x100036b4 ; _BBRXFIFORead + 84
        0x100036a2:    06f6        ..      LSLS     r6,r6,#27
        0x100036a4:    0ef6        ..      LSRS     r6,r6,#27
        0x100036a6:    700e        .p      STRB     r6,[r1,#0]
        0x100036a8:    7015        .p      STRB     r5,[r2,#0]
        0x100036aa:    7842        Bx      LDRB     r2,[r0,#1]
        0x100036ac:    0652        R.      LSLS     r2,r2,#25
        0x100036ae:    0fd2        ..      LSRS     r2,r2,#31
        0x100036b0:    701a        .p      STRB     r2,[r3,#0]
        0x100036b2:    e004        ..      B        0x100036be ; _BBRXFIFORead + 94
        0x100036b4:    06b3        ..      LSLS     r3,r6,#26
        0x100036b6:    0e9b        ..      LSRS     r3,r3,#26
        0x100036b8:    700b        .p      STRB     r3,[r1,#0]
        0x100036ba:    2300        .#      MOVS     r3,#0
        0x100036bc:    7013        .p      STRB     r3,[r2,#0]
        0x100036be:    4b11        .K      LDR      r3,[pc,#68] ; [0x10003704] = 0x200030b0
        0x100036c0:    780a        .x      LDRB     r2,[r1,#0]
        0x100036c2:    6a1b        .j      LDR      r3,[r3,#0x20]
        0x100036c4:    1c80        ..      ADDS     r0,r0,#2
        0x100036c6:    33c0        .3      ADDS     r3,r3,#0xc0
        0x100036c8:    2a27        '*      CMP      r2,#0x27
        0x100036ca:    d20c        ..      BCS      0x100036e6 ; _BBRXFIFORead + 134
        0x100036cc:    2200        ."      MOVS     r2,#0
        0x100036ce:    34c0        .4      ADDS     r4,r4,#0xc0
        0x100036d0:    e003        ..      B        0x100036da ; _BBRXFIFORead + 122
        0x100036d2:    7926        &y      LDRB     r6,[r4,#4]
        0x100036d4:    5486        .T      STRB     r6,[r0,r2]
        0x100036d6:    1c52        R.      ADDS     r2,r2,#1
        0x100036d8:    b2d2        ..      UXTB     r2,r2
        0x100036da:    780e        .x      LDRB     r6,[r1,#0]
        0x100036dc:    4296        .B      CMP      r6,r2
        0x100036de:    d8f8        ..      BHI      0x100036d2 ; _BBRXFIFORead + 114
        0x100036e0:    725d        ]r      STRB     r5,[r3,#9]
        0x100036e2:    2001        .       MOVS     r0,#1
        0x100036e4:    bdf0        ..      POP      {r4-r7,pc}
        0x100036e6:    725d        ]r      STRB     r5,[r3,#9]
        0x100036e8:    e7c1        ..      B        0x1000366e ; _BBRXFIFORead + 14
    GetOverSlpth
        0x100036ea:    4806        .H      LDR      r0,[pc,#24] ; [0x10003704] = 0x200030b0
        0x100036ec:    6a01        .j      LDR      r1,[r0,#0x20]
        0x100036ee:    460a        .F      MOV      r2,r1
        0x100036f0:    3260        `2      ADDS     r2,r2,#0x60
        0x100036f2:    7c90        .|      LDRB     r0,[r2,#0x12]
        0x100036f4:    7c92        .|      LDRB     r2,[r2,#0x12]
        0x100036f6:    3160        `1      ADDS     r1,r1,#0x60
        0x100036f8:    e001        ..      B        0x100036fe ; GetOverSlpth + 20
        0x100036fa:    7c88        .|      LDRB     r0,[r1,#0x12]
        0x100036fc:    7c8a        .|      LDRB     r2,[r1,#0x12]
        0x100036fe:    4290        .B      CMP      r0,r2
        0x10003700:    d1fb        ..      BNE      0x100036fa ; GetOverSlpth + 16
        0x10003702:    4770        pG      BX       lr
    $d
        0x10003704:    200030b0    .0.     DCD    536883376
    $t
    .text
    Timer_Evt_Creat
        0x10003708:    b570        p.      PUSH     {r4-r6,lr}
        0x1000370a:    461e        .F      MOV      r6,r3
        0x1000370c:    2900        .)      CMP      r1,#0
        0x1000370e:    d013        ..      BEQ      0x10003738 ; Timer_Evt_Creat + 48
        0x10003710:    4dfe        .M      LDR      r5,[pc,#1016] ; [0x10003b0c] = 0x200030e4
        0x10003712:    69ac        .i      LDR      r4,[r5,#0x18]
        0x10003714:    696b        ki      LDR      r3,[r5,#0x14]
        0x10003716:    429c        .B      CMP      r4,r3
        0x10003718:    d20e        ..      BCS      0x10003738 ; Timer_Evt_Creat + 48
        0x1000371a:    c405        ..      STM      r4!,{r0,r2}
        0x1000371c:    4608        .F      MOV      r0,r1
        0x1000371e:    217d        }!      MOVS     r1,#0x7d
        0x10003720:    0149        I.      LSLS     r1,r1,#5
        0x10003722:    4348        HC      MULS     r0,r1,r0
        0x10003724:    217d        }!      MOVS     r1,#0x7d
        0x10003726:    3c08        .<      SUBS     r4,r4,#8
        0x10003728:    f000fd42    ..B.    BL       __aeabi_uidiv ; 0x100041b0
        0x1000372c:    60a0        .`      STR      r0,[r4,#8]
        0x1000372e:    7326        &s      STRB     r6,[r4,#0xc]
        0x10003730:    2000        .       MOVS     r0,#0
        0x10003732:    6160        `a      STR      r0,[r4,#0x14]
        0x10003734:    3418        .4      ADDS     r4,r4,#0x18
        0x10003736:    61ac        .a      STR      r4,[r5,#0x18]
        0x10003738:    bd70        p.      POP      {r4-r6,pc}
    Min
        0x1000373a:    4288        .B      CMP      r0,r1
        0x1000373c:    d300        ..      BCC      0x10003740 ; Min + 6
        0x1000373e:    4608        .F      MOV      r0,r1
        0x10003740:    4770        pG      BX       lr
    timer_0_disable
        0x10003742:    b510        ..      PUSH     {r4,lr}
        0x10003744:    4cf1        .L      LDR      r4,[pc,#964] ; [0x10003b0c] = 0x200030e4
        0x10003746:    6860        `h      LDR      r0,[r4,#4]
        0x10003748:    3020         0      ADDS     r0,r0,#0x20
        0x1000374a:    7c01        .|      LDRB     r1,[r0,#0x10]
        0x1000374c:    07c9        ..      LSLS     r1,r1,#31
        0x1000374e:    d00f        ..      BEQ      0x10003770 ; timer_0_disable + 46
        0x10003750:    7c01        .|      LDRB     r1,[r0,#0x10]
        0x10003752:    0849        I.      LSRS     r1,r1,#1
        0x10003754:    0049        I.      LSLS     r1,r1,#1
        0x10003756:    7401        .t      STRB     r1,[r0,#0x10]
        0x10003758:    2008        .       MOVS     r0,#8
        0x1000375a:    f000fa2c    ..,.    BL       __NVIC_DisableIRQ ; 0x10003bb6
        0x1000375e:    6860        `h      LDR      r0,[r4,#4]
        0x10003760:    3020         0      ADDS     r0,r0,#0x20
        0x10003762:    7c41        A|      LDRB     r1,[r0,#0x11]
        0x10003764:    2201        ."      MOVS     r2,#1
        0x10003766:    4311        .C      ORRS     r1,r1,r2
        0x10003768:    7441        At      STRB     r1,[r0,#0x11]
        0x1000376a:    2032        2       MOVS     r0,#0x32
        0x1000376c:    f7fffd77    ..w.    BL       GAPBBDelayUS ; 0x1000325e
        0x10003770:    bd10        ..      POP      {r4,pc}
    timer_0_enable
        0x10003772:    b570        p.      PUSH     {r4-r6,lr}
        0x10003774:    4ce5        .L      LDR      r4,[pc,#916] ; [0x10003b0c] = 0x200030e4
        0x10003776:    4606        .F      MOV      r6,r0
        0x10003778:    6860        `h      LDR      r0,[r4,#4]
        0x1000377a:    460d        .F      MOV      r5,r1
        0x1000377c:    3020         0      ADDS     r0,r0,#0x20
        0x1000377e:    7c01        .|      LDRB     r1,[r0,#0x10]
        0x10003780:    07c9        ..      LSLS     r1,r1,#31
        0x10003782:    d006        ..      BEQ      0x10003792 ; timer_0_enable + 32
        0x10003784:    7c01        .|      LDRB     r1,[r0,#0x10]
        0x10003786:    0849        I.      LSRS     r1,r1,#1
        0x10003788:    0049        I.      LSLS     r1,r1,#1
        0x1000378a:    7401        .t      STRB     r1,[r0,#0x10]
        0x1000378c:    2032        2       MOVS     r0,#0x32
        0x1000378e:    f7fffd66    ..f.    BL       GAPBBDelayUS ; 0x1000325e
        0x10003792:    6862        bh      LDR      r2,[r4,#4]
        0x10003794:    3220         2      ADDS     r2,r2,#0x20
        0x10003796:    7516        .u      STRB     r6,[r2,#0x14]
        0x10003798:    0a30        0.      LSRS     r0,r6,#8
        0x1000379a:    7550        Pu      STRB     r0,[r2,#0x15]
        0x1000379c:    0c30        0.      LSRS     r0,r6,#16
        0x1000379e:    7590        .u      STRB     r0,[r2,#0x16]
        0x100037a0:    0e30        0.      LSRS     r0,r6,#24
        0x100037a2:    75d0        .u      STRB     r0,[r2,#0x17]
        0x100037a4:    7c10        .|      LDRB     r0,[r2,#0x10]
        0x100037a6:    2110        .!      MOVS     r1,#0x10
        0x100037a8:    4308        .C      ORRS     r0,r0,r1
        0x100037aa:    7410        .t      STRB     r0,[r2,#0x10]
        0x100037ac:    7c90        .|      LDRB     r0,[r2,#0x12]
        0x100037ae:    0840        @.      LSRS     r0,r0,#1
        0x100037b0:    0040        @.      LSLS     r0,r0,#1
        0x100037b2:    7490        .t      STRB     r0,[r2,#0x12]
        0x100037b4:    48d6        .H      LDR      r0,[pc,#856] ; [0x10003b10] = 0x20003f00
        0x100037b6:    6005        .`      STR      r5,[r0,#0]
        0x100037b8:    7c50        P|      LDRB     r0,[r2,#0x11]
        0x100037ba:    2501        .%      MOVS     r5,#1
        0x100037bc:    4328        (C      ORRS     r0,r0,r5
        0x100037be:    7450        Pt      STRB     r0,[r2,#0x11]
        0x100037c0:    2008        .       MOVS     r0,#8
        0x100037c2:    f000f9ef    ....    BL       __NVIC_EnableIRQ ; 0x10003ba4
        0x100037c6:    6860        `h      LDR      r0,[r4,#4]
        0x100037c8:    3020         0      ADDS     r0,r0,#0x20
        0x100037ca:    7c01        .|      LDRB     r1,[r0,#0x10]
        0x100037cc:    4329        )C      ORRS     r1,r1,r5
        0x100037ce:    7401        .t      STRB     r1,[r0,#0x10]
        0x100037d0:    bd70        p.      POP      {r4-r6,pc}
    timer_0_start
        0x100037d2:    e7ce        ..      B        timer_0_enable ; 0x10003772
    Timer_Evt_Trigger
        0x100037d4:    b570        p.      PUSH     {r4-r6,lr}
        0x100037d6:    4dcd        .M      LDR      r5,[pc,#820] ; [0x10003b0c] = 0x200030e4
        0x100037d8:    2118        .!      MOVS     r1,#0x18
        0x100037da:    7828        (x      LDRB     r0,[r5,#0]
        0x100037dc:    68ae        .h      LDR      r6,[r5,#8]
        0x100037de:    4348        HC      MULS     r0,r1,r0
        0x100037e0:    6969        ii      LDR      r1,[r5,#0x14]
        0x100037e2:    1a0c        ..      SUBS     r4,r1,r0
        0x100037e4:    6928        (i      LDR      r0,[r5,#0x10]
        0x100037e6:    1980        ..      ADDS     r0,r0,r6
        0x100037e8:    6128        (a      STR      r0,[r5,#0x10]
        0x100037ea:    2000        .       MOVS     r0,#0
        0x100037ec:    43c0        .C      MVNS     r0,r0
        0x100037ee:    60a8        .`      STR      r0,[r5,#8]
        0x100037f0:    e018        ..      B        0x10003824 ; Timer_Evt_Trigger + 80
        0x100037f2:    7b20         {      LDRB     r0,[r4,#0xc]
        0x100037f4:    2800        .(      CMP      r0,#0
        0x100037f6:    d014        ..      BEQ      0x10003822 ; Timer_Evt_Trigger + 78
        0x100037f8:    6920         i      LDR      r0,[r4,#0x10]
        0x100037fa:    42b0        .B      CMP      r0,r6
        0x100037fc:    d104        ..      BNE      0x10003808 ; Timer_Evt_Trigger + 52
        0x100037fe:    6860        `h      LDR      r0,[r4,#4]
        0x10003800:    2800        .(      CMP      r0,#0
        0x10003802:    d007        ..      BEQ      0x10003814 ; Timer_Evt_Trigger + 64
        0x10003804:    4780        .G      BLX      r0
        0x10003806:    e005        ..      B        0x10003814 ; Timer_Evt_Trigger + 64
        0x10003808:    1b80        ..      SUBS     r0,r0,r6
        0x1000380a:    6120         a      STR      r0,[r4,#0x10]
        0x1000380c:    d002        ..      BEQ      0x10003814 ; Timer_Evt_Trigger + 64
        0x1000380e:    68a1        .h      LDR      r1,[r4,#8]
        0x10003810:    4288        .B      CMP      r0,r1
        0x10003812:    d901        ..      BLS      0x10003818 ; Timer_Evt_Trigger + 68
        0x10003814:    68a0        .h      LDR      r0,[r4,#8]
        0x10003816:    6120         a      STR      r0,[r4,#0x10]
        0x10003818:    68a9        .h      LDR      r1,[r5,#8]
        0x1000381a:    4288        .B      CMP      r0,r1
        0x1000381c:    d900        ..      BLS      0x10003820 ; Timer_Evt_Trigger + 76
        0x1000381e:    4608        .F      MOV      r0,r1
        0x10003820:    60a8        .`      STR      r0,[r5,#8]
        0x10003822:    3418        .4      ADDS     r4,r4,#0x18
        0x10003824:    6968        hi      LDR      r0,[r5,#0x14]
        0x10003826:    4284        .B      CMP      r4,r0
        0x10003828:    d3e3        ..      BCC      0x100037f2 ; Timer_Evt_Trigger + 30
        0x1000382a:    68a8        .h      LDR      r0,[r5,#8]
        0x1000382c:    2800        .(      CMP      r0,#0
        0x1000382e:    d005        ..      BEQ      0x1000383c ; Timer_Evt_Trigger + 104
        0x10003830:    1c41        A.      ADDS     r1,r0,#1
        0x10003832:    d003        ..      BEQ      0x1000383c ; Timer_Evt_Trigger + 104
        0x10003834:    49b7        .I      LDR      r1,[pc,#732] ; [0x10003b14] = 0x100037d5
        0x10003836:    f7ffffcc    ....    BL       timer_0_start ; 0x100037d2
        0x1000383a:    bd70        p.      POP      {r4-r6,pc}
        0x1000383c:    f7ffff81    ....    BL       timer_0_disable ; 0x10003742
        0x10003840:    bd70        p.      POP      {r4-r6,pc}
    Timer_Evt_Clr
        0x10003842:    49b2        .I      LDR      r1,[pc,#712] ; [0x10003b0c] = 0x200030e4
        0x10003844:    68ca        .h      LDR      r2,[r1,#0xc]
        0x10003846:    4382        .C      BICS     r2,r2,r0
        0x10003848:    60ca        .`      STR      r2,[r1,#0xc]
        0x1000384a:    4770        pG      BX       lr
    timer_0_get
        0x1000384c:    48af        .H      LDR      r0,[pc,#700] ; [0x10003b0c] = 0x200030e4
        0x1000384e:    6840        @h      LDR      r0,[r0,#4]
        0x10003850:    4601        .F      MOV      r1,r0
        0x10003852:    3144        D1      ADDS     r1,r1,#0x44
        0x10003854:    780a        .x      LDRB     r2,[r1,#0]
        0x10003856:    4610        .F      MOV      r0,r2
        0x10003858:    784a        Jx      LDRB     r2,[r1,#1]
        0x1000385a:    0212        ..      LSLS     r2,r2,#8
        0x1000385c:    4310        .C      ORRS     r0,r0,r2
        0x1000385e:    788a        .x      LDRB     r2,[r1,#2]
        0x10003860:    78c9        .x      LDRB     r1,[r1,#3]
        0x10003862:    0412        ..      LSLS     r2,r2,#16
        0x10003864:    4310        .C      ORRS     r0,r0,r2
        0x10003866:    0609        ..      LSLS     r1,r1,#24
        0x10003868:    4308        .C      ORRS     r0,r0,r1
        0x1000386a:    4770        pG      BX       lr
    Timer_Evt_Stop
        0x1000386c:    b5f8        ..      PUSH     {r3-r7,lr}
        0x1000386e:    4605        .F      MOV      r5,r0
        0x10003870:    f7ffffec    ....    BL       timer_0_get ; 0x1000384c
        0x10003874:    4aa5        .J      LDR      r2,[pc,#660] ; [0x10003b0c] = 0x200030e4
        0x10003876:    6891        .h      LDR      r1,[r2,#8]
        0x10003878:    1a0e        ..      SUBS     r6,r1,r0
        0x1000387a:    2000        .       MOVS     r0,#0
        0x1000387c:    43c0        .C      MVNS     r0,r0
        0x1000387e:    6116        .a      STR      r6,[r2,#0x10]
        0x10003880:    6090        .`      STR      r0,[r2,#8]
        0x10003882:    7810        .x      LDRB     r0,[r2,#0]
        0x10003884:    2118        .!      MOVS     r1,#0x18
        0x10003886:    6953        Si      LDR      r3,[r2,#0x14]
        0x10003888:    4348        HC      MULS     r0,r1,r0
        0x1000388a:    1a19        ..      SUBS     r1,r3,r0
        0x1000388c:    2700        .'      MOVS     r7,#0
        0x1000388e:    e018        ..      B        0x100038c2 ; Timer_Evt_Stop + 86
        0x10003890:    6808        .h      LDR      r0,[r1,#0]
        0x10003892:    42a8        .B      CMP      r0,r5
        0x10003894:    d102        ..      BNE      0x1000389c ; Timer_Evt_Stop + 48
        0x10003896:    730f        .s      STRB     r7,[r1,#0xc]
        0x10003898:    614f        Oa      STR      r7,[r1,#0x14]
        0x1000389a:    e011        ..      B        0x100038c0 ; Timer_Evt_Stop + 84
        0x1000389c:    7b08        .{      LDRB     r0,[r1,#0xc]
        0x1000389e:    2800        .(      CMP      r0,#0
        0x100038a0:    d00e        ..      BEQ      0x100038c0 ; Timer_Evt_Stop + 84
        0x100038a2:    6908        .i      LDR      r0,[r1,#0x10]
        0x100038a4:    1b80        ..      SUBS     r0,r0,r6
        0x100038a6:    6108        .a      STR      r0,[r1,#0x10]
        0x100038a8:    d002        ..      BEQ      0x100038b0 ; Timer_Evt_Stop + 68
        0x100038aa:    688c        .h      LDR      r4,[r1,#8]
        0x100038ac:    42a0        .B      CMP      r0,r4
        0x100038ae:    d901        ..      BLS      0x100038b4 ; Timer_Evt_Stop + 72
        0x100038b0:    6888        .h      LDR      r0,[r1,#8]
        0x100038b2:    6108        .a      STR      r0,[r1,#0x10]
        0x100038b4:    4604        .F      MOV      r4,r0
        0x100038b6:    6890        .h      LDR      r0,[r2,#8]
        0x100038b8:    4284        .B      CMP      r4,r0
        0x100038ba:    d800        ..      BHI      0x100038be ; Timer_Evt_Stop + 82
        0x100038bc:    4620         F      MOV      r0,r4
        0x100038be:    6090        .`      STR      r0,[r2,#8]
        0x100038c0:    3118        .1      ADDS     r1,r1,#0x18
        0x100038c2:    4299        .B      CMP      r1,r3
        0x100038c4:    d3e4        ..      BCC      0x10003890 ; Timer_Evt_Stop + 36
        0x100038c6:    6890        .h      LDR      r0,[r2,#8]
        0x100038c8:    2800        .(      CMP      r0,#0
        0x100038ca:    d005        ..      BEQ      0x100038d8 ; Timer_Evt_Stop + 108
        0x100038cc:    1c41        A.      ADDS     r1,r0,#1
        0x100038ce:    d003        ..      BEQ      0x100038d8 ; Timer_Evt_Stop + 108
        0x100038d0:    4990        .I      LDR      r1,[pc,#576] ; [0x10003b14] = 0x100037d5
        0x100038d2:    f7ffff7e    ..~.    BL       timer_0_start ; 0x100037d2
        0x100038d6:    bdf8        ..      POP      {r3-r7,pc}
        0x100038d8:    f7ffff33    ..3.    BL       timer_0_disable ; 0x10003742
        0x100038dc:    bdf8        ..      POP      {r3-r7,pc}
    Timer_Evt_Start
        0x100038de:    b5f8        ..      PUSH     {r3-r7,lr}
        0x100038e0:    4b8a        .K      LDR      r3,[pc,#552] ; [0x10003b0c] = 0x200030e4
        0x100038e2:    4605        .F      MOV      r5,r0
        0x100038e4:    7818        .x      LDRB     r0,[r3,#0]
        0x100038e6:    2118        .!      MOVS     r1,#0x18
        0x100038e8:    4348        HC      MULS     r0,r1,r0
        0x100038ea:    6959        Yi      LDR      r1,[r3,#0x14]
        0x100038ec:    1a08        ..      SUBS     r0,r1,r0
        0x100038ee:    e006        ..      B        0x100038fe ; Timer_Evt_Start + 32
        0x100038f0:    6802        .h      LDR      r2,[r0,#0]
        0x100038f2:    42aa        .B      CMP      r2,r5
        0x100038f4:    d102        ..      BNE      0x100038fc ; Timer_Evt_Start + 30
        0x100038f6:    7b02        .{      LDRB     r2,[r0,#0xc]
        0x100038f8:    2a00        .*      CMP      r2,#0
        0x100038fa:    d134        4.      BNE      0x10003966 ; Timer_Evt_Start + 136
        0x100038fc:    3018        .0      ADDS     r0,r0,#0x18
        0x100038fe:    4288        .B      CMP      r0,r1
        0x10003900:    d3f6        ..      BCC      0x100038f0 ; Timer_Evt_Start + 18
        0x10003902:    f7ffffa3    ....    BL       timer_0_get ; 0x1000384c
        0x10003906:    6899        .h      LDR      r1,[r3,#8]
        0x10003908:    1a0e        ..      SUBS     r6,r1,r0
        0x1000390a:    2000        .       MOVS     r0,#0
        0x1000390c:    43c0        .C      MVNS     r0,r0
        0x1000390e:    611e        .a      STR      r6,[r3,#0x10]
        0x10003910:    6098        .`      STR      r0,[r3,#8]
        0x10003912:    7819        .x      LDRB     r1,[r3,#0]
        0x10003914:    2018        .       MOVS     r0,#0x18
        0x10003916:    4341        AC      MULS     r1,r0,r1
        0x10003918:    6958        Xi      LDR      r0,[r3,#0x14]
        0x1000391a:    1a41        A.      SUBS     r1,r0,r1
        0x1000391c:    2701        .'      MOVS     r7,#1
        0x1000391e:    e018        ..      B        0x10003952 ; Timer_Evt_Start + 116
        0x10003920:    680a        .h      LDR      r2,[r1,#0]
        0x10003922:    42aa        .B      CMP      r2,r5
        0x10003924:    d103        ..      BNE      0x1000392e ; Timer_Evt_Start + 80
        0x10003926:    688a        .h      LDR      r2,[r1,#8]
        0x10003928:    610a        .a      STR      r2,[r1,#0x10]
        0x1000392a:    730f        .s      STRB     r7,[r1,#0xc]
        0x1000392c:    e00b        ..      B        0x10003946 ; Timer_Evt_Start + 104
        0x1000392e:    7b0a        .{      LDRB     r2,[r1,#0xc]
        0x10003930:    2a00        .*      CMP      r2,#0
        0x10003932:    d00d        ..      BEQ      0x10003950 ; Timer_Evt_Start + 114
        0x10003934:    690a        .i      LDR      r2,[r1,#0x10]
        0x10003936:    1b92        ..      SUBS     r2,r2,r6
        0x10003938:    610a        .a      STR      r2,[r1,#0x10]
        0x1000393a:    d002        ..      BEQ      0x10003942 ; Timer_Evt_Start + 100
        0x1000393c:    688c        .h      LDR      r4,[r1,#8]
        0x1000393e:    42a2        .B      CMP      r2,r4
        0x10003940:    d901        ..      BLS      0x10003946 ; Timer_Evt_Start + 104
        0x10003942:    688a        .h      LDR      r2,[r1,#8]
        0x10003944:    610a        .a      STR      r2,[r1,#0x10]
        0x10003946:    689c        .h      LDR      r4,[r3,#8]
        0x10003948:    42a2        .B      CMP      r2,r4
        0x1000394a:    d800        ..      BHI      0x1000394e ; Timer_Evt_Start + 112
        0x1000394c:    4614        .F      MOV      r4,r2
        0x1000394e:    609c        .`      STR      r4,[r3,#8]
        0x10003950:    3118        .1      ADDS     r1,r1,#0x18
        0x10003952:    4281        .B      CMP      r1,r0
        0x10003954:    d3e4        ..      BCC      0x10003920 ; Timer_Evt_Start + 66
        0x10003956:    6898        .h      LDR      r0,[r3,#8]
        0x10003958:    2800        .(      CMP      r0,#0
        0x1000395a:    d005        ..      BEQ      0x10003968 ; Timer_Evt_Start + 138
        0x1000395c:    1c41        A.      ADDS     r1,r0,#1
        0x1000395e:    d003        ..      BEQ      0x10003968 ; Timer_Evt_Start + 138
        0x10003960:    496c        lI      LDR      r1,[pc,#432] ; [0x10003b14] = 0x100037d5
        0x10003962:    f7ffff36    ..6.    BL       timer_0_start ; 0x100037d2
        0x10003966:    bdf8        ..      POP      {r3-r7,pc}
        0x10003968:    f7fffeeb    ....    BL       timer_0_disable ; 0x10003742
        0x1000396c:    bdf8        ..      POP      {r3-r7,pc}
    Timer_Get_State
        0x1000396e:    4967        gI      LDR      r1,[pc,#412] ; [0x10003b0c] = 0x200030e4
        0x10003970:    2218        ."      MOVS     r2,#0x18
        0x10003972:    780b        .x      LDRB     r3,[r1,#0]
        0x10003974:    4353        SC      MULS     r3,r2,r3
        0x10003976:    694a        Ji      LDR      r2,[r1,#0x14]
        0x10003978:    1ad1        ..      SUBS     r1,r2,r3
        0x1000397a:    e005        ..      B        0x10003988 ; Timer_Get_State + 26
        0x1000397c:    680b        .h      LDR      r3,[r1,#0]
        0x1000397e:    4283        .B      CMP      r3,r0
        0x10003980:    d101        ..      BNE      0x10003986 ; Timer_Get_State + 24
        0x10003982:    7b08        .{      LDRB     r0,[r1,#0xc]
        0x10003984:    4770        pG      BX       lr
        0x10003986:    3118        .1      ADDS     r1,r1,#0x18
        0x10003988:    4291        .B      CMP      r1,r2
        0x1000398a:    d3f7        ..      BCC      0x1000397c ; Timer_Get_State + 14
        0x1000398c:    20ff        .       MOVS     r0,#0xff
        0x1000398e:    4770        pG      BX       lr
    SYD_Timer_Init
        0x10003990:    b570        p.      PUSH     {r4-r6,lr}
        0x10003992:    460d        .F      MOV      r5,r1
        0x10003994:    4604        .F      MOV      r4,r0
        0x10003996:    f7fffbca    ....    BL       syd52832_chip_confirm ; 0x1000312e
        0x1000399a:    2800        .(      CMP      r0,#0
        0x1000399c:    d008        ..      BEQ      0x100039b0 ; SYD_Timer_Init + 32
        0x1000399e:    485b        [H      LDR      r0,[pc,#364] ; [0x10003b0c] = 0x200030e4
        0x100039a0:    2118        .!      MOVS     r1,#0x18
        0x100039a2:    7004        .p      STRB     r4,[r0,#0]
        0x100039a4:    434c        LC      MULS     r4,r1,r4
        0x100039a6:    1961        a.      ADDS     r1,r4,r5
        0x100039a8:    6185        .a      STR      r5,[r0,#0x18]
        0x100039aa:    6141        Aa      STR      r1,[r0,#0x14]
        0x100039ac:    f7fffec9    ....    BL       timer_0_disable ; 0x10003742
        0x100039b0:    bd70        p.      POP      {r4-r6,pc}
    timer_0_delay_32us
        0x100039b2:    4956        VI      LDR      r1,[pc,#344] ; [0x10003b0c] = 0x200030e4
        0x100039b4:    684a        Jh      LDR      r2,[r1,#4]
        0x100039b6:    4611        .F      MOV      r1,r2
        0x100039b8:    3120         1      ADDS     r1,r1,#0x20
        0x100039ba:    7508        .u      STRB     r0,[r1,#0x14]
        0x100039bc:    0a03        ..      LSRS     r3,r0,#8
        0x100039be:    754b        Ku      STRB     r3,[r1,#0x15]
        0x100039c0:    0c03        ..      LSRS     r3,r0,#16
        0x100039c2:    758b        .u      STRB     r3,[r1,#0x16]
        0x100039c4:    0e00        ..      LSRS     r0,r0,#24
        0x100039c6:    75c8        .u      STRB     r0,[r1,#0x17]
        0x100039c8:    7c8b        .|      LDRB     r3,[r1,#0x12]
        0x100039ca:    2001        .       MOVS     r0,#1
        0x100039cc:    4303        .C      ORRS     r3,r3,r0
        0x100039ce:    748b        .t      STRB     r3,[r1,#0x12]
        0x100039d0:    7c4b        K|      LDRB     r3,[r1,#0x11]
        0x100039d2:    4303        .C      ORRS     r3,r3,r0
        0x100039d4:    744b        Kt      STRB     r3,[r1,#0x11]
        0x100039d6:    7c0b        .|      LDRB     r3,[r1,#0x10]
        0x100039d8:    4303        .C      ORRS     r3,r3,r0
        0x100039da:    740b        .t      STRB     r3,[r1,#0x10]
        0x100039dc:    3220         2      ADDS     r2,r2,#0x20
        0x100039de:    7cd3        .|      LDRB     r3,[r2,#0x13]
        0x100039e0:    07db        ..      LSLS     r3,r3,#31
        0x100039e2:    d0fc        ..      BEQ      0x100039de ; timer_0_delay_32us + 44
        0x100039e4:    7c0a        .|      LDRB     r2,[r1,#0x10]
        0x100039e6:    0852        R.      LSRS     r2,r2,#1
        0x100039e8:    0052        R.      LSLS     r2,r2,#1
        0x100039ea:    740a        .t      STRB     r2,[r1,#0x10]
        0x100039ec:    7c4a        J|      LDRB     r2,[r1,#0x11]
        0x100039ee:    4302        .C      ORRS     r2,r2,r0
        0x100039f0:    744a        Jt      STRB     r2,[r1,#0x11]
        0x100039f2:    4770        pG      BX       lr
    TIMER0_IRQHandler
        0x100039f4:    4845        EH      LDR      r0,[pc,#276] ; [0x10003b0c] = 0x200030e4
        0x100039f6:    6840        @h      LDR      r0,[r0,#4]
        0x100039f8:    3020         0      ADDS     r0,r0,#0x20
        0x100039fa:    7cc1        .|      LDRB     r1,[r0,#0x13]
        0x100039fc:    07c9        ..      LSLS     r1,r1,#31
        0x100039fe:    d008        ..      BEQ      0x10003a12 ; TIMER0_IRQHandler + 30
        0x10003a00:    7c41        A|      LDRB     r1,[r0,#0x11]
        0x10003a02:    2201        ."      MOVS     r2,#1
        0x10003a04:    4311        .C      ORRS     r1,r1,r2
        0x10003a06:    7441        At      STRB     r1,[r0,#0x11]
        0x10003a08:    4841        AH      LDR      r0,[pc,#260] ; [0x10003b10] = 0x20003f00
        0x10003a0a:    6800        .h      LDR      r0,[r0,#0]
        0x10003a0c:    2800        .(      CMP      r0,#0
        0x10003a0e:    d000        ..      BEQ      0x10003a12 ; TIMER0_IRQHandler + 30
        0x10003a10:    4700        .G      BX       r0
        0x10003a12:    4770        pG      BX       lr
    timer_1_enable
        0x10003a14:    b5f8        ..      PUSH     {r3-r7,lr}
        0x10003a16:    4c3d        =L      LDR      r4,[pc,#244] ; [0x10003b0c] = 0x200030e4
        0x10003a18:    4607        .F      MOV      r7,r0
        0x10003a1a:    6860        `h      LDR      r0,[r4,#4]
        0x10003a1c:    460e        .F      MOV      r6,r1
        0x10003a1e:    3020         0      ADDS     r0,r0,#0x20
        0x10003a20:    7c01        .|      LDRB     r1,[r0,#0x10]
        0x10003a22:    25fd        .%      MOVS     r5,#0xfd
        0x10003a24:    0789        ..      LSLS     r1,r1,#30
        0x10003a26:    2900        .)      CMP      r1,#0
        0x10003a28:    da05        ..      BGE      0x10003a36 ; timer_1_enable + 34
        0x10003a2a:    7c01        .|      LDRB     r1,[r0,#0x10]
        0x10003a2c:    4029        )@      ANDS     r1,r1,r5
        0x10003a2e:    7401        .t      STRB     r1,[r0,#0x10]
        0x10003a30:    2032        2       MOVS     r0,#0x32
        0x10003a32:    f7fffc14    ....    BL       GAPBBDelayUS ; 0x1000325e
        0x10003a36:    6860        `h      LDR      r0,[r4,#4]
        0x10003a38:    3020         0      ADDS     r0,r0,#0x20
        0x10003a3a:    7607        .v      STRB     r7,[r0,#0x18]
        0x10003a3c:    0a39        9.      LSRS     r1,r7,#8
        0x10003a3e:    7641        Av      STRB     r1,[r0,#0x19]
        0x10003a40:    0c39        9.      LSRS     r1,r7,#16
        0x10003a42:    7681        .v      STRB     r1,[r0,#0x1a]
        0x10003a44:    0e39        9.      LSRS     r1,r7,#24
        0x10003a46:    76c1        .v      STRB     r1,[r0,#0x1b]
        0x10003a48:    7c01        .|      LDRB     r1,[r0,#0x10]
        0x10003a4a:    2220         "      MOVS     r2,#0x20
        0x10003a4c:    4311        .C      ORRS     r1,r1,r2
        0x10003a4e:    7401        .t      STRB     r1,[r0,#0x10]
        0x10003a50:    7c81        .|      LDRB     r1,[r0,#0x12]
        0x10003a52:    4029        )@      ANDS     r1,r1,r5
        0x10003a54:    7481        .t      STRB     r1,[r0,#0x12]
        0x10003a56:    492e        .I      LDR      r1,[pc,#184] ; [0x10003b10] = 0x20003f00
        0x10003a58:    604e        N`      STR      r6,[r1,#4]
        0x10003a5a:    7c41        A|      LDRB     r1,[r0,#0x11]
        0x10003a5c:    2502        .%      MOVS     r5,#2
        0x10003a5e:    4329        )C      ORRS     r1,r1,r5
        0x10003a60:    7441        At      STRB     r1,[r0,#0x11]
        0x10003a62:    2009        .       MOVS     r0,#9
        0x10003a64:    f000f89e    ....    BL       __NVIC_EnableIRQ ; 0x10003ba4
        0x10003a68:    6860        `h      LDR      r0,[r4,#4]
        0x10003a6a:    3020         0      ADDS     r0,r0,#0x20
        0x10003a6c:    7c01        .|      LDRB     r1,[r0,#0x10]
        0x10003a6e:    4329        )C      ORRS     r1,r1,r5
        0x10003a70:    7401        .t      STRB     r1,[r0,#0x10]
        0x10003a72:    bdf8        ..      POP      {r3-r7,pc}
    timer_1_disable
        0x10003a74:    b510        ..      PUSH     {r4,lr}
        0x10003a76:    4c25        %L      LDR      r4,[pc,#148] ; [0x10003b0c] = 0x200030e4
        0x10003a78:    6860        `h      LDR      r0,[r4,#4]
        0x10003a7a:    3020         0      ADDS     r0,r0,#0x20
        0x10003a7c:    7c01        .|      LDRB     r1,[r0,#0x10]
        0x10003a7e:    0789        ..      LSLS     r1,r1,#30
        0x10003a80:    d50f        ..      BPL      0x10003aa2 ; timer_1_disable + 46
        0x10003a82:    7c01        .|      LDRB     r1,[r0,#0x10]
        0x10003a84:    22fd        ."      MOVS     r2,#0xfd
        0x10003a86:    4011        .@      ANDS     r1,r1,r2
        0x10003a88:    7401        .t      STRB     r1,[r0,#0x10]
        0x10003a8a:    2009        .       MOVS     r0,#9
        0x10003a8c:    f000f893    ....    BL       __NVIC_DisableIRQ ; 0x10003bb6
        0x10003a90:    6860        `h      LDR      r0,[r4,#4]
        0x10003a92:    3020         0      ADDS     r0,r0,#0x20
        0x10003a94:    7c41        A|      LDRB     r1,[r0,#0x11]
        0x10003a96:    2202        ."      MOVS     r2,#2
        0x10003a98:    4311        .C      ORRS     r1,r1,r2
        0x10003a9a:    7441        At      STRB     r1,[r0,#0x11]
        0x10003a9c:    2032        2       MOVS     r0,#0x32
        0x10003a9e:    f7fffbde    ....    BL       GAPBBDelayUS ; 0x1000325e
        0x10003aa2:    bd10        ..      POP      {r4,pc}
    TIMER1_IRQHandler
        0x10003aa4:    4819        .H      LDR      r0,[pc,#100] ; [0x10003b0c] = 0x200030e4
        0x10003aa6:    6840        @h      LDR      r0,[r0,#4]
        0x10003aa8:    3020         0      ADDS     r0,r0,#0x20
        0x10003aaa:    7cc1        .|      LDRB     r1,[r0,#0x13]
        0x10003aac:    0789        ..      LSLS     r1,r1,#30
        0x10003aae:    d508        ..      BPL      0x10003ac2 ; TIMER1_IRQHandler + 30
        0x10003ab0:    7c41        A|      LDRB     r1,[r0,#0x11]
        0x10003ab2:    2202        ."      MOVS     r2,#2
        0x10003ab4:    4311        .C      ORRS     r1,r1,r2
        0x10003ab6:    7441        At      STRB     r1,[r0,#0x11]
        0x10003ab8:    4815        .H      LDR      r0,[pc,#84] ; [0x10003b10] = 0x20003f00
        0x10003aba:    6840        @h      LDR      r0,[r0,#4]
        0x10003abc:    2800        .(      CMP      r0,#0
        0x10003abe:    d000        ..      BEQ      0x10003ac2 ; TIMER1_IRQHandler + 30
        0x10003ac0:    4700        .G      BX       r0
        0x10003ac2:    4770        pG      BX       lr
    timer_2_enable
        0x10003ac4:    b5f8        ..      PUSH     {r3-r7,lr}
        0x10003ac6:    4c11        .L      LDR      r4,[pc,#68] ; [0x10003b0c] = 0x200030e4
        0x10003ac8:    4607        .F      MOV      r7,r0
        0x10003aca:    6860        `h      LDR      r0,[r4,#4]
        0x10003acc:    460e        .F      MOV      r6,r1
        0x10003ace:    3020         0      ADDS     r0,r0,#0x20
        0x10003ad0:    7c01        .|      LDRB     r1,[r0,#0x10]
        0x10003ad2:    25fb        .%      MOVS     r5,#0xfb
        0x10003ad4:    0749        I.      LSLS     r1,r1,#29
        0x10003ad6:    2900        .)      CMP      r1,#0
        0x10003ad8:    da05        ..      BGE      0x10003ae6 ; timer_2_enable + 34
        0x10003ada:    7c01        .|      LDRB     r1,[r0,#0x10]
        0x10003adc:    4029        )@      ANDS     r1,r1,r5
        0x10003ade:    7401        .t      STRB     r1,[r0,#0x10]
        0x10003ae0:    2032        2       MOVS     r0,#0x32
        0x10003ae2:    f7fffbbc    ....    BL       GAPBBDelayUS ; 0x1000325e
        0x10003ae6:    6860        `h      LDR      r0,[r4,#4]
        0x10003ae8:    3020         0      ADDS     r0,r0,#0x20
        0x10003aea:    7707        .w      STRB     r7,[r0,#0x1c]
        0x10003aec:    0a39        9.      LSRS     r1,r7,#8
        0x10003aee:    7741        Aw      STRB     r1,[r0,#0x1d]
        0x10003af0:    0c39        9.      LSRS     r1,r7,#16
        0x10003af2:    7781        .w      STRB     r1,[r0,#0x1e]
        0x10003af4:    0e39        9.      LSRS     r1,r7,#24
        0x10003af6:    77c1        .w      STRB     r1,[r0,#0x1f]
        0x10003af8:    7c01        .|      LDRB     r1,[r0,#0x10]
        0x10003afa:    2240        @"      MOVS     r2,#0x40
        0x10003afc:    4311        .C      ORRS     r1,r1,r2
        0x10003afe:    7401        .t      STRB     r1,[r0,#0x10]
        0x10003b00:    7c81        .|      LDRB     r1,[r0,#0x12]
        0x10003b02:    4029        )@      ANDS     r1,r1,r5
        0x10003b04:    7481        .t      STRB     r1,[r0,#0x12]
        0x10003b06:    4902        .I      LDR      r1,[pc,#8] ; [0x10003b10] = 0x20003f00
        0x10003b08:    608e        .`      STR      r6,[r1,#8]
        0x10003b0a:    e005        ..      B        0x10003b18 ; timer_2_enable + 84
    $d
        0x10003b0c:    200030e4    .0.     DCD    536883428
        0x10003b10:    20003f00    .?.     DCD    536887040
        0x10003b14:    100037d5    .7..    DCD    268449749
    $t
        0x10003b18:    7c41        A|      LDRB     r1,[r0,#0x11]
        0x10003b1a:    2504        .%      MOVS     r5,#4
        0x10003b1c:    4329        )C      ORRS     r1,r1,r5
        0x10003b1e:    7441        At      STRB     r1,[r0,#0x11]
        0x10003b20:    200a        .       MOVS     r0,#0xa
        0x10003b22:    f000f83f    ..?.    BL       __NVIC_EnableIRQ ; 0x10003ba4
        0x10003b26:    6860        `h      LDR      r0,[r4,#4]
        0x10003b28:    3020         0      ADDS     r0,r0,#0x20
        0x10003b2a:    7c01        .|      LDRB     r1,[r0,#0x10]
        0x10003b2c:    4329        )C      ORRS     r1,r1,r5
        0x10003b2e:    7401        .t      STRB     r1,[r0,#0x10]
        0x10003b30:    bdf8        ..      POP      {r3-r7,pc}
    timer_2_get_val
        0x10003b32:    4828        (H      LDR      r0,[pc,#160] ; [0x10003bd4] = 0x200030e4
        0x10003b34:    210c        .!      MOVS     r1,#0xc
        0x10003b36:    6840        @h      LDR      r0,[r0,#4]
        0x10003b38:    3040        @0      ADDS     r0,r0,#0x40
        0x10003b3a:    1841        A.      ADDS     r1,r0,r1
        0x10003b3c:    780a        .x      LDRB     r2,[r1,#0]
        0x10003b3e:    4610        .F      MOV      r0,r2
        0x10003b40:    784a        Jx      LDRB     r2,[r1,#1]
        0x10003b42:    0212        ..      LSLS     r2,r2,#8
        0x10003b44:    4310        .C      ORRS     r0,r0,r2
        0x10003b46:    788a        .x      LDRB     r2,[r1,#2]
        0x10003b48:    78c9        .x      LDRB     r1,[r1,#3]
        0x10003b4a:    0412        ..      LSLS     r2,r2,#16
        0x10003b4c:    4310        .C      ORRS     r0,r0,r2
        0x10003b4e:    0609        ..      LSLS     r1,r1,#24
        0x10003b50:    4308        .C      ORRS     r0,r0,r1
        0x10003b52:    4770        pG      BX       lr
    timer_2_disable
        0x10003b54:    b510        ..      PUSH     {r4,lr}
        0x10003b56:    4c1f        .L      LDR      r4,[pc,#124] ; [0x10003bd4] = 0x200030e4
        0x10003b58:    6860        `h      LDR      r0,[r4,#4]
        0x10003b5a:    3020         0      ADDS     r0,r0,#0x20
        0x10003b5c:    7c01        .|      LDRB     r1,[r0,#0x10]
        0x10003b5e:    0749        I.      LSLS     r1,r1,#29
        0x10003b60:    d50f        ..      BPL      0x10003b82 ; timer_2_disable + 46
        0x10003b62:    7c01        .|      LDRB     r1,[r0,#0x10]
        0x10003b64:    22fb        ."      MOVS     r2,#0xfb
        0x10003b66:    4011        .@      ANDS     r1,r1,r2
        0x10003b68:    7401        .t      STRB     r1,[r0,#0x10]
        0x10003b6a:    200a        .       MOVS     r0,#0xa
        0x10003b6c:    f000f823    ..#.    BL       __NVIC_DisableIRQ ; 0x10003bb6
        0x10003b70:    6860        `h      LDR      r0,[r4,#4]
        0x10003b72:    3020         0      ADDS     r0,r0,#0x20
        0x10003b74:    7c41        A|      LDRB     r1,[r0,#0x11]
        0x10003b76:    2204        ."      MOVS     r2,#4
        0x10003b78:    4311        .C      ORRS     r1,r1,r2
        0x10003b7a:    7441        At      STRB     r1,[r0,#0x11]
        0x10003b7c:    2032        2       MOVS     r0,#0x32
        0x10003b7e:    f7fffb6e    ..n.    BL       GAPBBDelayUS ; 0x1000325e
        0x10003b82:    bd10        ..      POP      {r4,pc}
    TIMER2_IRQHandler
        0x10003b84:    4813        .H      LDR      r0,[pc,#76] ; [0x10003bd4] = 0x200030e4
        0x10003b86:    6840        @h      LDR      r0,[r0,#4]
        0x10003b88:    3020         0      ADDS     r0,r0,#0x20
        0x10003b8a:    7cc1        .|      LDRB     r1,[r0,#0x13]
        0x10003b8c:    0749        I.      LSLS     r1,r1,#29
        0x10003b8e:    d508        ..      BPL      0x10003ba2 ; TIMER2_IRQHandler + 30
        0x10003b90:    7c41        A|      LDRB     r1,[r0,#0x11]
        0x10003b92:    2204        ."      MOVS     r2,#4
        0x10003b94:    4311        .C      ORRS     r1,r1,r2
        0x10003b96:    7441        At      STRB     r1,[r0,#0x11]
        0x10003b98:    480f        .H      LDR      r0,[pc,#60] ; [0x10003bd8] = 0x20003f00
        0x10003b9a:    6880        .h      LDR      r0,[r0,#8]
        0x10003b9c:    2800        .(      CMP      r0,#0
        0x10003b9e:    d000        ..      BEQ      0x10003ba2 ; TIMER2_IRQHandler + 30
        0x10003ba0:    4700        .G      BX       r0
        0x10003ba2:    4770        pG      BX       lr
    __NVIC_EnableIRQ
        0x10003ba4:    2800        .(      CMP      r0,#0
        0x10003ba6:    db05        ..      BLT      0x10003bb4 ; __NVIC_EnableIRQ + 16
        0x10003ba8:    06c1        ..      LSLS     r1,r0,#27
        0x10003baa:    0ec9        ..      LSRS     r1,r1,#27
        0x10003bac:    2001        .       MOVS     r0,#1
        0x10003bae:    4088        .@      LSLS     r0,r0,r1
        0x10003bb0:    490a        .I      LDR      r1,[pc,#40] ; [0x10003bdc] = 0xe000e100
        0x10003bb2:    6008        .`      STR      r0,[r1,#0]
        0x10003bb4:    4770        pG      BX       lr
    __NVIC_DisableIRQ
        0x10003bb6:    2800        .(      CMP      r0,#0
        0x10003bb8:    db0a        ..      BLT      0x10003bd0 ; __NVIC_DisableIRQ + 26
        0x10003bba:    06c1        ..      LSLS     r1,r0,#27
        0x10003bbc:    0ec9        ..      LSRS     r1,r1,#27
        0x10003bbe:    2001        .       MOVS     r0,#1
        0x10003bc0:    4088        .@      LSLS     r0,r0,r1
        0x10003bc2:    4906        .I      LDR      r1,[pc,#24] ; [0x10003bdc] = 0xe000e100
        0x10003bc4:    3180        .1      ADDS     r1,r1,#0x80
        0x10003bc6:    6008        .`      STR      r0,[r1,#0]
        0x10003bc8:    f3bf8f4f    ..O.    DSB      
        0x10003bcc:    f3bf8f6f    ..o.    ISB      
        0x10003bd0:    4770        pG      BX       lr
    $d
        0x10003bd2:    0000        ..      DCW    0
        0x10003bd4:    200030e4    .0.     DCD    536883428
        0x10003bd8:    20003f00    .?.     DCD    536887040
        0x10003bdc:    e000e100    ....    DCD    3758153984
    $t
    .text
    rtc_get_calendar
        0x10003be0:    b518        ..      PUSH     {r3,r4,lr}
        0x10003be2:    48f8        .H      LDR      r0,[pc,#992] ; [0x10003fc4] = 0x500010c0
        0x10003be4:    6800        .h      LDR      r0,[r0,#0]
        0x10003be6:    9000        ..      STR      r0,[sp,#0]
        0x10003be8:    2000        .       MOVS     r0,#0
        0x10003bea:    4669        iF      MOV      r1,sp
        0x10003bec:    5c0b        .\      LDRB     r3,[r1,r0]
        0x10003bee:    240a        .$      MOVS     r4,#0xa
        0x10003bf0:    091a        ..      LSRS     r2,r3,#4
        0x10003bf2:    4362        bC      MULS     r2,r4,r2
        0x10003bf4:    071b        ..      LSLS     r3,r3,#28
        0x10003bf6:    540a        .T      STRB     r2,[r1,r0]
        0x10003bf8:    0f1b        ..      LSRS     r3,r3,#28
        0x10003bfa:    18d2        ..      ADDS     r2,r2,r3
        0x10003bfc:    540a        .T      STRB     r2,[r1,r0]
        0x10003bfe:    1c40        @.      ADDS     r0,r0,#1
        0x10003c00:    2803        .(      CMP      r0,#3
        0x10003c02:    dbf3        ..      BLT      0x10003bec ; rtc_get_calendar + 12
        0x10003c04:    9800        ..      LDR      r0,[sp,#0]
        0x10003c06:    bd18        ..      POP      {r3,r4,pc}
    RTC_RUN
        0x10003c08:    b508        ..      PUSH     {r3,lr}
        0x10003c0a:    f7ffffe9    ....    BL       rtc_get_calendar ; 0x10003be0
        0x10003c0e:    9000        ..      STR      r0,[sp,#0]
        0x10003c10:    4668        hF      MOV      r0,sp
        0x10003c12:    7801        .x      LDRB     r1,[r0,#0]
        0x10003c14:    78c0        .x      LDRB     r0,[r0,#3]
        0x10003c16:    4aec        .J      LDR      r2,[pc,#944] ; [0x10003fc8] = 0x15180
        0x10003c18:    1e40        @.      SUBS     r0,r0,#1
        0x10003c1a:    4350        PC      MULS     r0,r2,r0
        0x10003c1c:    180a        ..      ADDS     r2,r1,r0
        0x10003c1e:    4668        hF      MOV      r0,sp
        0x10003c20:    7881        .x      LDRB     r1,[r0,#2]
        0x10003c22:    20e1        .       MOVS     r0,#0xe1
        0x10003c24:    0100        ..      LSLS     r0,r0,#4
        0x10003c26:    4341        AC      MULS     r1,r0,r1
        0x10003c28:    4668        hF      MOV      r0,sp
        0x10003c2a:    7840        @x      LDRB     r0,[r0,#1]
        0x10003c2c:    233c        <#      MOVS     r3,#0x3c
        0x10003c2e:    4358        XC      MULS     r0,r3,r0
        0x10003c30:    1808        ..      ADDS     r0,r1,r0
        0x10003c32:    1811        ..      ADDS     r1,r2,r0
        0x10003c34:    4ae5        .J      LDR      r2,[pc,#916] ; [0x10003fcc] = 0x20003100
        0x10003c36:    6910        .i      LDR      r0,[r2,#0x10]
        0x10003c38:    4281        .B      CMP      r1,r0
        0x10003c3a:    d301        ..      BCC      0x10003c40 ; RTC_RUN + 56
        0x10003c3c:    1a08        ..      SUBS     r0,r1,r0
        0x10003c3e:    e002        ..      B        0x10003c46 ; RTC_RUN + 62
        0x10003c40:    4be3        .K      LDR      r3,[pc,#908] ; [0x10003fd0] = 0x93a80
        0x10003c42:    1a08        ..      SUBS     r0,r1,r0
        0x10003c44:    18c0        ..      ADDS     r0,r0,r3
        0x10003c46:    6111        .a      STR      r1,[r2,#0x10]
        0x10003c48:    bd08        ..      POP      {r3,pc}
    rtc_set_compare
        0x10003c4a:    b570        p.      PUSH     {r4-r6,lr}
        0x10003c4c:    460d        .F      MOV      r5,r1
        0x10003c4e:    2800        .(      CMP      r0,#0
        0x10003c50:    d002        ..      BEQ      0x10003c58 ; rtc_set_compare + 14
        0x10003c52:    4edc        .N      LDR      r6,[pc,#880] ; [0x10003fc4] = 0x500010c0
        0x10003c54:    3e08        .>      SUBS     r6,r6,#8
        0x10003c56:    e001        ..      B        0x10003c5c ; rtc_set_compare + 18
        0x10003c58:    4eda        .N      LDR      r6,[pc,#872] ; [0x10003fc4] = 0x500010c0
        0x10003c5a:    3e0c        .>      SUBS     r6,r6,#0xc
        0x10003c5c:    2400        .$      MOVS     r4,#0
        0x10003c5e:    5d28        (]      LDRB     r0,[r5,r4]
        0x10003c60:    210a        .!      MOVS     r1,#0xa
        0x10003c62:    f000faa5    ....    BL       __aeabi_uidiv ; 0x100041b0
        0x10003c66:    0100        ..      LSLS     r0,r0,#4
        0x10003c68:    4301        .C      ORRS     r1,r1,r0
        0x10003c6a:    5529        )U      STRB     r1,[r5,r4]
        0x10003c6c:    1c64        d.      ADDS     r4,r4,#1
        0x10003c6e:    2c03        .,      CMP      r4,#3
        0x10003c70:    dbf5        ..      BLT      0x10003c5e ; rtc_set_compare + 20
        0x10003c72:    4628        (F      MOV      r0,r5
        0x10003c74:    f000faf3    ....    BL       __aeabi_uread4 ; 0x1000425e
        0x10003c78:    6030        0`      STR      r0,[r6,#0]
        0x10003c7a:    2064        d       MOVS     r0,#0x64
        0x10003c7c:    f7fffaef    ....    BL       GAPBBDelayUS ; 0x1000325e
        0x10003c80:    48d0        .H      LDR      r0,[pc,#832] ; [0x10003fc4] = 0x500010c0
        0x10003c82:    3820         8      SUBS     r0,r0,#0x20
        0x10003c84:    7ac1        .z      LDRB     r1,[r0,#0xb]
        0x10003c86:    2208        ."      MOVS     r2,#8
        0x10003c88:    4311        .C      ORRS     r1,r1,r2
        0x10003c8a:    72c1        .r      STRB     r1,[r0,#0xb]
        0x10003c8c:    bd70        p.      POP      {r4-r6,pc}
    RTC_SET
        0x10003c8e:    b538        8.      PUSH     {r3-r5,lr}
        0x10003c90:    49ce        .I      LDR      r1,[pc,#824] ; [0x10003fcc] = 0x20003100
        0x10003c92:    6909        .i      LDR      r1,[r1,#0x10]
        0x10003c94:    1844        D.      ADDS     r4,r0,r1
        0x10003c96:    49cc        .I      LDR      r1,[pc,#816] ; [0x10003fc8] = 0x15180
        0x10003c98:    4620         F      MOV      r0,r4
        0x10003c9a:    f000fa89    ....    BL       __aeabi_uidiv ; 0x100041b0
        0x10003c9e:    1c42        B.      ADDS     r2,r0,#1
        0x10003ca0:    4668        hF      MOV      r0,sp
        0x10003ca2:    70c2        .p      STRB     r2,[r0,#3]
        0x10003ca4:    25e1        .%      MOVS     r5,#0xe1
        0x10003ca6:    4608        .F      MOV      r0,r1
        0x10003ca8:    012d        -.      LSLS     r5,r5,#4
        0x10003caa:    4629        )F      MOV      r1,r5
        0x10003cac:    f000fa80    ....    BL       __aeabi_uidiv ; 0x100041b0
        0x10003cb0:    4602        .F      MOV      r2,r0
        0x10003cb2:    4668        hF      MOV      r0,sp
        0x10003cb4:    7082        .p      STRB     r2,[r0,#2]
        0x10003cb6:    4629        )F      MOV      r1,r5
        0x10003cb8:    4620         F      MOV      r0,r4
        0x10003cba:    f000fa79    ..y.    BL       __aeabi_uidiv ; 0x100041b0
        0x10003cbe:    4608        .F      MOV      r0,r1
        0x10003cc0:    213c        <!      MOVS     r1,#0x3c
        0x10003cc2:    f000fa75    ..u.    BL       __aeabi_uidiv ; 0x100041b0
        0x10003cc6:    4601        .F      MOV      r1,r0
        0x10003cc8:    4668        hF      MOV      r0,sp
        0x10003cca:    7041        Ap      STRB     r1,[r0,#1]
        0x10003ccc:    213c        <!      MOVS     r1,#0x3c
        0x10003cce:    4620         F      MOV      r0,r4
        0x10003cd0:    f000fa6e    ..n.    BL       __aeabi_uidiv ; 0x100041b0
        0x10003cd4:    4668        hF      MOV      r0,sp
        0x10003cd6:    7001        .p      STRB     r1,[r0,#0]
        0x10003cd8:    4669        iF      MOV      r1,sp
        0x10003cda:    2000        .       MOVS     r0,#0
        0x10003cdc:    f7ffffb5    ....    BL       rtc_set_compare ; 0x10003c4a
        0x10003ce0:    bd38        8.      POP      {r3-r5,pc}
    RTC_Refressh
        0x10003ce2:    b538        8.      PUSH     {r3-r5,lr}
        0x10003ce4:    f7ffff7c    ..|.    BL       rtc_get_calendar ; 0x10003be0
        0x10003ce8:    9000        ..      STR      r0,[sp,#0]
        0x10003cea:    4668        hF      MOV      r0,sp
        0x10003cec:    7801        .x      LDRB     r1,[r0,#0]
        0x10003cee:    78c0        .x      LDRB     r0,[r0,#3]
        0x10003cf0:    4ab5        .J      LDR      r2,[pc,#724] ; [0x10003fc8] = 0x15180
        0x10003cf2:    1e40        @.      SUBS     r0,r0,#1
        0x10003cf4:    4350        PC      MULS     r0,r2,r0
        0x10003cf6:    180a        ..      ADDS     r2,r1,r0
        0x10003cf8:    4668        hF      MOV      r0,sp
        0x10003cfa:    7881        .x      LDRB     r1,[r0,#2]
        0x10003cfc:    20e1        .       MOVS     r0,#0xe1
        0x10003cfe:    0100        ..      LSLS     r0,r0,#4
        0x10003d00:    4341        AC      MULS     r1,r0,r1
        0x10003d02:    4668        hF      MOV      r0,sp
        0x10003d04:    7840        @x      LDRB     r0,[r0,#1]
        0x10003d06:    233c        <#      MOVS     r3,#0x3c
        0x10003d08:    4358        XC      MULS     r0,r3,r0
        0x10003d0a:    1808        ..      ADDS     r0,r1,r0
        0x10003d0c:    1811        ..      ADDS     r1,r2,r0
        0x10003d0e:    4baf        .K      LDR      r3,[pc,#700] ; [0x10003fcc] = 0x20003100
        0x10003d10:    48b0        .H      LDR      r0,[pc,#704] ; [0x10003fd4] = 0x200030a8
        0x10003d12:    6a5a        Zj      LDR      r2,[r3,#0x24]
        0x10003d14:    6804        .h      LDR      r4,[r0,#0]
        0x10003d16:    4291        .B      CMP      r1,r2
        0x10003d18:    d301        ..      BCC      0x10003d1e ; RTC_Refressh + 60
        0x10003d1a:    1a8a        ..      SUBS     r2,r1,r2
        0x10003d1c:    e002        ..      B        0x10003d24 ; RTC_Refressh + 66
        0x10003d1e:    4dac        .M      LDR      r5,[pc,#688] ; [0x10003fd0] = 0x93a80
        0x10003d20:    1a8a        ..      SUBS     r2,r1,r2
        0x10003d22:    1952        R.      ADDS     r2,r2,r5
        0x10003d24:    18a2        ..      ADDS     r2,r4,r2
        0x10003d26:    6002        .`      STR      r2,[r0,#0]
        0x10003d28:    4610        .F      MOV      r0,r2
        0x10003d2a:    6259        Yb      STR      r1,[r3,#0x24]
        0x10003d2c:    bd38        8.      POP      {r3-r5,pc}
    RTC_EVT_Creat
        0x10003d2e:    b570        p.      PUSH     {r4-r6,lr}
        0x10003d30:    2900        .)      CMP      r1,#0
        0x10003d32:    d00b        ..      BEQ      0x10003d4c ; RTC_EVT_Creat + 30
        0x10003d34:    4da5        .M      LDR      r5,[pc,#660] ; [0x10003fcc] = 0x20003100
        0x10003d36:    696e        ni      LDR      r6,[r5,#0x14]
        0x10003d38:    69ac        .i      LDR      r4,[r5,#0x18]
        0x10003d3a:    42b4        .B      CMP      r4,r6
        0x10003d3c:    d206        ..      BCS      0x10003d4c ; RTC_EVT_Creat + 30
        0x10003d3e:    60a1        .`      STR      r1,[r4,#8]
        0x10003d40:    c405        ..      STM      r4!,{r0,r2}
        0x10003d42:    7123        #q      STRB     r3,[r4,#4]
        0x10003d44:    2000        .       MOVS     r0,#0
        0x10003d46:    60e0        .`      STR      r0,[r4,#0xc]
        0x10003d48:    3410        .4      ADDS     r4,r4,#0x10
        0x10003d4a:    61ac        .a      STR      r4,[r5,#0x18]
        0x10003d4c:    bd70        p.      POP      {r4-r6,pc}
    Min_RTC
        0x10003d4e:    4288        .B      CMP      r0,r1
        0x10003d50:    d300        ..      BCC      0x10003d54 ; Min_RTC + 6
        0x10003d52:    4608        .F      MOV      r0,r1
        0x10003d54:    4770        pG      BX       lr
    rtc_int_disable
        0x10003d56:    499b        .I      LDR      r1,[pc,#620] ; [0x10003fc4] = 0x500010c0
        0x10003d58:    3920         9      SUBS     r1,r1,#0x20
        0x10003d5a:    7a8a        .z      LDRB     r2,[r1,#0xa]
        0x10003d5c:    230f        .#      MOVS     r3,#0xf
        0x10003d5e:    4383        .C      BICS     r3,r3,r0
        0x10003d60:    7a88        .z      LDRB     r0,[r1,#0xa]
        0x10003d62:    401a        .@      ANDS     r2,r2,r3
        0x10003d64:    0900        ..      LSRS     r0,r0,#4
        0x10003d66:    0100        ..      LSLS     r0,r0,#4
        0x10003d68:    4310        .C      ORRS     r0,r0,r2
        0x10003d6a:    7288        .r      STRB     r0,[r1,#0xa]
        0x10003d6c:    4770        pG      BX       lr
    Timer_RTCEVT_Trigger
        0x10003d6e:    b570        p.      PUSH     {r4-r6,lr}
        0x10003d70:    4604        .F      MOV      r4,r0
        0x10003d72:    0740        @.      LSLS     r0,r0,#29
        0x10003d74:    d501        ..      BPL      0x10003d7a ; Timer_RTCEVT_Trigger + 12
        0x10003d76:    f7ffff33    ..3.    BL       rtc_get_calendar ; 0x10003be0
        0x10003d7a:    07e0        ..      LSLS     r0,r4,#31
        0x10003d7c:    d041        A.      BEQ      0x10003e02 ; Timer_RTCEVT_Trigger + 148
        0x10003d7e:    4c93        .L      LDR      r4,[pc,#588] ; [0x10003fcc] = 0x20003100
        0x10003d80:    2118        .!      MOVS     r1,#0x18
        0x10003d82:    7860        `x      LDRB     r0,[r4,#1]
        0x10003d84:    6866        fh      LDR      r6,[r4,#4]
        0x10003d86:    4348        HC      MULS     r0,r1,r0
        0x10003d88:    6961        ai      LDR      r1,[r4,#0x14]
        0x10003d8a:    1a08        ..      SUBS     r0,r1,r0
        0x10003d8c:    e003        ..      B        0x10003d96 ; Timer_RTCEVT_Trigger + 40
        0x10003d8e:    7b02        .{      LDRB     r2,[r0,#0xc]
        0x10003d90:    2a00        .*      CMP      r2,#0
        0x10003d92:    d102        ..      BNE      0x10003d9a ; Timer_RTCEVT_Trigger + 44
        0x10003d94:    3018        .0      ADDS     r0,r0,#0x18
        0x10003d96:    4288        .B      CMP      r0,r1
        0x10003d98:    d3f9        ..      BCC      0x10003d8e ; Timer_RTCEVT_Trigger + 32
        0x10003d9a:    4288        .B      CMP      r0,r1
        0x10003d9c:    d231        1.      BCS      0x10003e02 ; Timer_RTCEVT_Trigger + 148
        0x10003d9e:    f7ffff33    ..3.    BL       RTC_RUN ; 0x10003c08
        0x10003da2:    6861        ah      LDR      r1,[r4,#4]
        0x10003da4:    68e0        .h      LDR      r0,[r4,#0xc]
        0x10003da6:    1840        @.      ADDS     r0,r0,r1
        0x10003da8:    60e0        .`      STR      r0,[r4,#0xc]
        0x10003daa:    2000        .       MOVS     r0,#0
        0x10003dac:    43c0        .C      MVNS     r0,r0
        0x10003dae:    6060        ``      STR      r0,[r4,#4]
        0x10003db0:    7860        `x      LDRB     r0,[r4,#1]
        0x10003db2:    2118        .!      MOVS     r1,#0x18
        0x10003db4:    4348        HC      MULS     r0,r1,r0
        0x10003db6:    6961        ai      LDR      r1,[r4,#0x14]
        0x10003db8:    1a0d        ..      SUBS     r5,r1,r0
        0x10003dba:    e018        ..      B        0x10003dee ; Timer_RTCEVT_Trigger + 128
        0x10003dbc:    7b28        ({      LDRB     r0,[r5,#0xc]
        0x10003dbe:    2800        .(      CMP      r0,#0
        0x10003dc0:    d014        ..      BEQ      0x10003dec ; Timer_RTCEVT_Trigger + 126
        0x10003dc2:    6928        (i      LDR      r0,[r5,#0x10]
        0x10003dc4:    42b0        .B      CMP      r0,r6
        0x10003dc6:    d104        ..      BNE      0x10003dd2 ; Timer_RTCEVT_Trigger + 100
        0x10003dc8:    6868        hh      LDR      r0,[r5,#4]
        0x10003dca:    2800        .(      CMP      r0,#0
        0x10003dcc:    d007        ..      BEQ      0x10003dde ; Timer_RTCEVT_Trigger + 112
        0x10003dce:    4780        .G      BLX      r0
        0x10003dd0:    e005        ..      B        0x10003dde ; Timer_RTCEVT_Trigger + 112
        0x10003dd2:    1b80        ..      SUBS     r0,r0,r6
        0x10003dd4:    6128        (a      STR      r0,[r5,#0x10]
        0x10003dd6:    d002        ..      BEQ      0x10003dde ; Timer_RTCEVT_Trigger + 112
        0x10003dd8:    68a9        .h      LDR      r1,[r5,#8]
        0x10003dda:    4288        .B      CMP      r0,r1
        0x10003ddc:    d901        ..      BLS      0x10003de2 ; Timer_RTCEVT_Trigger + 116
        0x10003dde:    68a8        .h      LDR      r0,[r5,#8]
        0x10003de0:    6128        (a      STR      r0,[r5,#0x10]
        0x10003de2:    6861        ah      LDR      r1,[r4,#4]
        0x10003de4:    4288        .B      CMP      r0,r1
        0x10003de6:    d900        ..      BLS      0x10003dea ; Timer_RTCEVT_Trigger + 124
        0x10003de8:    4608        .F      MOV      r0,r1
        0x10003dea:    6060        ``      STR      r0,[r4,#4]
        0x10003dec:    3518        .5      ADDS     r5,r5,#0x18
        0x10003dee:    6960        `i      LDR      r0,[r4,#0x14]
        0x10003df0:    4285        .B      CMP      r5,r0
        0x10003df2:    d3e3        ..      BCC      0x10003dbc ; Timer_RTCEVT_Trigger + 78
        0x10003df4:    6860        `h      LDR      r0,[r4,#4]
        0x10003df6:    2800        .(      CMP      r0,#0
        0x10003df8:    d004        ..      BEQ      0x10003e04 ; Timer_RTCEVT_Trigger + 150
        0x10003dfa:    1c41        A.      ADDS     r1,r0,#1
        0x10003dfc:    d002        ..      BEQ      0x10003e04 ; Timer_RTCEVT_Trigger + 150
        0x10003dfe:    f7ffff46    ..F.    BL       RTC_SET ; 0x10003c8e
        0x10003e02:    bd70        p.      POP      {r4-r6,pc}
        0x10003e04:    2001        .       MOVS     r0,#1
        0x10003e06:    f7ffffa6    ....    BL       rtc_int_disable ; 0x10003d56
        0x10003e0a:    bd70        p.      POP      {r4-r6,pc}
    RTC_EVT_Clr
        0x10003e0c:    496f        oI      LDR      r1,[pc,#444] ; [0x10003fcc] = 0x20003100
        0x10003e0e:    688a        .h      LDR      r2,[r1,#8]
        0x10003e10:    4382        .C      BICS     r2,r2,r0
        0x10003e12:    608a        .`      STR      r2,[r1,#8]
        0x10003e14:    4770        pG      BX       lr
    RTC_EVT_Stop
        0x10003e16:    b5f8        ..      PUSH     {r3-r7,lr}
        0x10003e18:    4604        .F      MOV      r4,r0
        0x10003e1a:    f7fffef5    ....    BL       RTC_RUN ; 0x10003c08
        0x10003e1e:    4a6b        kJ      LDR      r2,[pc,#428] ; [0x10003fcc] = 0x20003100
        0x10003e20:    60d0        .`      STR      r0,[r2,#0xc]
        0x10003e22:    b672        r.      CPSID    i
        0x10003e24:    2100        .!      MOVS     r1,#0
        0x10003e26:    43c9        .C      MVNS     r1,r1
        0x10003e28:    6051        Q`      STR      r1,[r2,#4]
        0x10003e2a:    7851        Qx      LDRB     r1,[r2,#1]
        0x10003e2c:    2318        .#      MOVS     r3,#0x18
        0x10003e2e:    4359        YC      MULS     r1,r3,r1
        0x10003e30:    6953        Si      LDR      r3,[r2,#0x14]
        0x10003e32:    1a59        Y.      SUBS     r1,r3,r1
        0x10003e34:    2700        .'      MOVS     r7,#0
        0x10003e36:    e017        ..      B        0x10003e68 ; RTC_EVT_Stop + 82
        0x10003e38:    680d        .h      LDR      r5,[r1,#0]
        0x10003e3a:    42a5        .B      CMP      r5,r4
        0x10003e3c:    d102        ..      BNE      0x10003e44 ; RTC_EVT_Stop + 46
        0x10003e3e:    730f        .s      STRB     r7,[r1,#0xc]
        0x10003e40:    614f        Oa      STR      r7,[r1,#0x14]
        0x10003e42:    e010        ..      B        0x10003e66 ; RTC_EVT_Stop + 80
        0x10003e44:    7b0d        .{      LDRB     r5,[r1,#0xc]
        0x10003e46:    2d00        .-      CMP      r5,#0
        0x10003e48:    d00d        ..      BEQ      0x10003e66 ; RTC_EVT_Stop + 80
        0x10003e4a:    690d        .i      LDR      r5,[r1,#0x10]
        0x10003e4c:    1a2d        -.      SUBS     r5,r5,r0
        0x10003e4e:    610d        .a      STR      r5,[r1,#0x10]
        0x10003e50:    d002        ..      BEQ      0x10003e58 ; RTC_EVT_Stop + 66
        0x10003e52:    688e        .h      LDR      r6,[r1,#8]
        0x10003e54:    42b5        .B      CMP      r5,r6
        0x10003e56:    d901        ..      BLS      0x10003e5c ; RTC_EVT_Stop + 70
        0x10003e58:    688d        .h      LDR      r5,[r1,#8]
        0x10003e5a:    610d        .a      STR      r5,[r1,#0x10]
        0x10003e5c:    6856        Vh      LDR      r6,[r2,#4]
        0x10003e5e:    42b5        .B      CMP      r5,r6
        0x10003e60:    d900        ..      BLS      0x10003e64 ; RTC_EVT_Stop + 78
        0x10003e62:    4635        5F      MOV      r5,r6
        0x10003e64:    6055        U`      STR      r5,[r2,#4]
        0x10003e66:    3118        .1      ADDS     r1,r1,#0x18
        0x10003e68:    4299        .B      CMP      r1,r3
        0x10003e6a:    d3e5        ..      BCC      0x10003e38 ; RTC_EVT_Stop + 34
        0x10003e6c:    6850        Ph      LDR      r0,[r2,#4]
        0x10003e6e:    2800        .(      CMP      r0,#0
        0x10003e70:    d004        ..      BEQ      0x10003e7c ; RTC_EVT_Stop + 102
        0x10003e72:    1c41        A.      ADDS     r1,r0,#1
        0x10003e74:    d002        ..      BEQ      0x10003e7c ; RTC_EVT_Stop + 102
        0x10003e76:    f7ffff0a    ....    BL       RTC_SET ; 0x10003c8e
        0x10003e7a:    e002        ..      B        0x10003e82 ; RTC_EVT_Stop + 108
        0x10003e7c:    2001        .       MOVS     r0,#1
        0x10003e7e:    f7ffff6a    ..j.    BL       rtc_int_disable ; 0x10003d56
        0x10003e82:    b662        b.      CPSIE    i
        0x10003e84:    bdf8        ..      POP      {r3-r7,pc}
    RTC_EVT_Start
        0x10003e86:    b5f8        ..      PUSH     {r3-r7,lr}
        0x10003e88:    4c50        PL      LDR      r4,[pc,#320] ; [0x10003fcc] = 0x20003100
        0x10003e8a:    4605        .F      MOV      r5,r0
        0x10003e8c:    7860        `x      LDRB     r0,[r4,#1]
        0x10003e8e:    2118        .!      MOVS     r1,#0x18
        0x10003e90:    4348        HC      MULS     r0,r1,r0
        0x10003e92:    6961        ai      LDR      r1,[r4,#0x14]
        0x10003e94:    1a08        ..      SUBS     r0,r1,r0
        0x10003e96:    e006        ..      B        0x10003ea6 ; RTC_EVT_Start + 32
        0x10003e98:    6802        .h      LDR      r2,[r0,#0]
        0x10003e9a:    42aa        .B      CMP      r2,r5
        0x10003e9c:    d102        ..      BNE      0x10003ea4 ; RTC_EVT_Start + 30
        0x10003e9e:    7b02        .{      LDRB     r2,[r0,#0xc]
        0x10003ea0:    2a00        .*      CMP      r2,#0
        0x10003ea2:    d138        8.      BNE      0x10003f16 ; RTC_EVT_Start + 144
        0x10003ea4:    3018        .0      ADDS     r0,r0,#0x18
        0x10003ea6:    4288        .B      CMP      r0,r1
        0x10003ea8:    d3f6        ..      BCC      0x10003e98 ; RTC_EVT_Start + 18
        0x10003eaa:    f7fffead    ....    BL       RTC_RUN ; 0x10003c08
        0x10003eae:    60e0        .`      STR      r0,[r4,#0xc]
        0x10003eb0:    b672        r.      CPSID    i
        0x10003eb2:    2100        .!      MOVS     r1,#0
        0x10003eb4:    43c9        .C      MVNS     r1,r1
        0x10003eb6:    6061        a`      STR      r1,[r4,#4]
        0x10003eb8:    7861        ax      LDRB     r1,[r4,#1]
        0x10003eba:    2218        ."      MOVS     r2,#0x18
        0x10003ebc:    6966        fi      LDR      r6,[r4,#0x14]
        0x10003ebe:    4351        QC      MULS     r1,r2,r1
        0x10003ec0:    1a71        q.      SUBS     r1,r6,r1
        0x10003ec2:    2701        .'      MOVS     r7,#1
        0x10003ec4:    e019        ..      B        0x10003efa ; RTC_EVT_Start + 116
        0x10003ec6:    680a        .h      LDR      r2,[r1,#0]
        0x10003ec8:    42aa        .B      CMP      r2,r5
        0x10003eca:    d103        ..      BNE      0x10003ed4 ; RTC_EVT_Start + 78
        0x10003ecc:    688a        .h      LDR      r2,[r1,#8]
        0x10003ece:    610a        .a      STR      r2,[r1,#0x10]
        0x10003ed0:    730f        .s      STRB     r7,[r1,#0xc]
        0x10003ed2:    e00b        ..      B        0x10003eec ; RTC_EVT_Start + 102
        0x10003ed4:    7b0a        .{      LDRB     r2,[r1,#0xc]
        0x10003ed6:    2a00        .*      CMP      r2,#0
        0x10003ed8:    d00e        ..      BEQ      0x10003ef8 ; RTC_EVT_Start + 114
        0x10003eda:    690a        .i      LDR      r2,[r1,#0x10]
        0x10003edc:    1a12        ..      SUBS     r2,r2,r0
        0x10003ede:    610a        .a      STR      r2,[r1,#0x10]
        0x10003ee0:    d002        ..      BEQ      0x10003ee8 ; RTC_EVT_Start + 98
        0x10003ee2:    688b        .h      LDR      r3,[r1,#8]
        0x10003ee4:    429a        .B      CMP      r2,r3
        0x10003ee6:    d901        ..      BLS      0x10003eec ; RTC_EVT_Start + 102
        0x10003ee8:    688a        .h      LDR      r2,[r1,#8]
        0x10003eea:    610a        .a      STR      r2,[r1,#0x10]
        0x10003eec:    4613        .F      MOV      r3,r2
        0x10003eee:    6862        bh      LDR      r2,[r4,#4]
        0x10003ef0:    4293        .B      CMP      r3,r2
        0x10003ef2:    d800        ..      BHI      0x10003ef6 ; RTC_EVT_Start + 112
        0x10003ef4:    461a        .F      MOV      r2,r3
        0x10003ef6:    6062        b`      STR      r2,[r4,#4]
        0x10003ef8:    3118        .1      ADDS     r1,r1,#0x18
        0x10003efa:    42b1        .B      CMP      r1,r6
        0x10003efc:    d3e3        ..      BCC      0x10003ec6 ; RTC_EVT_Start + 64
        0x10003efe:    6860        `h      LDR      r0,[r4,#4]
        0x10003f00:    2800        .(      CMP      r0,#0
        0x10003f02:    d004        ..      BEQ      0x10003f0e ; RTC_EVT_Start + 136
        0x10003f04:    1c41        A.      ADDS     r1,r0,#1
        0x10003f06:    d002        ..      BEQ      0x10003f0e ; RTC_EVT_Start + 136
        0x10003f08:    f7fffec1    ....    BL       RTC_SET ; 0x10003c8e
        0x10003f0c:    e002        ..      B        0x10003f14 ; RTC_EVT_Start + 142
        0x10003f0e:    2001        .       MOVS     r0,#1
        0x10003f10:    f7ffff21    ..!.    BL       rtc_int_disable ; 0x10003d56
        0x10003f14:    b662        b.      CPSIE    i
        0x10003f16:    bdf8        ..      POP      {r3-r7,pc}
    RTC_EVT_whole_minute_setid
        0x10003f18:    492c        ,I      LDR      r1,[pc,#176] ; [0x10003fcc] = 0x20003100
        0x10003f1a:    61c8        .a      STR      r0,[r1,#0x1c]
        0x10003f1c:    4770        pG      BX       lr
    RTC_EVT_whole_minute_adj
        0x10003f1e:    b5f1        ..      PUSH     {r0,r4-r7,lr}
        0x10003f20:    b082        ..      SUB      sp,sp,#8
        0x10003f22:    f7fffe71    ..q.    BL       RTC_RUN ; 0x10003c08
        0x10003f26:    4d29        )M      LDR      r5,[pc,#164] ; [0x10003fcc] = 0x20003100
        0x10003f28:    60e8        .`      STR      r0,[r5,#0xc]
        0x10003f2a:    b672        r.      CPSID    i
        0x10003f2c:    2100        .!      MOVS     r1,#0
        0x10003f2e:    43c9        .C      MVNS     r1,r1
        0x10003f30:    6069        i`      STR      r1,[r5,#4]
        0x10003f32:    7869        ix      LDRB     r1,[r5,#1]
        0x10003f34:    696e        ni      LDR      r6,[r5,#0x14]
        0x10003f36:    2218        ."      MOVS     r2,#0x18
        0x10003f38:    4351        QC      MULS     r1,r2,r1
        0x10003f3a:    9000        ..      STR      r0,[sp,#0]
        0x10003f3c:    1a74        t.      SUBS     r4,r6,r1
        0x10003f3e:    69ef        .i      LDR      r7,[r5,#0x1c]
        0x10003f40:    e020         .      B        0x10003f84 ; RTC_EVT_whole_minute_adj + 102
        0x10003f42:    6820         h      LDR      r0,[r4,#0]
        0x10003f44:    42b8        .B      CMP      r0,r7
        0x10003f46:    d109        ..      BNE      0x10003f5c ; RTC_EVT_whole_minute_adj + 62
        0x10003f48:    213c        <!      MOVS     r1,#0x3c
        0x10003f4a:    9802        ..      LDR      r0,[sp,#8]
        0x10003f4c:    f000f930    ..0.    BL       __aeabi_uidiv ; 0x100041b0
        0x10003f50:    203c        <       MOVS     r0,#0x3c
        0x10003f52:    1a40        @.      SUBS     r0,r0,r1
        0x10003f54:    6120         a      STR      r0,[r4,#0x10]
        0x10003f56:    2001        .       MOVS     r0,#1
        0x10003f58:    7320         s      STRB     r0,[r4,#0xc]
        0x10003f5a:    e00c        ..      B        0x10003f76 ; RTC_EVT_whole_minute_adj + 88
        0x10003f5c:    7b20         {      LDRB     r0,[r4,#0xc]
        0x10003f5e:    2800        .(      CMP      r0,#0
        0x10003f60:    d00f        ..      BEQ      0x10003f82 ; RTC_EVT_whole_minute_adj + 100
        0x10003f62:    6921        !i      LDR      r1,[r4,#0x10]
        0x10003f64:    9800        ..      LDR      r0,[sp,#0]
        0x10003f66:    1a08        ..      SUBS     r0,r1,r0
        0x10003f68:    6120         a      STR      r0,[r4,#0x10]
        0x10003f6a:    d002        ..      BEQ      0x10003f72 ; RTC_EVT_whole_minute_adj + 84
        0x10003f6c:    68a1        .h      LDR      r1,[r4,#8]
        0x10003f6e:    4288        .B      CMP      r0,r1
        0x10003f70:    d901        ..      BLS      0x10003f76 ; RTC_EVT_whole_minute_adj + 88
        0x10003f72:    68a0        .h      LDR      r0,[r4,#8]
        0x10003f74:    6120         a      STR      r0,[r4,#0x10]
        0x10003f76:    6920         i      LDR      r0,[r4,#0x10]
        0x10003f78:    6869        ih      LDR      r1,[r5,#4]
        0x10003f7a:    4288        .B      CMP      r0,r1
        0x10003f7c:    d900        ..      BLS      0x10003f80 ; RTC_EVT_whole_minute_adj + 98
        0x10003f7e:    4608        .F      MOV      r0,r1
        0x10003f80:    6068        h`      STR      r0,[r5,#4]
        0x10003f82:    3418        .4      ADDS     r4,r4,#0x18
        0x10003f84:    42b4        .B      CMP      r4,r6
        0x10003f86:    d3dc        ..      BCC      0x10003f42 ; RTC_EVT_whole_minute_adj + 36
        0x10003f88:    6868        hh      LDR      r0,[r5,#4]
        0x10003f8a:    2800        .(      CMP      r0,#0
        0x10003f8c:    d004        ..      BEQ      0x10003f98 ; RTC_EVT_whole_minute_adj + 122
        0x10003f8e:    1c41        A.      ADDS     r1,r0,#1
        0x10003f90:    d002        ..      BEQ      0x10003f98 ; RTC_EVT_whole_minute_adj + 122
        0x10003f92:    f7fffe7c    ..|.    BL       RTC_SET ; 0x10003c8e
        0x10003f96:    e002        ..      B        0x10003f9e ; RTC_EVT_whole_minute_adj + 128
        0x10003f98:    2001        .       MOVS     r0,#1
        0x10003f9a:    f7fffedc    ....    BL       rtc_int_disable ; 0x10003d56
        0x10003f9e:    b662        b.      CPSIE    i
        0x10003fa0:    bdfe        ..      POP      {r1-r7,pc}
    RTC_Get_State
        0x10003fa2:    490a        .I      LDR      r1,[pc,#40] ; [0x10003fcc] = 0x20003100
        0x10003fa4:    2218        ."      MOVS     r2,#0x18
        0x10003fa6:    784b        Kx      LDRB     r3,[r1,#1]
        0x10003fa8:    4353        SC      MULS     r3,r2,r3
        0x10003faa:    694a        Ji      LDR      r2,[r1,#0x14]
        0x10003fac:    1ad1        ..      SUBS     r1,r2,r3
        0x10003fae:    e005        ..      B        0x10003fbc ; RTC_Get_State + 26
        0x10003fb0:    680b        .h      LDR      r3,[r1,#0]
        0x10003fb2:    4283        .B      CMP      r3,r0
        0x10003fb4:    d101        ..      BNE      0x10003fba ; RTC_Get_State + 24
        0x10003fb6:    7b08        .{      LDRB     r0,[r1,#0xc]
        0x10003fb8:    4770        pG      BX       lr
        0x10003fba:    3118        .1      ADDS     r1,r1,#0x18
        0x10003fbc:    4291        .B      CMP      r1,r2
        0x10003fbe:    d3f7        ..      BCC      0x10003fb0 ; RTC_Get_State + 14
        0x10003fc0:    20ff        .       MOVS     r0,#0xff
        0x10003fc2:    4770        pG      BX       lr
    $d
        0x10003fc4:    500010c0    ...P    DCD    1342181568
        0x10003fc8:    00015180    .Q..    DCD    86400
        0x10003fcc:    20003100    .1.     DCD    536883456
        0x10003fd0:    00093a80    .:..    DCD    604800
        0x10003fd4:    200030a8    .0.     DCD    536883368
    $t
    rtc_start
        0x10003fd8:    4971        qI      LDR      r1,[pc,#452] ; [0x100041a0] = 0x20003100
        0x10003fda:    7808        .x      LDRB     r0,[r1,#0]
        0x10003fdc:    2800        .(      CMP      r0,#0
        0x10003fde:    d1f0        ..      BNE      0x10003fc2 ; RTC_Get_State + 32
        0x10003fe0:    4870        pH      LDR      r0,[pc,#448] ; [0x100041a4] = 0x500010a0
        0x10003fe2:    7ac3        .z      LDRB     r3,[r0,#0xb]
        0x10003fe4:    2201        ."      MOVS     r2,#1
        0x10003fe6:    4313        .C      ORRS     r3,r3,r2
        0x10003fe8:    72c3        .r      STRB     r3,[r0,#0xb]
        0x10003fea:    7ac3        .z      LDRB     r3,[r0,#0xb]
        0x10003fec:    07db        ..      LSLS     r3,r3,#31
        0x10003fee:    d1fc        ..      BNE      0x10003fea ; rtc_start + 18
        0x10003ff0:    700a        .p      STRB     r2,[r1,#0]
        0x10003ff2:    e7e6        ..      B        0x10003fc2 ; RTC_Get_State + 32
    rtc_set_interrupt_callback
        0x10003ff4:    496a        jI      LDR      r1,[pc,#424] ; [0x100041a0] = 0x20003100
        0x10003ff6:    6208        .b      STR      r0,[r1,#0x20]
        0x10003ff8:    e7e3        ..      B        0x10003fc2 ; RTC_Get_State + 32
    rtc_int_enable
        0x10003ffa:    496a        jI      LDR      r1,[pc,#424] ; [0x100041a4] = 0x500010a0
        0x10003ffc:    7a8a        .z      LDRB     r2,[r1,#0xa]
        0x10003ffe:    4302        .C      ORRS     r2,r2,r0
        0x10004000:    0710        ..      LSLS     r0,r2,#28
        0x10004002:    7a8a        .z      LDRB     r2,[r1,#0xa]
        0x10004004:    0f00        ..      LSRS     r0,r0,#28
        0x10004006:    0912        ..      LSRS     r2,r2,#4
        0x10004008:    0112        ..      LSLS     r2,r2,#4
        0x1000400a:    4302        .C      ORRS     r2,r2,r0
        0x1000400c:    728a        .r      STRB     r2,[r1,#0xa]
        0x1000400e:    e7d8        ..      B        0x10003fc2 ; RTC_Get_State + 32
    rtc_int_clear
        0x10004010:    4964        dI      LDR      r1,[pc,#400] ; [0x100041a4] = 0x500010a0
        0x10004012:    7a8a        .z      LDRB     r2,[r1,#0xa]
        0x10004014:    0912        ..      LSRS     r2,r2,#4
        0x10004016:    4302        .C      ORRS     r2,r2,r0
        0x10004018:    0110        ..      LSLS     r0,r2,#4
        0x1000401a:    7a8a        .z      LDRB     r2,[r1,#0xa]
        0x1000401c:    0712        ..      LSLS     r2,r2,#28
        0x1000401e:    0f12        ..      LSRS     r2,r2,#28
        0x10004020:    4302        .C      ORRS     r2,r2,r0
        0x10004022:    728a        .r      STRB     r2,[r1,#0xa]
        0x10004024:    e7cd        ..      B        0x10003fc2 ; RTC_Get_State + 32
    rtc_set_calendar
        0x10004026:    b570        p.      PUSH     {r4-r6,lr}
        0x10004028:    4605        .F      MOV      r5,r0
        0x1000402a:    2400        .$      MOVS     r4,#0
        0x1000402c:    5d28        (]      LDRB     r0,[r5,r4]
        0x1000402e:    210a        .!      MOVS     r1,#0xa
        0x10004030:    f000f8be    ....    BL       __aeabi_uidiv ; 0x100041b0
        0x10004034:    0100        ..      LSLS     r0,r0,#4
        0x10004036:    4301        .C      ORRS     r1,r1,r0
        0x10004038:    5529        )U      STRB     r1,[r5,r4]
        0x1000403a:    1c64        d.      ADDS     r4,r4,#1
        0x1000403c:    2c03        .,      CMP      r4,#3
        0x1000403e:    dbf5        ..      BLT      0x1000402c ; rtc_set_calendar + 6
        0x10004040:    4628        (F      MOV      r0,r5
        0x10004042:    f000f90c    ....    BL       __aeabi_uread4 ; 0x1000425e
        0x10004046:    4957        WI      LDR      r1,[pc,#348] ; [0x100041a4] = 0x500010a0
        0x10004048:    3920         9      SUBS     r1,r1,#0x20
        0x1000404a:    63c8        .c      STR      r0,[r1,#0x3c]
        0x1000404c:    bd70        p.      POP      {r4-r6,pc}
    rtc_set_prescaler
        0x1000404e:    4a55        UJ      LDR      r2,[pc,#340] ; [0x100041a4] = 0x500010a0
        0x10004050:    8a13        ..      LDRH     r3,[r2,#0x10]
        0x10004052:    1e40        @.      SUBS     r0,r0,#1
        0x10004054:    0bdb        ..      LSRS     r3,r3,#15
        0x10004056:    03db        ..      LSLS     r3,r3,#15
        0x10004058:    0440        @.      LSLS     r0,r0,#17
        0x1000405a:    0c40        @.      LSRS     r0,r0,#17
        0x1000405c:    4303        .C      ORRS     r3,r3,r0
        0x1000405e:    8213        ..      STRH     r3,[r2,#0x10]
        0x10004060:    7c90        .|      LDRB     r0,[r2,#0x12]
        0x10004062:    0709        ..      LSLS     r1,r1,#28
        0x10004064:    0900        ..      LSRS     r0,r0,#4
        0x10004066:    0100        ..      LSLS     r0,r0,#4
        0x10004068:    0f09        ..      LSRS     r1,r1,#28
        0x1000406a:    4308        .C      ORRS     r0,r0,r1
        0x1000406c:    7490        .t      STRB     r0,[r2,#0x12]
        0x1000406e:    e7a8        ..      B        0x10003fc2 ; RTC_Get_State + 32
    rtc_clear
        0x10004070:    484c        LH      LDR      r0,[pc,#304] ; [0x100041a4] = 0x500010a0
        0x10004072:    7ac1        .z      LDRB     r1,[r0,#0xb]
        0x10004074:    2204        ."      MOVS     r2,#4
        0x10004076:    4311        .C      ORRS     r1,r1,r2
        0x10004078:    72c1        .r      STRB     r1,[r0,#0xb]
        0x1000407a:    7ac1        .z      LDRB     r1,[r0,#0xb]
        0x1000407c:    0749        I.      LSLS     r1,r1,#29
        0x1000407e:    d4fc        ..      BMI      0x1000407a ; rtc_clear + 10
        0x10004080:    e79f        ..      B        0x10003fc2 ; RTC_Get_State + 32
    rtc_stop
        0x10004082:    4947        GI      LDR      r1,[pc,#284] ; [0x100041a0] = 0x20003100
        0x10004084:    7808        .x      LDRB     r0,[r1,#0]
        0x10004086:    2801        .(      CMP      r0,#1
        0x10004088:    d19b        ..      BNE      0x10003fc2 ; RTC_Get_State + 32
        0x1000408a:    4846        FH      LDR      r0,[pc,#280] ; [0x100041a4] = 0x500010a0
        0x1000408c:    7ac2        .z      LDRB     r2,[r0,#0xb]
        0x1000408e:    2302        .#      MOVS     r3,#2
        0x10004090:    431a        .C      ORRS     r2,r2,r3
        0x10004092:    72c2        .r      STRB     r2,[r0,#0xb]
        0x10004094:    7ac2        .z      LDRB     r2,[r0,#0xb]
        0x10004096:    0792        ..      LSLS     r2,r2,#30
        0x10004098:    d4fc        ..      BMI      0x10004094 ; rtc_stop + 18
        0x1000409a:    2000        .       MOVS     r0,#0
        0x1000409c:    7008        .p      STRB     r0,[r1,#0]
        0x1000409e:    e790        ..      B        0x10003fc2 ; RTC_Get_State + 32
    rtc_init
        0x100040a0:    b5f3        ..      PUSH     {r0,r1,r4-r7,lr}
        0x100040a2:    b081        ..      SUB      sp,sp,#4
        0x100040a4:    f7ffffed    ....    BL       rtc_stop ; 0x10004082
        0x100040a8:    f7ffffe2    ....    BL       rtc_clear ; 0x10004070
        0x100040ac:    2001        .       MOVS     r0,#1
        0x100040ae:    2100        .!      MOVS     r1,#0
        0x100040b0:    03c0        ..      LSLS     r0,r0,#15
        0x100040b2:    f7ffffcc    ....    BL       rtc_set_prescaler ; 0x1000404e
        0x100040b6:    2064        d       MOVS     r0,#0x64
        0x100040b8:    f7fff8d1    ....    BL       GAPBBDelayUS ; 0x1000325e
        0x100040bc:    2101        .!      MOVS     r1,#1
        0x100040be:    4668        hF      MOV      r0,sp
        0x100040c0:    70c1        .p      STRB     r1,[r0,#3]
        0x100040c2:    2400        .$      MOVS     r4,#0
        0x100040c4:    7084        .p      STRB     r4,[r0,#2]
        0x100040c6:    7044        Dp      STRB     r4,[r0,#1]
        0x100040c8:    7004        .p      STRB     r4,[r0,#0]
        0x100040ca:    f7ffffac    ....    BL       rtc_set_calendar ; 0x10004026
        0x100040ce:    4d34        4M      LDR      r5,[pc,#208] ; [0x100041a0] = 0x20003100
        0x100040d0:    2607        .&      MOVS     r6,#7
        0x100040d2:    612c        ,a      STR      r4,[r5,#0x10]
        0x100040d4:    4668        hF      MOV      r0,sp
        0x100040d6:    70c6        .p      STRB     r6,[r0,#3]
        0x100040d8:    2717        .'      MOVS     r7,#0x17
        0x100040da:    7087        .p      STRB     r7,[r0,#2]
        0x100040dc:    243b        ;$      MOVS     r4,#0x3b
        0x100040de:    7044        Dp      STRB     r4,[r0,#1]
        0x100040e0:    7004        .p      STRB     r4,[r0,#0]
        0x100040e2:    4669        iF      MOV      r1,sp
        0x100040e4:    2001        .       MOVS     r0,#1
        0x100040e6:    f7fffdb0    ....    BL       rtc_set_compare ; 0x10003c4a
        0x100040ea:    4668        hF      MOV      r0,sp
        0x100040ec:    70c6        .p      STRB     r6,[r0,#3]
        0x100040ee:    7087        .p      STRB     r7,[r0,#2]
        0x100040f0:    7044        Dp      STRB     r4,[r0,#1]
        0x100040f2:    7004        .p      STRB     r4,[r0,#0]
        0x100040f4:    4669        iF      MOV      r1,sp
        0x100040f6:    2000        .       MOVS     r0,#0
        0x100040f8:    f7fffda7    ....    BL       rtc_set_compare ; 0x10003c4a
        0x100040fc:    200f        .       MOVS     r0,#0xf
        0x100040fe:    f7ffff87    ....    BL       rtc_int_clear ; 0x10004010
        0x10004102:    200f        .       MOVS     r0,#0xf
        0x10004104:    f7fffe27    ..'.    BL       rtc_int_disable ; 0x10003d56
        0x10004108:    2001        .       MOVS     r0,#1
        0x1000410a:    f7ffff76    ..v.    BL       rtc_int_enable ; 0x10003ffa
        0x1000410e:    9802        ..      LDR      r0,[sp,#8]
        0x10004110:    6228        (b      STR      r0,[r5,#0x20]
        0x10004112:    f7ffff61    ..a.    BL       rtc_start ; 0x10003fd8
        0x10004116:    4924        $I      LDR      r1,[pc,#144] ; [0x100041a8] = 0xe000e100
        0x10004118:    2004        .       MOVS     r0,#4
        0x1000411a:    6008        .`      STR      r0,[r1,#0]
        0x1000411c:    bdfe        ..      POP      {r1-r7,pc}
    SYD_RTC_Init
        0x1000411e:    b570        p.      PUSH     {r4-r6,lr}
        0x10004120:    460d        .F      MOV      r5,r1
        0x10004122:    4604        .F      MOV      r4,r0
        0x10004124:    f7fff803    ....    BL       syd52832_chip_confirm ; 0x1000312e
        0x10004128:    2800        .(      CMP      r0,#0
        0x1000412a:    d00b        ..      BEQ      0x10004144 ; SYD_RTC_Init + 38
        0x1000412c:    481c        .H      LDR      r0,[pc,#112] ; [0x100041a0] = 0x20003100
        0x1000412e:    2118        .!      MOVS     r1,#0x18
        0x10004130:    7044        Dp      STRB     r4,[r0,#1]
        0x10004132:    434c        LC      MULS     r4,r1,r4
        0x10004134:    1961        a.      ADDS     r1,r4,r5
        0x10004136:    6185        .a      STR      r5,[r0,#0x18]
        0x10004138:    6141        Aa      STR      r1,[r0,#0x14]
        0x1000413a:    2001        .       MOVS     r0,#1
        0x1000413c:    491b        .I      LDR      r1,[pc,#108] ; [0x100041ac] = 0x10003d6f
        0x1000413e:    03c0        ..      LSLS     r0,r0,#15
        0x10004140:    f7ffffae    ....    BL       rtc_init ; 0x100040a0
        0x10004144:    bd70        p.      POP      {r4-r6,pc}
    RTC_IRQHandler
        0x10004146:    b510        ..      PUSH     {r4,lr}
        0x10004148:    4816        .H      LDR      r0,[pc,#88] ; [0x100041a4] = 0x500010a0
        0x1000414a:    7a40        @z      LDRB     r0,[r0,#9]
        0x1000414c:    0703        ..      LSLS     r3,r0,#28
        0x1000414e:    0f1b        ..      LSRS     r3,r3,#28
        0x10004150:    4618        .F      MOV      r0,r3
        0x10004152:    f7ffff5d    ..].    BL       rtc_int_clear ; 0x10004010
        0x10004156:    4812        .H      LDR      r0,[pc,#72] ; [0x100041a0] = 0x20003100
        0x10004158:    6a01        .j      LDR      r1,[r0,#0x20]
        0x1000415a:    2900        .)      CMP      r1,#0
        0x1000415c:    d001        ..      BEQ      0x10004162 ; RTC_IRQHandler + 28
        0x1000415e:    4618        .F      MOV      r0,r3
        0x10004160:    4788        .G      BLX      r1
        0x10004162:    bd10        ..      POP      {r4,pc}
    rtc_status
        0x10004164:    480e        .H      LDR      r0,[pc,#56] ; [0x100041a0] = 0x20003100
        0x10004166:    7800        .x      LDRB     r0,[r0,#0]
        0x10004168:    e72b        +.      B        0x10003fc2 ; RTC_Get_State + 32
    rtc_get_compare
        0x1000416a:    b518        ..      PUSH     {r3,r4,lr}
        0x1000416c:    2800        .(      CMP      r0,#0
        0x1000416e:    d002        ..      BEQ      0x10004176 ; rtc_get_compare + 12
        0x10004170:    480c        .H      LDR      r0,[pc,#48] ; [0x100041a4] = 0x500010a0
        0x10004172:    3018        .0      ADDS     r0,r0,#0x18
        0x10004174:    e001        ..      B        0x1000417a ; rtc_get_compare + 16
        0x10004176:    480b        .H      LDR      r0,[pc,#44] ; [0x100041a4] = 0x500010a0
        0x10004178:    3014        .0      ADDS     r0,r0,#0x14
        0x1000417a:    6800        .h      LDR      r0,[r0,#0]
        0x1000417c:    9000        ..      STR      r0,[sp,#0]
        0x1000417e:    2000        .       MOVS     r0,#0
        0x10004180:    4669        iF      MOV      r1,sp
        0x10004182:    5c0b        .\      LDRB     r3,[r1,r0]
        0x10004184:    240a        .$      MOVS     r4,#0xa
        0x10004186:    091a        ..      LSRS     r2,r3,#4
        0x10004188:    4362        bC      MULS     r2,r4,r2
        0x1000418a:    071b        ..      LSLS     r3,r3,#28
        0x1000418c:    540a        .T      STRB     r2,[r1,r0]
        0x1000418e:    0f1b        ..      LSRS     r3,r3,#28
        0x10004190:    18d2        ..      ADDS     r2,r2,r3
        0x10004192:    540a        .T      STRB     r2,[r1,r0]
        0x10004194:    1c40        @.      ADDS     r0,r0,#1
        0x10004196:    2803        .(      CMP      r0,#3
        0x10004198:    dbf3        ..      BLT      0x10004182 ; rtc_get_compare + 24
        0x1000419a:    9800        ..      LDR      r0,[sp,#0]
        0x1000419c:    bd18        ..      POP      {r3,r4,pc}
    $d
        0x1000419e:    0000        ..      DCW    0
        0x100041a0:    20003100    .1.     DCD    536883456
        0x100041a4:    500010a0    ...P    DCD    1342181536
        0x100041a8:    e000e100    ....    DCD    3758153984
        0x100041ac:    10003d6f    o=..    DCD    268451183
    $t
    .text
    __aeabi_uidiv
    __aeabi_uidivmod
        0x100041b0:    b530        0.      PUSH     {r4,r5,lr}
        0x100041b2:    460b        .F      MOV      r3,r1
        0x100041b4:    4601        .F      MOV      r1,r0
        0x100041b6:    2000        .       MOVS     r0,#0
        0x100041b8:    2220         "      MOVS     r2,#0x20
        0x100041ba:    2401        .$      MOVS     r4,#1
        0x100041bc:    e009        ..      B        0x100041d2 ; __aeabi_uidiv + 34
        0x100041be:    460d        .F      MOV      r5,r1
        0x100041c0:    40d5        .@      LSRS     r5,r5,r2
        0x100041c2:    429d        .B      CMP      r5,r3
        0x100041c4:    d305        ..      BCC      0x100041d2 ; __aeabi_uidiv + 34
        0x100041c6:    461d        .F      MOV      r5,r3
        0x100041c8:    4095        .@      LSLS     r5,r5,r2
        0x100041ca:    1b49        I.      SUBS     r1,r1,r5
        0x100041cc:    4625        %F      MOV      r5,r4
        0x100041ce:    4095        .@      LSLS     r5,r5,r2
        0x100041d0:    1940        @.      ADDS     r0,r0,r5
        0x100041d2:    4615        .F      MOV      r5,r2
        0x100041d4:    1e52        R.      SUBS     r2,r2,#1
        0x100041d6:    2d00        .-      CMP      r5,#0
        0x100041d8:    dcf1        ..      BGT      0x100041be ; __aeabi_uidiv + 14
        0x100041da:    bd30        0.      POP      {r4,r5,pc}
    .text
    __aeabi_idiv
    __aeabi_idivmod
        0x100041dc:    b570        p.      PUSH     {r4-r6,lr}
        0x100041de:    2400        .$      MOVS     r4,#0
        0x100041e0:    4625        %F      MOV      r5,r4
        0x100041e2:    2800        .(      CMP      r0,#0
        0x100041e4:    da01        ..      BGE      0x100041ea ; __aeabi_idiv + 14
        0x100041e6:    2401        .$      MOVS     r4,#1
        0x100041e8:    4240        @B      RSBS     r0,r0,#0
        0x100041ea:    2900        .)      CMP      r1,#0
        0x100041ec:    da01        ..      BGE      0x100041f2 ; __aeabi_idiv + 22
        0x100041ee:    2501        .%      MOVS     r5,#1
        0x100041f0:    4249        IB      RSBS     r1,r1,#0
        0x100041f2:    f7ffffdd    ....    BL       __aeabi_uidiv ; 0x100041b0
        0x100041f6:    42ac        .B      CMP      r4,r5
        0x100041f8:    d000        ..      BEQ      0x100041fc ; __aeabi_idiv + 32
        0x100041fa:    4240        @B      RSBS     r0,r0,#0
        0x100041fc:    2c00        .,      CMP      r4,#0
        0x100041fe:    d000        ..      BEQ      0x10004202 ; __aeabi_idiv + 38
        0x10004200:    4249        IB      RSBS     r1,r1,#0
        0x10004202:    bd70        p.      POP      {r4-r6,pc}
    .text
    __aeabi_memcpy
    __aeabi_memcpy4
    __aeabi_memcpy8
        0x10004204:    4603        .F      MOV      r3,r0
        0x10004206:    430b        .C      ORRS     r3,r3,r1
        0x10004208:    079b        ..      LSLS     r3,r3,#30
        0x1000420a:    d003        ..      BEQ      0x10004214 ; __aeabi_memcpy + 16
        0x1000420c:    e009        ..      B        0x10004222 ; __aeabi_memcpy + 30
        0x1000420e:    c908        ..      LDM      r1!,{r3}
        0x10004210:    1f12        ..      SUBS     r2,r2,#4
        0x10004212:    c008        ..      STM      r0!,{r3}
        0x10004214:    2a04        .*      CMP      r2,#4
        0x10004216:    d2fa        ..      BCS      0x1000420e ; __aeabi_memcpy + 10
        0x10004218:    e003        ..      B        0x10004222 ; __aeabi_memcpy + 30
        0x1000421a:    780b        .x      LDRB     r3,[r1,#0]
        0x1000421c:    7003        .p      STRB     r3,[r0,#0]
        0x1000421e:    1c40        @.      ADDS     r0,r0,#1
        0x10004220:    1c49        I.      ADDS     r1,r1,#1
        0x10004222:    1e52        R.      SUBS     r2,r2,#1
        0x10004224:    d2f9        ..      BCS      0x1000421a ; __aeabi_memcpy + 22
        0x10004226:    4770        pG      BX       lr
    .text
    __aeabi_memset
    __aeabi_memset4
    __aeabi_memset8
        0x10004228:    b2d2        ..      UXTB     r2,r2
        0x1000422a:    e001        ..      B        0x10004230 ; __aeabi_memset + 8
        0x1000422c:    7002        .p      STRB     r2,[r0,#0]
        0x1000422e:    1c40        @.      ADDS     r0,r0,#1
        0x10004230:    1e49        I.      SUBS     r1,r1,#1
        0x10004232:    d2fb        ..      BCS      0x1000422c ; __aeabi_memset + 4
        0x10004234:    4770        pG      BX       lr
    __aeabi_memclr
    __aeabi_memclr4
    __aeabi_memclr8
        0x10004236:    2200        ."      MOVS     r2,#0
        0x10004238:    e7f6        ..      B        __aeabi_memset ; 0x10004228
    _memset$wrapper
        0x1000423a:    b510        ..      PUSH     {r4,lr}
        0x1000423c:    4613        .F      MOV      r3,r2
        0x1000423e:    460a        .F      MOV      r2,r1
        0x10004240:    4604        .F      MOV      r4,r0
        0x10004242:    4619        .F      MOV      r1,r3
        0x10004244:    f7fffff0    ....    BL       __aeabi_memset ; 0x10004228
        0x10004248:    4620         F      MOV      r0,r4
        0x1000424a:    bd10        ..      POP      {r4,pc}
    .text
    strcpy
        0x1000424c:    4603        .F      MOV      r3,r0
        0x1000424e:    780a        .x      LDRB     r2,[r1,#0]
        0x10004250:    7002        .p      STRB     r2,[r0,#0]
        0x10004252:    1c40        @.      ADDS     r0,r0,#1
        0x10004254:    1c49        I.      ADDS     r1,r1,#1
        0x10004256:    2a00        .*      CMP      r2,#0
        0x10004258:    d1f9        ..      BNE      0x1000424e ; strcpy + 2
        0x1000425a:    4618        .F      MOV      r0,r3
        0x1000425c:    4770        pG      BX       lr
    .text
    __aeabi_uread4
    __rt_uread4
    _uread4
        0x1000425e:    2103        .!      MOVS     r1,#3
        0x10004260:    1d00        ..      ADDS     r0,r0,#4
        0x10004262:    1e40        @.      SUBS     r0,r0,#1
        0x10004264:    7803        .x      LDRB     r3,[r0,#0]
        0x10004266:    0212        ..      LSLS     r2,r2,#8
        0x10004268:    431a        .C      ORRS     r2,r2,r3
        0x1000426a:    1e49        I.      SUBS     r1,r1,#1
        0x1000426c:    d5f9        ..      BPL      0x10004262 ; __aeabi_uread4 + 4
        0x1000426e:    4610        .F      MOV      r0,r2
        0x10004270:    4770        pG      BX       lr
    .text
    __aeabi_uwrite4
    __rt_uwrite4
    _uwrite4
        0x10004272:    4603        .F      MOV      r3,r0
        0x10004274:    2203        ."      MOVS     r2,#3
        0x10004276:    7008        .p      STRB     r0,[r1,#0]
        0x10004278:    0a00        ..      LSRS     r0,r0,#8
        0x1000427a:    1c49        I.      ADDS     r1,r1,#1
        0x1000427c:    1e52        R.      SUBS     r2,r2,#1
        0x1000427e:    d5fa        ..      BPL      0x10004276 ; __aeabi_uwrite4 + 4
        0x10004280:    4618        .F      MOV      r0,r3
        0x10004282:    4770        pG      BX       lr
    .text
    __aeabi_fadd
        0x10004284:    b5f8        ..      PUSH     {r3-r7,lr}
        0x10004286:    4602        .F      MOV      r2,r0
        0x10004288:    404a        J@      EORS     r2,r2,r1
        0x1000428a:    0fd4        ..      LSRS     r4,r2,#31
        0x1000428c:    0042        B.      LSLS     r2,r0,#1
        0x1000428e:    004b        K.      LSLS     r3,r1,#1
        0x10004290:    0852        R.      LSRS     r2,r2,#1
        0x10004292:    085b        [.      LSRS     r3,r3,#1
        0x10004294:    429a        .B      CMP      r2,r3
        0x10004296:    d202        ..      BCS      0x1000429e ; __aeabi_fadd + 26
        0x10004298:    4602        .F      MOV      r2,r0
        0x1000429a:    4608        .F      MOV      r0,r1
        0x1000429c:    4611        .F      MOV      r1,r2
        0x1000429e:    004a        J.      LSLS     r2,r1,#1
        0x100042a0:    d023        #.      BEQ      0x100042ea ; __aeabi_fadd + 102
        0x100042a2:    0dc3        ..      LSRS     r3,r0,#23
        0x100042a4:    004a        J.      LSLS     r2,r1,#1
        0x100042a6:    b2dd        ..      UXTB     r5,r3
        0x100042a8:    0e12        ..      LSRS     r2,r2,#24
        0x100042aa:    1aad        ..      SUBS     r5,r5,r2
        0x100042ac:    2d20         -      CMP      r5,#0x20
        0x100042ae:    da35        5.      BGE      0x1000431c ; __aeabi_fadd + 152
        0x100042b0:    0249        I.      LSLS     r1,r1,#9
        0x100042b2:    2601        .&      MOVS     r6,#1
        0x100042b4:    0a49        I.      LSRS     r1,r1,#9
        0x100042b6:    05f6        ..      LSLS     r6,r6,#23
        0x100042b8:    198a        ..      ADDS     r2,r1,r6
        0x100042ba:    2c00        .,      CMP      r4,#0
        0x100042bc:    d000        ..      BEQ      0x100042c0 ; __aeabi_fadd + 60
        0x100042be:    4252        RB      RSBS     r2,r2,#0
        0x100042c0:    2120         !      MOVS     r1,#0x20
        0x100042c2:    1b4f        O.      SUBS     r7,r1,r5
        0x100042c4:    4611        .F      MOV      r1,r2
        0x100042c6:    40b9        .@      LSLS     r1,r1,r7
        0x100042c8:    412a        *A      ASRS     r2,r2,r5
        0x100042ca:    1810        ..      ADDS     r0,r2,r0
        0x100042cc:    0dc2        ..      LSRS     r2,r0,#23
        0x100042ce:    429a        .B      CMP      r2,r3
        0x100042d0:    d021        !.      BEQ      0x10004316 ; __aeabi_fadd + 146
        0x100042d2:    2c00        .,      CMP      r4,#0
        0x100042d4:    d017        ..      BEQ      0x10004306 ; __aeabi_fadd + 130
        0x100042d6:    2d01        .-      CMP      r5,#1
        0x100042d8:    dc08        ..      BGT      0x100042ec ; __aeabi_fadd + 104
        0x100042da:    05da        ..      LSLS     r2,r3,#23
        0x100042dc:    1a80        ..      SUBS     r0,r0,r2
        0x100042de:    0fd2        ..      LSRS     r2,r2,#31
        0x100042e0:    1980        ..      ADDS     r0,r0,r6
        0x100042e2:    07d2        ..      LSLS     r2,r2,#31
        0x100042e4:    b2db        ..      UXTB     r3,r3
        0x100042e6:    f000fa51    ..Q.    BL       _float_epilogue ; 0x1000478c
        0x100042ea:    bdf8        ..      POP      {r3-r7,pc}
        0x100042ec:    05da        ..      LSLS     r2,r3,#23
        0x100042ee:    1a80        ..      SUBS     r0,r0,r2
        0x100042f0:    2301        .#      MOVS     r3,#1
        0x100042f2:    0040        @.      LSLS     r0,r0,#1
        0x100042f4:    061b        ..      LSLS     r3,r3,#24
        0x100042f6:    18c0        ..      ADDS     r0,r0,r3
        0x100042f8:    1880        ..      ADDS     r0,r0,r2
        0x100042fa:    425a        ZB      RSBS     r2,r3,#0
        0x100042fc:    1880        ..      ADDS     r0,r0,r2
        0x100042fe:    0fca        ..      LSRS     r2,r1,#31
        0x10004300:    4310        .C      ORRS     r0,r0,r2
        0x10004302:    0049        I.      LSLS     r1,r1,#1
        0x10004304:    e007        ..      B        0x10004316 ; __aeabi_fadd + 146
        0x10004306:    0849        I.      LSRS     r1,r1,#1
        0x10004308:    07c2        ..      LSLS     r2,r0,#31
        0x1000430a:    4311        .C      ORRS     r1,r1,r2
        0x1000430c:    05da        ..      LSLS     r2,r3,#23
        0x1000430e:    1a80        ..      SUBS     r0,r0,r2
        0x10004310:    1980        ..      ADDS     r0,r0,r6
        0x10004312:    0840        @.      LSRS     r0,r0,#1
        0x10004314:    1880        ..      ADDS     r0,r0,r2
        0x10004316:    f000fa31    ..1.    BL       __I$use$fp ; 0x1000477c
        0x1000431a:    bdf8        ..      POP      {r3-r7,pc}
        0x1000431c:    0061        a.      LSLS     r1,r4,#1
        0x1000431e:    2201        ."      MOVS     r2,#1
        0x10004320:    1a51        Q.      SUBS     r1,r2,r1
        0x10004322:    1b00        ..      SUBS     r0,r0,r4
        0x10004324:    e7f7        ..      B        0x10004316 ; __aeabi_fadd + 146
    __aeabi_fsub
        0x10004326:    2201        ."      MOVS     r2,#1
        0x10004328:    07d2        ..      LSLS     r2,r2,#31
        0x1000432a:    4051        Q@      EORS     r1,r1,r2
        0x1000432c:    e7aa        ..      B        __aeabi_fadd ; 0x10004284
    __aeabi_frsub
        0x1000432e:    2201        ."      MOVS     r2,#1
        0x10004330:    07d2        ..      LSLS     r2,r2,#31
        0x10004332:    4050        P@      EORS     r0,r0,r2
        0x10004334:    e7a6        ..      B        __aeabi_fadd ; 0x10004284
        0x10004336:    0000        ..      MOVS     r0,r0
    .text
    __aeabi_dadd
        0x10004338:    b5f0        ..      PUSH     {r4-r7,lr}
        0x1000433a:    4607        .F      MOV      r7,r0
        0x1000433c:    4608        .F      MOV      r0,r1
        0x1000433e:    4058        X@      EORS     r0,r0,r3
        0x10004340:    b087        ..      SUB      sp,sp,#0x1c
        0x10004342:    0fc0        ..      LSRS     r0,r0,#31
        0x10004344:    9004        ..      STR      r0,[sp,#0x10]
        0x10004346:    0048        H.      LSLS     r0,r1,#1
        0x10004348:    460e        .F      MOV      r6,r1
        0x1000434a:    0059        Y.      LSLS     r1,r3,#1
        0x1000434c:    0840        @.      LSRS     r0,r0,#1
        0x1000434e:    0849        I.      LSRS     r1,r1,#1
        0x10004350:    1abc        ..      SUBS     r4,r7,r2
        0x10004352:    4188        .A      SBCS     r0,r0,r1
        0x10004354:    d205        ..      BCS      0x10004362 ; __aeabi_dadd + 42
        0x10004356:    4638        8F      MOV      r0,r7
        0x10004358:    4631        1F      MOV      r1,r6
        0x1000435a:    461e        .F      MOV      r6,r3
        0x1000435c:    4617        .F      MOV      r7,r2
        0x1000435e:    460b        .F      MOV      r3,r1
        0x10004360:    4602        .F      MOV      r2,r0
        0x10004362:    0058        X.      LSLS     r0,r3,#1
        0x10004364:    0840        @.      LSRS     r0,r0,#1
        0x10004366:    4310        .C      ORRS     r0,r0,r2
        0x10004368:    d04c        L.      BEQ      0x10004404 ; __aeabi_dadd + 204
        0x1000436a:    0d30        0.      LSRS     r0,r6,#20
        0x1000436c:    9003        ..      STR      r0,[sp,#0xc]
        0x1000436e:    0540        @.      LSLS     r0,r0,#21
        0x10004370:    0059        Y.      LSLS     r1,r3,#1
        0x10004372:    0d40        @.      LSRS     r0,r0,#21
        0x10004374:    0d49        I.      LSRS     r1,r1,#21
        0x10004376:    9005        ..      STR      r0,[sp,#0x14]
        0x10004378:    1a40        @.      SUBS     r0,r0,r1
        0x1000437a:    9002        ..      STR      r0,[sp,#8]
        0x1000437c:    2840        @(      CMP      r0,#0x40
        0x1000437e:    da72        r.      BGE      0x10004466 ; __aeabi_dadd + 302
        0x10004380:    0318        ..      LSLS     r0,r3,#12
        0x10004382:    2101        .!      MOVS     r1,#1
        0x10004384:    0b00        ..      LSRS     r0,r0,#12
        0x10004386:    0509        ..      LSLS     r1,r1,#20
        0x10004388:    4308        .C      ORRS     r0,r0,r1
        0x1000438a:    9001        ..      STR      r0,[sp,#4]
        0x1000438c:    9804        ..      LDR      r0,[sp,#0x10]
        0x1000438e:    9200        ..      STR      r2,[sp,#0]
        0x10004390:    2800        .(      CMP      r0,#0
        0x10004392:    d005        ..      BEQ      0x100043a0 ; __aeabi_dadd + 104
        0x10004394:    9901        ..      LDR      r1,[sp,#4]
        0x10004396:    4252        RB      RSBS     r2,r2,#0
        0x10004398:    2000        .       MOVS     r0,#0
        0x1000439a:    4188        .A      SBCS     r0,r0,r1
        0x1000439c:    9200        ..      STR      r2,[sp,#0]
        0x1000439e:    9001        ..      STR      r0,[sp,#4]
        0x100043a0:    9802        ..      LDR      r0,[sp,#8]
        0x100043a2:    2140        @!      MOVS     r1,#0x40
        0x100043a4:    1a0a        ..      SUBS     r2,r1,r0
        0x100043a6:    9901        ..      LDR      r1,[sp,#4]
        0x100043a8:    9800        ..      LDR      r0,[sp,#0]
        0x100043aa:    f000f9b3    ....    BL       __aeabi_llsl ; 0x10004714
        0x100043ae:    4605        .F      MOV      r5,r0
        0x100043b0:    460c        .F      MOV      r4,r1
        0x100043b2:    466b        kF      MOV      r3,sp
        0x100043b4:    cb07        ..      LDM      r3!,{r0-r2}
        0x100043b6:    f000f9ce    ....    BL       __aeabi_lasr ; 0x10004756
        0x100043ba:    19c0        ..      ADDS     r0,r0,r7
        0x100043bc:    4171        qA      ADCS     r1,r1,r6
        0x100043be:    9a03        ..      LDR      r2,[sp,#0xc]
        0x100043c0:    0d0e        ..      LSRS     r6,r1,#20
        0x100043c2:    2300        .#      MOVS     r3,#0
        0x100043c4:    17d7        ..      ASRS     r7,r2,#31
        0x100043c6:    4056        V@      EORS     r6,r6,r2
        0x100043c8:    461a        .F      MOV      r2,r3
        0x100043ca:    407a        z@      EORS     r2,r2,r7
        0x100043cc:    4316        .C      ORRS     r6,r6,r2
        0x100043ce:    d044        D.      BEQ      0x1000445a ; __aeabi_dadd + 290
        0x100043d0:    9a04        ..      LDR      r2,[sp,#0x10]
        0x100043d2:    2a00        .*      CMP      r2,#0
        0x100043d4:    d02d        -.      BEQ      0x10004432 ; __aeabi_dadd + 250
        0x100043d6:    9a02        ..      LDR      r2,[sp,#8]
        0x100043d8:    2a01        .*      CMP      r2,#1
        0x100043da:    9a03        ..      LDR      r2,[sp,#0xc]
        0x100043dc:    dc15        ..      BGT      0x1000440a ; __aeabi_dadd + 210
        0x100043de:    0512        ..      LSLS     r2,r2,#20
        0x100043e0:    1ac0        ..      SUBS     r0,r0,r3
        0x100043e2:    4191        .A      SBCS     r1,r1,r2
        0x100043e4:    2601        .&      MOVS     r6,#1
        0x100043e6:    0536        6.      LSLS     r6,r6,#20
        0x100043e8:    1c00        ..      ADDS     r0,r0,#0
        0x100043ea:    4171        qA      ADCS     r1,r1,r6
        0x100043ec:    0fd2        ..      LSRS     r2,r2,#31
        0x100043ee:    9e05        ..      LDR      r6,[sp,#0x14]
        0x100043f0:    07d2        ..      LSLS     r2,r2,#31
        0x100043f2:    9300        ..      STR      r3,[sp,#0]
        0x100043f4:    9201        ..      STR      r2,[sp,#4]
        0x100043f6:    9602        ..      STR      r6,[sp,#8]
        0x100043f8:    462a        *F      MOV      r2,r5
        0x100043fa:    4623        #F      MOV      r3,r4
        0x100043fc:    f000fa0c    ....    BL       _double_epilogue ; 0x10004818
        0x10004400:    b007        ..      ADD      sp,sp,#0x1c
        0x10004402:    bdf0        ..      POP      {r4-r7,pc}
        0x10004404:    4638        8F      MOV      r0,r7
        0x10004406:    4631        1F      MOV      r1,r6
        0x10004408:    e7fa        ..      B        0x10004400 ; __aeabi_dadd + 200
        0x1000440a:    0516        ..      LSLS     r6,r2,#20
        0x1000440c:    4a22        "J      LDR      r2,[pc,#136] ; [0x10004498] = 0xffe00000
        0x1000440e:    460f        .F      MOV      r7,r1
        0x10004410:    18b2        ..      ADDS     r2,r6,r2
        0x10004412:    1ac0        ..      SUBS     r0,r0,r3
        0x10004414:    41b7        .A      SBCS     r7,r7,r6
        0x10004416:    2101        .!      MOVS     r1,#1
        0x10004418:    0509        ..      LSLS     r1,r1,#20
        0x1000441a:    1c00        ..      ADDS     r0,r0,#0
        0x1000441c:    414f        OA      ADCS     r7,r7,r1
        0x1000441e:    1800        ..      ADDS     r0,r0,r0
        0x10004420:    417f        .A      ADCS     r7,r7,r7
        0x10004422:    4611        .F      MOV      r1,r2
        0x10004424:    1818        ..      ADDS     r0,r3,r0
        0x10004426:    4179        yA      ADCS     r1,r1,r7
        0x10004428:    0fe2        ..      LSRS     r2,r4,#31
        0x1000442a:    4310        .C      ORRS     r0,r0,r2
        0x1000442c:    196d        m.      ADDS     r5,r5,r5
        0x1000442e:    4164        dA      ADCS     r4,r4,r4
        0x10004430:    e013        ..      B        0x1000445a ; __aeabi_dadd + 290
        0x10004432:    07e2        ..      LSLS     r2,r4,#31
        0x10004434:    086d        m.      LSRS     r5,r5,#1
        0x10004436:    4315        .C      ORRS     r5,r5,r2
        0x10004438:    0864        d.      LSRS     r4,r4,#1
        0x1000443a:    07c2        ..      LSLS     r2,r0,#31
        0x1000443c:    4314        .C      ORRS     r4,r4,r2
        0x1000443e:    9a03        ..      LDR      r2,[sp,#0xc]
        0x10004440:    2601        .&      MOVS     r6,#1
        0x10004442:    0512        ..      LSLS     r2,r2,#20
        0x10004444:    1ac0        ..      SUBS     r0,r0,r3
        0x10004446:    4191        .A      SBCS     r1,r1,r2
        0x10004448:    0536        6.      LSLS     r6,r6,#20
        0x1000444a:    1c00        ..      ADDS     r0,r0,#0
        0x1000444c:    4171        qA      ADCS     r1,r1,r6
        0x1000444e:    07ce        ..      LSLS     r6,r1,#31
        0x10004450:    0840        @.      LSRS     r0,r0,#1
        0x10004452:    4330        0C      ORRS     r0,r0,r6
        0x10004454:    0849        I.      LSRS     r1,r1,#1
        0x10004456:    18c0        ..      ADDS     r0,r0,r3
        0x10004458:    4151        QA      ADCS     r1,r1,r2
        0x1000445a:    462a        *F      MOV      r2,r5
        0x1000445c:    4623        #F      MOV      r3,r4
        0x1000445e:    f000f9ce    ....    BL       _double_round ; 0x100047fe
        0x10004462:    e7cd        ..      B        0x10004400 ; __aeabi_dadd + 200
        0x10004464:    e7ff        ..      B        0x10004466 ; __aeabi_dadd + 302
        0x10004466:    9804        ..      LDR      r0,[sp,#0x10]
        0x10004468:    2201        ."      MOVS     r2,#1
        0x1000446a:    0040        @.      LSLS     r0,r0,#1
        0x1000446c:    17c1        ..      ASRS     r1,r0,#31
        0x1000446e:    1a12        ..      SUBS     r2,r2,r0
        0x10004470:    2300        .#      MOVS     r3,#0
        0x10004472:    418b        .A      SBCS     r3,r3,r1
        0x10004474:    9804        ..      LDR      r0,[sp,#0x10]
        0x10004476:    4631        1F      MOV      r1,r6
        0x10004478:    17c4        ..      ASRS     r4,r0,#31
        0x1000447a:    1a38        8.      SUBS     r0,r7,r0
        0x1000447c:    41a1        .A      SBCS     r1,r1,r4
        0x1000447e:    e7ee        ..      B        0x1000445e ; __aeabi_dadd + 294
    __aeabi_dsub
        0x10004480:    b430        0.      PUSH     {r4,r5}
        0x10004482:    2401        .$      MOVS     r4,#1
        0x10004484:    07e4        ..      LSLS     r4,r4,#31
        0x10004486:    4063        c@      EORS     r3,r3,r4
        0x10004488:    bc30        0.      POP      {r4,r5}
        0x1000448a:    e755        U.      B        __aeabi_dadd ; 0x10004338
    __aeabi_drsub
        0x1000448c:    b430        0.      PUSH     {r4,r5}
        0x1000448e:    2401        .$      MOVS     r4,#1
        0x10004490:    07e4        ..      LSLS     r4,r4,#31
        0x10004492:    4061        a@      EORS     r1,r1,r4
        0x10004494:    bc30        0.      POP      {r4,r5}
        0x10004496:    e74f        O.      B        __aeabi_dadd ; 0x10004338
    $d
        0x10004498:    ffe00000    ....    DCD    4292870144
    $t
    .text
    __aeabi_dmul
        0x1000449c:    b5f0        ..      PUSH     {r4-r7,lr}
        0x1000449e:    b41f        ..      PUSH     {r0-r4}
        0x100044a0:    b088        ..      SUB      sp,sp,#0x20
        0x100044a2:    990b        ..      LDR      r1,[sp,#0x2c]
        0x100044a4:    9809        ..      LDR      r0,[sp,#0x24]
        0x100044a6:    2400        .$      MOVS     r4,#0
        0x100044a8:    4048        H@      EORS     r0,r0,r1
        0x100044aa:    9909        ..      LDR      r1,[sp,#0x24]
        0x100044ac:    0fc0        ..      LSRS     r0,r0,#31
        0x100044ae:    0049        I.      LSLS     r1,r1,#1
        0x100044b0:    0849        I.      LSRS     r1,r1,#1
        0x100044b2:    9109        ..      STR      r1,[sp,#0x24]
        0x100044b4:    07c0        ..      LSLS     r0,r0,#31
        0x100044b6:    990b        ..      LDR      r1,[sp,#0x2c]
        0x100044b8:    9000        ..      STR      r0,[sp,#0]
        0x100044ba:    0049        I.      LSLS     r1,r1,#1
        0x100044bc:    0849        I.      LSRS     r1,r1,#1
        0x100044be:    910b        ..      STR      r1,[sp,#0x2c]
        0x100044c0:    9909        ..      LDR      r1,[sp,#0x24]
        0x100044c2:    9808        ..      LDR      r0,[sp,#0x20]
        0x100044c4:    46a6        .F      MOV      lr,r4
        0x100044c6:    4308        .C      ORRS     r0,r0,r1
        0x100044c8:    d01c        ..      BEQ      0x10004504 ; __aeabi_dmul + 104
        0x100044ca:    990b        ..      LDR      r1,[sp,#0x2c]
        0x100044cc:    980a        ..      LDR      r0,[sp,#0x28]
        0x100044ce:    4308        .C      ORRS     r0,r0,r1
        0x100044d0:    d018        ..      BEQ      0x10004504 ; __aeabi_dmul + 104
        0x100044d2:    9809        ..      LDR      r0,[sp,#0x24]
        0x100044d4:    2401        .$      MOVS     r4,#1
        0x100044d6:    0040        @.      LSLS     r0,r0,#1
        0x100044d8:    0d42        B.      LSRS     r2,r0,#21
        0x100044da:    0048        H.      LSLS     r0,r1,#1
        0x100044dc:    0d41        A.      LSRS     r1,r0,#21
        0x100044de:    9809        ..      LDR      r0,[sp,#0x24]
        0x100044e0:    0524        $.      LSLS     r4,r4,#20
        0x100044e2:    0300        ..      LSLS     r0,r0,#12
        0x100044e4:    0b00        ..      LSRS     r0,r0,#12
        0x100044e6:    4320         C      ORRS     r0,r0,r4
        0x100044e8:    9009        ..      STR      r0,[sp,#0x24]
        0x100044ea:    980b        ..      LDR      r0,[sp,#0x2c]
        0x100044ec:    0300        ..      LSLS     r0,r0,#12
        0x100044ee:    0b00        ..      LSRS     r0,r0,#12
        0x100044f0:    4320         C      ORRS     r0,r0,r4
        0x100044f2:    900b        ..      STR      r0,[sp,#0x2c]
        0x100044f4:    1850        P.      ADDS     r0,r2,r1
        0x100044f6:    491c        .I      LDR      r1,[pc,#112] ; [0x10004568] = 0xfffffc0d
        0x100044f8:    1840        @.      ADDS     r0,r0,r1
        0x100044fa:    2200        ."      MOVS     r2,#0
        0x100044fc:    9001        ..      STR      r0,[sp,#4]
        0x100044fe:    4614        .F      MOV      r4,r2
        0x10004500:    4610        .F      MOV      r0,r2
        0x10004502:    e005        ..      B        0x10004510 ; __aeabi_dmul + 116
        0x10004504:    2000        .       MOVS     r0,#0
        0x10004506:    4601        .F      MOV      r1,r0
        0x10004508:    b00d        ..      ADD      sp,sp,#0x34
        0x1000450a:    bdf0        ..      POP      {r4-r7,pc}
        0x1000450c:    2803        .(      CMP      r0,#3
        0x1000450e:    da01        ..      BGE      0x10004514 ; __aeabi_dmul + 120
        0x10004510:    4603        .F      MOV      r3,r0
        0x10004512:    e000        ..      B        0x10004516 ; __aeabi_dmul + 122
        0x10004514:    2303        .#      MOVS     r3,#3
        0x10004516:    469c        .F      MOV      r12,r3
        0x10004518:    1ac1        ..      SUBS     r1,r0,r3
        0x1000451a:    ae0a        ..      ADD      r6,sp,#0x28
        0x1000451c:    e00a        ..      B        0x10004534 ; __aeabi_dmul + 152
        0x1000451e:    005f        _.      LSLS     r7,r3,#1
        0x10004520:    ad08        ..      ADD      r5,sp,#0x20
        0x10004522:    5bed        .[      LDRH     r5,[r5,r7]
        0x10004524:    004f        O.      LSLS     r7,r1,#1
        0x10004526:    5bf7        .[      LDRH     r7,[r6,r7]
        0x10004528:    437d        }C      MULS     r5,r7,r5
        0x1000452a:    2700        .'      MOVS     r7,#0
        0x1000452c:    18aa        ..      ADDS     r2,r5,r2
        0x1000452e:    417c        |A      ADCS     r4,r4,r7
        0x10004530:    1c49        I.      ADDS     r1,r1,#1
        0x10004532:    1e5b        [.      SUBS     r3,r3,#1
        0x10004534:    4561        aE      CMP      r1,r12
        0x10004536:    ddf2        ..      BLE      0x1000451e ; __aeabi_dmul + 130
        0x10004538:    0041        A.      LSLS     r1,r0,#1
        0x1000453a:    ab04        ..      ADD      r3,sp,#0x10
        0x1000453c:    525a        ZR      STRH     r2,[r3,r1]
        0x1000453e:    0421        !.      LSLS     r1,r4,#16
        0x10004540:    0c12        ..      LSRS     r2,r2,#16
        0x10004542:    430a        .C      ORRS     r2,r2,r1
        0x10004544:    0c24        $.      LSRS     r4,r4,#16
        0x10004546:    1c40        @.      ADDS     r0,r0,#1
        0x10004548:    2808        .(      CMP      r0,#8
        0x1000454a:    dbdf        ..      BLT      0x1000450c ; __aeabi_dmul + 112
        0x1000454c:    9801        ..      LDR      r0,[sp,#4]
        0x1000454e:    9002        ..      STR      r0,[sp,#8]
        0x10004550:    9900        ..      LDR      r1,[sp,#0]
        0x10004552:    4670        pF      MOV      r0,lr
        0x10004554:    9101        ..      STR      r1,[sp,#4]
        0x10004556:    9000        ..      STR      r0,[sp,#0]
        0x10004558:    9b05        ..      LDR      r3,[sp,#0x14]
        0x1000455a:    9a04        ..      LDR      r2,[sp,#0x10]
        0x1000455c:    9907        ..      LDR      r1,[sp,#0x1c]
        0x1000455e:    9806        ..      LDR      r0,[sp,#0x18]
        0x10004560:    f000f95a    ..Z.    BL       _double_epilogue ; 0x10004818
        0x10004564:    e7d0        ..      B        0x10004508 ; __aeabi_dmul + 108
    $d
        0x10004566:    0000        ..      DCW    0
        0x10004568:    fffffc0d    ....    DCD    4294966285
    $t
    .text
    __aeabi_ddiv
        0x1000456c:    b5f0        ..      PUSH     {r4-r7,lr}
        0x1000456e:    460c        .F      MOV      r4,r1
        0x10004570:    405c        \@      EORS     r4,r4,r3
        0x10004572:    b085        ..      SUB      sp,sp,#0x14
        0x10004574:    0fe4        ..      LSRS     r4,r4,#31
        0x10004576:    07e4        ..      LSLS     r4,r4,#31
        0x10004578:    9403        ..      STR      r4,[sp,#0xc]
        0x1000457a:    004c        L.      LSLS     r4,r1,#1
        0x1000457c:    2600        .&      MOVS     r6,#0
        0x1000457e:    0864        d.      LSRS     r4,r4,#1
        0x10004580:    0059        Y.      LSLS     r1,r3,#1
        0x10004582:    4694        .F      MOV      r12,r2
        0x10004584:    0849        I.      LSRS     r1,r1,#1
        0x10004586:    4602        .F      MOV      r2,r0
        0x10004588:    9602        ..      STR      r6,[sp,#8]
        0x1000458a:    4322        "C      ORRS     r2,r2,r4
        0x1000458c:    d021        !.      BEQ      0x100045d2 ; __aeabi_ddiv + 102
        0x1000458e:    4662        bF      MOV      r2,r12
        0x10004590:    430a        .C      ORRS     r2,r2,r1
        0x10004592:    d01e        ..      BEQ      0x100045d2 ; __aeabi_ddiv + 102
        0x10004594:    0062        b.      LSLS     r2,r4,#1
        0x10004596:    0d57        W.      LSRS     r7,r2,#21
        0x10004598:    004a        J.      LSLS     r2,r1,#1
        0x1000459a:    030e        ..      LSLS     r6,r1,#12
        0x1000459c:    0323        #.      LSLS     r3,r4,#12
        0x1000459e:    0d55        U.      LSRS     r5,r2,#21
        0x100045a0:    2401        .$      MOVS     r4,#1
        0x100045a2:    4602        .F      MOV      r2,r0
        0x100045a4:    492c        ,I      LDR      r1,[pc,#176] ; [0x10004658] = 0x3fd
        0x100045a6:    0524        $.      LSLS     r4,r4,#20
        0x100045a8:    1b78        x.      SUBS     r0,r7,r5
        0x100045aa:    0b1b        ..      LSRS     r3,r3,#12
        0x100045ac:    0b36        6.      LSRS     r6,r6,#12
        0x100045ae:    1840        @.      ADDS     r0,r0,r1
        0x100045b0:    4323        #C      ORRS     r3,r3,r4
        0x100045b2:    4326        &C      ORRS     r6,r6,r4
        0x100045b4:    4661        aF      MOV      r1,r12
        0x100045b6:    9000        ..      STR      r0,[sp,#0]
        0x100045b8:    461c        .F      MOV      r4,r3
        0x100045ba:    1a50        P.      SUBS     r0,r2,r1
        0x100045bc:    41b4        .A      SBCS     r4,r4,r6
        0x100045be:    d303        ..      BCC      0x100045c8 ; __aeabi_ddiv + 92
        0x100045c0:    9800        ..      LDR      r0,[sp,#0]
        0x100045c2:    1c40        @.      ADDS     r0,r0,#1
        0x100045c4:    9000        ..      STR      r0,[sp,#0]
        0x100045c6:    e002        ..      B        0x100045ce ; __aeabi_ddiv + 98
        0x100045c8:    1892        ..      ADDS     r2,r2,r2
        0x100045ca:    9800        ..      LDR      r0,[sp,#0]
        0x100045cc:    415b        [A      ADCS     r3,r3,r3
        0x100045ce:    2800        .(      CMP      r0,#0
        0x100045d0:    da03        ..      BGE      0x100045da ; __aeabi_ddiv + 110
        0x100045d2:    2000        .       MOVS     r0,#0
        0x100045d4:    4601        .F      MOV      r1,r0
        0x100045d6:    b005        ..      ADD      sp,sp,#0x14
        0x100045d8:    bdf0        ..      POP      {r4-r7,pc}
        0x100045da:    2000        .       MOVS     r0,#0
        0x100045dc:    2101        .!      MOVS     r1,#1
        0x100045de:    0509        ..      LSLS     r1,r1,#20
        0x100045e0:    4607        .F      MOV      r7,r0
        0x100045e2:    4686        .F      MOV      lr,r0
        0x100045e4:    e011        ..      B        0x1000460a ; __aeabi_ddiv + 158
        0x100045e6:    4664        dF      MOV      r4,r12
        0x100045e8:    461d        .F      MOV      r5,r3
        0x100045ea:    1b14        ..      SUBS     r4,r2,r4
        0x100045ec:    41b5        .A      SBCS     r5,r5,r6
        0x100045ee:    d306        ..      BCC      0x100045fe ; __aeabi_ddiv + 146
        0x100045f0:    4665        eF      MOV      r5,r12
        0x100045f2:    1b52        R.      SUBS     r2,r2,r5
        0x100045f4:    41b3        .A      SBCS     r3,r3,r6
        0x100045f6:    4674        tF      MOV      r4,lr
        0x100045f8:    4307        .C      ORRS     r7,r7,r0
        0x100045fa:    430c        .C      ORRS     r4,r4,r1
        0x100045fc:    46a6        .F      MOV      lr,r4
        0x100045fe:    07cd        ..      LSLS     r5,r1,#31
        0x10004600:    0840        @.      LSRS     r0,r0,#1
        0x10004602:    0849        I.      LSRS     r1,r1,#1
        0x10004604:    4328        (C      ORRS     r0,r0,r5
        0x10004606:    1892        ..      ADDS     r2,r2,r2
        0x10004608:    415b        [A      ADCS     r3,r3,r3
        0x1000460a:    4605        .F      MOV      r5,r0
        0x1000460c:    430d        .C      ORRS     r5,r5,r1
        0x1000460e:    d1ea        ..      BNE      0x100045e6 ; __aeabi_ddiv + 122
        0x10004610:    4610        .F      MOV      r0,r2
        0x10004612:    4318        .C      ORRS     r0,r0,r3
        0x10004614:    d013        ..      BEQ      0x1000463e ; __aeabi_ddiv + 210
        0x10004616:    4660        `F      MOV      r0,r12
        0x10004618:    4619        .F      MOV      r1,r3
        0x1000461a:    4050        P@      EORS     r0,r0,r2
        0x1000461c:    4071        q@      EORS     r1,r1,r6
        0x1000461e:    4308        .C      ORRS     r0,r0,r1
        0x10004620:    d006        ..      BEQ      0x10004630 ; __aeabi_ddiv + 196
        0x10004622:    4660        `F      MOV      r0,r12
        0x10004624:    1a10        ..      SUBS     r0,r2,r0
        0x10004626:    41b3        .A      SBCS     r3,r3,r6
        0x10004628:    d206        ..      BCS      0x10004638 ; __aeabi_ddiv + 204
        0x1000462a:    2201        ."      MOVS     r2,#1
        0x1000462c:    2300        .#      MOVS     r3,#0
        0x1000462e:    e006        ..      B        0x1000463e ; __aeabi_ddiv + 210
        0x10004630:    2200        ."      MOVS     r2,#0
        0x10004632:    2301        .#      MOVS     r3,#1
        0x10004634:    07db        ..      LSLS     r3,r3,#31
        0x10004636:    e002        ..      B        0x1000463e ; __aeabi_ddiv + 210
        0x10004638:    2201        ."      MOVS     r2,#1
        0x1000463a:    43d2        .C      MVNS     r2,r2
        0x1000463c:    1053        S.      ASRS     r3,r2,#1
        0x1000463e:    9800        ..      LDR      r0,[sp,#0]
        0x10004640:    4674        tF      MOV      r4,lr
        0x10004642:    0501        ..      LSLS     r1,r0,#20
        0x10004644:    1c38        8.      ADDS     r0,r7,#0
        0x10004646:    4161        aA      ADCS     r1,r1,r4
        0x10004648:    9c02        ..      LDR      r4,[sp,#8]
        0x1000464a:    9d03        ..      LDR      r5,[sp,#0xc]
        0x1000464c:    1900        ..      ADDS     r0,r0,r4
        0x1000464e:    4169        iA      ADCS     r1,r1,r5
        0x10004650:    f000f8d5    ....    BL       _double_round ; 0x100047fe
        0x10004654:    e7bf        ..      B        0x100045d6 ; __aeabi_ddiv + 106
    $d
        0x10004656:    0000        ..      DCW    0
        0x10004658:    000003fd    ....    DCD    1021
    $t
    .text
    __aeabi_ui2f
        0x1000465c:    b510        ..      PUSH     {r4,lr}
        0x1000465e:    2200        ."      MOVS     r2,#0
        0x10004660:    2396        .#      MOVS     r3,#0x96
        0x10004662:    4611        .F      MOV      r1,r2
        0x10004664:    f000f892    ....    BL       _float_epilogue ; 0x1000478c
        0x10004668:    bd10        ..      POP      {r4,pc}
        0x1000466a:    0000        ..      MOVS     r0,r0
    .text
    __aeabi_i2d
        0x1000466c:    b50e        ..      PUSH     {r1-r3,lr}
        0x1000466e:    17c2        ..      ASRS     r2,r0,#31
        0x10004670:    0fc1        ..      LSRS     r1,r0,#31
        0x10004672:    4050        P@      EORS     r0,r0,r2
        0x10004674:    07ca        ..      LSLS     r2,r1,#31
        0x10004676:    1840        @.      ADDS     r0,r0,r1
        0x10004678:    2100        .!      MOVS     r1,#0
        0x1000467a:    4b05        .K      LDR      r3,[pc,#20] ; [0x10004690] = 0x433
        0x1000467c:    9302        ..      STR      r3,[sp,#8]
        0x1000467e:    9201        ..      STR      r2,[sp,#4]
        0x10004680:    9100        ..      STR      r1,[sp,#0]
        0x10004682:    460a        .F      MOV      r2,r1
        0x10004684:    460b        .F      MOV      r3,r1
        0x10004686:    f000f8c7    ....    BL       _double_epilogue ; 0x10004818
        0x1000468a:    b003        ..      ADD      sp,sp,#0xc
        0x1000468c:    bd00        ..      POP      {pc}
    $d
        0x1000468e:    0000        ..      DCW    0
        0x10004690:    00000433    3...    DCD    1075
    $t
    .text
    __aeabi_ui2d
        0x10004694:    b50e        ..      PUSH     {r1-r3,lr}
        0x10004696:    4905        .I      LDR      r1,[pc,#20] ; [0x100046ac] = 0x433
        0x10004698:    9102        ..      STR      r1,[sp,#8]
        0x1000469a:    2100        .!      MOVS     r1,#0
        0x1000469c:    9100        ..      STR      r1,[sp,#0]
        0x1000469e:    460a        .F      MOV      r2,r1
        0x100046a0:    460b        .F      MOV      r3,r1
        0x100046a2:    9101        ..      STR      r1,[sp,#4]
        0x100046a4:    f000f8b8    ....    BL       _double_epilogue ; 0x10004818
        0x100046a8:    b003        ..      ADD      sp,sp,#0xc
        0x100046aa:    bd00        ..      POP      {pc}
    $d
        0x100046ac:    00000433    3...    DCD    1075
    $t
    .text
    __aeabi_d2uiz
        0x100046b0:    004a        J.      LSLS     r2,r1,#1
        0x100046b2:    0309        ..      LSLS     r1,r1,#12
        0x100046b4:    2301        .#      MOVS     r3,#1
        0x100046b6:    0b09        ..      LSRS     r1,r1,#12
        0x100046b8:    051b        ..      LSLS     r3,r3,#20
        0x100046ba:    4319        .C      ORRS     r1,r1,r3
        0x100046bc:    4b09        .K      LDR      r3,[pc,#36] ; [0x100046e4] = 0x3ff
        0x100046be:    b510        ..      PUSH     {r4,lr}
        0x100046c0:    0d52        R.      LSRS     r2,r2,#21
        0x100046c2:    429a        .B      CMP      r2,r3
        0x100046c4:    da01        ..      BGE      0x100046ca ; __aeabi_d2uiz + 26
        0x100046c6:    2000        .       MOVS     r0,#0
        0x100046c8:    bd10        ..      POP      {r4,pc}
        0x100046ca:    4b06        .K      LDR      r3,[pc,#24] ; [0x100046e4] = 0x3ff
        0x100046cc:    3334        43      ADDS     r3,r3,#0x34
        0x100046ce:    429a        .B      CMP      r2,r3
        0x100046d0:    dc03        ..      BGT      0x100046da ; __aeabi_d2uiz + 42
        0x100046d2:    1a9a        ..      SUBS     r2,r3,r2
        0x100046d4:    f000f82e    ....    BL       __aeabi_llsr ; 0x10004734
        0x100046d8:    bd10        ..      POP      {r4,pc}
        0x100046da:    4903        .I      LDR      r1,[pc,#12] ; [0x100046e8] = 0xfffffbcd
        0x100046dc:    1851        Q.      ADDS     r1,r2,r1
        0x100046de:    4088        .@      LSLS     r0,r0,r1
        0x100046e0:    bd10        ..      POP      {r4,pc}
    $d
        0x100046e2:    0000        ..      DCW    0
        0x100046e4:    000003ff    ....    DCD    1023
        0x100046e8:    fffffbcd    ....    DCD    4294966221
    $t
    .text
    __aeabi_f2d
        0x100046ec:    0fc2        ..      LSRS     r2,r0,#31
        0x100046ee:    07d2        ..      LSLS     r2,r2,#31
        0x100046f0:    0040        @.      LSLS     r0,r0,#1
        0x100046f2:    0840        @.      LSRS     r0,r0,#1
        0x100046f4:    d00b        ..      BEQ      0x1000470e ; __aeabi_f2d + 34
        0x100046f6:    0dc1        ..      LSRS     r1,r0,#23
        0x100046f8:    2307        .#      MOVS     r3,#7
        0x100046fa:    01db        ..      LSLS     r3,r3,#7
        0x100046fc:    18c9        ..      ADDS     r1,r1,r3
        0x100046fe:    0240        @.      LSLS     r0,r0,#9
        0x10004700:    0509        ..      LSLS     r1,r1,#20
        0x10004702:    0a40        @.      LSRS     r0,r0,#9
        0x10004704:    4311        .C      ORRS     r1,r1,r2
        0x10004706:    08c2        ..      LSRS     r2,r0,#3
        0x10004708:    0740        @.      LSLS     r0,r0,#29
        0x1000470a:    4311        .C      ORRS     r1,r1,r2
        0x1000470c:    4770        pG      BX       lr
        0x1000470e:    2000        .       MOVS     r0,#0
        0x10004710:    4601        .F      MOV      r1,r0
        0x10004712:    4770        pG      BX       lr
    .text
    __aeabi_llsl
    _ll_shift_l
        0x10004714:    b510        ..      PUSH     {r4,lr}
        0x10004716:    2a20         *      CMP      r2,#0x20
        0x10004718:    db04        ..      BLT      0x10004724 ; __aeabi_llsl + 16
        0x1000471a:    4601        .F      MOV      r1,r0
        0x1000471c:    3a20         :      SUBS     r2,r2,#0x20
        0x1000471e:    4091        .@      LSLS     r1,r1,r2
        0x10004720:    2000        .       MOVS     r0,#0
        0x10004722:    bd10        ..      POP      {r4,pc}
        0x10004724:    4091        .@      LSLS     r1,r1,r2
        0x10004726:    2320         #      MOVS     r3,#0x20
        0x10004728:    1a9c        ..      SUBS     r4,r3,r2
        0x1000472a:    4603        .F      MOV      r3,r0
        0x1000472c:    40e3        .@      LSRS     r3,r3,r4
        0x1000472e:    4319        .C      ORRS     r1,r1,r3
        0x10004730:    4090        .@      LSLS     r0,r0,r2
        0x10004732:    bd10        ..      POP      {r4,pc}
    .text
    __aeabi_llsr
    _ll_ushift_r
        0x10004734:    b510        ..      PUSH     {r4,lr}
        0x10004736:    2a20         *      CMP      r2,#0x20
        0x10004738:    db04        ..      BLT      0x10004744 ; __aeabi_llsr + 16
        0x1000473a:    4608        .F      MOV      r0,r1
        0x1000473c:    3a20         :      SUBS     r2,r2,#0x20
        0x1000473e:    40d0        .@      LSRS     r0,r0,r2
        0x10004740:    2100        .!      MOVS     r1,#0
        0x10004742:    bd10        ..      POP      {r4,pc}
        0x10004744:    460b        .F      MOV      r3,r1
        0x10004746:    40d3        .@      LSRS     r3,r3,r2
        0x10004748:    40d0        .@      LSRS     r0,r0,r2
        0x1000474a:    2420         $      MOVS     r4,#0x20
        0x1000474c:    1aa2        ..      SUBS     r2,r4,r2
        0x1000474e:    4091        .@      LSLS     r1,r1,r2
        0x10004750:    4308        .C      ORRS     r0,r0,r1
        0x10004752:    4619        .F      MOV      r1,r3
        0x10004754:    bd10        ..      POP      {r4,pc}
    .text
    __aeabi_lasr
    _ll_sshift_r
        0x10004756:    b510        ..      PUSH     {r4,lr}
        0x10004758:    2a20         *      CMP      r2,#0x20
        0x1000475a:    db06        ..      BLT      0x1000476a ; __aeabi_lasr + 20
        0x1000475c:    17cb        ..      ASRS     r3,r1,#31
        0x1000475e:    4608        .F      MOV      r0,r1
        0x10004760:    3a20         :      SUBS     r2,r2,#0x20
        0x10004762:    4110        .A      ASRS     r0,r0,r2
        0x10004764:    17c1        ..      ASRS     r1,r0,#31
        0x10004766:    430b        .C      ORRS     r3,r3,r1
        0x10004768:    e006        ..      B        0x10004778 ; __aeabi_lasr + 34
        0x1000476a:    460b        .F      MOV      r3,r1
        0x1000476c:    4113        .A      ASRS     r3,r3,r2
        0x1000476e:    40d0        .@      LSRS     r0,r0,r2
        0x10004770:    2420         $      MOVS     r4,#0x20
        0x10004772:    1aa2        ..      SUBS     r2,r4,r2
        0x10004774:    4091        .@      LSLS     r1,r1,r2
        0x10004776:    4308        .C      ORRS     r0,r0,r1
        0x10004778:    4619        .F      MOV      r1,r3
        0x1000477a:    bd10        ..      POP      {r4,pc}
    .text
    .text
    __I$use$fp
    _float_round
        0x1000477c:    2900        .)      CMP      r1,#0
        0x1000477e:    da04        ..      BGE      0x1000478a ; __I$use$fp + 14
        0x10004780:    1c40        @.      ADDS     r0,r0,#1
        0x10004782:    0049        I.      LSLS     r1,r1,#1
        0x10004784:    d101        ..      BNE      0x1000478a ; __I$use$fp + 14
        0x10004786:    0840        @.      LSRS     r0,r0,#1
        0x10004788:    0040        @.      LSLS     r0,r0,#1
        0x1000478a:    4770        pG      BX       lr
    _float_epilogue
        0x1000478c:    b470        p.      PUSH     {r4-r6}
        0x1000478e:    2400        .$      MOVS     r4,#0
        0x10004790:    0c05        ..      LSRS     r5,r0,#16
        0x10004792:    d105        ..      BNE      0x100047a0 ; _float_epilogue + 20
        0x10004794:    2410        .$      MOVS     r4,#0x10
        0x10004796:    0400        ..      LSLS     r0,r0,#16
        0x10004798:    d102        ..      BNE      0x100047a0 ; _float_epilogue + 20
        0x1000479a:    2900        .)      CMP      r1,#0
        0x1000479c:    d021        !.      BEQ      0x100047e2 ; _float_epilogue + 86
        0x1000479e:    2411        .$      MOVS     r4,#0x11
        0x100047a0:    0e05        ..      LSRS     r5,r0,#24
        0x100047a2:    d101        ..      BNE      0x100047a8 ; _float_epilogue + 28
        0x100047a4:    0200        ..      LSLS     r0,r0,#8
        0x100047a6:    3408        .4      ADDS     r4,r4,#8
        0x100047a8:    0f05        ..      LSRS     r5,r0,#28
        0x100047aa:    d101        ..      BNE      0x100047b0 ; _float_epilogue + 36
        0x100047ac:    0100        ..      LSLS     r0,r0,#4
        0x100047ae:    1d24        $.      ADDS     r4,r4,#4
        0x100047b0:    0f85        ..      LSRS     r5,r0,#30
        0x100047b2:    d101        ..      BNE      0x100047b8 ; _float_epilogue + 44
        0x100047b4:    0080        ..      LSLS     r0,r0,#2
        0x100047b6:    1ca4        ..      ADDS     r4,r4,#2
        0x100047b8:    2800        .(      CMP      r0,#0
        0x100047ba:    db01        ..      BLT      0x100047c0 ; _float_epilogue + 52
        0x100047bc:    0040        @.      LSLS     r0,r0,#1
        0x100047be:    1c64        d.      ADDS     r4,r4,#1
        0x100047c0:    2900        .)      CMP      r1,#0
        0x100047c2:    d008        ..      BEQ      0x100047d6 ; _float_epilogue + 74
        0x100047c4:    2520         %      MOVS     r5,#0x20
        0x100047c6:    1b2e        ..      SUBS     r6,r5,r4
        0x100047c8:    460d        .F      MOV      r5,r1
        0x100047ca:    40f5        .@      LSRS     r5,r5,r6
        0x100047cc:    40a1        .@      LSLS     r1,r1,r4
        0x100047ce:    d000        ..      BEQ      0x100047d2 ; _float_epilogue + 70
        0x100047d0:    2101        .!      MOVS     r1,#1
        0x100047d2:    4329        )C      ORRS     r1,r1,r5
        0x100047d4:    4308        .C      ORRS     r0,r0,r1
        0x100047d6:    0601        ..      LSLS     r1,r0,#24
        0x100047d8:    1b1b        ..      SUBS     r3,r3,r4
        0x100047da:    0a00        ..      LSRS     r0,r0,#8
        0x100047dc:    1ddb        ..      ADDS     r3,r3,#7
        0x100047de:    d502        ..      BPL      0x100047e6 ; _float_epilogue + 90
        0x100047e0:    2000        .       MOVS     r0,#0
        0x100047e2:    bc70        p.      POP      {r4-r6}
        0x100047e4:    4770        pG      BX       lr
        0x100047e6:    05db        ..      LSLS     r3,r3,#23
        0x100047e8:    1818        ..      ADDS     r0,r3,r0
        0x100047ea:    1880        ..      ADDS     r0,r0,r2
        0x100047ec:    2900        .)      CMP      r1,#0
        0x100047ee:    daf8        ..      BGE      0x100047e2 ; _float_epilogue + 86
        0x100047f0:    1c40        @.      ADDS     r0,r0,#1
        0x100047f2:    0049        I.      LSLS     r1,r1,#1
        0x100047f4:    d1f5        ..      BNE      0x100047e2 ; _float_epilogue + 86
        0x100047f6:    bc70        p.      POP      {r4-r6}
        0x100047f8:    0840        @.      LSRS     r0,r0,#1
        0x100047fa:    0040        @.      LSLS     r0,r0,#1
        0x100047fc:    4770        pG      BX       lr
    .text
    _double_round
        0x100047fe:    b510        ..      PUSH     {r4,lr}
        0x10004800:    2b00        .+      CMP      r3,#0
        0x10004802:    da08        ..      BGE      0x10004816 ; _double_round + 24
        0x10004804:    2400        .$      MOVS     r4,#0
        0x10004806:    1c40        @.      ADDS     r0,r0,#1
        0x10004808:    4161        aA      ADCS     r1,r1,r4
        0x1000480a:    1892        ..      ADDS     r2,r2,r2
        0x1000480c:    415b        [A      ADCS     r3,r3,r3
        0x1000480e:    431a        .C      ORRS     r2,r2,r3
        0x10004810:    d101        ..      BNE      0x10004816 ; _double_round + 24
        0x10004812:    0840        @.      LSRS     r0,r0,#1
        0x10004814:    0040        @.      LSLS     r0,r0,#1
        0x10004816:    bd10        ..      POP      {r4,pc}
    _double_epilogue
        0x10004818:    b5f0        ..      PUSH     {r4-r7,lr}
        0x1000481a:    b41f        ..      PUSH     {r0-r4}
        0x1000481c:    b082        ..      SUB      sp,sp,#8
        0x1000481e:    4605        .F      MOV      r5,r0
        0x10004820:    000c        ..      MOVS     r4,r1
        0x10004822:    d003        ..      BEQ      0x1000482c ; _double_epilogue + 20
        0x10004824:    4608        .F      MOV      r0,r1
        0x10004826:    f000f85b    ..[.    BL       __ARM_clz ; 0x100048e0
        0x1000482a:    e002        ..      B        0x10004832 ; _double_epilogue + 26
        0x1000482c:    f000f858    ..X.    BL       __ARM_clz ; 0x100048e0
        0x10004830:    3020         0      ADDS     r0,r0,#0x20
        0x10004832:    4602        .F      MOV      r2,r0
        0x10004834:    9000        ..      STR      r0,[sp,#0]
        0x10004836:    4621        !F      MOV      r1,r4
        0x10004838:    4628        (F      MOV      r0,r5
        0x1000483a:    f7ffff6b    ..k.    BL       __aeabi_llsl ; 0x10004714
        0x1000483e:    9b04        ..      LDR      r3,[sp,#0x10]
        0x10004840:    9a05        ..      LDR      r2,[sp,#0x14]
        0x10004842:    4604        .F      MOV      r4,r0
        0x10004844:    460f        .F      MOV      r7,r1
        0x10004846:    4318        .C      ORRS     r0,r0,r3
        0x10004848:    4311        .C      ORRS     r1,r1,r2
        0x1000484a:    4308        .C      ORRS     r0,r0,r1
        0x1000484c:    d014        ..      BEQ      0x10004878 ; _double_epilogue + 96
        0x1000484e:    4618        .F      MOV      r0,r3
        0x10004850:    4310        .C      ORRS     r0,r0,r2
        0x10004852:    d01b        ..      BEQ      0x1000488c ; _double_epilogue + 116
        0x10004854:    9800        ..      LDR      r0,[sp,#0]
        0x10004856:    2140        @!      MOVS     r1,#0x40
        0x10004858:    1a0a        ..      SUBS     r2,r1,r0
        0x1000485a:    4618        .F      MOV      r0,r3
        0x1000485c:    9905        ..      LDR      r1,[sp,#0x14]
        0x1000485e:    f7ffff69    ..i.    BL       __aeabi_llsr ; 0x10004734
        0x10004862:    4605        .F      MOV      r5,r0
        0x10004864:    460e        .F      MOV      r6,r1
        0x10004866:    9a00        ..      LDR      r2,[sp,#0]
        0x10004868:    9905        ..      LDR      r1,[sp,#0x14]
        0x1000486a:    9804        ..      LDR      r0,[sp,#0x10]
        0x1000486c:    f7ffff52    ..R.    BL       __aeabi_llsl ; 0x10004714
        0x10004870:    4308        .C      ORRS     r0,r0,r1
        0x10004872:    d005        ..      BEQ      0x10004880 ; _double_epilogue + 104
        0x10004874:    2001        .       MOVS     r0,#1
        0x10004876:    e004        ..      B        0x10004882 ; _double_epilogue + 106
        0x10004878:    4620         F      MOV      r0,r4
        0x1000487a:    4639        9F      MOV      r1,r7
        0x1000487c:    b007        ..      ADD      sp,sp,#0x1c
        0x1000487e:    bdf0        ..      POP      {r4-r7,pc}
        0x10004880:    2000        .       MOVS     r0,#0
        0x10004882:    17c1        ..      ASRS     r1,r0,#31
        0x10004884:    4305        .C      ORRS     r5,r5,r0
        0x10004886:    430e        .C      ORRS     r6,r6,r1
        0x10004888:    432c        ,C      ORRS     r4,r4,r5
        0x1000488a:    4337        7C      ORRS     r7,r7,r6
        0x1000488c:    9900        ..      LDR      r1,[sp,#0]
        0x1000488e:    980e        ..      LDR      r0,[sp,#0x38]
        0x10004890:    0563        c.      LSLS     r3,r4,#21
        0x10004892:    1a40        @.      SUBS     r0,r0,r1
        0x10004894:    0579        y.      LSLS     r1,r7,#21
        0x10004896:    0ae4        ..      LSRS     r4,r4,#11
        0x10004898:    2200        ."      MOVS     r2,#0
        0x1000489a:    430c        .C      ORRS     r4,r4,r1
        0x1000489c:    0afd        ..      LSRS     r5,r7,#11
        0x1000489e:    300a        .0      ADDS     r0,r0,#0xa
        0x100048a0:    d502        ..      BPL      0x100048a8 ; _double_epilogue + 144
        0x100048a2:    2000        .       MOVS     r0,#0
        0x100048a4:    4601        .F      MOV      r1,r0
        0x100048a6:    e7e9        ..      B        0x1000487c ; _double_epilogue + 100
        0x100048a8:    0501        ..      LSLS     r1,r0,#20
        0x100048aa:    1910        ..      ADDS     r0,r2,r4
        0x100048ac:    4169        iA      ADCS     r1,r1,r5
        0x100048ae:    9c0c        ..      LDR      r4,[sp,#0x30]
        0x100048b0:    9d0d        ..      LDR      r5,[sp,#0x34]
        0x100048b2:    1900        ..      ADDS     r0,r0,r4
        0x100048b4:    4169        iA      ADCS     r1,r1,r5
        0x100048b6:    f7ffffa2    ....    BL       _double_round ; 0x100047fe
        0x100048ba:    e7df        ..      B        0x1000487c ; _double_epilogue + 100
    .text
    __scatterload
    __scatterload_rt2
        0x100048bc:    4c06        .L      LDR      r4,[pc,#24] ; [0x100048d8] = 0x10004958
        0x100048be:    2501        .%      MOVS     r5,#1
        0x100048c0:    4e06        .N      LDR      r6,[pc,#24] ; [0x100048dc] = 0x10004978
        0x100048c2:    e005        ..      B        0x100048d0 ; __scatterload + 20
        0x100048c4:    68e3        .h      LDR      r3,[r4,#0xc]
        0x100048c6:    cc07        ..      LDM      r4!,{r0-r2}
        0x100048c8:    432b        +C      ORRS     r3,r3,r5
        0x100048ca:    3c0c        .<      SUBS     r4,r4,#0xc
        0x100048cc:    4798        .G      BLX      r3
        0x100048ce:    3410        .4      ADDS     r4,r4,#0x10
        0x100048d0:    42b4        .B      CMP      r4,r6
        0x100048d2:    d3f7        ..      BCC      0x100048c4 ; __scatterload + 8
        0x100048d4:    f7fbfbf8    ....    BL       __main_after_scatterload ; 0x100000c8
    $d
        0x100048d8:    10004958    XI..    DCD    268454232
        0x100048dc:    10004978    xI..    DCD    268454264
    $t
    i.__ARM_clz
    __ARM_clz
        0x100048e0:    2120         !      MOVS     r1,#0x20
        0x100048e2:    0c02        ..      LSRS     r2,r0,#16
        0x100048e4:    d001        ..      BEQ      0x100048ea ; __ARM_clz + 10
        0x100048e6:    2110        .!      MOVS     r1,#0x10
        0x100048e8:    4610        .F      MOV      r0,r2
        0x100048ea:    0a02        ..      LSRS     r2,r0,#8
        0x100048ec:    d001        ..      BEQ      0x100048f2 ; __ARM_clz + 18
        0x100048ee:    4610        .F      MOV      r0,r2
        0x100048f0:    3908        .9      SUBS     r1,r1,#8
        0x100048f2:    0902        ..      LSRS     r2,r0,#4
        0x100048f4:    d001        ..      BEQ      0x100048fa ; __ARM_clz + 26
        0x100048f6:    4610        .F      MOV      r0,r2
        0x100048f8:    1f09        ..      SUBS     r1,r1,#4
        0x100048fa:    0882        ..      LSRS     r2,r0,#2
        0x100048fc:    d001        ..      BEQ      0x10004902 ; __ARM_clz + 34
        0x100048fe:    4610        .F      MOV      r0,r2
        0x10004900:    1e89        ..      SUBS     r1,r1,#2
        0x10004902:    0842        B.      LSRS     r2,r0,#1
        0x10004904:    d001        ..      BEQ      0x1000490a ; __ARM_clz + 42
        0x10004906:    1e88        ..      SUBS     r0,r1,#2
        0x10004908:    4770        pG      BX       lr
        0x1000490a:    1a08        ..      SUBS     r0,r1,r0
        0x1000490c:    4770        pG      BX       lr
    i.__ARM_common_switch8
    __ARM_common_switch8
        0x1000490e:    b430        0.      PUSH     {r4,r5}
        0x10004910:    4674        tF      MOV      r4,lr
        0x10004912:    1e64        d.      SUBS     r4,r4,#1
        0x10004914:    7825        %x      LDRB     r5,[r4,#0]
        0x10004916:    1c64        d.      ADDS     r4,r4,#1
        0x10004918:    42ab        .B      CMP      r3,r5
        0x1000491a:    d200        ..      BCS      0x1000491e ; __ARM_common_switch8 + 16
        0x1000491c:    461d        .F      MOV      r5,r3
        0x1000491e:    5d63        c]      LDRB     r3,[r4,r5]
        0x10004920:    005b        [.      LSLS     r3,r3,#1
        0x10004922:    18e3        ..      ADDS     r3,r4,r3
        0x10004924:    bc30        0.      POP      {r4,r5}
        0x10004926:    4718        .G      BX       r3
    i.__scatterload_copy
    __scatterload_copy
        0x10004928:    e002        ..      B        0x10004930 ; __scatterload_copy + 8
        0x1000492a:    c808        ..      LDM      r0!,{r3}
        0x1000492c:    1f12        ..      SUBS     r2,r2,#4
        0x1000492e:    c108        ..      STM      r1!,{r3}
        0x10004930:    2a00        .*      CMP      r2,#0
        0x10004932:    d1fa        ..      BNE      0x1000492a ; __scatterload_copy + 2
        0x10004934:    4770        pG      BX       lr
    i.__scatterload_null
    __scatterload_null
        0x10004936:    4770        pG      BX       lr
    i.__scatterload_zeroinit
    __scatterload_zeroinit
        0x10004938:    2000        .       MOVS     r0,#0
        0x1000493a:    e001        ..      B        0x10004940 ; __scatterload_zeroinit + 8
        0x1000493c:    c101        ..      STM      r1!,{r0}
        0x1000493e:    1f12        ..      SUBS     r2,r2,#4
        0x10004940:    2a00        .*      CMP      r2,#0
        0x10004942:    d1fb        ..      BNE      0x1000493c ; __scatterload_zeroinit + 4
        0x10004944:    4770        pG      BX       lr
    $d.realdata
    .constdata
    _aV2C
        0x10004946:    3130        01      DCW    12592
        0x10004948:    35343332    2345    DCD    892613426
        0x1000494c:    39383736    6789    DCD    959985462
        0x10004950:    44434241    ABCD    DCD    1145258561
        0x10004954:    00004645    EF..    DCD    17989
    Region$$Table$$Base
        0x10004958:    10004978    xI..    DCD    268454264
        0x1000495c:    20003000    .0.     DCD    536883200
        0x10004960:    00000128    (...    DCD    296
        0x10004964:    10004928    (I..    DCD    268454184
        0x10004968:    10004aa0    .J..    DCD    268454560
        0x1000496c:    20003128    (1.     DCD    536883496
        0x10004970:    000011e8    ....    DCD    4584
        0x10004974:    10004938    8I..    DCD    268454200
    Region$$Table$$Limit

** Section #2 'RW_IRAM1' (SHT_PROGBITS) [SHF_ALLOC + SHF_WRITE]
    Size   : 296 bytes (alignment 4)
    Address: 0x20003000


** Section #3 'RW_IRAM1' (SHT_NOBITS) [SHF_ALLOC + SHF_WRITE]
    Size   : 4584 bytes (alignment 8)
    Address: 0x20003128


** Section #4 '.debug_abbrev' (SHT_PROGBITS)
    Size   : 1476 bytes


** Section #5 '.debug_frame' (SHT_PROGBITS)
    Size   : 7308 bytes


** Section #6 '.debug_info' (SHT_PROGBITS)
    Size   : 188200 bytes


** Section #7 '.debug_line' (SHT_PROGBITS)
    Size   : 19876 bytes


** Section #8 '.debug_loc' (SHT_PROGBITS)
    Size   : 18624 bytes


** Section #9 '.debug_macinfo' (SHT_PROGBITS)
    Size   : 37028 bytes


** Section #10 '.debug_pubnames' (SHT_PROGBITS)
    Size   : 5445 bytes


** Section #11 '.symtab' (SHT_SYMTAB)
    Size   : 10160 bytes (alignment 4)
    String table #12 '.strtab'
    Last local symbol no. 287


** Section #12 '.strtab' (SHT_STRTAB)
    Size   : 7856 bytes


** Section #13 '.note' (SHT_NOTE)
    Size   : 28 bytes (alignment 4)


** Section #14 '.comment' (SHT_PROGBITS)
    Size   : 19492 bytes


** Section #15 '.shstrtab' (SHT_STRTAB)
    Size   : 156 bytes


