
========================================================================

** ELF Header Information

    File Name: .\output\Syd8811_Peripheral.axf

    Machine class: ELFCLASS32 (32-bit)
    Data encoding: ELFDATA2LSB (Little endian)
    Header version: EV_CURRENT (Current version)
    Operating System ABI: none
    ABI Version: 0
    File Type: ET_EXEC (Executable) (2)
    Machine: EM_ARM (ARM)

    Image Entry point: 0x100000c1
    Flags: EF_ARM_HASENTRY + EF_ARM_ABI_FLOAT_SOFT (0x05000202)

    ARM ELF revision: 5 (ABI version 2)

    Conforms to Soft float procedure-call standard

    Built with
    Component: ARM Compiler 5.06 (build 20) Tool: armasm [4d35a2]
    Component: ARM Compiler 5.06 (build 20) Tool: armlink [4d35a3]

    Header size: 52 bytes (0x34)
    Program header entry size: 32 bytes (0x20)
    Section header entry size: 40 bytes (0x28)

    Program header entries: 1
    Section header entries: 16

    Program header offset: 197668 (0x00030424)
    Section header offset: 197700 (0x00030444)

    Section header string table index: 15

========================================================================

** Program header #0 (PT_LOAD) [PF_X + PF_W + PF_R + PF_ARM_ENTRY]
    Size : 15812 bytes (14556 bytes in file)
    Virtual address: 0x10000000 (Alignment 8)


========================================================================

** Section #1 'ER_IROM1' (SHT_PROGBITS) [SHF_ALLOC + SHF_EXECINSTR]
    Size   : 14420 bytes (alignment 4)
    Address: 0x10000000

    $d.realdata
    RESET
    __Vectors
        0x10000000:    20003570    p5.     DCD    536884592
        0x10000004:    100007b5    ....    DCD    268437429
        0x10000008:    100007bd    ....    DCD    268437437
        0x1000000c:    100007bf    ....    DCD    268437439
        0x10000010:    00000000    ....    DCD    0
        0x10000014:    00000000    ....    DCD    0
        0x10000018:    00000000    ....    DCD    0
        0x1000001c:    00000000    ....    DCD    0
        0x10000020:    00000000    ....    DCD    0
        0x10000024:    00000000    ....    DCD    0
        0x10000028:    00000000    ....    DCD    0
        0x1000002c:    100007c1    ....    DCD    268437441
        0x10000030:    00000000    ....    DCD    0
        0x10000034:    00000000    ....    DCD    0
        0x10000038:    100007c3    ....    DCD    268437443
        0x1000003c:    100007c5    ....    DCD    268437445
        0x10000040:    00000000    ....    DCD    0
        0x10000044:    100007c7    ....    DCD    268437447
        0x10000048:    100007c7    ....    DCD    268437447
        0x1000004c:    100007c7    ....    DCD    268437447
        0x10000050:    100007c7    ....    DCD    268437447
        0x10000054:    100007c7    ....    DCD    268437447
        0x10000058:    10000679    y...    DCD    268437113
        0x1000005c:    1000072b    +...    DCD    268437291
        0x10000060:    100007c7    ....    DCD    268437447
        0x10000064:    100007c7    ....    DCD    268437447
        0x10000068:    100007c7    ....    DCD    268437447
        0x1000006c:    100007c7    ....    DCD    268437447
        0x10000070:    1000040b    ....    DCD    268436491
        0x10000074:    100007c7    ....    DCD    268437447
        0x10000078:    100007c7    ....    DCD    268437447
        0x1000007c:    100007c7    ....    DCD    268437447
        0x10000080:    100007c7    ....    DCD    268437447
        0x10000084:    100007c7    ....    DCD    268437447
        0x10000088:    100007c7    ....    DCD    268437447
        0x1000008c:    100007c7    ....    DCD    268437447
        0x10000090:    100007c7    ....    DCD    268437447
        0x10000094:    100007c7    ....    DCD    268437447
        0x10000098:    100007c7    ....    DCD    268437447
        0x1000009c:    100007c7    ....    DCD    268437447
        0x100000a0:    00000000    ....    DCD    0
        0x100000a4:    00000000    ....    DCD    0
        0x100000a8:    00000000    ....    DCD    0
        0x100000ac:    00000000    ....    DCD    0
        0x100000b0:    00000000    ....    DCD    0
        0x100000b4:    00000000    ....    DCD    0
        0x100000b8:    00000000    ....    DCD    0
        0x100000bc:    00000000    ....    DCD    0
    $t
    .ARM.Collect$$$$00000000
    .ARM.Collect$$$$00000001
    __Vectors_End
    __main
    _main_stk
        0x100000c0:    4803        .H      LDR      r0,__lit__00000000 ; [0x100000d0] = 0x20003570
        0x100000c2:    4685        .F      MOV      sp,r0
    .ARM.Collect$$$$00000004
    _main_scatterload
        0x100000c4:    f002ff10    ....    BL       __scatterload ; 0x10002ee8
    .ARM.Collect$$$$00000008
    .ARM.Collect$$$$0000000A
    .ARM.Collect$$$$0000000B
    __main_after_scatterload
    _main_clock
    _main_cpp_init
    _main_init
        0x100000c8:    4800        .H      LDR      r0,[pc,#0] ; [0x100000cc] = 0x100000d5
        0x100000ca:    4700        .G      BX       r0
    $d
        0x100000cc:    100000d5    ....    DCD    268435669
    .ARM.Collect$$$$00002712
    __lit__00000000
    .ARM.Collect$$$$0000000D
    .ARM.Collect$$$$0000000F
    __rt_final_cpp
    __rt_final_exit
        0x100000d0:    20003570    p5.     DCD    536884592
    $t
    .text
    main
        0x100000d4:    b672        r.      CPSID    i
        0x100000d6:    f001fa2a    ..*.    BL       BleInit ; 0x1000152e
        0x100000da:    2000        .       MOVS     r0,#0
        0x100000dc:    f001fd68    ..h.    BL       MCUClockSwitch ; 0x10001bb0
        0x100000e0:    f000fecb    ....    BL       RCOSCCalibration ; 0x10000e7a
        0x100000e4:    f000f854    ..T.    BL       dbg_init ; 0x10000190
        0x100000e8:    2001        .       MOVS     r0,#1
        0x100000ea:    f000feeb    ....    BL       UartEn ; 0x10000ec4
        0x100000ee:    a218        ..      ADR      r2,{pc}+0x62 ; 0x10000150
        0x100000f0:    a11a        ..      ADR      r1,{pc}+0x6c ; 0x1000015c
        0x100000f2:    a01d        ..      ADR      r0,{pc}+0x76 ; 0x10000168
        0x100000f4:    f000f850    ..P.    BL       dbg_printf ; 0x10000198
        0x100000f8:    2100        .!      MOVS     r1,#0
        0x100000fa:    201d        .       MOVS     r0,#0x1d
        0x100000fc:    0500        ..      LSLS     r0,r0,#20
        0x100000fe:    f000f871    ..q.    BL       PIN_Set_GPIO ; 0x100001e4
        0x10000102:    2100        .!      MOVS     r1,#0
        0x10000104:    4820         H      LDR      r0,[pc,#128] ; [0x10000188] = 0x200023
        0x10000106:    f000f86d    ..m.    BL       PIN_Set_GPIO ; 0x100001e4
        0x1000010a:    211d        .!      MOVS     r1,#0x1d
        0x1000010c:    0509        ..      LSLS     r1,r1,#20
        0x1000010e:    4608        .F      MOV      r0,r1
        0x10000110:    f000f8e5    ....    BL       GPIO_Set_Input ; 0x100002de
        0x10000114:    211d        .!      MOVS     r1,#0x1d
        0x10000116:    0509        ..      LSLS     r1,r1,#20
        0x10000118:    2000        .       MOVS     r0,#0
        0x1000011a:    f000f87c    ..|.    BL       PIN_Pullup_Enable ; 0x10000216
        0x1000011e:    201d        .       MOVS     r0,#0x1d
        0x10000120:    0500        ..      LSLS     r0,r0,#20
        0x10000122:    f000f940    ..@.    BL       GPIO_Input_Enable ; 0x100003a6
        0x10000126:    4818        .H      LDR      r0,[pc,#96] ; [0x10000188] = 0x200023
        0x10000128:    f000f8c0    ....    BL       GPIO_Set_Output ; 0x100002ac
        0x1000012c:    4816        .H      LDR      r0,[pc,#88] ; [0x10000188] = 0x200023
        0x1000012e:    f000f953    ..S.    BL       GPIO_Pin_Set ; 0x100003d8
        0x10000132:    b662        b.      CPSIE    i
        0x10000134:    e00a        ..      B        0x1000014c ; main + 120
        0x10000136:    4815        .H      LDR      r0,[pc,#84] ; [0x1000018c] = 0x50001000
        0x10000138:    6940        @i      LDR      r0,[r0,#0x14]
        0x1000013a:    2101        .!      MOVS     r1,#1
        0x1000013c:    4308        .C      ORRS     r0,r0,r1
        0x1000013e:    4913        .I      LDR      r1,[pc,#76] ; [0x1000018c] = 0x50001000
        0x10000140:    6148        Ha      STR      r0,[r1,#0x14]
        0x10000142:    4608        .F      MOV      r0,r1
        0x10000144:    6940        @i      LDR      r0,[r0,#0x14]
        0x10000146:    0840        @.      LSRS     r0,r0,#1
        0x10000148:    0040        @.      LSLS     r0,r0,#1
        0x1000014a:    6148        Ha      STR      r0,[r1,#0x14]
        0x1000014c:    e7f3        ..      B        0x10000136 ; main + 98
    $d
        0x1000014e:    0000        ..      DCW    0
        0x10000150:    313a3931    19:1    DCD    825899313
        0x10000154:    34323a32    2:24    DCD    875706930
        0x10000158:    00000000    ....    DCD    0
        0x1000015c:    20636544    Dec     DCD    543384900
        0x10000160:    32203432    24 2    DCD    840971314
        0x10000164:    00393130    019.    DCD    3748144
        0x10000168:    38445953    SYD8    DCD    944003411
        0x1000016c:    20313138    811     DCD    540094776
        0x10000170:    4f495047    GPIO    DCD    1330204743
        0x10000174:    73657420     tes    DCD    1936028704
        0x10000178:    65642074    t de    DCD    1701060724
        0x1000017c:    25206f6d    mo %    DCD    622882669
        0x10000180:    73253a73    s:%s    DCD    1931819635
        0x10000184:    00000a0d    ....    DCD    2573
        0x10000188:    00200023    #. .    DCD    2097187
        0x1000018c:    50001000    ...P    DCD    1342181376
    $t
    .text
    dbg_init
        0x10000190:    b510        ..      PUSH     {r4,lr}
        0x10000192:    f000f98f    ....    BL       uart_0_init ; 0x100004b4
        0x10000196:    bd10        ..      POP      {r4,pc}
    dbg_printf
        0x10000198:    b40f        ..      PUSH     {r0-r3}
        0x1000019a:    b538        8.      PUSH     {r3-r5,lr}
        0x1000019c:    2500        .%      MOVS     r5,#0
        0x1000019e:    2400        .$      MOVS     r4,#0
        0x100001a0:    9804        ..      LDR      r0,[sp,#0x10]
        0x100001a2:    2800        .(      CMP      r0,#0
        0x100001a4:    d103        ..      BNE      0x100001ae ; dbg_printf + 22
        0x100001a6:    bc38        8.      POP      {r3-r5}
        0x100001a8:    bc08        ..      POP      {r3}
        0x100001aa:    b004        ..      ADD      sp,sp,#0x10
        0x100001ac:    4718        .G      BX       r3
        0x100001ae:    a805        ..      ADD      r0,sp,#0x14
        0x100001b0:    9000        ..      STR      r0,[sp,#0]
        0x100001b2:    480b        .H      LDR      r0,[pc,#44] ; [0x100001e0] = 0x20003088
        0x100001b4:    9a00        ..      LDR      r2,[sp,#0]
        0x100001b6:    9904        ..      LDR      r1,[sp,#0x10]
        0x100001b8:    f002fea8    ....    BL       __0vsprintf ; 0x10002f0c
        0x100001bc:    b2c5        ..      UXTB     r5,r0
        0x100001be:    2000        .       MOVS     r0,#0
        0x100001c0:    9000        ..      STR      r0,[sp,#0]
        0x100001c2:    2d80        .-      CMP      r5,#0x80
        0x100001c4:    dd00        ..      BLE      0x100001c8 ; dbg_printf + 48
        0x100001c6:    2580        .%      MOVS     r5,#0x80
        0x100001c8:    2400        .$      MOVS     r4,#0
        0x100001ca:    e005        ..      B        0x100001d8 ; dbg_printf + 64
        0x100001cc:    4904        .I      LDR      r1,[pc,#16] ; [0x100001e0] = 0x20003088
        0x100001ce:    5d08        .]      LDRB     r0,[r1,r4]
        0x100001d0:    f000fa1a    ....    BL       uart_0_write ; 0x10000608
        0x100001d4:    1c60        `.      ADDS     r0,r4,#1
        0x100001d6:    b2c4        ..      UXTB     r4,r0
        0x100001d8:    42ac        .B      CMP      r4,r5
        0x100001da:    dbf7        ..      BLT      0x100001cc ; dbg_printf + 52
        0x100001dc:    bf00        ..      NOP      
        0x100001de:    e7e2        ..      B        0x100001a6 ; dbg_printf + 14
    $d
        0x100001e0:    20003088    .0.     DCD    536883336
    $t
    .text
    PIN_Set_GPIO
        0x100001e4:    b510        ..      PUSH     {r4,lr}
        0x100001e6:    4602        .F      MOV      r2,r0
        0x100001e8:    2000        .       MOVS     r0,#0
        0x100001ea:    e010        ..      B        0x1000020e ; PIN_Set_GPIO + 42
        0x100001ec:    2301        .#      MOVS     r3,#1
        0x100001ee:    4083        .@      LSLS     r3,r3,r0
        0x100001f0:    4013        .@      ANDS     r3,r3,r2
        0x100001f2:    2b00        .+      CMP      r3,#0
        0x100001f4:    d00a        ..      BEQ      0x1000020c ; PIN_Set_GPIO + 40
        0x100001f6:    4ba6        .K      LDR      r3,[pc,#664] ; [0x10000490] = 0x20003000
        0x100001f8:    681b        .h      LDR      r3,[r3,#0]
        0x100001fa:    5419        .T      STRB     r1,[r3,r0]
        0x100001fc:    2301        .#      MOVS     r3,#1
        0x100001fe:    4083        .@      LSLS     r3,r3,r0
        0x10000200:    4614        .F      MOV      r4,r2
        0x10000202:    439c        .C      BICS     r4,r4,r3
        0x10000204:    4622        "F      MOV      r2,r4
        0x10000206:    2a00        .*      CMP      r2,#0
        0x10000208:    d100        ..      BNE      0x1000020c ; PIN_Set_GPIO + 40
        0x1000020a:    e002        ..      B        0x10000212 ; PIN_Set_GPIO + 46
        0x1000020c:    1c40        @.      ADDS     r0,r0,#1
        0x1000020e:    2820         (      CMP      r0,#0x20
        0x10000210:    d3ec        ..      BCC      0x100001ec ; PIN_Set_GPIO + 8
        0x10000212:    bf00        ..      NOP      
        0x10000214:    bd10        ..      POP      {r4,pc}
    PIN_Pullup_Enable
        0x10000216:    b5fc        ..      PUSH     {r2-r7,lr}
        0x10000218:    4603        .F      MOV      r3,r0
        0x1000021a:    4c9e        .L      LDR      r4,[pc,#632] ; [0x10000494] = 0x50001080
        0x1000021c:    1d22        ".      ADDS     r2,r4,#4
        0x1000021e:    9201        ..      STR      r2,[sp,#4]
        0x10000220:    2200        ."      MOVS     r2,#0
        0x10000222:    9200        ..      STR      r2,[sp,#0]
        0x10000224:    2b00        .+      CMP      r3,#0
        0x10000226:    d102        ..      BNE      0x1000022e ; PIN_Pullup_Enable + 24
        0x10000228:    4a9b        .J      LDR      r2,[pc,#620] ; [0x10000498] = 0x20003018
        0x1000022a:    9200        ..      STR      r2,[sp,#0]
        0x1000022c:    e003        ..      B        0x10000236 ; PIN_Pullup_Enable + 32
        0x1000022e:    2b01        .+      CMP      r3,#1
        0x10000230:    d101        ..      BNE      0x10000236 ; PIN_Pullup_Enable + 32
        0x10000232:    4a9a        .J      LDR      r2,[pc,#616] ; [0x1000049c] = 0x20003030
        0x10000234:    9200        ..      STR      r2,[sp,#0]
        0x10000236:    9a00        ..      LDR      r2,[sp,#0]
        0x10000238:    2a00        .*      CMP      r2,#0
        0x1000023a:    d036        6.      BEQ      0x100002aa ; PIN_Pullup_Enable + 148
        0x1000023c:    2000        .       MOVS     r0,#0
        0x1000023e:    e013        ..      B        0x10000268 ; PIN_Pullup_Enable + 82
        0x10000240:    2201        ."      MOVS     r2,#1
        0x10000242:    4082        .@      LSLS     r2,r2,r0
        0x10000244:    460d        .F      MOV      r5,r1
        0x10000246:    4015        .@      ANDS     r5,r5,r2
        0x10000248:    2d00        .-      CMP      r5,#0
        0x1000024a:    d00c        ..      BEQ      0x10000266 ; PIN_Pullup_Enable + 80
        0x1000024c:    6825        %h      LDR      r5,[r4,#0]
        0x1000024e:    9e00        ..      LDR      r6,[sp,#0]
        0x10000250:    5c37        7\      LDRB     r7,[r6,r0]
        0x10000252:    2601        .&      MOVS     r6,#1
        0x10000254:    40be        .@      LSLS     r6,r6,r7
        0x10000256:    4335        5C      ORRS     r5,r5,r6
        0x10000258:    6025        %`      STR      r5,[r4,#0]
        0x1000025a:    460d        .F      MOV      r5,r1
        0x1000025c:    4395        .C      BICS     r5,r5,r2
        0x1000025e:    4629        )F      MOV      r1,r5
        0x10000260:    2900        .)      CMP      r1,#0
        0x10000262:    d100        ..      BNE      0x10000266 ; PIN_Pullup_Enable + 80
        0x10000264:    e002        ..      B        0x1000026c ; PIN_Pullup_Enable + 86
        0x10000266:    1c40        @.      ADDS     r0,r0,#1
        0x10000268:    2818        .(      CMP      r0,#0x18
        0x1000026a:    d3e9        ..      BCC      0x10000240 ; PIN_Pullup_Enable + 42
        0x1000026c:    bf00        ..      NOP      
        0x1000026e:    2018        .       MOVS     r0,#0x18
        0x10000270:    e017        ..      B        0x100002a2 ; PIN_Pullup_Enable + 140
        0x10000272:    2501        .%      MOVS     r5,#1
        0x10000274:    4085        .@      LSLS     r5,r5,r0
        0x10000276:    462a        *F      MOV      r2,r5
        0x10000278:    460d        .F      MOV      r5,r1
        0x1000027a:    4015        .@      ANDS     r5,r5,r2
        0x1000027c:    2d00        .-      CMP      r5,#0
        0x1000027e:    d00f        ..      BEQ      0x100002a0 ; PIN_Pullup_Enable + 138
        0x10000280:    9d01        ..      LDR      r5,[sp,#4]
        0x10000282:    782d        -x      LDRB     r5,[r5,#0]
        0x10000284:    4606        .F      MOV      r6,r0
        0x10000286:    3e18        .>      SUBS     r6,r6,#0x18
        0x10000288:    2701        .'      MOVS     r7,#1
        0x1000028a:    40b7        .@      LSLS     r7,r7,r6
        0x1000028c:    433d        =C      ORRS     r5,r5,r7
        0x1000028e:    b2ee        ..      UXTB     r6,r5
        0x10000290:    9d01        ..      LDR      r5,[sp,#4]
        0x10000292:    702e        .p      STRB     r6,[r5,#0]
        0x10000294:    460d        .F      MOV      r5,r1
        0x10000296:    4395        .C      BICS     r5,r5,r2
        0x10000298:    4629        )F      MOV      r1,r5
        0x1000029a:    2900        .)      CMP      r1,#0
        0x1000029c:    d100        ..      BNE      0x100002a0 ; PIN_Pullup_Enable + 138
        0x1000029e:    e002        ..      B        0x100002a6 ; PIN_Pullup_Enable + 144
        0x100002a0:    1c40        @.      ADDS     r0,r0,#1
        0x100002a2:    2820         (      CMP      r0,#0x20
        0x100002a4:    d3e5        ..      BCC      0x10000272 ; PIN_Pullup_Enable + 92
        0x100002a6:    bf00        ..      NOP      
        0x100002a8:    bf00        ..      NOP      
        0x100002aa:    bdfc        ..      POP      {r2-r7,pc}
    GPIO_Set_Output
        0x100002ac:    497c        |I      LDR      r1,[pc,#496] ; [0x100004a0] = 0x20003004
        0x100002ae:    6809        .h      LDR      r1,[r1,#0]
        0x100002b0:    460a        .F      MOV      r2,r1
        0x100002b2:    7813        .x      LDRB     r3,[r2,#0]
        0x100002b4:    4619        .F      MOV      r1,r3
        0x100002b6:    7853        Sx      LDRB     r3,[r2,#1]
        0x100002b8:    021b        ..      LSLS     r3,r3,#8
        0x100002ba:    4319        .C      ORRS     r1,r1,r3
        0x100002bc:    7893        .x      LDRB     r3,[r2,#2]
        0x100002be:    041b        ..      LSLS     r3,r3,#16
        0x100002c0:    4319        .C      ORRS     r1,r1,r3
        0x100002c2:    78d2        .x      LDRB     r2,[r2,#3]
        0x100002c4:    0612        ..      LSLS     r2,r2,#24
        0x100002c6:    4311        .C      ORRS     r1,r1,r2
        0x100002c8:    4381        .C      BICS     r1,r1,r0
        0x100002ca:    4a75        uJ      LDR      r2,[pc,#468] ; [0x100004a0] = 0x20003004
        0x100002cc:    6812        .h      LDR      r2,[r2,#0]
        0x100002ce:    7011        .p      STRB     r1,[r2,#0]
        0x100002d0:    0a0b        ..      LSRS     r3,r1,#8
        0x100002d2:    7053        Sp      STRB     r3,[r2,#1]
        0x100002d4:    0c0b        ..      LSRS     r3,r1,#16
        0x100002d6:    7093        .p      STRB     r3,[r2,#2]
        0x100002d8:    0e09        ..      LSRS     r1,r1,#24
        0x100002da:    70d1        .p      STRB     r1,[r2,#3]
        0x100002dc:    4770        pG      BX       lr
    GPIO_Set_Input
        0x100002de:    b510        ..      PUSH     {r4,lr}
        0x100002e0:    4a6f        oJ      LDR      r2,[pc,#444] ; [0x100004a0] = 0x20003004
        0x100002e2:    6812        .h      LDR      r2,[r2,#0]
        0x100002e4:    4613        .F      MOV      r3,r2
        0x100002e6:    781c        .x      LDRB     r4,[r3,#0]
        0x100002e8:    4622        "F      MOV      r2,r4
        0x100002ea:    785c        \x      LDRB     r4,[r3,#1]
        0x100002ec:    0224        $.      LSLS     r4,r4,#8
        0x100002ee:    4322        "C      ORRS     r2,r2,r4
        0x100002f0:    789c        .x      LDRB     r4,[r3,#2]
        0x100002f2:    0424        $.      LSLS     r4,r4,#16
        0x100002f4:    4322        "C      ORRS     r2,r2,r4
        0x100002f6:    78db        .x      LDRB     r3,[r3,#3]
        0x100002f8:    061b        ..      LSLS     r3,r3,#24
        0x100002fa:    431a        .C      ORRS     r2,r2,r3
        0x100002fc:    4302        .C      ORRS     r2,r2,r0
        0x100002fe:    4b68        hK      LDR      r3,[pc,#416] ; [0x100004a0] = 0x20003004
        0x10000300:    681b        .h      LDR      r3,[r3,#0]
        0x10000302:    701a        .p      STRB     r2,[r3,#0]
        0x10000304:    0a14        ..      LSRS     r4,r2,#8
        0x10000306:    705c        \p      STRB     r4,[r3,#1]
        0x10000308:    0c14        ..      LSRS     r4,r2,#16
        0x1000030a:    709c        .p      STRB     r4,[r3,#2]
        0x1000030c:    0e12        ..      LSRS     r2,r2,#24
        0x1000030e:    70da        .p      STRB     r2,[r3,#3]
        0x10000310:    4a64        dJ      LDR      r2,[pc,#400] ; [0x100004a4] = 0x2000300c
        0x10000312:    6812        .h      LDR      r2,[r2,#0]
        0x10000314:    4613        .F      MOV      r3,r2
        0x10000316:    781c        .x      LDRB     r4,[r3,#0]
        0x10000318:    4622        "F      MOV      r2,r4
        0x1000031a:    785c        \x      LDRB     r4,[r3,#1]
        0x1000031c:    0224        $.      LSLS     r4,r4,#8
        0x1000031e:    4322        "C      ORRS     r2,r2,r4
        0x10000320:    789c        .x      LDRB     r4,[r3,#2]
        0x10000322:    0424        $.      LSLS     r4,r4,#16
        0x10000324:    4322        "C      ORRS     r2,r2,r4
        0x10000326:    78db        .x      LDRB     r3,[r3,#3]
        0x10000328:    061b        ..      LSLS     r3,r3,#24
        0x1000032a:    431a        .C      ORRS     r2,r2,r3
        0x1000032c:    4302        .C      ORRS     r2,r2,r0
        0x1000032e:    4b5d        ]K      LDR      r3,[pc,#372] ; [0x100004a4] = 0x2000300c
        0x10000330:    681b        .h      LDR      r3,[r3,#0]
        0x10000332:    701a        .p      STRB     r2,[r3,#0]
        0x10000334:    0a14        ..      LSRS     r4,r2,#8
        0x10000336:    705c        \p      STRB     r4,[r3,#1]
        0x10000338:    0c14        ..      LSRS     r4,r2,#16
        0x1000033a:    709c        .p      STRB     r4,[r3,#2]
        0x1000033c:    0e12        ..      LSRS     r2,r2,#24
        0x1000033e:    70da        .p      STRB     r2,[r3,#3]
        0x10000340:    4a58        XJ      LDR      r2,[pc,#352] ; [0x100004a4] = 0x2000300c
        0x10000342:    6812        .h      LDR      r2,[r2,#0]
        0x10000344:    2308        .#      MOVS     r3,#8
        0x10000346:    18d3        ..      ADDS     r3,r2,r3
        0x10000348:    781c        .x      LDRB     r4,[r3,#0]
        0x1000034a:    4622        "F      MOV      r2,r4
        0x1000034c:    785c        \x      LDRB     r4,[r3,#1]
        0x1000034e:    0224        $.      LSLS     r4,r4,#8
        0x10000350:    4322        "C      ORRS     r2,r2,r4
        0x10000352:    789c        .x      LDRB     r4,[r3,#2]
        0x10000354:    0424        $.      LSLS     r4,r4,#16
        0x10000356:    4322        "C      ORRS     r2,r2,r4
        0x10000358:    78db        .x      LDRB     r3,[r3,#3]
        0x1000035a:    061b        ..      LSLS     r3,r3,#24
        0x1000035c:    431a        .C      ORRS     r2,r2,r3
        0x1000035e:    4382        .C      BICS     r2,r2,r0
        0x10000360:    4b50        PK      LDR      r3,[pc,#320] ; [0x100004a4] = 0x2000300c
        0x10000362:    681b        .h      LDR      r3,[r3,#0]
        0x10000364:    721a        .r      STRB     r2,[r3,#8]
        0x10000366:    0a14        ..      LSRS     r4,r2,#8
        0x10000368:    725c        \r      STRB     r4,[r3,#9]
        0x1000036a:    0c14        ..      LSRS     r4,r2,#16
        0x1000036c:    729c        .r      STRB     r4,[r3,#0xa]
        0x1000036e:    0e12        ..      LSRS     r2,r2,#24
        0x10000370:    72da        .r      STRB     r2,[r3,#0xb]
        0x10000372:    4a4c        LJ      LDR      r2,[pc,#304] ; [0x100004a4] = 0x2000300c
        0x10000374:    6812        .h      LDR      r2,[r2,#0]
        0x10000376:    2308        .#      MOVS     r3,#8
        0x10000378:    18d3        ..      ADDS     r3,r2,r3
        0x1000037a:    781c        .x      LDRB     r4,[r3,#0]
        0x1000037c:    4622        "F      MOV      r2,r4
        0x1000037e:    785c        \x      LDRB     r4,[r3,#1]
        0x10000380:    0224        $.      LSLS     r4,r4,#8
        0x10000382:    4322        "C      ORRS     r2,r2,r4
        0x10000384:    789c        .x      LDRB     r4,[r3,#2]
        0x10000386:    0424        $.      LSLS     r4,r4,#16
        0x10000388:    4322        "C      ORRS     r2,r2,r4
        0x1000038a:    78db        .x      LDRB     r3,[r3,#3]
        0x1000038c:    061b        ..      LSLS     r3,r3,#24
        0x1000038e:    431a        .C      ORRS     r2,r2,r3
        0x10000390:    430a        .C      ORRS     r2,r2,r1
        0x10000392:    4b44        DK      LDR      r3,[pc,#272] ; [0x100004a4] = 0x2000300c
        0x10000394:    681b        .h      LDR      r3,[r3,#0]
        0x10000396:    721a        .r      STRB     r2,[r3,#8]
        0x10000398:    0a14        ..      LSRS     r4,r2,#8
        0x1000039a:    725c        \r      STRB     r4,[r3,#9]
        0x1000039c:    0c14        ..      LSRS     r4,r2,#16
        0x1000039e:    729c        .r      STRB     r4,[r3,#0xa]
        0x100003a0:    0e12        ..      LSRS     r2,r2,#24
        0x100003a2:    72da        .r      STRB     r2,[r3,#0xb]
        0x100003a4:    bd10        ..      POP      {r4,pc}
    GPIO_Input_Enable
        0x100003a6:    493f        ?I      LDR      r1,[pc,#252] ; [0x100004a4] = 0x2000300c
        0x100003a8:    6809        .h      LDR      r1,[r1,#0]
        0x100003aa:    460a        .F      MOV      r2,r1
        0x100003ac:    7813        .x      LDRB     r3,[r2,#0]
        0x100003ae:    4619        .F      MOV      r1,r3
        0x100003b0:    7853        Sx      LDRB     r3,[r2,#1]
        0x100003b2:    021b        ..      LSLS     r3,r3,#8
        0x100003b4:    4319        .C      ORRS     r1,r1,r3
        0x100003b6:    7893        .x      LDRB     r3,[r2,#2]
        0x100003b8:    041b        ..      LSLS     r3,r3,#16
        0x100003ba:    4319        .C      ORRS     r1,r1,r3
        0x100003bc:    78d2        .x      LDRB     r2,[r2,#3]
        0x100003be:    0612        ..      LSLS     r2,r2,#24
        0x100003c0:    4311        .C      ORRS     r1,r1,r2
        0x100003c2:    4301        .C      ORRS     r1,r1,r0
        0x100003c4:    4a37        7J      LDR      r2,[pc,#220] ; [0x100004a4] = 0x2000300c
        0x100003c6:    6812        .h      LDR      r2,[r2,#0]
        0x100003c8:    7011        .p      STRB     r1,[r2,#0]
        0x100003ca:    0a0b        ..      LSRS     r3,r1,#8
        0x100003cc:    7053        Sp      STRB     r3,[r2,#1]
        0x100003ce:    0c0b        ..      LSRS     r3,r1,#16
        0x100003d0:    7093        .p      STRB     r3,[r2,#2]
        0x100003d2:    0e09        ..      LSRS     r1,r1,#24
        0x100003d4:    70d1        .p      STRB     r1,[r2,#3]
        0x100003d6:    4770        pG      BX       lr
    GPIO_Pin_Set
        0x100003d8:    4933        3I      LDR      r1,[pc,#204] ; [0x100004a8] = 0x20003008
        0x100003da:    6809        .h      LDR      r1,[r1,#0]
        0x100003dc:    460a        .F      MOV      r2,r1
        0x100003de:    7813        .x      LDRB     r3,[r2,#0]
        0x100003e0:    4619        .F      MOV      r1,r3
        0x100003e2:    7853        Sx      LDRB     r3,[r2,#1]
        0x100003e4:    021b        ..      LSLS     r3,r3,#8
        0x100003e6:    4319        .C      ORRS     r1,r1,r3
        0x100003e8:    7893        .x      LDRB     r3,[r2,#2]
        0x100003ea:    041b        ..      LSLS     r3,r3,#16
        0x100003ec:    4319        .C      ORRS     r1,r1,r3
        0x100003ee:    78d2        .x      LDRB     r2,[r2,#3]
        0x100003f0:    0612        ..      LSLS     r2,r2,#24
        0x100003f2:    4311        .C      ORRS     r1,r1,r2
        0x100003f4:    4301        .C      ORRS     r1,r1,r0
        0x100003f6:    4a2c        ,J      LDR      r2,[pc,#176] ; [0x100004a8] = 0x20003008
        0x100003f8:    6812        .h      LDR      r2,[r2,#0]
        0x100003fa:    7011        .p      STRB     r1,[r2,#0]
        0x100003fc:    0a0b        ..      LSRS     r3,r1,#8
        0x100003fe:    7053        Sp      STRB     r3,[r2,#1]
        0x10000400:    0c0b        ..      LSRS     r3,r1,#16
        0x10000402:    7093        .p      STRB     r3,[r2,#2]
        0x10000404:    0e09        ..      LSRS     r1,r1,#24
        0x10000406:    70d1        .p      STRB     r1,[r2,#3]
        0x10000408:    4770        pG      BX       lr
    GPIO_IRQHandler
        0x1000040a:    b510        ..      PUSH     {r4,lr}
        0x1000040c:    4827        'H      LDR      r0,[pc,#156] ; [0x100004ac] = 0x20003010
        0x1000040e:    6800        .h      LDR      r0,[r0,#0]
        0x10000410:    2118        .!      MOVS     r1,#0x18
        0x10000412:    1841        A.      ADDS     r1,r0,r1
        0x10000414:    780a        .x      LDRB     r2,[r1,#0]
        0x10000416:    4610        .F      MOV      r0,r2
        0x10000418:    784a        Jx      LDRB     r2,[r1,#1]
        0x1000041a:    0212        ..      LSLS     r2,r2,#8
        0x1000041c:    4310        .C      ORRS     r0,r0,r2
        0x1000041e:    788a        .x      LDRB     r2,[r1,#2]
        0x10000420:    0412        ..      LSLS     r2,r2,#16
        0x10000422:    4310        .C      ORRS     r0,r0,r2
        0x10000424:    78c9        .x      LDRB     r1,[r1,#3]
        0x10000426:    0609        ..      LSLS     r1,r1,#24
        0x10000428:    4308        .C      ORRS     r0,r0,r1
        0x1000042a:    4920         I      LDR      r1,[pc,#128] ; [0x100004ac] = 0x20003010
        0x1000042c:    6809        .h      LDR      r1,[r1,#0]
        0x1000042e:    2210        ."      MOVS     r2,#0x10
        0x10000430:    188a        ..      ADDS     r2,r1,r2
        0x10000432:    7813        .x      LDRB     r3,[r2,#0]
        0x10000434:    4619        .F      MOV      r1,r3
        0x10000436:    7853        Sx      LDRB     r3,[r2,#1]
        0x10000438:    021b        ..      LSLS     r3,r3,#8
        0x1000043a:    4319        .C      ORRS     r1,r1,r3
        0x1000043c:    7893        .x      LDRB     r3,[r2,#2]
        0x1000043e:    041b        ..      LSLS     r3,r3,#16
        0x10000440:    4319        .C      ORRS     r1,r1,r3
        0x10000442:    78d2        .x      LDRB     r2,[r2,#3]
        0x10000444:    0612        ..      LSLS     r2,r2,#24
        0x10000446:    4311        .C      ORRS     r1,r1,r2
        0x10000448:    4388        .C      BICS     r0,r0,r1
        0x1000044a:    2800        .(      CMP      r0,#0
        0x1000044c:    d01e        ..      BEQ      0x1000048c ; GPIO_IRQHandler + 130
        0x1000044e:    4818        .H      LDR      r0,[pc,#96] ; [0x100004b0] = 0x20003014
        0x10000450:    6800        .h      LDR      r0,[r0,#0]
        0x10000452:    2800        .(      CMP      r0,#0
        0x10000454:    d002        ..      BEQ      0x1000045c ; GPIO_IRQHandler + 82
        0x10000456:    4816        .H      LDR      r0,[pc,#88] ; [0x100004b0] = 0x20003014
        0x10000458:    6800        .h      LDR      r0,[r0,#0]
        0x1000045a:    4780        .G      BLX      r0
        0x1000045c:    4813        .H      LDR      r0,[pc,#76] ; [0x100004ac] = 0x20003010
        0x1000045e:    6800        .h      LDR      r0,[r0,#0]
        0x10000460:    2118        .!      MOVS     r1,#0x18
        0x10000462:    1841        A.      ADDS     r1,r0,r1
        0x10000464:    780a        .x      LDRB     r2,[r1,#0]
        0x10000466:    4610        .F      MOV      r0,r2
        0x10000468:    784a        Jx      LDRB     r2,[r1,#1]
        0x1000046a:    0212        ..      LSLS     r2,r2,#8
        0x1000046c:    4310        .C      ORRS     r0,r0,r2
        0x1000046e:    788a        .x      LDRB     r2,[r1,#2]
        0x10000470:    0412        ..      LSLS     r2,r2,#16
        0x10000472:    4310        .C      ORRS     r0,r0,r2
        0x10000474:    78c9        .x      LDRB     r1,[r1,#3]
        0x10000476:    0609        ..      LSLS     r1,r1,#24
        0x10000478:    4308        .C      ORRS     r0,r0,r1
        0x1000047a:    490c        .I      LDR      r1,[pc,#48] ; [0x100004ac] = 0x20003010
        0x1000047c:    6809        .h      LDR      r1,[r1,#0]
        0x1000047e:    7008        .p      STRB     r0,[r1,#0]
        0x10000480:    0a02        ..      LSRS     r2,r0,#8
        0x10000482:    704a        Jp      STRB     r2,[r1,#1]
        0x10000484:    0c02        ..      LSRS     r2,r0,#16
        0x10000486:    708a        .p      STRB     r2,[r1,#2]
        0x10000488:    0e00        ..      LSRS     r0,r0,#24
        0x1000048a:    70c8        .p      STRB     r0,[r1,#3]
        0x1000048c:    bd10        ..      POP      {r4,pc}
    $d
        0x1000048e:    0000        ..      DCW    0
        0x10000490:    20003000    .0.     DCD    536883200
        0x10000494:    50001080    ...P    DCD    1342181504
        0x10000498:    20003018    .0.     DCD    536883224
        0x1000049c:    20003030    00.     DCD    536883248
        0x100004a0:    20003004    .0.     DCD    536883204
        0x100004a4:    2000300c    .0.     DCD    536883212
        0x100004a8:    20003008    .0.     DCD    536883208
        0x100004ac:    20003010    .0.     DCD    536883216
        0x100004b0:    20003014    .0.     DCD    536883220
    $t
    .text
    uart_0_init
        0x100004b4:    b510        ..      PUSH     {r4,lr}
        0x100004b6:    48bb        .H      LDR      r0,[pc,#748] ; [0x100007a4] = 0x20003000
        0x100004b8:    6800        .h      LDR      r0,[r0,#0]
        0x100004ba:    7bc0        .{      LDRB     r0,[r0,#0xf]
        0x100004bc:    0980        ..      LSRS     r0,r0,#6
        0x100004be:    0180        ..      LSLS     r0,r0,#6
        0x100004c0:    1cc0        ..      ADDS     r0,r0,#3
        0x100004c2:    49b8        .I      LDR      r1,[pc,#736] ; [0x100007a4] = 0x20003000
        0x100004c4:    6809        .h      LDR      r1,[r1,#0]
        0x100004c6:    73c8        .s      STRB     r0,[r1,#0xf]
        0x100004c8:    48b6        .H      LDR      r0,[pc,#728] ; [0x100007a4] = 0x20003000
        0x100004ca:    6800        .h      LDR      r0,[r0,#0]
        0x100004cc:    7c00        .|      LDRB     r0,[r0,#0x10]
        0x100004ce:    0980        ..      LSRS     r0,r0,#6
        0x100004d0:    0180        ..      LSLS     r0,r0,#6
        0x100004d2:    1d00        ..      ADDS     r0,r0,#4
        0x100004d4:    49b3        .I      LDR      r1,[pc,#716] ; [0x100007a4] = 0x20003000
        0x100004d6:    6809        .h      LDR      r1,[r1,#0]
        0x100004d8:    7408        .t      STRB     r0,[r1,#0x10]
        0x100004da:    48b2        .H      LDR      r0,[pc,#712] ; [0x100007a4] = 0x20003000
        0x100004dc:    6800        .h      LDR      r0,[r0,#0]
        0x100004de:    3020         0      ADDS     r0,r0,#0x20
        0x100004e0:    7880        .x      LDRB     r0,[r0,#2]
        0x100004e2:    2120         !      MOVS     r1,#0x20
        0x100004e4:    4388        .C      BICS     r0,r0,r1
        0x100004e6:    49af        .I      LDR      r1,[pc,#700] ; [0x100007a4] = 0x20003000
        0x100004e8:    6809        .h      LDR      r1,[r1,#0]
        0x100004ea:    3120         1      ADDS     r1,r1,#0x20
        0x100004ec:    7088        .p      STRB     r0,[r1,#2]
        0x100004ee:    48ad        .H      LDR      r0,[pc,#692] ; [0x100007a4] = 0x20003000
        0x100004f0:    6800        .h      LDR      r0,[r0,#0]
        0x100004f2:    3020         0      ADDS     r0,r0,#0x20
        0x100004f4:    7880        .x      LDRB     r0,[r0,#2]
        0x100004f6:    2140        @!      MOVS     r1,#0x40
        0x100004f8:    4388        .C      BICS     r0,r0,r1
        0x100004fa:    49aa        .I      LDR      r1,[pc,#680] ; [0x100007a4] = 0x20003000
        0x100004fc:    6809        .h      LDR      r1,[r1,#0]
        0x100004fe:    3120         1      ADDS     r1,r1,#0x20
        0x10000500:    7088        .p      STRB     r0,[r1,#2]
        0x10000502:    48a9        .H      LDR      r0,[pc,#676] ; [0x100007a8] = 0x20003048
        0x10000504:    6800        .h      LDR      r0,[r0,#0]
        0x10000506:    7880        .x      LDRB     r0,[r0,#2]
        0x10000508:    0840        @.      LSRS     r0,r0,#1
        0x1000050a:    0040        @.      LSLS     r0,r0,#1
        0x1000050c:    49a6        .I      LDR      r1,[pc,#664] ; [0x100007a8] = 0x20003048
        0x1000050e:    6809        .h      LDR      r1,[r1,#0]
        0x10000510:    7088        .p      STRB     r0,[r1,#2]
        0x10000512:    48a5        .H      LDR      r0,[pc,#660] ; [0x100007a8] = 0x20003048
        0x10000514:    6800        .h      LDR      r0,[r0,#0]
        0x10000516:    7800        .x      LDRB     r0,[r0,#0]
        0x10000518:    0900        ..      LSRS     r0,r0,#4
        0x1000051a:    0100        ..      LSLS     r0,r0,#4
        0x1000051c:    3008        .0      ADDS     r0,r0,#8
        0x1000051e:    49a2        .I      LDR      r1,[pc,#648] ; [0x100007a8] = 0x20003048
        0x10000520:    6809        .h      LDR      r1,[r1,#0]
        0x10000522:    7008        .p      STRB     r0,[r1,#0]
        0x10000524:    48a0        .H      LDR      r0,[pc,#640] ; [0x100007a8] = 0x20003048
        0x10000526:    6800        .h      LDR      r0,[r0,#0]
        0x10000528:    7800        .x      LDRB     r0,[r0,#0]
        0x1000052a:    2180        .!      MOVS     r1,#0x80
        0x1000052c:    4388        .C      BICS     r0,r0,r1
        0x1000052e:    499e        .I      LDR      r1,[pc,#632] ; [0x100007a8] = 0x20003048
        0x10000530:    6809        .h      LDR      r1,[r1,#0]
        0x10000532:    7008        .p      STRB     r0,[r1,#0]
        0x10000534:    489c        .H      LDR      r0,[pc,#624] ; [0x100007a8] = 0x20003048
        0x10000536:    6800        .h      LDR      r0,[r0,#0]
        0x10000538:    7800        .x      LDRB     r0,[r0,#0]
        0x1000053a:    2140        @!      MOVS     r1,#0x40
        0x1000053c:    4388        .C      BICS     r0,r0,r1
        0x1000053e:    3040        @0      ADDS     r0,r0,#0x40
        0x10000540:    4999        .I      LDR      r1,[pc,#612] ; [0x100007a8] = 0x20003048
        0x10000542:    6809        .h      LDR      r1,[r1,#0]
        0x10000544:    7008        .p      STRB     r0,[r1,#0]
        0x10000546:    4898        .H      LDR      r0,[pc,#608] ; [0x100007a8] = 0x20003048
        0x10000548:    6800        .h      LDR      r0,[r0,#0]
        0x1000054a:    78c0        .x      LDRB     r0,[r0,#3]
        0x1000054c:    2110        .!      MOVS     r1,#0x10
        0x1000054e:    4388        .C      BICS     r0,r0,r1
        0x10000550:    3010        .0      ADDS     r0,r0,#0x10
        0x10000552:    4995        .I      LDR      r1,[pc,#596] ; [0x100007a8] = 0x20003048
        0x10000554:    6809        .h      LDR      r1,[r1,#0]
        0x10000556:    70c8        .p      STRB     r0,[r1,#3]
        0x10000558:    4893        .H      LDR      r0,[pc,#588] ; [0x100007a8] = 0x20003048
        0x1000055a:    6800        .h      LDR      r0,[r0,#0]
        0x1000055c:    7880        .x      LDRB     r0,[r0,#2]
        0x1000055e:    2104        .!      MOVS     r1,#4
        0x10000560:    4388        .C      BICS     r0,r0,r1
        0x10000562:    1d00        ..      ADDS     r0,r0,#4
        0x10000564:    4990        .I      LDR      r1,[pc,#576] ; [0x100007a8] = 0x20003048
        0x10000566:    6809        .h      LDR      r1,[r1,#0]
        0x10000568:    7088        .p      STRB     r0,[r1,#2]
        0x1000056a:    488f        .H      LDR      r0,[pc,#572] ; [0x100007a8] = 0x20003048
        0x1000056c:    6800        .h      LDR      r0,[r0,#0]
        0x1000056e:    7880        .x      LDRB     r0,[r0,#2]
        0x10000570:    2120         !      MOVS     r1,#0x20
        0x10000572:    4388        .C      BICS     r0,r0,r1
        0x10000574:    498c        .I      LDR      r1,[pc,#560] ; [0x100007a8] = 0x20003048
        0x10000576:    6809        .h      LDR      r1,[r1,#0]
        0x10000578:    7088        .p      STRB     r0,[r1,#2]
        0x1000057a:    488b        .H      LDR      r0,[pc,#556] ; [0x100007a8] = 0x20003048
        0x1000057c:    6800        .h      LDR      r0,[r0,#0]
        0x1000057e:    7880        .x      LDRB     r0,[r0,#2]
        0x10000580:    2110        .!      MOVS     r1,#0x10
        0x10000582:    4388        .C      BICS     r0,r0,r1
        0x10000584:    4988        .I      LDR      r1,[pc,#544] ; [0x100007a8] = 0x20003048
        0x10000586:    6809        .h      LDR      r1,[r1,#0]
        0x10000588:    7088        .p      STRB     r0,[r1,#2]
        0x1000058a:    4887        .H      LDR      r0,[pc,#540] ; [0x100007a8] = 0x20003048
        0x1000058c:    6800        .h      LDR      r0,[r0,#0]
        0x1000058e:    7880        .x      LDRB     r0,[r0,#2]
        0x10000590:    2180        .!      MOVS     r1,#0x80
        0x10000592:    4388        .C      BICS     r0,r0,r1
        0x10000594:    4984        .I      LDR      r1,[pc,#528] ; [0x100007a8] = 0x20003048
        0x10000596:    6809        .h      LDR      r1,[r1,#0]
        0x10000598:    7088        .p      STRB     r0,[r1,#2]
        0x1000059a:    4883        .H      LDR      r0,[pc,#524] ; [0x100007a8] = 0x20003048
        0x1000059c:    6800        .h      LDR      r0,[r0,#0]
        0x1000059e:    7880        .x      LDRB     r0,[r0,#2]
        0x100005a0:    2140        @!      MOVS     r1,#0x40
        0x100005a2:    4388        .C      BICS     r0,r0,r1
        0x100005a4:    4980        .I      LDR      r1,[pc,#512] ; [0x100007a8] = 0x20003048
        0x100005a6:    6809        .h      LDR      r1,[r1,#0]
        0x100005a8:    7088        .p      STRB     r0,[r1,#2]
        0x100005aa:    487f        .H      LDR      r0,[pc,#508] ; [0x100007a8] = 0x20003048
        0x100005ac:    6800        .h      LDR      r0,[r0,#0]
        0x100005ae:    7800        .x      LDRB     r0,[r0,#0]
        0x100005b0:    2110        .!      MOVS     r1,#0x10
        0x100005b2:    4388        .C      BICS     r0,r0,r1
        0x100005b4:    497c        |I      LDR      r1,[pc,#496] ; [0x100007a8] = 0x20003048
        0x100005b6:    6809        .h      LDR      r1,[r1,#0]
        0x100005b8:    7008        .p      STRB     r0,[r1,#0]
        0x100005ba:    487b        {H      LDR      r0,[pc,#492] ; [0x100007a8] = 0x20003048
        0x100005bc:    6800        .h      LDR      r0,[r0,#0]
        0x100005be:    7800        .x      LDRB     r0,[r0,#0]
        0x100005c0:    2120         !      MOVS     r1,#0x20
        0x100005c2:    4388        .C      BICS     r0,r0,r1
        0x100005c4:    4978        xI      LDR      r1,[pc,#480] ; [0x100007a8] = 0x20003048
        0x100005c6:    6809        .h      LDR      r1,[r1,#0]
        0x100005c8:    7008        .p      STRB     r0,[r1,#0]
        0x100005ca:    4877        wH      LDR      r0,[pc,#476] ; [0x100007a8] = 0x20003048
        0x100005cc:    6800        .h      LDR      r0,[r0,#0]
        0x100005ce:    7880        .x      LDRB     r0,[r0,#2]
        0x100005d0:    2102        .!      MOVS     r1,#2
        0x100005d2:    4388        .C      BICS     r0,r0,r1
        0x100005d4:    1c80        ..      ADDS     r0,r0,#2
        0x100005d6:    4974        tI      LDR      r1,[pc,#464] ; [0x100007a8] = 0x20003048
        0x100005d8:    6809        .h      LDR      r1,[r1,#0]
        0x100005da:    7088        .p      STRB     r0,[r1,#2]
        0x100005dc:    4872        rH      LDR      r0,[pc,#456] ; [0x100007a8] = 0x20003048
        0x100005de:    6800        .h      LDR      r0,[r0,#0]
        0x100005e0:    78c0        .x      LDRB     r0,[r0,#3]
        0x100005e2:    2120         !      MOVS     r1,#0x20
        0x100005e4:    4388        .C      BICS     r0,r0,r1
        0x100005e6:    3020         0      ADDS     r0,r0,#0x20
        0x100005e8:    496f        oI      LDR      r1,[pc,#444] ; [0x100007a8] = 0x20003048
        0x100005ea:    6809        .h      LDR      r1,[r1,#0]
        0x100005ec:    70c8        .p      STRB     r0,[r1,#3]
        0x100005ee:    2006        .       MOVS     r0,#6
        0x100005f0:    f000f8d0    ....    BL       NVIC_EnableIRQ ; 0x10000794
        0x100005f4:    486c        lH      LDR      r0,[pc,#432] ; [0x100007a8] = 0x20003048
        0x100005f6:    6800        .h      LDR      r0,[r0,#0]
        0x100005f8:    7880        .x      LDRB     r0,[r0,#2]
        0x100005fa:    2108        .!      MOVS     r1,#8
        0x100005fc:    4388        .C      BICS     r0,r0,r1
        0x100005fe:    3008        .0      ADDS     r0,r0,#8
        0x10000600:    4969        iI      LDR      r1,[pc,#420] ; [0x100007a8] = 0x20003048
        0x10000602:    6809        .h      LDR      r1,[r1,#0]
        0x10000604:    7088        .p      STRB     r0,[r1,#2]
        0x10000606:    bd10        ..      POP      {r4,pc}
    uart_0_write
        0x10000608:    4967        gI      LDR      r1,[pc,#412] ; [0x100007a8] = 0x20003048
        0x1000060a:    6809        .h      LDR      r1,[r1,#0]
        0x1000060c:    7048        Hp      STRB     r0,[r1,#1]
        0x1000060e:    bf00        ..      NOP      
        0x10000610:    4965        eI      LDR      r1,[pc,#404] ; [0x100007a8] = 0x20003048
        0x10000612:    6809        .h      LDR      r1,[r1,#0]
        0x10000614:    7809        .x      LDRB     r1,[r1,#0]
        0x10000616:    0689        ..      LSLS     r1,r1,#26
        0x10000618:    0fc9        ..      LSRS     r1,r1,#31
        0x1000061a:    2900        .)      CMP      r1,#0
        0x1000061c:    d0f8        ..      BEQ      0x10000610 ; uart_0_write + 8
        0x1000061e:    4962        bI      LDR      r1,[pc,#392] ; [0x100007a8] = 0x20003048
        0x10000620:    6809        .h      LDR      r1,[r1,#0]
        0x10000622:    7809        .x      LDRB     r1,[r1,#0]
        0x10000624:    2220         "      MOVS     r2,#0x20
        0x10000626:    4391        .C      BICS     r1,r1,r2
        0x10000628:    4a5f        _J      LDR      r2,[pc,#380] ; [0x100007a8] = 0x20003048
        0x1000062a:    6812        .h      LDR      r2,[r2,#0]
        0x1000062c:    7011        .p      STRB     r1,[r2,#0]
        0x1000062e:    4770        pG      BX       lr
    uart_0_read
        0x10000630:    b518        ..      PUSH     {r3,r4,lr}
        0x10000632:    4602        .F      MOV      r2,r0
        0x10000634:    2000        .       MOVS     r0,#0
        0x10000636:    2300        .#      MOVS     r3,#0
        0x10000638:    9300        ..      STR      r3,[sp,#0]
        0x1000063a:    e014        ..      B        0x10000666 ; uart_0_read + 54
        0x1000063c:    4b5a        ZK      LDR      r3,[pc,#360] ; [0x100007a8] = 0x20003048
        0x1000063e:    681b        .h      LDR      r3,[r3,#0]
        0x10000640:    791b        .y      LDRB     r3,[r3,#4]
        0x10000642:    540b        .T      STRB     r3,[r1,r0]
        0x10000644:    1c43        C.      ADDS     r3,r0,#1
        0x10000646:    b2d8        ..      UXTB     r0,r3
        0x10000648:    466b        kF      MOV      r3,sp
        0x1000064a:    781b        .x      LDRB     r3,[r3,#0]
        0x1000064c:    1c5b        [.      ADDS     r3,r3,#1
        0x1000064e:    b2dc        ..      UXTB     r4,r3
        0x10000650:    9400        ..      STR      r4,[sp,#0]
        0x10000652:    466b        kF      MOV      r3,sp
        0x10000654:    781b        .x      LDRB     r3,[r3,#0]
        0x10000656:    1c5b        [.      ADDS     r3,r3,#1
        0x10000658:    b2dc        ..      UXTB     r4,r3
        0x1000065a:    9400        ..      STR      r4,[sp,#0]
        0x1000065c:    466b        kF      MOV      r3,sp
        0x1000065e:    781b        .x      LDRB     r3,[r3,#0]
        0x10000660:    1c5b        [.      ADDS     r3,r3,#1
        0x10000662:    b2dc        ..      UXTB     r4,r3
        0x10000664:    9400        ..      STR      r4,[sp,#0]
        0x10000666:    4b50        PK      LDR      r3,[pc,#320] ; [0x100007a8] = 0x20003048
        0x10000668:    681b        .h      LDR      r3,[r3,#0]
        0x1000066a:    78db        .x      LDRB     r3,[r3,#3]
        0x1000066c:    07db        ..      LSLS     r3,r3,#31
        0x1000066e:    0fdb        ..      LSRS     r3,r3,#31
        0x10000670:    2b00        .+      CMP      r3,#0
        0x10000672:    d0e3        ..      BEQ      0x1000063c ; uart_0_read + 12
        0x10000674:    7010        .p      STRB     r0,[r2,#0]
        0x10000676:    bd18        ..      POP      {r3,r4,pc}
    UART0_IRQHandler
        0x10000678:    b50c        ..      PUSH     {r2,r3,lr}
        0x1000067a:    484b        KH      LDR      r0,[pc,#300] ; [0x100007a8] = 0x20003048
        0x1000067c:    6800        .h      LDR      r0,[r0,#0]
        0x1000067e:    7800        .x      LDRB     r0,[r0,#0]
        0x10000680:    06c0        ..      LSLS     r0,r0,#27
        0x10000682:    0fc0        ..      LSRS     r0,r0,#31
        0x10000684:    2800        .(      CMP      r0,#0
        0x10000686:    d00c        ..      BEQ      0x100006a2 ; UART0_IRQHandler + 42
        0x10000688:    4847        GH      LDR      r0,[pc,#284] ; [0x100007a8] = 0x20003048
        0x1000068a:    6800        .h      LDR      r0,[r0,#0]
        0x1000068c:    7800        .x      LDRB     r0,[r0,#0]
        0x1000068e:    2110        .!      MOVS     r1,#0x10
        0x10000690:    4388        .C      BICS     r0,r0,r1
        0x10000692:    4945        EI      LDR      r1,[pc,#276] ; [0x100007a8] = 0x20003048
        0x10000694:    6809        .h      LDR      r1,[r1,#0]
        0x10000696:    7008        .p      STRB     r0,[r1,#0]
        0x10000698:    4669        iF      MOV      r1,sp
        0x1000069a:    a801        ..      ADD      r0,sp,#4
        0x1000069c:    f7ffffc8    ....    BL       uart_0_read ; 0x10000630
        0x100006a0:    bf00        ..      NOP      
        0x100006a2:    4841        AH      LDR      r0,[pc,#260] ; [0x100007a8] = 0x20003048
        0x100006a4:    6800        .h      LDR      r0,[r0,#0]
        0x100006a6:    7800        .x      LDRB     r0,[r0,#0]
        0x100006a8:    0680        ..      LSLS     r0,r0,#26
        0x100006aa:    0fc0        ..      LSRS     r0,r0,#31
        0x100006ac:    2800        .(      CMP      r0,#0
        0x100006ae:    d007        ..      BEQ      0x100006c0 ; UART0_IRQHandler + 72
        0x100006b0:    483d        =H      LDR      r0,[pc,#244] ; [0x100007a8] = 0x20003048
        0x100006b2:    6800        .h      LDR      r0,[r0,#0]
        0x100006b4:    7800        .x      LDRB     r0,[r0,#0]
        0x100006b6:    2120         !      MOVS     r1,#0x20
        0x100006b8:    4388        .C      BICS     r0,r0,r1
        0x100006ba:    493b        ;I      LDR      r1,[pc,#236] ; [0x100007a8] = 0x20003048
        0x100006bc:    6809        .h      LDR      r1,[r1,#0]
        0x100006be:    7008        .p      STRB     r0,[r1,#0]
        0x100006c0:    4839        9H      LDR      r0,[pc,#228] ; [0x100007a8] = 0x20003048
        0x100006c2:    6800        .h      LDR      r0,[r0,#0]
        0x100006c4:    7880        .x      LDRB     r0,[r0,#2]
        0x100006c6:    0780        ..      LSLS     r0,r0,#30
        0x100006c8:    0fc0        ..      LSRS     r0,r0,#31
        0x100006ca:    2800        .(      CMP      r0,#0
        0x100006cc:    d008        ..      BEQ      0x100006e0 ; UART0_IRQHandler + 104
        0x100006ce:    4836        6H      LDR      r0,[pc,#216] ; [0x100007a8] = 0x20003048
        0x100006d0:    6800        .h      LDR      r0,[r0,#0]
        0x100006d2:    7880        .x      LDRB     r0,[r0,#2]
        0x100006d4:    2102        .!      MOVS     r1,#2
        0x100006d6:    4388        .C      BICS     r0,r0,r1
        0x100006d8:    1c80        ..      ADDS     r0,r0,#2
        0x100006da:    4933        3I      LDR      r1,[pc,#204] ; [0x100007a8] = 0x20003048
        0x100006dc:    6809        .h      LDR      r1,[r1,#0]
        0x100006de:    7088        .p      STRB     r0,[r1,#2]
        0x100006e0:    bd0c        ..      POP      {r2,r3,pc}
    uart_1_read
        0x100006e2:    b518        ..      PUSH     {r3,r4,lr}
        0x100006e4:    4602        .F      MOV      r2,r0
        0x100006e6:    2000        .       MOVS     r0,#0
        0x100006e8:    2300        .#      MOVS     r3,#0
        0x100006ea:    9300        ..      STR      r3,[sp,#0]
        0x100006ec:    e014        ..      B        0x10000718 ; uart_1_read + 54
        0x100006ee:    4b2f        /K      LDR      r3,[pc,#188] ; [0x100007ac] = 0x2000304c
        0x100006f0:    681b        .h      LDR      r3,[r3,#0]
        0x100006f2:    791b        .y      LDRB     r3,[r3,#4]
        0x100006f4:    540b        .T      STRB     r3,[r1,r0]
        0x100006f6:    1c43        C.      ADDS     r3,r0,#1
        0x100006f8:    b2d8        ..      UXTB     r0,r3
        0x100006fa:    466b        kF      MOV      r3,sp
        0x100006fc:    781b        .x      LDRB     r3,[r3,#0]
        0x100006fe:    1c5b        [.      ADDS     r3,r3,#1
        0x10000700:    b2dc        ..      UXTB     r4,r3
        0x10000702:    9400        ..      STR      r4,[sp,#0]
        0x10000704:    466b        kF      MOV      r3,sp
        0x10000706:    781b        .x      LDRB     r3,[r3,#0]
        0x10000708:    1c5b        [.      ADDS     r3,r3,#1
        0x1000070a:    b2dc        ..      UXTB     r4,r3
        0x1000070c:    9400        ..      STR      r4,[sp,#0]
        0x1000070e:    466b        kF      MOV      r3,sp
        0x10000710:    781b        .x      LDRB     r3,[r3,#0]
        0x10000712:    1c5b        [.      ADDS     r3,r3,#1
        0x10000714:    b2dc        ..      UXTB     r4,r3
        0x10000716:    9400        ..      STR      r4,[sp,#0]
        0x10000718:    4b24        $K      LDR      r3,[pc,#144] ; [0x100007ac] = 0x2000304c
        0x1000071a:    681b        .h      LDR      r3,[r3,#0]
        0x1000071c:    78db        .x      LDRB     r3,[r3,#3]
        0x1000071e:    07db        ..      LSLS     r3,r3,#31
        0x10000720:    0fdb        ..      LSRS     r3,r3,#31
        0x10000722:    2b00        .+      CMP      r3,#0
        0x10000724:    d0e3        ..      BEQ      0x100006ee ; uart_1_read + 12
        0x10000726:    7010        .p      STRB     r0,[r2,#0]
        0x10000728:    bd18        ..      POP      {r3,r4,pc}
    UART1_IRQHandler
        0x1000072a:    b50c        ..      PUSH     {r2,r3,lr}
        0x1000072c:    481f        .H      LDR      r0,[pc,#124] ; [0x100007ac] = 0x2000304c
        0x1000072e:    6800        .h      LDR      r0,[r0,#0]
        0x10000730:    7800        .x      LDRB     r0,[r0,#0]
        0x10000732:    06c0        ..      LSLS     r0,r0,#27
        0x10000734:    0fc0        ..      LSRS     r0,r0,#31
        0x10000736:    2800        .(      CMP      r0,#0
        0x10000738:    d00c        ..      BEQ      0x10000754 ; UART1_IRQHandler + 42
        0x1000073a:    481c        .H      LDR      r0,[pc,#112] ; [0x100007ac] = 0x2000304c
        0x1000073c:    6800        .h      LDR      r0,[r0,#0]
        0x1000073e:    7800        .x      LDRB     r0,[r0,#0]
        0x10000740:    2110        .!      MOVS     r1,#0x10
        0x10000742:    4388        .C      BICS     r0,r0,r1
        0x10000744:    4919        .I      LDR      r1,[pc,#100] ; [0x100007ac] = 0x2000304c
        0x10000746:    6809        .h      LDR      r1,[r1,#0]
        0x10000748:    7008        .p      STRB     r0,[r1,#0]
        0x1000074a:    4669        iF      MOV      r1,sp
        0x1000074c:    a801        ..      ADD      r0,sp,#4
        0x1000074e:    f7ffffc8    ....    BL       uart_1_read ; 0x100006e2
        0x10000752:    bf00        ..      NOP      
        0x10000754:    4815        .H      LDR      r0,[pc,#84] ; [0x100007ac] = 0x2000304c
        0x10000756:    6800        .h      LDR      r0,[r0,#0]
        0x10000758:    7800        .x      LDRB     r0,[r0,#0]
        0x1000075a:    0680        ..      LSLS     r0,r0,#26
        0x1000075c:    0fc0        ..      LSRS     r0,r0,#31
        0x1000075e:    2800        .(      CMP      r0,#0
        0x10000760:    d007        ..      BEQ      0x10000772 ; UART1_IRQHandler + 72
        0x10000762:    4812        .H      LDR      r0,[pc,#72] ; [0x100007ac] = 0x2000304c
        0x10000764:    6800        .h      LDR      r0,[r0,#0]
        0x10000766:    7800        .x      LDRB     r0,[r0,#0]
        0x10000768:    2120         !      MOVS     r1,#0x20
        0x1000076a:    4388        .C      BICS     r0,r0,r1
        0x1000076c:    490f        .I      LDR      r1,[pc,#60] ; [0x100007ac] = 0x2000304c
        0x1000076e:    6809        .h      LDR      r1,[r1,#0]
        0x10000770:    7008        .p      STRB     r0,[r1,#0]
        0x10000772:    480e        .H      LDR      r0,[pc,#56] ; [0x100007ac] = 0x2000304c
        0x10000774:    6800        .h      LDR      r0,[r0,#0]
        0x10000776:    7880        .x      LDRB     r0,[r0,#2]
        0x10000778:    0780        ..      LSLS     r0,r0,#30
        0x1000077a:    0fc0        ..      LSRS     r0,r0,#31
        0x1000077c:    2800        .(      CMP      r0,#0
        0x1000077e:    d008        ..      BEQ      0x10000792 ; UART1_IRQHandler + 104
        0x10000780:    480a        .H      LDR      r0,[pc,#40] ; [0x100007ac] = 0x2000304c
        0x10000782:    6800        .h      LDR      r0,[r0,#0]
        0x10000784:    7880        .x      LDRB     r0,[r0,#2]
        0x10000786:    2102        .!      MOVS     r1,#2
        0x10000788:    4388        .C      BICS     r0,r0,r1
        0x1000078a:    1c80        ..      ADDS     r0,r0,#2
        0x1000078c:    4907        .I      LDR      r1,[pc,#28] ; [0x100007ac] = 0x2000304c
        0x1000078e:    6809        .h      LDR      r1,[r1,#0]
        0x10000790:    7088        .p      STRB     r0,[r1,#2]
        0x10000792:    bd0c        ..      POP      {r2,r3,pc}
    NVIC_EnableIRQ
        0x10000794:    06c2        ..      LSLS     r2,r0,#27
        0x10000796:    0ed2        ..      LSRS     r2,r2,#27
        0x10000798:    2101        .!      MOVS     r1,#1
        0x1000079a:    4091        .@      LSLS     r1,r1,r2
        0x1000079c:    4a04        .J      LDR      r2,[pc,#16] ; [0x100007b0] = 0xe000e100
        0x1000079e:    6011        .`      STR      r1,[r2,#0]
        0x100007a0:    4770        pG      BX       lr
    $d
        0x100007a2:    0000        ..      DCW    0
        0x100007a4:    20003000    .0.     DCD    536883200
        0x100007a8:    20003048    H0.     DCD    536883272
        0x100007ac:    2000304c    L0.     DCD    536883276
        0x100007b0:    e000e100    ....    DCD    3758153984
    $t
    .text
    Reset_Handler
        0x100007b4:    4804        .H      LDR      r0,[pc,#16] ; [0x100007c8] = 0x100007d1
        0x100007b6:    4780        .G      BLX      r0
        0x100007b8:    4804        .H      LDR      r0,[pc,#16] ; [0x100007cc] = 0x100000c1
        0x100007ba:    4700        .G      BX       r0
    NMI_Handler
        0x100007bc:    e7fe        ..      B        NMI_Handler ; 0x100007bc
    HardFault_Handler
        0x100007be:    e7fe        ..      B        HardFault_Handler ; 0x100007be
    SVC_Handler
        0x100007c0:    e7fe        ..      B        SVC_Handler ; 0x100007c0
    PendSV_Handler
        0x100007c2:    e7fe        ..      B        PendSV_Handler ; 0x100007c2
    SysTick_Handler
        0x100007c4:    e7fe        ..      B        SysTick_Handler ; 0x100007c4
    CAP_IRQHandler
    GPADC_IRQHandler
    HID_IRQHandler
    HPWM_IRQHandler
    HTIMER_IRQHandler
    I2C0_IRQHandler
    I2C1_IRQHandler
    IR_Rx_IRQHandler
    IR_Tx_IRQHandler
    ISO_7816_IRQHandler
    LLC2_IRQHandler
    LLC_IRQHandler
    RTC_IRQHandler
    SPIM_IRQHandler
    SW_IRQHandler
    TIMER0_IRQHandler
    TIMER1_IRQHandler
    TIMER2_IRQHandler
    TIMER3_IRQHandler
    TOUCH_IRQHandler
        0x100007c6:    e7fe        ..      B        CAP_IRQHandler ; 0x100007c6
    $d
        0x100007c8:    100007d1    ....    DCD    268437457
        0x100007cc:    100000c1    ....    DCD    268435649
    $t
    .text
    SystemInit
        0x100007d0:    4801        .H      LDR      r0,[pc,#4] ; [0x100007d8] = 0xf42400
        0x100007d2:    4902        .I      LDR      r1,[pc,#8] ; [0x100007dc] = 0x20003050
        0x100007d4:    6008        .`      STR      r0,[r1,#0]
        0x100007d6:    4770        pG      BX       lr
    $d
        0x100007d8:    00f42400    .$..    DCD    16000000
        0x100007dc:    20003050    P0.     DCD    536883280
    $t
    .text
    _LCDisConnect
        0x100007e0:    b5f1        ..      PUSH     {r0,r4-r7,lr}
        0x100007e2:    48f8        .H      LDR      r0,[pc,#992] ; [0x10000bc4] = 0x65bf
        0x100007e4:    4780        .G      BLX      r0
        0x100007e6:    4607        .F      MOV      r7,r0
        0x100007e8:    48f7        .H      LDR      r0,[pc,#988] ; [0x10000bc8] = 0x6a77
        0x100007ea:    4780        .G      BLX      r0
        0x100007ec:    4606        .F      MOV      r6,r0
        0x100007ee:    4cf5        .L      LDR      r4,[pc,#980] ; [0x10000bc4] = 0x65bf
        0x100007f0:    2001        .       MOVS     r0,#1
        0x100007f2:    3c18        .<      SUBS     r4,r4,#0x18
        0x100007f4:    47a0        .G      BLX      r4
        0x100007f6:    4df4        .M      LDR      r5,[pc,#976] ; [0x10000bc8] = 0x6a77
        0x100007f8:    2000        .       MOVS     r0,#0
        0x100007fa:    350c        .5      ADDS     r5,r5,#0xc
        0x100007fc:    47a8        .G      BLX      r5
        0x100007fe:    49f3        .I      LDR      r1,[pc,#972] ; [0x10000bcc] = 0x16cf
        0x10000800:    9800        ..      LDR      r0,[sp,#0]
        0x10000802:    4788        .G      BLX      r1
        0x10000804:    4630        0F      MOV      r0,r6
        0x10000806:    47a8        .G      BLX      r5
        0x10000808:    4638        8F      MOV      r0,r7
        0x1000080a:    47a0        .G      BLX      r4
        0x1000080c:    bdf8        ..      POP      {r3-r7,pc}
    _LCTimer_Handler
        0x1000080e:    b5f0        ..      PUSH     {r4-r7,lr}
        0x10000810:    4def        .M      LDR      r5,[pc,#956] ; [0x10000bd0] = 0x20003054
        0x10000812:    48f0        .H      LDR      r0,[pc,#960] ; [0x10000bd4] = 0x3ce
        0x10000814:    68a9        .h      LDR      r1,[r5,#8]
        0x10000816:    b085        ..      SUB      sp,sp,#0x14
        0x10000818:    1808        ..      ADDS     r0,r1,r0
        0x1000081a:    4604        .F      MOV      r4,r0
        0x1000081c:    f001ffd2    ....    BL       __aeabi_uread4 ; 0x100027c4
        0x10000820:    4621        !F      MOV      r1,r4
        0x10000822:    1c40        @.      ADDS     r0,r0,#1
        0x10000824:    f001ffd8    ....    BL       __aeabi_uwrite4 ; 0x100027d8
        0x10000828:    2400        .$      MOVS     r4,#0
        0x1000082a:    48e9        .H      LDR      r0,[pc,#932] ; [0x10000bd0] = 0x20003054
        0x1000082c:    2501        .%      MOVS     r5,#1
        0x1000082e:    6886        .h      LDR      r6,[r0,#8]
        0x10000830:    48e8        .H      LDR      r0,[pc,#928] ; [0x10000bd4] = 0x3ce
        0x10000832:    380c        .8      SUBS     r0,r0,#0xc
        0x10000834:    1831        1.      ADDS     r1,r6,r0
        0x10000836:    9103        ..      STR      r1,[sp,#0xc]
        0x10000838:    7c48        H|      LDRB     r0,[r1,#0x11]
        0x1000083a:    7c09        .|      LDRB     r1,[r1,#0x10]
        0x1000083c:    0200        ..      LSLS     r0,r0,#8
        0x1000083e:    4308        .C      ORRS     r0,r0,r1
        0x10000840:    40a5        .@      LSLS     r5,r5,r4
        0x10000842:    4228        (B      TST      r0,r5
        0x10000844:    9002        ..      STR      r0,[sp,#8]
        0x10000846:    d03b        ;.      BEQ      0x100008c0 ; _LCTimer_Handler + 178
        0x10000848:    200b        .       MOVS     r0,#0xb
        0x1000084a:    4360        `C      MULS     r0,r4,r0
        0x1000084c:    1981        ..      ADDS     r1,r0,r6
        0x1000084e:    48e1        .H      LDR      r0,[pc,#900] ; [0x10000bd4] = 0x3ce
        0x10000850:    9100        ..      STR      r1,[sp,#0]
        0x10000852:    3009        .0      ADDS     r0,r0,#9
        0x10000854:    1808        ..      ADDS     r0,r1,r0
        0x10000856:    9001        ..      STR      r0,[sp,#4]
        0x10000858:    f001ffb4    ....    BL       __aeabi_uread4 ; 0x100027c4
        0x1000085c:    4607        .F      MOV      r7,r0
        0x1000085e:    48dd        .H      LDR      r0,[pc,#884] ; [0x10000bd4] = 0x3ce
        0x10000860:    1830        0.      ADDS     r0,r6,r0
        0x10000862:    f001ffaf    ....    BL       __aeabi_uread4 ; 0x100027c4
        0x10000866:    4287        .B      CMP      r7,r0
        0x10000868:    d12a        *.      BNE      0x100008c0 ; _LCTimer_Handler + 178
        0x1000086a:    210f        .!      MOVS     r1,#0xf
        0x1000086c:    9800        ..      LDR      r0,[sp,#0]
        0x1000086e:    0189        ..      LSLS     r1,r1,#6
        0x10000870:    1840        @.      ADDS     r0,r0,r1
        0x10000872:    7d00        .}      LDRB     r0,[r0,#0x14]
        0x10000874:    2800        .(      CMP      r0,#0
        0x10000876:    d00c        ..      BEQ      0x10000892 ; _LCTimer_Handler + 132
        0x10000878:    4ad6        .J      LDR      r2,[pc,#856] ; [0x10000bd4] = 0x3ce
        0x1000087a:    9900        ..      LDR      r1,[sp,#0]
        0x1000087c:    3a0d        .:      SUBS     r2,r2,#0xd
        0x1000087e:    188a        ..      ADDS     r2,r1,r2
        0x10000880:    7d51        Q}      LDRB     r1,[r2,#0x15]
        0x10000882:    7d12        .}      LDRB     r2,[r2,#0x14]
        0x10000884:    0209        ..      LSLS     r1,r1,#8
        0x10000886:    4311        .C      ORRS     r1,r1,r2
        0x10000888:    1878        x.      ADDS     r0,r7,r1
        0x1000088a:    9901        ..      LDR      r1,[sp,#4]
        0x1000088c:    f001ffa4    ....    BL       __aeabi_uwrite4 ; 0x100027d8
        0x10000890:    e005        ..      B        0x1000089e ; _LCTimer_Handler + 144
        0x10000892:    9802        ..      LDR      r0,[sp,#8]
        0x10000894:    9903        ..      LDR      r1,[sp,#0xc]
        0x10000896:    43a8        .C      BICS     r0,r0,r5
        0x10000898:    7408        .t      STRB     r0,[r1,#0x10]
        0x1000089a:    0a00        ..      LSRS     r0,r0,#8
        0x1000089c:    7448        Ht      STRB     r0,[r1,#0x11]
        0x1000089e:    48cd        .H      LDR      r0,[pc,#820] ; [0x10000bd4] = 0x3ce
        0x100008a0:    9900        ..      LDR      r1,[sp,#0]
        0x100008a2:    300d        .0      ADDS     r0,r0,#0xd
        0x100008a4:    1808        ..      ADDS     r0,r1,r0
        0x100008a6:    f001ff8d    ....    BL       __aeabi_uread4 ; 0x100027c4
        0x100008aa:    2800        .(      CMP      r0,#0
        0x100008ac:    d008        ..      BEQ      0x100008c0 ; _LCTimer_Handler + 178
        0x100008ae:    2d02        .-      CMP      r5,#2
        0x100008b0:    d019        ..      BEQ      0x100008e6 ; _LCTimer_Handler + 216
        0x100008b2:    2d04        .-      CMP      r5,#4
        0x100008b4:    d017        ..      BEQ      0x100008e6 ; _LCTimer_Handler + 216
        0x100008b6:    2d08        .-      CMP      r5,#8
        0x100008b8:    d015        ..      BEQ      0x100008e6 ; _LCTimer_Handler + 216
        0x100008ba:    2d10        .-      CMP      r5,#0x10
        0x100008bc:    d01a        ..      BEQ      0x100008f4 ; _LCTimer_Handler + 230
        0x100008be:    4780        .G      BLX      r0
        0x100008c0:    1c64        d.      ADDS     r4,r4,#1
        0x100008c2:    b2e4        ..      UXTB     r4,r4
        0x100008c4:    2c0a        .,      CMP      r4,#0xa
        0x100008c6:    d3b0        ..      BCC      0x1000082a ; _LCTimer_Handler + 28
        0x100008c8:    48c1        .H      LDR      r0,[pc,#772] ; [0x10000bd0] = 0x20003054
        0x100008ca:    6881        .h      LDR      r1,[r0,#8]
        0x100008cc:    48c1        .H      LDR      r0,[pc,#772] ; [0x10000bd4] = 0x3ce
        0x100008ce:    380c        .8      SUBS     r0,r0,#0xc
        0x100008d0:    1809        ..      ADDS     r1,r1,r0
        0x100008d2:    7c48        H|      LDRB     r0,[r1,#0x11]
        0x100008d4:    7c09        .|      LDRB     r1,[r1,#0x10]
        0x100008d6:    0200        ..      LSLS     r0,r0,#8
        0x100008d8:    4308        .C      ORRS     r0,r0,r1
        0x100008da:    0580        ..      LSLS     r0,r0,#22
        0x100008dc:    d101        ..      BNE      0x100008e2 ; _LCTimer_Handler + 212
        0x100008de:    48be        .H      LDR      r0,[pc,#760] ; [0x10000bd8] = 0x1201
        0x100008e0:    4780        .G      BLX      r0
        0x100008e2:    b005        ..      ADD      sp,sp,#0x14
        0x100008e4:    bdf0        ..      POP      {r4-r7,pc}
        0x100008e6:    49bd        .I      LDR      r1,[pc,#756] ; [0x10000bdc] = 0xaf5
        0x100008e8:    2001        .       MOVS     r0,#1
        0x100008ea:    4788        .G      BLX      r1
        0x100008ec:    2800        .(      CMP      r0,#0
        0x100008ee:    d0e7        ..      BEQ      0x100008c0 ; _LCTimer_Handler + 178
        0x100008f0:    2022        "       MOVS     r0,#0x22
        0x100008f2:    e005        ..      B        0x10000900 ; _LCTimer_Handler + 242
        0x100008f4:    49b9        .I      LDR      r1,[pc,#740] ; [0x10000bdc] = 0xaf5
        0x100008f6:    2001        .       MOVS     r0,#1
        0x100008f8:    4788        .G      BLX      r1
        0x100008fa:    2800        .(      CMP      r0,#0
        0x100008fc:    d0e0        ..      BEQ      0x100008c0 ; _LCTimer_Handler + 178
        0x100008fe:    203b        ;       MOVS     r0,#0x3b
        0x10000900:    f7ffff6e    ..n.    BL       _LCDisConnect ; 0x100007e0
        0x10000904:    e7dc        ..      B        0x100008c0 ; _LCTimer_Handler + 178
    _LCRxPkt_Handler
        0x10000906:    b5fe        ..      PUSH     {r1-r7,lr}
        0x10000908:    2000        .       MOVS     r0,#0
        0x1000090a:    4669        iF      MOV      r1,sp
        0x1000090c:    7108        .q      STRB     r0,[r1,#4]
        0x1000090e:    7008        .p      STRB     r0,[r1,#0]
        0x10000910:    4fb3        .O      LDR      r7,[pc,#716] ; [0x10000be0] = 0x5749
        0x10000912:    7208        .r      STRB     r0,[r1,#8]
        0x10000914:    4eb3        .N      LDR      r6,[pc,#716] ; [0x10000be4] = 0x1979
        0x10000916:    4cae        .L      LDR      r4,[pc,#696] ; [0x10000bd0] = 0x20003054
        0x10000918:    47b8        .G      BLX      r7
        0x1000091a:    70e0        .p      STRB     r0,[r4,#3]
        0x1000091c:    ab02        ..      ADD      r3,sp,#8
        0x1000091e:    466a        jF      MOV      r2,sp
        0x10000920:    a901        ..      ADD      r1,sp,#4
        0x10000922:    6920         i      LDR      r0,[r4,#0x10]
        0x10000924:    f001fea8    ....    BL       _BBRXFIFORead ; 0x10002678
        0x10000928:    2800        .(      CMP      r0,#0
        0x1000092a:    d036        6.      BEQ      0x1000099a ; _LCRxPkt_Handler + 148
        0x1000092c:    2008        .       MOVS     r0,#8
        0x1000092e:    47b0        .G      BLX      r6
        0x10000930:    2800        .(      CMP      r0,#0
        0x10000932:    d003        ..      BEQ      0x1000093c ; _LCRxPkt_Handler + 54
        0x10000934:    2002        .       MOVS     r0,#2
        0x10000936:    47b0        .G      BLX      r6
        0x10000938:    2800        .(      CMP      r0,#0
        0x1000093a:    d00f        ..      BEQ      0x1000095c ; _LCRxPkt_Handler + 86
        0x1000093c:    4668        hF      MOV      r0,sp
        0x1000093e:    7800        .x      LDRB     r0,[r0,#0]
        0x10000940:    2801        .(      CMP      r0,#1
        0x10000942:    d011        ..      BEQ      0x10000968 ; _LCRxPkt_Handler + 98
        0x10000944:    68a0        .h      LDR      r0,[r4,#8]
        0x10000946:    6925        %i      LDR      r5,[r4,#0x10]
        0x10000948:    7a40        @z      LDRB     r0,[r0,#9]
        0x1000094a:    2801        .(      CMP      r0,#1
        0x1000094c:    d026        &.      BEQ      0x1000099c ; _LCRxPkt_Handler + 150
        0x1000094e:    2802        .(      CMP      r0,#2
        0x10000950:    d1e2        ..      BNE      0x10000918 ; _LCRxPkt_Handler + 18
        0x10000952:    4aa5        .J      LDR      r2,[pc,#660] ; [0x10000be8] = 0x1e8b
        0x10000954:    78e1        .x      LDRB     r1,[r4,#3]
        0x10000956:    4628        (F      MOV      r0,r5
        0x10000958:    4790        .G      BLX      r2
        0x1000095a:    e7dd        ..      B        0x10000918 ; _LCRxPkt_Handler + 18
        0x1000095c:    2101        .!      MOVS     r1,#1
        0x1000095e:    4668        hF      MOV      r0,sp
        0x10000960:    7001        .p      STRB     r1,[r0,#0]
        0x10000962:    7a00        .z      LDRB     r0,[r0,#8]
        0x10000964:    2800        .(      CMP      r0,#0
        0x10000966:    d015        ..      BEQ      0x10000994 ; _LCRxPkt_Handler + 142
        0x10000968:    2125        %!      MOVS     r1,#0x25
        0x1000096a:    68a0        .h      LDR      r0,[r4,#8]
        0x1000096c:    0149        I.      LSLS     r1,r1,#5
        0x1000096e:    1841        A.      ADDS     r1,r0,r1
        0x10000970:    7b49        I{      LDRB     r1,[r1,#0xd]
        0x10000972:    2900        .)      CMP      r1,#0
        0x10000974:    d008        ..      BEQ      0x10000988 ; _LCRxPkt_Handler + 130
        0x10000976:    4997        .I      LDR      r1,[pc,#604] ; [0x10000bd4] = 0x3ce
        0x10000978:    31d4        .1      ADDS     r1,r1,#0xd4
        0x1000097a:    1840        @.      ADDS     r0,r0,r1
        0x1000097c:    7b41        A{      LDRB     r1,[r0,#0xd]
        0x1000097e:    7b02        .{      LDRB     r2,[r0,#0xc]
        0x10000980:    0208        ..      LSLS     r0,r1,#8
        0x10000982:    499a        .I      LDR      r1,[pc,#616] ; [0x10000bec] = 0x622b
        0x10000984:    4310        .C      ORRS     r0,r0,r2
        0x10000986:    4788        .G      BLX      r1
        0x10000988:    4668        hF      MOV      r0,sp
        0x1000098a:    4a97        .J      LDR      r2,[pc,#604] ; [0x10000be8] = 0x1e8b
        0x1000098c:    7901        .y      LDRB     r1,[r0,#4]
        0x1000098e:    3296        .2      ADDS     r2,r2,#0x96
        0x10000990:    6920         i      LDR      r0,[r4,#0x10]
        0x10000992:    e7e1        ..      B        0x10000958 ; _LCRxPkt_Handler + 82
        0x10000994:    203d        =       MOVS     r0,#0x3d
        0x10000996:    f7ffff23    ..#.    BL       _LCDisConnect ; 0x100007e0
        0x1000099a:    bdfe        ..      POP      {r1-r7,pc}
        0x1000099c:    7828        (x      LDRB     r0,[r5,#0]
        0x1000099e:    0700        ..      LSLS     r0,r0,#28
        0x100009a0:    0f00        ..      LSRS     r0,r0,#28
        0x100009a2:    2805        .(      CMP      r0,#5
        0x100009a4:    d1b8        ..      BNE      0x10000918 ; _LCRxPkt_Handler + 18
        0x100009a6:    498e        .I      LDR      r1,[pc,#568] ; [0x10000be0] = 0x5749
        0x100009a8:    31ee        .1      ADDS     r1,r1,#0xee
        0x100009aa:    1ca8        ..      ADDS     r0,r5,#2
        0x100009ac:    4788        .G      BLX      r1
        0x100009ae:    7828        (x      LDRB     r0,[r5,#0]
        0x100009b0:    2287        ."      MOVS     r2,#0x87
        0x100009b2:    0640        @.      LSLS     r0,r0,#25
        0x100009b4:    0fc1        ..      LSRS     r1,r0,#31
        0x100009b6:    68a0        .h      LDR      r0,[r4,#8]
        0x100009b8:    5411        .T      STRB     r1,[r2,r0]
        0x100009ba:    2206        ."      MOVS     r2,#6
        0x100009bc:    1ca9        ..      ADDS     r1,r5,#2
        0x100009be:    3088        .0      ADDS     r0,r0,#0x88
        0x100009c0:    f001fedc    ....    BL       __aeabi_memcpy ; 0x1000277c
        0x100009c4:    2137        7!      MOVS     r1,#0x37
        0x100009c6:    68e0        .h      LDR      r0,[r4,#0xc]
        0x100009c8:    f001fef1    ....    BL       __aeabi_memclr ; 0x100027ae
        0x100009cc:    e7a4        ..      B        0x10000918 ; _LCRxPkt_Handler + 18
    _LCTxPkt_Handler
        0x100009ce:    b5f0        ..      PUSH     {r4-r7,lr}
        0x100009d0:    4982        .I      LDR      r1,[pc,#520] ; [0x10000bdc] = 0xaf5
        0x100009d2:    b099        ..      SUB      sp,sp,#0x64
        0x100009d4:    2004        .       MOVS     r0,#4
        0x100009d6:    4788        .G      BLX      r1
        0x100009d8:    2800        .(      CMP      r0,#0
        0x100009da:    d00e        ..      BEQ      0x100009fa ; _LCTxPkt_Handler + 44
        0x100009dc:    497f        .I      LDR      r1,[pc,#508] ; [0x10000bdc] = 0xaf5
        0x100009de:    2004        .       MOVS     r0,#4
        0x100009e0:    311a        .1      ADDS     r1,r1,#0x1a
        0x100009e2:    4788        .G      BLX      r1
        0x100009e4:    497c        |I      LDR      r1,[pc,#496] ; [0x10000bd8] = 0x1201
        0x100009e6:    201f        .       MOVS     r0,#0x1f
        0x100009e8:    31ac        .1      ADDS     r1,r1,#0xac
        0x100009ea:    4788        .G      BLX      r1
        0x100009ec:    4880        .H      LDR      r0,[pc,#512] ; [0x10000bf0] = 0x60bd
        0x100009ee:    4780        .G      BLX      r0
        0x100009f0:    2016        .       MOVS     r0,#0x16
        0x100009f2:    f7fffef5    ....    BL       _LCDisConnect ; 0x100007e0
        0x100009f6:    b019        ..      ADD      sp,sp,#0x64
        0x100009f8:    bdf0        ..      POP      {r4-r7,pc}
        0x100009fa:    487e        ~H      LDR      r0,[pc,#504] ; [0x10000bf4] = 0x4e05
        0x100009fc:    4780        .G      BLX      r0
        0x100009fe:    2800        .(      CMP      r0,#0
        0x10000a00:    d010        ..      BEQ      0x10000a24 ; _LCTxPkt_Handler + 86
        0x10000a02:    4d73        sM      LDR      r5,[pc,#460] ; [0x10000bd0] = 0x20003054
        0x10000a04:    68ac        .h      LDR      r4,[r5,#8]
        0x10000a06:    79a1        .y      LDRB     r1,[r4,#6]
        0x10000a08:    0708        ..      LSLS     r0,r1,#28
        0x10000a0a:    d5f4        ..      BPL      0x100009f6 ; _LCTxPkt_Handler + 40
        0x10000a0c:    79e0        .y      LDRB     r0,[r4,#7]
        0x10000a0e:    07c2        ..      LSLS     r2,r0,#31
        0x10000a10:    d01c        ..      BEQ      0x10000a4c ; _LCTxPkt_Handler + 126
        0x10000a12:    4979        yI      LDR      r1,[pc,#484] ; [0x10000bf8] = 0x2627
        0x10000a14:    4620         F      MOV      r0,r4
        0x10000a16:    3098        .0      ADDS     r0,r0,#0x98
        0x10000a18:    4788        .G      BLX      r1
        0x10000a1a:    68a8        .h      LDR      r0,[r5,#8]
        0x10000a1c:    79c1        .y      LDRB     r1,[r0,#7]
        0x10000a1e:    0849        I.      LSRS     r1,r1,#1
        0x10000a20:    0049        I.      LSLS     r1,r1,#1
        0x10000a22:    e01f        ..      B        0x10000a64 ; _LCTxPkt_Handler + 150
        0x10000a24:    4e73        sN      LDR      r6,[pc,#460] ; [0x10000bf4] = 0x4e05
        0x10000a26:    4f72        rO      LDR      r7,[pc,#456] ; [0x10000bf0] = 0x60bd
        0x10000a28:    4d71        qM      LDR      r5,[pc,#452] ; [0x10000bf0] = 0x60bd
        0x10000a2a:    36b2        .6      ADDS     r6,r6,#0xb2
        0x10000a2c:    371c        .7      ADDS     r7,r7,#0x1c
        0x10000a2e:    466c        lF      MOV      r4,sp
        0x10000a30:    3510        .5      ADDS     r5,r5,#0x10
        0x10000a32:    e007        ..      B        0x10000a44 ; _LCTxPkt_Handler + 118
        0x10000a34:    4668        hF      MOV      r0,sp
        0x10000a36:    47b0        .G      BLX      r6
        0x10000a38:    2801        .(      CMP      r0,#1
        0x10000a3a:    d1dc        ..      BNE      0x100009f6 ; _LCTxPkt_Handler + 40
        0x10000a3c:    4668        hF      MOV      r0,sp
        0x10000a3e:    7801        .x      LDRB     r1,[r0,#0]
        0x10000a40:    1c60        `.      ADDS     r0,r4,#1
        0x10000a42:    47b8        .G      BLX      r7
        0x10000a44:    47a8        .G      BLX      r5
        0x10000a46:    2800        .(      CMP      r0,#0
        0x10000a48:    d0f4        ..      BEQ      0x10000a34 ; _LCTxPkt_Handler + 102
        0x10000a4a:    e7d4        ..      B        0x100009f6 ; _LCTxPkt_Handler + 40
        0x10000a4c:    0782        ..      LSLS     r2,r0,#30
        0x10000a4e:    d50b        ..      BPL      0x10000a68 ; _LCTxPkt_Handler + 154
        0x10000a50:    4a69        iJ      LDR      r2,[pc,#420] ; [0x10000bf8] = 0x2627
        0x10000a52:    4620         F      MOV      r0,r4
        0x10000a54:    321c        .2      ADDS     r2,r2,#0x1c
        0x10000a56:    308e        .0      ADDS     r0,r0,#0x8e
        0x10000a58:    1c81        ..      ADDS     r1,r0,#2
        0x10000a5a:    4790        .G      BLX      r2
        0x10000a5c:    68a8        .h      LDR      r0,[r5,#8]
        0x10000a5e:    22fd        ."      MOVS     r2,#0xfd
        0x10000a60:    79c1        .y      LDRB     r1,[r0,#7]
        0x10000a62:    e023        #.      B        0x10000aac ; _LCTxPkt_Handler + 222
        0x10000a64:    71c1        .q      STRB     r1,[r0,#7]
        0x10000a66:    e7c6        ..      B        0x100009f6 ; _LCTxPkt_Handler + 40
        0x10000a68:    0742        B.      LSLS     r2,r0,#29
        0x10000a6a:    d508        ..      BPL      0x10000a7e ; _LCTxPkt_Handler + 176
        0x10000a6c:    4962        bI      LDR      r1,[pc,#392] ; [0x10000bf8] = 0x2627
        0x10000a6e:    4620         F      MOV      r0,r4
        0x10000a70:    3160        `1      ADDS     r1,r1,#0x60
        0x10000a72:    30a8        .0      ADDS     r0,r0,#0xa8
        0x10000a74:    4788        .G      BLX      r1
        0x10000a76:    68a8        .h      LDR      r0,[r5,#8]
        0x10000a78:    22fb        ."      MOVS     r2,#0xfb
        0x10000a7a:    79c1        .y      LDRB     r1,[r0,#7]
        0x10000a7c:    e016        ..      B        0x10000aac ; _LCTxPkt_Handler + 222
        0x10000a7e:    0702        ..      LSLS     r2,r0,#28
        0x10000a80:    26f7        .&      MOVS     r6,#0xf7
        0x10000a82:    2a00        .*      CMP      r2,#0
        0x10000a84:    da09        ..      BGE      0x10000a9a ; _LCTxPkt_Handler + 204
        0x10000a86:    4a5c        \J      LDR      r2,[pc,#368] ; [0x10000bf8] = 0x2627
        0x10000a88:    4621        !F      MOV      r1,r4
        0x10000a8a:    3242        B2      ADDS     r2,r2,#0x42
        0x10000a8c:    7aa0        .z      LDRB     r0,[r4,#0xa]
        0x10000a8e:    310b        .1      ADDS     r1,r1,#0xb
        0x10000a90:    4790        .G      BLX      r2
        0x10000a92:    68a8        .h      LDR      r0,[r5,#8]
        0x10000a94:    79c1        .y      LDRB     r1,[r0,#7]
        0x10000a96:    4031        1@      ANDS     r1,r1,r6
        0x10000a98:    e7e4        ..      B        0x10000a64 ; _LCTxPkt_Handler + 150
        0x10000a9a:    06c0        ..      LSLS     r0,r0,#27
        0x10000a9c:    d508        ..      BPL      0x10000ab0 ; _LCTxPkt_Handler + 226
        0x10000a9e:    4956        VI      LDR      r1,[pc,#344] ; [0x10000bf8] = 0x2627
        0x10000aa0:    4668        hF      MOV      r0,sp
        0x10000aa2:    317c        |1      ADDS     r1,r1,#0x7c
        0x10000aa4:    4788        .G      BLX      r1
        0x10000aa6:    68a8        .h      LDR      r0,[r5,#8]
        0x10000aa8:    22ef        ."      MOVS     r2,#0xef
        0x10000aaa:    79c1        .y      LDRB     r1,[r0,#7]
        0x10000aac:    4011        .@      ANDS     r1,r1,r2
        0x10000aae:    e7d9        ..      B        0x10000a64 ; _LCTxPkt_Handler + 150
        0x10000ab0:    4620         F      MOV      r0,r4
        0x10000ab2:    4031        1@      ANDS     r1,r1,r6
        0x10000ab4:    30ff        .0      ADDS     r0,r0,#0xff
        0x10000ab6:    71a1        .q      STRB     r1,[r4,#6]
        0x10000ab8:    3021        !0      ADDS     r0,r0,#0x21
        0x10000aba:    7d01        .}      LDRB     r1,[r0,#0x14]
        0x10000abc:    2600        .&      MOVS     r6,#0
        0x10000abe:    2900        .)      CMP      r1,#0
        0x10000ac0:    d010        ..      BEQ      0x10000ae4 ; _LCTxPkt_Handler + 278
        0x10000ac2:    7506        .u      STRB     r6,[r0,#0x14]
        0x10000ac4:    4621        !F      MOV      r1,r4
        0x10000ac6:    2207        ."      MOVS     r2,#7
        0x10000ac8:    3187        .1      ADDS     r1,r1,#0x87
        0x10000aca:    a80c        ..      ADD      r0,sp,#0x30
        0x10000acc:    f001fe56    ..V.    BL       __aeabi_memcpy ; 0x1000277c
        0x10000ad0:    4621        !F      MOV      r1,r4
        0x10000ad2:    a80d        ..      ADD      r0,sp,#0x34
        0x10000ad4:    222a        *"      MOVS     r2,#0x2a
        0x10000ad6:    318e        .1      ADDS     r1,r1,#0x8e
        0x10000ad8:    3003        .0      ADDS     r0,#3
        0x10000ada:    f001fe4f    ..O.    BL       __aeabi_memcpy ; 0x1000277c
        0x10000ade:    4947        GI      LDR      r1,[pc,#284] ; [0x10000bfc] = 0x47df
        0x10000ae0:    a80c        ..      ADD      r0,sp,#0x30
        0x10000ae2:    4788        .G      BLX      r1
        0x10000ae4:    2001        .       MOVS     r0,#1
        0x10000ae6:    4669        iF      MOV      r1,sp
        0x10000ae8:    7008        .p      STRB     r0,[r1,#0]
        0x10000aea:    7048        Hp      STRB     r0,[r1,#1]
        0x10000aec:    708e        .p      STRB     r6,[r1,#2]
        0x10000aee:    68a9        .h      LDR      r1,[r5,#8]
        0x10000af0:    a800        ..      ADD      r0,sp,#0
        0x10000af2:    222a        *"      MOVS     r2,#0x2a
        0x10000af4:    3003        .0      ADDS     r0,#3
        0x10000af6:    318e        .1      ADDS     r1,r1,#0x8e
        0x10000af8:    f001fe40    ..@.    BL       __aeabi_memcpy ; 0x1000277c
        0x10000afc:    222d        -"      MOVS     r2,#0x2d
        0x10000afe:    2108        .!      MOVS     r1,#8
        0x10000b00:    4c3f        ?L      LDR      r4,[pc,#252] ; [0x10000c00] = 0x3ea1
        0x10000b02:    466b        kF      MOV      r3,sp
        0x10000b04:    2000        .       MOVS     r0,#0
        0x10000b06:    47a0        .G      BLX      r4
        0x10000b08:    e775        u.      B        0x100009f6 ; _LCTxPkt_Handler + 40
    _BBGetMask
        0x10000b0a:    4931        1I      LDR      r1,[pc,#196] ; [0x10000bd0] = 0x20003054
        0x10000b0c:    2801        .(      CMP      r0,#1
        0x10000b0e:    6a09        .j      LDR      r1,[r1,#0x20]
        0x10000b10:    d00f        ..      BEQ      0x10000b32 ; _BBGetMask + 40
        0x10000b12:    2802        .(      CMP      r0,#2
        0x10000b14:    d011        ..      BEQ      0x10000b3a ; _BBGetMask + 48
        0x10000b16:    2804        .(      CMP      r0,#4
        0x10000b18:    d012        ..      BEQ      0x10000b40 ; _BBGetMask + 54
        0x10000b1a:    2808        .(      CMP      r0,#8
        0x10000b1c:    d013        ..      BEQ      0x10000b46 ; _BBGetMask + 60
        0x10000b1e:    2810        .(      CMP      r0,#0x10
        0x10000b20:    d014        ..      BEQ      0x10000b4c ; _BBGetMask + 66
        0x10000b22:    2820         (      CMP      r0,#0x20
        0x10000b24:    d015        ..      BEQ      0x10000b52 ; _BBGetMask + 72
        0x10000b26:    2840        @(      CMP      r0,#0x40
        0x10000b28:    d016        ..      BEQ      0x10000b58 ; _BBGetMask + 78
        0x10000b2a:    2880        .(      CMP      r0,#0x80
        0x10000b2c:    d018        ..      BEQ      0x10000b60 ; _BBGetMask + 86
        0x10000b2e:    2001        .       MOVS     r0,#1
        0x10000b30:    4770        pG      BX       lr
        0x10000b32:    7888        .x      LDRB     r0,[r1,#2]
        0x10000b34:    07c0        ..      LSLS     r0,r0,#31
        0x10000b36:    0fc0        ..      LSRS     r0,r0,#31
        0x10000b38:    4770        pG      BX       lr
        0x10000b3a:    7888        .x      LDRB     r0,[r1,#2]
        0x10000b3c:    0780        ..      LSLS     r0,r0,#30
        0x10000b3e:    e00d        ..      B        0x10000b5c ; _BBGetMask + 82
        0x10000b40:    7888        .x      LDRB     r0,[r1,#2]
        0x10000b42:    0740        @.      LSLS     r0,r0,#29
        0x10000b44:    e00a        ..      B        0x10000b5c ; _BBGetMask + 82
        0x10000b46:    7888        .x      LDRB     r0,[r1,#2]
        0x10000b48:    0700        ..      LSLS     r0,r0,#28
        0x10000b4a:    e007        ..      B        0x10000b5c ; _BBGetMask + 82
        0x10000b4c:    7888        .x      LDRB     r0,[r1,#2]
        0x10000b4e:    06c0        ..      LSLS     r0,r0,#27
        0x10000b50:    e004        ..      B        0x10000b5c ; _BBGetMask + 82
        0x10000b52:    7888        .x      LDRB     r0,[r1,#2]
        0x10000b54:    0680        ..      LSLS     r0,r0,#26
        0x10000b56:    e001        ..      B        0x10000b5c ; _BBGetMask + 82
        0x10000b58:    7888        .x      LDRB     r0,[r1,#2]
        0x10000b5a:    0640        @.      LSLS     r0,r0,#25
        0x10000b5c:    0fc0        ..      LSRS     r0,r0,#31
        0x10000b5e:    4770        pG      BX       lr
        0x10000b60:    7888        .x      LDRB     r0,[r1,#2]
        0x10000b62:    09c0        ..      LSRS     r0,r0,#7
        0x10000b64:    4770        pG      BX       lr
    Lib_LLEvtCallback
        0x10000b66:    b510        ..      PUSH     {r4,lr}
        0x10000b68:    7801        .x      LDRB     r1,[r0,#0]
        0x10000b6a:    2901        .)      CMP      r1,#1
        0x10000b6c:    d120         .      BNE      0x10000bb0 ; Lib_LLEvtCallback + 74
        0x10000b6e:    1c40        @.      ADDS     r0,r0,#1
        0x10000b70:    f001fe28    ..(.    BL       __aeabi_uread4 ; 0x100027c4
        0x10000b74:    4a16        .J      LDR      r2,[pc,#88] ; [0x10000bd0] = 0x20003054
        0x10000b76:    2810        .(      CMP      r0,#0x10
        0x10000b78:    d05c        \.      BEQ      0x10000c34 ; Lib_LLEvtCallback + 206
        0x10000b7a:    dc0e        ..      BGT      0x10000b9a ; Lib_LLEvtCallback + 52
        0x10000b7c:    2801        .(      CMP      r0,#1
        0x10000b7e:    d018        ..      BEQ      0x10000bb2 ; Lib_LLEvtCallback + 76
        0x10000b80:    2802        .(      CMP      r0,#2
        0x10000b82:    d03f        ?.      BEQ      0x10000c04 ; Lib_LLEvtCallback + 158
        0x10000b84:    2804        .(      CMP      r0,#4
        0x10000b86:    d045        E.      BEQ      0x10000c14 ; Lib_LLEvtCallback + 174
        0x10000b88:    2808        .(      CMP      r0,#8
        0x10000b8a:    d111        ..      BNE      0x10000bb0 ; Lib_LLEvtCallback + 74
        0x10000b8c:    f7ffffbd    ....    BL       _BBGetMask ; 0x10000b0a
        0x10000b90:    2800        .(      CMP      r0,#0
        0x10000b92:    d10d        ..      BNE      0x10000bb0 ; Lib_LLEvtCallback + 74
        0x10000b94:    480d        .H      LDR      r0,[pc,#52] ; [0x10000bcc] = 0x16cf
        0x10000b96:    3856        V8      SUBS     r0,r0,#0x56
        0x10000b98:    e009        ..      B        0x10000bae ; Lib_LLEvtCallback + 72
        0x10000b9a:    2820         (      CMP      r0,#0x20
        0x10000b9c:    d05a        Z.      BEQ      0x10000c54 ; Lib_LLEvtCallback + 238
        0x10000b9e:    2840        @(      CMP      r0,#0x40
        0x10000ba0:    d106        ..      BNE      0x10000bb0 ; Lib_LLEvtCallback + 74
        0x10000ba2:    f7ffffb2    ....    BL       _BBGetMask ; 0x10000b0a
        0x10000ba6:    2800        .(      CMP      r0,#0
        0x10000ba8:    d102        ..      BNE      0x10000bb0 ; Lib_LLEvtCallback + 74
        0x10000baa:    4808        .H      LDR      r0,[pc,#32] ; [0x10000bcc] = 0x16cf
        0x10000bac:    1e80        ..      SUBS     r0,r0,#2
        0x10000bae:    4780        .G      BLX      r0
        0x10000bb0:    bd10        ..      POP      {r4,pc}
        0x10000bb2:    2001        .       MOVS     r0,#1
        0x10000bb4:    f7ffffa9    ....    BL       _BBGetMask ; 0x10000b0a
        0x10000bb8:    2800        .(      CMP      r0,#0
        0x10000bba:    d1f9        ..      BNE      0x10000bb0 ; Lib_LLEvtCallback + 74
        0x10000bbc:    f7ffff07    ....    BL       _LCTxPkt_Handler ; 0x100009ce
        0x10000bc0:    bd10        ..      POP      {r4,pc}
    $d
        0x10000bc2:    0000        ..      DCW    0
        0x10000bc4:    000065bf    .e..    DCD    26047
        0x10000bc8:    00006a77    wj..    DCD    27255
        0x10000bcc:    000016cf    ....    DCD    5839
        0x10000bd0:    20003054    T0.     DCD    536883284
        0x10000bd4:    000003ce    ....    DCD    974
        0x10000bd8:    00001201    ....    DCD    4609
        0x10000bdc:    00000af5    ....    DCD    2805
        0x10000be0:    00005749    IW..    DCD    22345
        0x10000be4:    00001979    y...    DCD    6521
        0x10000be8:    00001e8b    ....    DCD    7819
        0x10000bec:    0000622b    +b..    DCD    25131
        0x10000bf0:    000060bd    .`..    DCD    24765
        0x10000bf4:    00004e05    .N..    DCD    19973
        0x10000bf8:    00002627    '&..    DCD    9767
        0x10000bfc:    000047df    .G..    DCD    18399
        0x10000c00:    00003ea1    .>..    DCD    16033
    $t
        0x10000c04:    2002        .       MOVS     r0,#2
        0x10000c06:    f7ffff80    ....    BL       _BBGetMask ; 0x10000b0a
        0x10000c0a:    2800        .(      CMP      r0,#0
        0x10000c0c:    d1d8        ..      BNE      0x10000bc0 ; Lib_LLEvtCallback + 90
        0x10000c0e:    f7fffe7a    ..z.    BL       _LCRxPkt_Handler ; 0x10000906
        0x10000c12:    bd10        ..      POP      {r4,pc}
        0x10000c14:    2004        .       MOVS     r0,#4
        0x10000c16:    f7ffff78    ..x.    BL       _BBGetMask ; 0x10000b0a
        0x10000c1a:    2800        .(      CMP      r0,#0
        0x10000c1c:    d1f9        ..      BNE      0x10000c12 ; Lib_LLEvtCallback + 172
        0x10000c1e:    6890        .h      LDR      r0,[r2,#8]
        0x10000c20:    7a40        @z      LDRB     r0,[r0,#9]
        0x10000c22:    2801        .(      CMP      r0,#1
        0x10000c24:    d003        ..      BEQ      0x10000c2e ; Lib_LLEvtCallback + 200
        0x10000c26:    2802        .(      CMP      r0,#2
        0x10000c28:    d1f3        ..      BNE      0x10000c12 ; Lib_LLEvtCallback + 172
        0x10000c2a:    48fe        .H      LDR      r0,[pc,#1016] ; [0x10001024] = 0x1527
        0x10000c2c:    e7bf        ..      B        0x10000bae ; Lib_LLEvtCallback + 72
        0x10000c2e:    48fd        .H      LDR      r0,[pc,#1012] ; [0x10001024] = 0x1527
        0x10000c30:    38ae        .8      SUBS     r0,r0,#0xae
        0x10000c32:    e7bc        ..      B        0x10000bae ; Lib_LLEvtCallback + 72
        0x10000c34:    2010        .       MOVS     r0,#0x10
        0x10000c36:    f7ffff68    ..h.    BL       _BBGetMask ; 0x10000b0a
        0x10000c3a:    2800        .(      CMP      r0,#0
        0x10000c3c:    d1e9        ..      BNE      0x10000c12 ; Lib_LLEvtCallback + 172
        0x10000c3e:    6a10        .j      LDR      r0,[r2,#0x20]
        0x10000c40:    3020         0      ADDS     r0,r0,#0x20
        0x10000c42:    7d40        @}      LDRB     r0,[r0,#0x15]
        0x10000c44:    0740        @.      LSLS     r0,r0,#29
        0x10000c46:    d501        ..      BPL      0x10000c4c ; Lib_LLEvtCallback + 230
        0x10000c48:    203e        >       MOVS     r0,#0x3e
        0x10000c4a:    e000        ..      B        0x10000c4e ; Lib_LLEvtCallback + 232
        0x10000c4c:    2008        .       MOVS     r0,#8
        0x10000c4e:    f7fffdc7    ....    BL       _LCDisConnect ; 0x100007e0
        0x10000c52:    bd10        ..      POP      {r4,pc}
        0x10000c54:    2020                MOVS     r0,#0x20
        0x10000c56:    f7ffff58    ..X.    BL       _BBGetMask ; 0x10000b0a
        0x10000c5a:    2800        .(      CMP      r0,#0
        0x10000c5c:    d1f9        ..      BNE      0x10000c52 ; Lib_LLEvtCallback + 236
        0x10000c5e:    48f2        .H      LDR      r0,[pc,#968] ; [0x10001028] = 0x16c1
        0x10000c60:    e7a5        ..      B        0x10000bae ; Lib_LLEvtCallback + 72
    ConnectionLatencyMode
        0x10000c62:    b570        p.      PUSH     {r4-r6,lr}
        0x10000c64:    2510        .%      MOVS     r5,#0x10
        0x10000c66:    2608        .&      MOVS     r6,#8
        0x10000c68:    4cf0        .L      LDR      r4,[pc,#960] ; [0x1000102c] = 0x20003054
        0x10000c6a:    2800        .(      CMP      r0,#0
        0x10000c6c:    d021        !.      BEQ      0x10000cb2 ; ConnectionLatencyMode + 80
        0x10000c6e:    6a20         j      LDR      r0,[r4,#0x20]
        0x10000c70:    7e81        .~      LDRB     r1,[r0,#0x1a]
        0x10000c72:    4331        1C      ORRS     r1,r1,r6
        0x10000c74:    7681        .v      STRB     r1,[r0,#0x1a]
        0x10000c76:    4601        .F      MOV      r1,r0
        0x10000c78:    3160        `1      ADDS     r1,r1,#0x60
        0x10000c7a:    7e0a        .~      LDRB     r2,[r1,#0x18]
        0x10000c7c:    7863        cx      LDRB     r3,[r4,#1]
        0x10000c7e:    0952        R.      LSRS     r2,r2,#5
        0x10000c80:    0152        R.      LSLS     r2,r2,#5
        0x10000c82:    06db        ..      LSLS     r3,r3,#27
        0x10000c84:    0edb        ..      LSRS     r3,r3,#27
        0x10000c86:    431a        .C      ORRS     r2,r2,r3
        0x10000c88:    760a        .v      STRB     r2,[r1,#0x18]
        0x10000c8a:    3020         0      ADDS     r0,r0,#0x20
        0x10000c8c:    7b42        B{      LDRB     r2,[r0,#0xd]
        0x10000c8e:    7b06        .{      LDRB     r6,[r0,#0xc]
        0x10000c90:    0213        ..      LSLS     r3,r2,#8
        0x10000c92:    68a2        .h      LDR      r2,[r4,#8]
        0x10000c94:    4333        3C      ORRS     r3,r3,r6
        0x10000c96:    3223        #2      ADDS     r2,r2,#0x23
        0x10000c98:    7c54        T|      LDRB     r4,[r2,#0x11]
        0x10000c9a:    7c16        .|      LDRB     r6,[r2,#0x10]
        0x10000c9c:    0222        ".      LSLS     r2,r4,#8
        0x10000c9e:    4332        2C      ORRS     r2,r2,r6
        0x10000ca0:    4293        .B      CMP      r3,r2
        0x10000ca2:    d014        ..      BEQ      0x10000cce ; ConnectionLatencyMode + 108
        0x10000ca4:    7302        .s      STRB     r2,[r0,#0xc]
        0x10000ca6:    0a12        ..      LSRS     r2,r2,#8
        0x10000ca8:    7342        Bs      STRB     r2,[r0,#0xd]
        0x10000caa:    7dc8        .}      LDRB     r0,[r1,#0x17]
        0x10000cac:    4328        (C      ORRS     r0,r0,r5
        0x10000cae:    75c8        .u      STRB     r0,[r1,#0x17]
        0x10000cb0:    e00d        ..      B        0x10000cce ; ConnectionLatencyMode + 108
        0x10000cb2:    f001fcce    ....    BL       WaitLLCOverSlpth ; 0x10002652
        0x10000cb6:    6a20         j      LDR      r0,[r4,#0x20]
        0x10000cb8:    2200        ."      MOVS     r2,#0
        0x10000cba:    4601        .F      MOV      r1,r0
        0x10000cbc:    3120         1      ADDS     r1,r1,#0x20
        0x10000cbe:    730a        .s      STRB     r2,[r1,#0xc]
        0x10000cc0:    734a        Js      STRB     r2,[r1,#0xd]
        0x10000cc2:    3060        `0      ADDS     r0,r0,#0x60
        0x10000cc4:    7dc1        .}      LDRB     r1,[r0,#0x17]
        0x10000cc6:    4329        )C      ORRS     r1,r1,r5
        0x10000cc8:    75c1        .u      STRB     r1,[r0,#0x17]
        0x10000cca:    48d9        .H      LDR      r0,[pc,#868] ; [0x10001030] = 0x40020020
        0x10000ccc:    7706        .w      STRB     r6,[r0,#0x1c]
        0x10000cce:    2001        .       MOVS     r0,#1
        0x10000cd0:    bd70        p.      POP      {r4-r6,pc}
    sw_timer_latency_callback
        0x10000cd2:    48d6        .H      LDR      r0,[pc,#856] ; [0x1000102c] = 0x20003054
        0x10000cd4:    6880        .h      LDR      r0,[r0,#8]
        0x10000cd6:    3023        #0      ADDS     r0,r0,#0x23
        0x10000cd8:    7c41        A|      LDRB     r1,[r0,#0x11]
        0x10000cda:    7c02        .|      LDRB     r2,[r0,#0x10]
        0x10000cdc:    0208        ..      LSLS     r0,r1,#8
        0x10000cde:    4310        .C      ORRS     r0,r0,r2
        0x10000ce0:    d00b        ..      BEQ      0x10000cfa ; sw_timer_latency_callback + 40
        0x10000ce2:    49d4        .I      LDR      r1,[pc,#848] ; [0x10001034] = 0x2000315f
        0x10000ce4:    7848        Hx      LDRB     r0,[r1,#1]
        0x10000ce6:    780a        .x      LDRB     r2,[r1,#0]
        0x10000ce8:    0200        ..      LSLS     r0,r0,#8
        0x10000cea:    4310        .C      ORRS     r0,r0,r2
        0x10000cec:    2203        ."      MOVS     r2,#3
        0x10000cee:    4310        .C      ORRS     r0,r0,r2
        0x10000cf0:    7008        .p      STRB     r0,[r1,#0]
        0x10000cf2:    0a00        ..      LSRS     r0,r0,#8
        0x10000cf4:    7048        Hp      STRB     r0,[r1,#1]
        0x10000cf6:    2001        .       MOVS     r0,#1
        0x10000cf8:    e7b3        ..      B        ConnectionLatencyMode ; 0x10000c62
        0x10000cfa:    4770        pG      BX       lr
    TimerStart
        0x10000cfc:    b430        0.      PUSH     {r4,r5}
        0x10000cfe:    4cce        .L      LDR      r4,[pc,#824] ; [0x10001038] = 0x44ab
        0x10000d00:    46a4        .F      MOV      r12,r4
        0x10000d02:    bc30        0.      POP      {r4,r5}
        0x10000d04:    4760        `G      BX       r12
    smart_latency_start
        0x10000d06:    b5f8        ..      PUSH     {r3-r7,lr}
        0x10000d08:    48ca        .H      LDR      r0,[pc,#808] ; [0x10001034] = 0x2000315f
        0x10000d0a:    7a40        @z      LDRB     r0,[r0,#9]
        0x10000d0c:    0600        ..      LSLS     r0,r0,#24
        0x10000d0e:    d563        c.      BPL      0x10000dd8 ; smart_latency_start + 210
        0x10000d10:    48c6        .H      LDR      r0,[pc,#792] ; [0x1000102c] = 0x20003054
        0x10000d12:    6886        .h      LDR      r6,[r0,#8]
        0x10000d14:    4630        0F      MOV      r0,r6
        0x10000d16:    3023        #0      ADDS     r0,r0,#0x23
        0x10000d18:    7c41        A|      LDRB     r1,[r0,#0x11]
        0x10000d1a:    7c00        .|      LDRB     r0,[r0,#0x10]
        0x10000d1c:    020f        ..      LSLS     r7,r1,#8
        0x10000d1e:    49c5        .I      LDR      r1,[pc,#788] ; [0x10001034] = 0x2000315f
        0x10000d20:    4307        .C      ORRS     r7,r7,r0
        0x10000d22:    7848        Hx      LDRB     r0,[r1,#1]
        0x10000d24:    7809        .x      LDRB     r1,[r1,#0]
        0x10000d26:    0204        ..      LSLS     r4,r0,#8
        0x10000d28:    430c        .C      ORRS     r4,r4,r1
        0x10000d2a:    2f00        ./      CMP      r7,#0
        0x10000d2c:    d101        ..      BNE      0x10000d32 ; smart_latency_start + 44
        0x10000d2e:    0760        `.      LSLS     r0,r4,#29
        0x10000d30:    d552        R.      BPL      0x10000dd8 ; smart_latency_start + 210
        0x10000d32:    4dc0        .M      LDR      r5,[pc,#768] ; [0x10001034] = 0x2000315f
        0x10000d34:    7ba8        .{      LDRB     r0,[r5,#0xe]
        0x10000d36:    7b69        i{      LDRB     r1,[r5,#0xd]
        0x10000d38:    0200        ..      LSLS     r0,r0,#8
        0x10000d3a:    1c6d        m.      ADDS     r5,r5,#1
        0x10000d3c:    4308        .C      ORRS     r0,r0,r1
        0x10000d3e:    d04b        K.      BEQ      0x10000dd8 ; smart_latency_start + 210
        0x10000d40:    2f00        ./      CMP      r7,#0
        0x10000d42:    d049        I.      BEQ      0x10000dd8 ; smart_latency_start + 210
        0x10000d44:    7968        hy      LDRB     r0,[r5,#5]
        0x10000d46:    7929        )y      LDRB     r1,[r5,#4]
        0x10000d48:    0200        ..      LSLS     r0,r0,#8
        0x10000d4a:    4308        .C      ORRS     r0,r0,r1
        0x10000d4c:    d12e        ..      BNE      0x10000dac ; smart_latency_start + 166
        0x10000d4e:    3621        !6      ADDS     r6,r6,#0x21
        0x10000d50:    7c70        p|      LDRB     r0,[r6,#0x11]
        0x10000d52:    7c31        1|      LDRB     r1,[r6,#0x10]
        0x10000d54:    0200        ..      LSLS     r0,r0,#8
        0x10000d56:    4308        .C      ORRS     r0,r0,r1
        0x10000d58:    f001ff4e    ..N.    BL       __aeabi_ui2d ; 0x10002bf8
        0x10000d5c:    2200        ."      MOVS     r2,#0
        0x10000d5e:    4bb7        .K      LDR      r3,[pc,#732] ; [0x1000103c] = 0x3ff40000
        0x10000d60:    f001fe4e    ..N.    BL       __aeabi_dmul ; 0x10002a00
        0x10000d64:    f001ff56    ..V.    BL       __aeabi_d2uiz ; 0x10002c14
        0x10000d68:    b280        ..      UXTH     r0,r0
        0x10000d6a:    4378        xC      MULS     r0,r7,r0
        0x10000d6c:    2164        d!      MOVS     r1,#0x64
        0x10000d6e:    f001fcf1    ....    BL       __aeabi_idiv ; 0x10002754
        0x10000d72:    0440        @.      LSLS     r0,r0,#17
        0x10000d74:    0c01        ..      LSRS     r1,r0,#16
        0x10000d76:    7129        )q      STRB     r1,[r5,#4]
        0x10000d78:    0a08        ..      LSRS     r0,r1,#8
        0x10000d7a:    7168        hq      STRB     r0,[r5,#5]
        0x10000d7c:    200a        .       MOVS     r0,#0xa
        0x10000d7e:    4341        AC      MULS     r1,r0,r1
        0x10000d80:    7d70        p}      LDRB     r0,[r6,#0x15]
        0x10000d82:    7d32        2}      LDRB     r2,[r6,#0x14]
        0x10000d84:    0200        ..      LSLS     r0,r0,#8
        0x10000d86:    4310        .C      ORRS     r0,r0,r2
        0x10000d88:    4281        .B      CMP      r1,r0
        0x10000d8a:    d306        ..      BCC      0x10000d9a ; smart_latency_start + 148
        0x10000d8c:    210a        .!      MOVS     r1,#0xa
        0x10000d8e:    1e40        @.      SUBS     r0,r0,#1
        0x10000d90:    f001fce0    ....    BL       __aeabi_idiv ; 0x10002754
        0x10000d94:    7128        (q      STRB     r0,[r5,#4]
        0x10000d96:    0a00        ..      LSRS     r0,r0,#8
        0x10000d98:    7168        hq      STRB     r0,[r5,#5]
        0x10000d9a:    7968        hy      LDRB     r0,[r5,#5]
        0x10000d9c:    7929        )y      LDRB     r1,[r5,#4]
        0x10000d9e:    0200        ..      LSLS     r0,r0,#8
        0x10000da0:    4308        .C      ORRS     r0,r0,r1
        0x10000da2:    d103        ..      BNE      0x10000dac ; smart_latency_start + 166
        0x10000da4:    2001        .       MOVS     r0,#1
        0x10000da6:    7128        (q      STRB     r0,[r5,#4]
        0x10000da8:    2000        .       MOVS     r0,#0
        0x10000daa:    7168        hq      STRB     r0,[r5,#5]
        0x10000dac:    48a1        .H      LDR      r0,[pc,#644] ; [0x10001034] = 0x2000315f
        0x10000dae:    07a1        ..      LSLS     r1,r4,#30
        0x10000db0:    d509        ..      BPL      0x10000dc6 ; smart_latency_start + 192
        0x10000db2:    2102        .!      MOVS     r1,#2
        0x10000db4:    438c        .C      BICS     r4,r4,r1
        0x10000db6:    2101        .!      MOVS     r1,#1
        0x10000db8:    430c        .C      ORRS     r4,r4,r1
        0x10000dba:    7004        .p      STRB     r4,[r0,#0]
        0x10000dbc:    0a21        !.      LSRS     r1,r4,#8
        0x10000dbe:    7041        Ap      STRB     r1,[r0,#1]
        0x10000dc0:    2000        .       MOVS     r0,#0
        0x10000dc2:    f7ffff4e    ..N.    BL       ConnectionLatencyMode ; 0x10000c62
        0x10000dc6:    7968        hy      LDRB     r0,[r5,#5]
        0x10000dc8:    792a        *y      LDRB     r2,[r5,#4]
        0x10000dca:    0201        ..      LSLS     r1,r0,#8
        0x10000dcc:    4311        .C      ORRS     r1,r1,r2
        0x10000dce:    4b9c        .K      LDR      r3,[pc,#624] ; [0x10001040] = 0x10000cd3
        0x10000dd0:    2200        ."      MOVS     r2,#0
        0x10000dd2:    2040        @       MOVS     r0,#0x40
        0x10000dd4:    f7ffff92    ....    BL       TimerStart ; 0x10000cfc
        0x10000dd8:    bdf8        ..      POP      {r3-r7,pc}
    smart_update_latency_updatersp
        0x10000dda:    b51c        ..      PUSH     {r2-r4,lr}
        0x10000ddc:    4995        .I      LDR      r1,[pc,#596] ; [0x10001034] = 0x2000315f
        0x10000dde:    7a4a        Jz      LDRB     r2,[r1,#9]
        0x10000de0:    2a00        .*      CMP      r2,#0
        0x10000de2:    d03a        :.      BEQ      0x10000e5a ; smart_update_latency_updatersp + 128
        0x10000de4:    784a        Jx      LDRB     r2,[r1,#1]
        0x10000de6:    780b        .x      LDRB     r3,[r1,#0]
        0x10000de8:    0212        ..      LSLS     r2,r2,#8
        0x10000dea:    431a        .C      ORRS     r2,r2,r3
        0x10000dec:    06d3        ..      LSLS     r3,r2,#27
        0x10000dee:    d434        4.      BMI      0x10000e5a ; smart_update_latency_updatersp + 128
        0x10000df0:    7843        Cx      LDRB     r3,[r0,#1]
        0x10000df2:    7804        .x      LDRB     r4,[r0,#0]
        0x10000df4:    0218        ..      LSLS     r0,r3,#8
        0x10000df6:    4320         C      ORRS     r0,r0,r4
        0x10000df8:    2801        .(      CMP      r0,#1
        0x10000dfa:    d12e        ..      BNE      0x10000e5a ; smart_update_latency_updatersp + 128
        0x10000dfc:    78c8        .x      LDRB     r0,[r1,#3]
        0x10000dfe:    1e40        @.      SUBS     r0,r0,#1
        0x10000e00:    0600        ..      LSLS     r0,r0,#24
        0x10000e02:    0e00        ..      LSRS     r0,r0,#24
        0x10000e04:    70c8        .p      STRB     r0,[r1,#3]
        0x10000e06:    d029        ).      BEQ      0x10000e5c ; smart_update_latency_updatersp + 130
        0x10000e08:    4608        .F      MOV      r0,r1
        0x10000e0a:    788b        .x      LDRB     r3,[r1,#2]
        0x10000e0c:    7a01        .z      LDRB     r1,[r0,#8]
        0x10000e0e:    79c2        .y      LDRB     r2,[r0,#7]
        0x10000e10:    0209        ..      LSLS     r1,r1,#8
        0x10000e12:    4311        .C      ORRS     r1,r1,r2
        0x10000e14:    7b02        .{      LDRB     r2,[r0,#0xc]
        0x10000e16:    7ac4        .z      LDRB     r4,[r0,#0xb]
        0x10000e18:    0212        ..      LSLS     r2,r2,#8
        0x10000e1a:    4322        "C      ORRS     r2,r2,r4
        0x10000e1c:    1cc0        ..      ADDS     r0,r0,#3
        0x10000e1e:    2b01        .+      CMP      r3,#1
        0x10000e20:    d024        $.      BEQ      0x10000e6c ; smart_update_latency_updatersp + 146
        0x10000e22:    1a52        R.      SUBS     r2,r2,r1
        0x10000e24:    7202        .r      STRB     r2,[r0,#8]
        0x10000e26:    0a12        ..      LSRS     r2,r2,#8
        0x10000e28:    7242        Br      STRB     r2,[r0,#9]
        0x10000e2a:    0612        ..      LSLS     r2,r2,#24
        0x10000e2c:    7a03        .z      LDRB     r3,[r0,#8]
        0x10000e2e:    0c12        ..      LSRS     r2,r2,#16
        0x10000e30:    431a        .C      ORRS     r2,r2,r3
        0x10000e32:    1a53        S.      SUBS     r3,r2,r1
        0x10000e34:    4669        iF      MOV      r1,sp
        0x10000e36:    800b        ..      STRH     r3,[r1,#0]
        0x10000e38:    804a        J.      STRH     r2,[r1,#2]
        0x10000e3a:    497e        ~I      LDR      r1,[pc,#504] ; [0x10001034] = 0x2000315f
        0x10000e3c:    7b8a        .{      LDRB     r2,[r1,#0xe]
        0x10000e3e:    7b49        I{      LDRB     r1,[r1,#0xd]
        0x10000e40:    0212        ..      LSLS     r2,r2,#8
        0x10000e42:    430a        .C      ORRS     r2,r2,r1
        0x10000e44:    4669        iF      MOV      r1,sp
        0x10000e46:    808a        ..      STRH     r2,[r1,#4]
        0x10000e48:    7b41        A{      LDRB     r1,[r0,#0xd]
        0x10000e4a:    7b02        .{      LDRB     r2,[r0,#0xc]
        0x10000e4c:    0208        ..      LSLS     r0,r1,#8
        0x10000e4e:    4310        .C      ORRS     r0,r0,r2
        0x10000e50:    4669        iF      MOV      r1,sp
        0x10000e52:    80c8        ..      STRH     r0,[r1,#6]
        0x10000e54:    497b        {I      LDR      r1,[pc,#492] ; [0x10001044] = 0x4233
        0x10000e56:    4668        hF      MOV      r0,sp
        0x10000e58:    4788        .G      BLX      r1
        0x10000e5a:    bd1c        ..      POP      {r2-r4,pc}
        0x10000e5c:    7a88        .z      LDRB     r0,[r1,#0xa]
        0x10000e5e:    70c8        .p      STRB     r0,[r1,#3]
        0x10000e60:    2040        @       MOVS     r0,#0x40
        0x10000e62:    4302        .C      ORRS     r2,r2,r0
        0x10000e64:    700a        .p      STRB     r2,[r1,#0]
        0x10000e66:    0a10        ..      LSRS     r0,r2,#8
        0x10000e68:    7048        Hp      STRB     r0,[r1,#1]
        0x10000e6a:    bd1c        ..      POP      {r2-r4,pc}
        0x10000e6c:    1852        R.      ADDS     r2,r2,r1
        0x10000e6e:    e7d9        ..      B        0x10000e24 ; smart_update_latency_updatersp + 74
    BBRFRead
        0x10000e70:    4a75        uJ      LDR      r2,[pc,#468] ; [0x10001048] = 0x61c5
        0x10000e72:    4710        .G      BX       r2
    BBRFWrite
        0x10000e74:    4a74        tJ      LDR      r2,[pc,#464] ; [0x10001048] = 0x61c5
        0x10000e76:    3220         2      ADDS     r2,r2,#0x20
        0x10000e78:    4710        .G      BX       r2
    RCOSCCalibration
        0x10000e7a:    b538        8.      PUSH     {r3-r5,lr}
        0x10000e7c:    2400        .$      MOVS     r4,#0
        0x10000e7e:    4669        iF      MOV      r1,sp
        0x10000e80:    700c        .p      STRB     r4,[r1,#0]
        0x10000e82:    4621        !F      MOV      r1,r4
        0x10000e84:    207f        .       MOVS     r0,#0x7f
        0x10000e86:    f7fffff5    ....    BL       BBRFWrite ; 0x10000e74
        0x10000e8a:    2100        .!      MOVS     r1,#0
        0x10000e8c:    203b        ;       MOVS     r0,#0x3b
        0x10000e8e:    f7fffff1    ....    BL       BBRFWrite ; 0x10000e74
        0x10000e92:    2129        )!      MOVS     r1,#0x29
        0x10000e94:    203b        ;       MOVS     r0,#0x3b
        0x10000e96:    f7ffffed    ....    BL       BBRFWrite ; 0x10000e74
        0x10000e9a:    4669        iF      MOV      r1,sp
        0x10000e9c:    203b        ;       MOVS     r0,#0x3b
        0x10000e9e:    f7ffffe7    ....    BL       BBRFRead ; 0x10000e70
        0x10000ea2:    4668        hF      MOV      r0,sp
        0x10000ea4:    7800        .x      LDRB     r0,[r0,#0]
        0x10000ea6:    0780        ..      LSLS     r0,r0,#30
        0x10000ea8:    d501        ..      BPL      0x10000eae ; RCOSCCalibration + 52
        0x10000eaa:    2001        .       MOVS     r0,#1
        0x10000eac:    bd38        8.      POP      {r3-r5,pc}
        0x10000eae:    1c64        d.      ADDS     r4,r4,#1
        0x10000eb0:    b2a4        ..      UXTH     r4,r4
        0x10000eb2:    2cff        .,      CMP      r4,#0xff
        0x10000eb4:    d9f1        ..      BLS      0x10000e9a ; RCOSCCalibration + 32
        0x10000eb6:    2000        .       MOVS     r0,#0
        0x10000eb8:    bd38        8.      POP      {r3-r5,pc}
    RFSleep
        0x10000eba:    b510        ..      PUSH     {r4,lr}
        0x10000ebc:    4863        cH      LDR      r0,[pc,#396] ; [0x1000104c] = 0x4707
        0x10000ebe:    4780        .G      BLX      r0
        0x10000ec0:    2001        .       MOVS     r0,#1
        0x10000ec2:    bd10        ..      POP      {r4,pc}
    UartEn
        0x10000ec4:    b510        ..      PUSH     {r4,lr}
        0x10000ec6:    4959        YI      LDR      r1,[pc,#356] ; [0x1000102c] = 0x20003054
        0x10000ec8:    4a61        aJ      LDR      r2,[pc,#388] ; [0x10001050] = 0x65a7
        0x10000eca:    7088        .p      STRB     r0,[r1,#2]
        0x10000ecc:    2800        .(      CMP      r0,#0
        0x10000ece:    d107        ..      BNE      0x10000ee0 ; UartEn + 28
        0x10000ed0:    6888        .h      LDR      r0,[r1,#8]
        0x10000ed2:    7880        .x      LDRB     r0,[r0,#2]
        0x10000ed4:    2802        .(      CMP      r0,#2
        0x10000ed6:    d003        ..      BEQ      0x10000ee0 ; UartEn + 28
        0x10000ed8:    2000        .       MOVS     r0,#0
        0x10000eda:    4790        .G      BLX      r2
        0x10000edc:    2001        .       MOVS     r0,#1
        0x10000ede:    bd10        ..      POP      {r4,pc}
        0x10000ee0:    2001        .       MOVS     r0,#1
        0x10000ee2:    e7fa        ..      B        0x10000eda ; UartEn + 22
    _SYS32kClockSwitch
        0x10000ee4:    b510        ..      PUSH     {r4,lr}
        0x10000ee6:    4c51        QL      LDR      r4,[pc,#324] ; [0x1000102c] = 0x20003054
        0x10000ee8:    2801        .(      CMP      r0,#1
        0x10000eea:    68a1        .h      LDR      r1,[r4,#8]
        0x10000eec:    7088        .p      STRB     r0,[r1,#2]
        0x10000eee:    d004        ..      BEQ      0x10000efa ; _SYS32kClockSwitch + 22
        0x10000ef0:    2800        .(      CMP      r0,#0
        0x10000ef2:    d036        6.      BEQ      0x10000f62 ; _SYS32kClockSwitch + 126
        0x10000ef4:    2802        .(      CMP      r0,#2
        0x10000ef6:    d04b        K.      BEQ      0x10000f90 ; _SYS32kClockSwitch + 172
        0x10000ef8:    e05e        ^.      B        0x10000fb8 ; _SYS32kClockSwitch + 212
        0x10000efa:    6aa0        .j      LDR      r0,[r4,#0x28]
        0x10000efc:    4601        .F      MOV      r1,r0
        0x10000efe:    3120         1      ADDS     r1,r1,#0x20
        0x10000f00:    780a        .x      LDRB     r2,[r1,#0]
        0x10000f02:    0852        R.      LSRS     r2,r2,#1
        0x10000f04:    0052        R.      LSLS     r2,r2,#1
        0x10000f06:    700a        .p      STRB     r2,[r1,#0]
        0x10000f08:    780a        .x      LDRB     r2,[r1,#0]
        0x10000f0a:    23fd        .#      MOVS     r3,#0xfd
        0x10000f0c:    401a        .@      ANDS     r2,r2,r3
        0x10000f0e:    700a        .p      STRB     r2,[r1,#0]
        0x10000f10:    7801        .x      LDRB     r1,[r0,#0]
        0x10000f12:    0989        ..      LSRS     r1,r1,#6
        0x10000f14:    0189        ..      LSLS     r1,r1,#6
        0x10000f16:    311c        .1      ADDS     r1,r1,#0x1c
        0x10000f18:    7001        .p      STRB     r1,[r0,#0]
        0x10000f1a:    7841        Ax      LDRB     r1,[r0,#1]
        0x10000f1c:    0989        ..      LSRS     r1,r1,#6
        0x10000f1e:    0189        ..      LSLS     r1,r1,#6
        0x10000f20:    311c        .1      ADDS     r1,r1,#0x1c
        0x10000f22:    7041        Ap      STRB     r1,[r0,#1]
        0x10000f24:    2100        .!      MOVS     r1,#0
        0x10000f26:    207f        .       MOVS     r0,#0x7f
        0x10000f28:    f7ffffa4    ....    BL       BBRFWrite ; 0x10000e74
        0x10000f2c:    2103        .!      MOVS     r1,#3
        0x10000f2e:    2021        !       MOVS     r0,#0x21
        0x10000f30:    f7ffffa0    ....    BL       BBRFWrite ; 0x10000e74
        0x10000f34:    211f        .!      MOVS     r1,#0x1f
        0x10000f36:    2003        .       MOVS     r0,#3
        0x10000f38:    f7ffff9c    ....    BL       BBRFWrite ; 0x10000e74
        0x10000f3c:    207d        }       MOVS     r0,#0x7d
        0x10000f3e:    4942        BI      LDR      r1,[pc,#264] ; [0x10001048] = 0x61c5
        0x10000f40:    00c0        ..      LSLS     r0,r0,#3
        0x10000f42:    3180        .1      ADDS     r1,r1,#0x80
        0x10000f44:    4788        .G      BLX      r1
        0x10000f46:    2102        .!      MOVS     r1,#2
        0x10000f48:    207f        .       MOVS     r0,#0x7f
        0x10000f4a:    f7ffff93    ....    BL       BBRFWrite ; 0x10000e74
        0x10000f4e:    2101        .!      MOVS     r1,#1
        0x10000f50:    2000        .       MOVS     r0,#0
        0x10000f52:    f7ffff8f    ....    BL       BBRFWrite ; 0x10000e74
        0x10000f56:    2100        .!      MOVS     r1,#0
        0x10000f58:    207f        .       MOVS     r0,#0x7f
        0x10000f5a:    f7ffff8b    ....    BL       BBRFWrite ; 0x10000e74
        0x10000f5e:    210f        .!      MOVS     r1,#0xf
        0x10000f60:    e027        '.      B        0x10000fb2 ; _SYS32kClockSwitch + 206
        0x10000f62:    2100        .!      MOVS     r1,#0
        0x10000f64:    207f        .       MOVS     r0,#0x7f
        0x10000f66:    f7ffff85    ....    BL       BBRFWrite ; 0x10000e74
        0x10000f6a:    2100        .!      MOVS     r1,#0
        0x10000f6c:    2004        .       MOVS     r0,#4
        0x10000f6e:    f7ffff81    ....    BL       BBRFWrite ; 0x10000e74
        0x10000f72:    2102        .!      MOVS     r1,#2
        0x10000f74:    207f        .       MOVS     r0,#0x7f
        0x10000f76:    f7ffff7d    ..}.    BL       BBRFWrite ; 0x10000e74
        0x10000f7a:    2100        .!      MOVS     r1,#0
        0x10000f7c:    4608        .F      MOV      r0,r1
        0x10000f7e:    f7ffff79    ..y.    BL       BBRFWrite ; 0x10000e74
        0x10000f82:    2100        .!      MOVS     r1,#0
        0x10000f84:    207f        .       MOVS     r0,#0x7f
        0x10000f86:    f7ffff75    ..u.    BL       BBRFWrite ; 0x10000e74
        0x10000f8a:    2100        .!      MOVS     r1,#0
        0x10000f8c:    2003        .       MOVS     r0,#3
        0x10000f8e:    e011        ..      B        0x10000fb4 ; _SYS32kClockSwitch + 208
        0x10000f90:    2102        .!      MOVS     r1,#2
        0x10000f92:    207f        .       MOVS     r0,#0x7f
        0x10000f94:    f7ffff6e    ..n.    BL       BBRFWrite ; 0x10000e74
        0x10000f98:    2103        .!      MOVS     r1,#3
        0x10000f9a:    2000        .       MOVS     r0,#0
        0x10000f9c:    f7ffff6a    ..j.    BL       BBRFWrite ; 0x10000e74
        0x10000fa0:    2100        .!      MOVS     r1,#0
        0x10000fa2:    207f        .       MOVS     r0,#0x7f
        0x10000fa4:    f7ffff66    ..f.    BL       BBRFWrite ; 0x10000e74
        0x10000fa8:    2100        .!      MOVS     r1,#0
        0x10000faa:    2003        .       MOVS     r0,#3
        0x10000fac:    f7ffff62    ..b.    BL       BBRFWrite ; 0x10000e74
        0x10000fb0:    2100        .!      MOVS     r1,#0
        0x10000fb2:    2004        .       MOVS     r0,#4
        0x10000fb4:    f7ffff5e    ..^.    BL       BBRFWrite ; 0x10000e74
        0x10000fb8:    78a0        .x      LDRB     r0,[r4,#2]
        0x10000fba:    f7ffff83    ....    BL       UartEn ; 0x10000ec4
        0x10000fbe:    2001        .       MOVS     r0,#1
        0x10000fc0:    bd10        ..      POP      {r4,pc}
    ClockSwitch
        0x10000fc2:    b510        ..      PUSH     {r4,lr}
        0x10000fc4:    f7ffff8e    ....    BL       _SYS32kClockSwitch ; 0x10000ee4
        0x10000fc8:    2001        .       MOVS     r0,#1
        0x10000fca:    bd10        ..      POP      {r4,pc}
    RFWakeup
        0x10000fcc:    481f        .H      LDR      r0,[pc,#124] ; [0x1000104c] = 0x4707
        0x10000fce:    b510        ..      PUSH     {r4,lr}
        0x10000fd0:    300c        .0      ADDS     r0,r0,#0xc
        0x10000fd2:    4780        .G      BLX      r0
        0x10000fd4:    4815        .H      LDR      r0,[pc,#84] ; [0x1000102c] = 0x20003054
        0x10000fd6:    6a40        @j      LDR      r0,[r0,#0x24]
        0x10000fd8:    7a01        .z      LDRB     r1,[r0,#8]
        0x10000fda:    22df        ."      MOVS     r2,#0xdf
        0x10000fdc:    4011        .@      ANDS     r1,r1,r2
        0x10000fde:    7201        .r      STRB     r1,[r0,#8]
        0x10000fe0:    2001        .       MOVS     r0,#1
        0x10000fe2:    bd10        ..      POP      {r4,pc}
    LPOCalibration
        0x10000fe4:    b5fe        ..      PUSH     {r1-r7,lr}
        0x10000fe6:    481a        .H      LDR      r0,[pc,#104] ; [0x10001050] = 0x65a7
        0x10000fe8:    3018        .0      ADDS     r0,r0,#0x18
        0x10000fea:    4780        .G      BLX      r0
        0x10000fec:    4c0f        .L      LDR      r4,[pc,#60] ; [0x1000102c] = 0x20003054
        0x10000fee:    9001        ..      STR      r0,[sp,#4]
        0x10000ff0:    6a60        `j      LDR      r0,[r4,#0x24]
        0x10000ff2:    7a81        .z      LDRB     r1,[r0,#0xa]
        0x10000ff4:    7a00        .z      LDRB     r0,[r0,#8]
        0x10000ff6:    07cf        ..      LSLS     r7,r1,#31
        0x10000ff8:    0fff        ..      LSRS     r7,r7,#31
        0x10000ffa:    2600        .&      MOVS     r6,#0
        0x10000ffc:    b672        r.      CPSID    i
        0x10000ffe:    0780        ..      LSLS     r0,r0,#30
        0x10001000:    d002        ..      BEQ      0x10001008 ; LPOCalibration + 36
        0x10001002:    2601        .&      MOVS     r6,#1
        0x10001004:    f7ffffe2    ....    BL       RFWakeup ; 0x10000fcc
        0x10001008:    4808        .H      LDR      r0,[pc,#32] ; [0x1000102c] = 0x20003054
        0x1000100a:    6a40        @j      LDR      r0,[r0,#0x24]
        0x1000100c:    7a81        .z      LDRB     r1,[r0,#0xa]
        0x1000100e:    0849        I.      LSRS     r1,r1,#1
        0x10001010:    0049        I.      LSLS     r1,r1,#1
        0x10001012:    7281        .r      STRB     r1,[r0,#0xa]
        0x10001014:    490e        .I      LDR      r1,[pc,#56] ; [0x10001050] = 0x65a7
        0x10001016:    2001        .       MOVS     r0,#1
        0x10001018:    4788        .G      BLX      r1
        0x1000101a:    2002        .       MOVS     r0,#2
        0x1000101c:    f7ffff62    ..b.    BL       _SYS32kClockSwitch ; 0x10000ee4
        0x10001020:    2064        d       MOVS     r0,#0x64
        0x10001022:    e017        ..      B        0x10001054 ; LPOCalibration + 112
    $d
        0x10001024:    00001527    '...    DCD    5415
        0x10001028:    000016c1    ....    DCD    5825
        0x1000102c:    20003054    T0.     DCD    536883284
        0x10001030:    40020020     ..@    DCD    1073872928
        0x10001034:    2000315f    _1.     DCD    536883551
        0x10001038:    000044ab    .D..    DCD    17579
        0x1000103c:    3ff40000    ...?    DCD    1072955392
        0x10001040:    10000cd3    ....    DCD    268438739
        0x10001044:    00004233    3B..    DCD    16947
        0x10001048:    000061c5    .a..    DCD    25029
        0x1000104c:    00004707    .G..    DCD    18183
        0x10001050:    000065a7    .e..    DCD    26023
    $t
        0x10001054:    49fe        .I      LDR      r1,[pc,#1016] ; [0x10001450] = 0x61c5
        0x10001056:    3166        f1      ADDS     r1,r1,#0x66
        0x10001058:    4788        .G      BLX      r1
        0x1000105a:    2400        .$      MOVS     r4,#0
        0x1000105c:    4669        iF      MOV      r1,sp
        0x1000105e:    700c        .p      STRB     r4,[r1,#0]
        0x10001060:    4625        %F      MOV      r5,r4
        0x10001062:    2101        .!      MOVS     r1,#1
        0x10001064:    207f        .       MOVS     r0,#0x7f
        0x10001066:    f7ffff05    ....    BL       BBRFWrite ; 0x10000e74
        0x1000106a:    2100        .!      MOVS     r1,#0
        0x1000106c:    200a        .       MOVS     r0,#0xa
        0x1000106e:    f7ffff01    ....    BL       BBRFWrite ; 0x10000e74
        0x10001072:    2122        "!      MOVS     r1,#0x22
        0x10001074:    200a        .       MOVS     r0,#0xa
        0x10001076:    f7fffefd    ....    BL       BBRFWrite ; 0x10000e74
        0x1000107a:    4669        iF      MOV      r1,sp
        0x1000107c:    200a        .       MOVS     r0,#0xa
        0x1000107e:    f7fffef7    ....    BL       BBRFRead ; 0x10000e70
        0x10001082:    4668        hF      MOV      r0,sp
        0x10001084:    7800        .x      LDRB     r0,[r0,#0]
        0x10001086:    0740        @.      LSLS     r0,r0,#29
        0x10001088:    d4ef        ..      BMI      0x1000106a ; LPOCalibration + 134
        0x1000108a:    4669        iF      MOV      r1,sp
        0x1000108c:    200a        .       MOVS     r0,#0xa
        0x1000108e:    f7fffeef    ....    BL       BBRFRead ; 0x10000e70
        0x10001092:    4668        hF      MOV      r0,sp
        0x10001094:    7800        .x      LDRB     r0,[r0,#0]
        0x10001096:    0740        @.      LSLS     r0,r0,#29
        0x10001098:    d505        ..      BPL      0x100010a6 ; LPOCalibration + 194
        0x1000109a:    4668        hF      MOV      r0,sp
        0x1000109c:    7800        .x      LDRB     r0,[r0,#0]
        0x1000109e:    0700        ..      LSLS     r0,r0,#28
        0x100010a0:    d406        ..      BMI      0x100010b0 ; LPOCalibration + 204
        0x100010a2:    2501        .%      MOVS     r5,#1
        0x100010a4:    e004        ..      B        0x100010b0 ; LPOCalibration + 204
        0x100010a6:    1c64        d.      ADDS     r4,r4,#1
        0x100010a8:    48ea        .H      LDR      r0,[pc,#936] ; [0x10001454] = 0xffff
        0x100010aa:    b2a4        ..      UXTH     r4,r4
        0x100010ac:    4284        .B      CMP      r4,r0
        0x100010ae:    d3ec        ..      BCC      0x1000108a ; LPOCalibration + 166
        0x100010b0:    49e7        .I      LDR      r1,[pc,#924] ; [0x10001450] = 0x61c5
        0x100010b2:    2064        d       MOVS     r0,#0x64
        0x100010b4:    3166        f1      ADDS     r1,r1,#0x66
        0x100010b6:    4788        .G      BLX      r1
        0x100010b8:    2000        .       MOVS     r0,#0
        0x100010ba:    f7ffff13    ....    BL       _SYS32kClockSwitch ; 0x10000ee4
        0x100010be:    49e6        .I      LDR      r1,[pc,#920] ; [0x10001458] = 0x65a7
        0x100010c0:    9801        ..      LDR      r0,[sp,#4]
        0x100010c2:    4788        .G      BLX      r1
        0x100010c4:    48e5        .H      LDR      r0,[pc,#916] ; [0x1000145c] = 0x20003054
        0x100010c6:    6a40        @j      LDR      r0,[r0,#0x24]
        0x100010c8:    7a81        .z      LDRB     r1,[r0,#0xa]
        0x100010ca:    0849        I.      LSRS     r1,r1,#1
        0x100010cc:    0049        I.      LSLS     r1,r1,#1
        0x100010ce:    4339        9C      ORRS     r1,r1,r7
        0x100010d0:    7281        .r      STRB     r1,[r0,#0xa]
        0x100010d2:    2e00        ..      CMP      r6,#0
        0x100010d4:    d001        ..      BEQ      0x100010da ; LPOCalibration + 246
        0x100010d6:    48e2        .H      LDR      r0,[pc,#904] ; [0x10001460] = 0x4707
        0x100010d8:    4780        .G      BLX      r0
        0x100010da:    b662        b.      CPSIE    i
        0x100010dc:    2d00        .-      CMP      r5,#0
        0x100010de:    d001        ..      BEQ      0x100010e4 ; LPOCalibration + 256
        0x100010e0:    2001        .       MOVS     r0,#1
        0x100010e2:    bdfe        ..      POP      {r1-r7,pc}
        0x100010e4:    2000        .       MOVS     r0,#0
        0x100010e6:    bdfe        ..      POP      {r1-r7,pc}
    smart_latency_clear
        0x100010e8:    b510        ..      PUSH     {r4,lr}
        0x100010ea:    2111        .!      MOVS     r1,#0x11
        0x100010ec:    48dd        .H      LDR      r0,[pc,#884] ; [0x10001464] = 0x2000315f
        0x100010ee:    f001fb5e    ..^.    BL       __aeabi_memclr ; 0x100027ae
        0x100010f2:    bd10        ..      POP      {r4,pc}
    Lib_EvtCallback
        0x100010f4:    b570        p.      PUSH     {r4-r6,lr}
        0x100010f6:    4604        .F      MOV      r4,r0
        0x100010f8:    1c40        @.      ADDS     r0,r0,#1
        0x100010fa:    f001fb63    ..c.    BL       __aeabi_uread4 ; 0x100027c4
        0x100010fe:    2802        .(      CMP      r0,#2
        0x10001100:    d018        ..      BEQ      0x10001134 ; Lib_EvtCallback + 64
        0x10001102:    2804        .(      CMP      r0,#4
        0x10001104:    d019        ..      BEQ      0x1000113a ; Lib_EvtCallback + 70
        0x10001106:    2101        .!      MOVS     r1,#1
        0x10001108:    0449        I.      LSLS     r1,r1,#17
        0x1000110a:    4288        .B      CMP      r0,r1
        0x1000110c:    d144        D.      BNE      0x10001198 ; Lib_EvtCallback + 164
        0x1000110e:    4625        %F      MOV      r5,r4
        0x10001110:    3520         5      ADDS     r5,r5,#0x20
        0x10001112:    7b68        h{      LDRB     r0,[r5,#0xd]
        0x10001114:    2309        .#      MOVS     r3,#9
        0x10001116:    0701        ..      LSLS     r1,r0,#28
        0x10001118:    0902        ..      LSRS     r2,r0,#4
        0x1000111a:    0f09        ..      LSRS     r1,r1,#28
        0x1000111c:    2000        .       MOVS     r0,#0
        0x1000111e:    2a07        .*      CMP      r2,#7
        0x10001120:    d019        ..      BEQ      0x10001156 ; Lib_EvtCallback + 98
        0x10001122:    2a03        .*      CMP      r2,#3
        0x10001124:    d01d        ..      BEQ      0x10001162 ; Lib_EvtCallback + 110
        0x10001126:    2a02        .*      CMP      r2,#2
        0x10001128:    d022        ".      BEQ      0x10001170 ; Lib_EvtCallback + 124
        0x1000112a:    2a01        .*      CMP      r2,#1
        0x1000112c:    d026        &.      BEQ      0x1000117c ; Lib_EvtCallback + 136
        0x1000112e:    2a00        .*      CMP      r2,#0
        0x10001130:    d02a        *.      BEQ      0x10001188 ; Lib_EvtCallback + 148
        0x10001132:    e02f        /.      B        0x10001194 ; Lib_EvtCallback + 160
        0x10001134:    f7ffffd8    ....    BL       smart_latency_clear ; 0x100010e8
        0x10001138:    e037        7.      B        0x100011aa ; Lib_EvtCallback + 182
        0x1000113a:    48c8        .H      LDR      r0,[pc,#800] ; [0x1000145c] = 0x20003054
        0x1000113c:    21ff        .!      MOVS     r1,#0xff
        0x1000113e:    6880        .h      LDR      r0,[r0,#8]
        0x10001140:    2201        ."      MOVS     r2,#1
        0x10001142:    3135        51      ADDS     r1,r1,#0x35
        0x10001144:    540a        .T      STRB     r2,[r1,r0]
        0x10001146:    7880        .x      LDRB     r0,[r0,#2]
        0x10001148:    2800        .(      CMP      r0,#0
        0x1000114a:    d101        ..      BNE      0x10001150 ; Lib_EvtCallback + 92
        0x1000114c:    f7ffff4a    ..J.    BL       LPOCalibration ; 0x10000fe4
        0x10001150:    f7fffe93    ....    BL       RCOSCCalibration ; 0x10000e7a
        0x10001154:    e029        ).      B        0x100011aa ; Lib_EvtCallback + 182
        0x10001156:    1a58        X.      SUBS     r0,r3,r1
        0x10001158:    2106        .!      MOVS     r1,#6
        0x1000115a:    4348        HC      MULS     r0,r1,r0
        0x1000115c:    2141        A!      MOVS     r1,#0x41
        0x1000115e:    43c9        .C      MVNS     r1,r1
        0x10001160:    e004        ..      B        0x1000116c ; Lib_EvtCallback + 120
        0x10001162:    1a58        X.      SUBS     r0,r3,r1
        0x10001164:    2106        .!      MOVS     r1,#6
        0x10001166:    4348        HC      MULS     r0,r1,r0
        0x10001168:    2135        5!      MOVS     r1,#0x35
        0x1000116a:    43c9        .C      MVNS     r1,r1
        0x1000116c:    1a08        ..      SUBS     r0,r1,r0
        0x1000116e:    e010        ..      B        0x10001192 ; Lib_EvtCallback + 158
        0x10001170:    1a58        X.      SUBS     r0,r3,r1
        0x10001172:    2106        .!      MOVS     r1,#6
        0x10001174:    4348        HC      MULS     r0,r1,r0
        0x10001176:    2123        #!      MOVS     r1,#0x23
        0x10001178:    43c9        .C      MVNS     r1,r1
        0x1000117a:    e7f7        ..      B        0x1000116c ; Lib_EvtCallback + 120
        0x1000117c:    1a58        X.      SUBS     r0,r3,r1
        0x1000117e:    2106        .!      MOVS     r1,#6
        0x10001180:    4348        HC      MULS     r0,r1,r0
        0x10001182:    2117        .!      MOVS     r1,#0x17
        0x10001184:    43c9        .C      MVNS     r1,r1
        0x10001186:    e7f1        ..      B        0x1000116c ; Lib_EvtCallback + 120
        0x10001188:    1a58        X.      SUBS     r0,r3,r1
        0x1000118a:    2106        .!      MOVS     r1,#6
        0x1000118c:    4348        HC      MULS     r0,r1,r0
        0x1000118e:    1d80        ..      ADDS     r0,r0,#6
        0x10001190:    4240        @B      RSBS     r0,r0,#0
        0x10001192:    b240        @.      SXTB     r0,r0
        0x10001194:    7368        hs      STRB     r0,[r5,#0xd]
        0x10001196:    e008        ..      B        0x100011aa ; Lib_EvtCallback + 182
        0x10001198:    2840        @(      CMP      r0,#0x40
        0x1000119a:    d01d        ..      BEQ      0x100011d8 ; Lib_EvtCallback + 228
        0x1000119c:    2101        .!      MOVS     r1,#1
        0x1000119e:    03c9        ..      LSLS     r1,r1,#15
        0x100011a0:    4288        .B      CMP      r0,r1
        0x100011a2:    d102        ..      BNE      0x100011aa ; Lib_EvtCallback + 182
        0x100011a4:    1d60        `.      ADDS     r0,r4,#5
        0x100011a6:    f7fffe18    ....    BL       smart_update_latency_updatersp ; 0x10000dda
        0x100011aa:    49ae        .I      LDR      r1,[pc,#696] ; [0x10001464] = 0x2000315f
        0x100011ac:    7848        Hx      LDRB     r0,[r1,#1]
        0x100011ae:    7809        .x      LDRB     r1,[r1,#0]
        0x100011b0:    0200        ..      LSLS     r0,r0,#8
        0x100011b2:    4308        .C      ORRS     r0,r0,r1
        0x100011b4:    0680        ..      LSLS     r0,r0,#26
        0x100011b6:    d507        ..      BPL      0x100011c8 ; Lib_EvtCallback + 212
        0x100011b8:    1c60        `.      ADDS     r0,r4,#1
        0x100011ba:    f001fb03    ....    BL       __aeabi_uread4 ; 0x100027c4
        0x100011be:    0500        ..      LSLS     r0,r0,#20
        0x100011c0:    0f00        ..      LSRS     r0,r0,#28
        0x100011c2:    d001        ..      BEQ      0x100011c8 ; Lib_EvtCallback + 212
        0x100011c4:    f7fffd9f    ....    BL       smart_latency_start ; 0x10000d06
        0x100011c8:    48a4        .H      LDR      r0,[pc,#656] ; [0x1000145c] = 0x20003054
        0x100011ca:    3030        00      ADDS     r0,r0,#0x30
        0x100011cc:    f001fafa    ....    BL       __aeabi_uread4 ; 0x100027c4
        0x100011d0:    4601        .F      MOV      r1,r0
        0x100011d2:    4620         F      MOV      r0,r4
        0x100011d4:    4788        .G      BLX      r1
        0x100011d6:    bd70        p.      POP      {r4-r6,pc}
        0x100011d8:    48a0        .H      LDR      r0,[pc,#640] ; [0x1000145c] = 0x20003054
        0x100011da:    302c        ,0      ADDS     r0,r0,#0x2c
        0x100011dc:    f001faf2    ....    BL       __aeabi_uread4 ; 0x100027c4
        0x100011e0:    0640        @.      LSLS     r0,r0,#25
        0x100011e2:    d5e2        ..      BPL      0x100011aa ; Lib_EvtCallback + 182
        0x100011e4:    bd70        p.      POP      {r4-r6,pc}
    TimerStop
        0x100011e6:    49a0        .I      LDR      r1,[pc,#640] ; [0x10001468] = 0x44b3
        0x100011e8:    4708        .G      BX       r1
    smart_update_retry
        0x100011ea:    b51c        ..      PUSH     {r2-r4,lr}
        0x100011ec:    489d        .H      LDR      r0,[pc,#628] ; [0x10001464] = 0x2000315f
        0x100011ee:    2108        .!      MOVS     r1,#8
        0x100011f0:    7001        .p      STRB     r1,[r0,#0]
        0x100011f2:    2100        .!      MOVS     r1,#0
        0x100011f4:    7041        Ap      STRB     r1,[r0,#1]
        0x100011f6:    4601        .F      MOV      r1,r0
        0x100011f8:    7b08        .{      LDRB     r0,[r1,#0xc]
        0x100011fa:    7aca        .z      LDRB     r2,[r1,#0xb]
        0x100011fc:    0200        ..      LSLS     r0,r0,#8
        0x100011fe:    1cc9        ..      ADDS     r1,r1,#3
        0x10001200:    4310        .C      ORRS     r0,r0,r2
        0x10001202:    d02f        /.      BEQ      0x10001264 ; smart_update_retry + 122
        0x10001204:    794a        Jy      LDRB     r2,[r1,#5]
        0x10001206:    790b        .y      LDRB     r3,[r1,#4]
        0x10001208:    0212        ..      LSLS     r2,r2,#8
        0x1000120a:    431a        .C      ORRS     r2,r2,r3
        0x1000120c:    1a82        ..      SUBS     r2,r0,r2
        0x1000120e:    b292        ..      UXTH     r2,r2
        0x10001210:    466b        kF      MOV      r3,sp
        0x10001212:    801a        ..      STRH     r2,[r3,#0]
        0x10001214:    8058        X.      STRH     r0,[r3,#2]
        0x10001216:    2306        .#      MOVS     r3,#6
        0x10001218:    2a06        .*      CMP      r2,#6
        0x1000121a:    d201        ..      BCS      0x10001220 ; smart_update_retry + 54
        0x1000121c:    466a        jF      MOV      r2,sp
        0x1000121e:    8013        ..      STRH     r3,[r2,#0]
        0x10001220:    2806        .(      CMP      r0,#6
        0x10001222:    d201        ..      BCS      0x10001228 ; smart_update_retry + 62
        0x10001224:    4668        hF      MOV      r0,sp
        0x10001226:    8043        C.      STRH     r3,[r0,#2]
        0x10001228:    7b48        H{      LDRB     r0,[r1,#0xd]
        0x1000122a:    7b09        .{      LDRB     r1,[r1,#0xc]
        0x1000122c:    0200        ..      LSLS     r0,r0,#8
        0x1000122e:    4308        .C      ORRS     r0,r0,r1
        0x10001230:    4669        iF      MOV      r1,sp
        0x10001232:    80c8        ..      STRH     r0,[r1,#6]
        0x10001234:    488b        .H      LDR      r0,[pc,#556] ; [0x10001464] = 0x2000315f
        0x10001236:    7b81        .{      LDRB     r1,[r0,#0xe]
        0x10001238:    7b42        B{      LDRB     r2,[r0,#0xd]
        0x1000123a:    0208        ..      LSLS     r0,r1,#8
        0x1000123c:    4310        .C      ORRS     r0,r0,r2
        0x1000123e:    4669        iF      MOV      r1,sp
        0x10001240:    8088        ..      STRH     r0,[r1,#4]
        0x10001242:    4886        .H      LDR      r0,[pc,#536] ; [0x1000145c] = 0x20003054
        0x10001244:    6880        .h      LDR      r0,[r0,#8]
        0x10001246:    3023        #0      ADDS     r0,r0,#0x23
        0x10001248:    7c41        A|      LDRB     r1,[r0,#0x11]
        0x1000124a:    7c02        .|      LDRB     r2,[r0,#0x10]
        0x1000124c:    0208        ..      LSLS     r0,r1,#8
        0x1000124e:    4310        .C      ORRS     r0,r0,r2
        0x10001250:    d002        ..      BEQ      0x10001258 ; smart_update_retry + 110
        0x10001252:    2000        .       MOVS     r0,#0
        0x10001254:    f7fffd05    ....    BL       ConnectionLatencyMode ; 0x10000c62
        0x10001258:    4984        .I      LDR      r1,[pc,#528] ; [0x1000146c] = 0x4233
        0x1000125a:    4668        hF      MOV      r0,sp
        0x1000125c:    4788        .G      BLX      r1
        0x1000125e:    4982        .I      LDR      r1,[pc,#520] ; [0x10001468] = 0x44b3
        0x10001260:    2040        @       MOVS     r0,#0x40
        0x10001262:    4788        .G      BLX      r1
        0x10001264:    bd1c        ..      POP      {r2-r4,pc}
    sw_timer_update_callback
        0x10001266:    497f        .I      LDR      r1,[pc,#508] ; [0x10001464] = 0x2000315f
        0x10001268:    7848        Hx      LDRB     r0,[r1,#1]
        0x1000126a:    780a        .x      LDRB     r2,[r1,#0]
        0x1000126c:    0200        ..      LSLS     r0,r0,#8
        0x1000126e:    4310        .C      ORRS     r0,r0,r2
        0x10001270:    05c2        ..      LSLS     r2,r0,#23
        0x10001272:    d50c        ..      BPL      0x1000128e ; sw_timer_update_callback + 40
        0x10001274:    22ff        ."      MOVS     r2,#0xff
        0x10001276:    3201        .2      ADDS     r2,#1
        0x10001278:    4390        .C      BICS     r0,r0,r2
        0x1000127a:    7008        .p      STRB     r0,[r1,#0]
        0x1000127c:    0a00        ..      LSRS     r0,r0,#8
        0x1000127e:    7048        Hp      STRB     r0,[r1,#1]
        0x10001280:    7908        .y      LDRB     r0,[r1,#4]
        0x10001282:    1e40        @.      SUBS     r0,r0,#1
        0x10001284:    0600        ..      LSLS     r0,r0,#24
        0x10001286:    0e00        ..      LSRS     r0,r0,#24
        0x10001288:    7108        .q      STRB     r0,[r1,#4]
        0x1000128a:    d009        ..      BEQ      0x100012a0 ; sw_timer_update_callback + 58
        0x1000128c:    e7ad        ..      B        smart_update_retry ; 0x100011ea
        0x1000128e:    2220         "      MOVS     r2,#0x20
        0x10001290:    4310        .C      ORRS     r0,r0,r2
        0x10001292:    2210        ."      MOVS     r2,#0x10
        0x10001294:    4390        .C      BICS     r0,r0,r2
        0x10001296:    2204        ."      MOVS     r2,#4
        0x10001298:    4310        .C      ORRS     r0,r0,r2
        0x1000129a:    7008        .p      STRB     r0,[r1,#0]
        0x1000129c:    0a00        ..      LSRS     r0,r0,#8
        0x1000129e:    7048        Hp      STRB     r0,[r1,#1]
        0x100012a0:    4770        pG      BX       lr
    smart_update_latency_updatareq
        0x100012a2:    b5fe        ..      PUSH     {r1-r7,lr}
        0x100012a4:    4d6f        oM      LDR      r5,[pc,#444] ; [0x10001464] = 0x2000315f
        0x100012a6:    4604        .F      MOV      r4,r0
        0x100012a8:    7868        hx      LDRB     r0,[r5,#1]
        0x100012aa:    7829        )x      LDRB     r1,[r5,#0]
        0x100012ac:    0200        ..      LSLS     r0,r0,#8
        0x100012ae:    4308        .C      ORRS     r0,r0,r1
        0x100012b0:    0700        ..      LSLS     r0,r0,#28
        0x100012b2:    d57d        }.      BPL      0x100013b0 ; smart_update_latency_updatareq + 270
        0x100012b4:    486e        nH      LDR      r0,[pc,#440] ; [0x10001470] = 0x55bf
        0x100012b6:    4780        .G      BLX      r0
        0x100012b8:    7869        ix      LDRB     r1,[r5,#1]
        0x100012ba:    782a        *x      LDRB     r2,[r5,#0]
        0x100012bc:    0209        ..      LSLS     r1,r1,#8
        0x100012be:    4311        .C      ORRS     r1,r1,r2
        0x100012c0:    2208        ."      MOVS     r2,#8
        0x100012c2:    4391        .C      BICS     r1,r1,r2
        0x100012c4:    7029        )p      STRB     r1,[r5,#0]
        0x100012c6:    0a0a        ..      LSRS     r2,r1,#8
        0x100012c8:    706a        jp      STRB     r2,[r5,#1]
        0x100012ca:    7a6b        kz      LDRB     r3,[r5,#9]
        0x100012cc:    4606        .F      MOV      r6,r0
        0x100012ce:    4628        (F      MOV      r0,r5
        0x100012d0:    061a        ..      LSLS     r2,r3,#24
        0x100012d2:    d56e        n.      BPL      0x100013b2 ; smart_update_latency_updatareq + 272
        0x100012d4:    79a2        .y      LDRB     r2,[r4,#6]
        0x100012d6:    7967        gy      LDRB     r7,[r4,#5]
        0x100012d8:    0212        ..      LSLS     r2,r2,#8
        0x100012da:    1c65        e.      ADDS     r5,r4,#1
        0x100012dc:    433a        :C      ORRS     r2,r2,r7
        0x100012de:    4f5f        _O      LDR      r7,[pc,#380] ; [0x1000145c] = 0x20003054
        0x100012e0:    1ce4        ..      ADDS     r4,r4,#3
        0x100012e2:    2a00        .*      CMP      r2,#0
        0x100012e4:    d077        w.      BEQ      0x100013d6 ; smart_update_latency_updatareq + 308
        0x100012e6:    2210        ."      MOVS     r2,#0x10
        0x100012e8:    4311        .C      ORRS     r1,r1,r2
        0x100012ea:    7001        .p      STRB     r1,[r0,#0]
        0x100012ec:    0a0a        ..      LSRS     r2,r1,#8
        0x100012ee:    7042        Bp      STRB     r2,[r0,#1]
        0x100012f0:    0688        ..      LSLS     r0,r1,#26
        0x100012f2:    d45e        ^.      BMI      0x100013b2 ; smart_update_latency_updatareq + 272
        0x100012f4:    7968        hy      LDRB     r0,[r5,#5]
        0x100012f6:    7929        )y      LDRB     r1,[r5,#4]
        0x100012f8:    0200        ..      LSLS     r0,r0,#8
        0x100012fa:    4308        .C      ORRS     r0,r0,r1
        0x100012fc:    d032        2.      BEQ      0x10001364 ; smart_update_latency_updatareq + 194
        0x100012fe:    f001fc7b    ..{.    BL       __aeabi_ui2d ; 0x10002bf8
        0x10001302:    9101        ..      STR      r1,[sp,#4]
        0x10001304:    9000        ..      STR      r0,[sp,#0]
        0x10001306:    7860        `x      LDRB     r0,[r4,#1]
        0x10001308:    7821        !x      LDRB     r1,[r4,#0]
        0x1000130a:    0200        ..      LSLS     r0,r0,#8
        0x1000130c:    4308        .C      ORRS     r0,r0,r1
        0x1000130e:    f001fc73    ..s.    BL       __aeabi_ui2d ; 0x10002bf8
        0x10001312:    4c58        XL      LDR      r4,[pc,#352] ; [0x10001474] = 0x3ff40000
        0x10001314:    2200        ."      MOVS     r2,#0
        0x10001316:    4623        #F      MOV      r3,r4
        0x10001318:    f001fb72    ..r.    BL       __aeabi_dmul ; 0x10002a00
        0x1000131c:    9b01        ..      LDR      r3,[sp,#4]
        0x1000131e:    9a00        ..      LDR      r2,[sp,#0]
        0x10001320:    f001fb6e    ..n.    BL       __aeabi_dmul ; 0x10002a00
        0x10001324:    9101        ..      STR      r1,[sp,#4]
        0x10001326:    9000        ..      STR      r0,[sp,#0]
        0x10001328:    68b8        .h      LDR      r0,[r7,#8]
        0x1000132a:    3021        !0      ADDS     r0,r0,#0x21
        0x1000132c:    7c41        A|      LDRB     r1,[r0,#0x11]
        0x1000132e:    7c02        .|      LDRB     r2,[r0,#0x10]
        0x10001330:    0208        ..      LSLS     r0,r1,#8
        0x10001332:    4310        .C      ORRS     r0,r0,r2
        0x10001334:    f001fc60    ..`.    BL       __aeabi_ui2d ; 0x10002bf8
        0x10001338:    2200        ."      MOVS     r2,#0
        0x1000133a:    4623        #F      MOV      r3,r4
        0x1000133c:    f001fb60    ..`.    BL       __aeabi_dmul ; 0x10002a00
        0x10001340:    4607        .F      MOV      r7,r0
        0x10001342:    460c        .F      MOV      r4,r1
        0x10001344:    7a68        hz      LDRB     r0,[r5,#9]
        0x10001346:    7a29        )z      LDRB     r1,[r5,#8]
        0x10001348:    0200        ..      LSLS     r0,r0,#8
        0x1000134a:    4308        .C      ORRS     r0,r0,r1
        0x1000134c:    1b80        ..      SUBS     r0,r0,r6
        0x1000134e:    f001fc3f    ..?.    BL       __aeabi_i2d ; 0x10002bd0
        0x10001352:    463a        :F      MOV      r2,r7
        0x10001354:    4623        #F      MOV      r3,r4
        0x10001356:    f001fb53    ..S.    BL       __aeabi_dmul ; 0x10002a00
        0x1000135a:    9b01        ..      LDR      r3,[sp,#4]
        0x1000135c:    9a00        ..      LDR      r2,[sp,#0]
        0x1000135e:    f001fa9d    ....    BL       __aeabi_dadd ; 0x1000289c
        0x10001362:    e024        $.      B        0x100013ae ; smart_update_latency_updatareq + 268
        0x10001364:    7860        `x      LDRB     r0,[r4,#1]
        0x10001366:    7821        !x      LDRB     r1,[r4,#0]
        0x10001368:    0200        ..      LSLS     r0,r0,#8
        0x1000136a:    4308        .C      ORRS     r0,r0,r1
        0x1000136c:    f001fc28    ..(.    BL       __aeabi_ui2f ; 0x10002bc0
        0x10001370:    4604        .F      MOV      r4,r0
        0x10001372:    68b8        .h      LDR      r0,[r7,#8]
        0x10001374:    3021        !0      ADDS     r0,r0,#0x21
        0x10001376:    7c41        A|      LDRB     r1,[r0,#0x11]
        0x10001378:    7c02        .|      LDRB     r2,[r0,#0x10]
        0x1000137a:    0208        ..      LSLS     r0,r1,#8
        0x1000137c:    4310        .C      ORRS     r0,r0,r2
        0x1000137e:    f001fc1f    ....    BL       __aeabi_ui2f ; 0x10002bc0
        0x10001382:    4621        !F      MOV      r1,r4
        0x10001384:    f001fa31    ..1.    BL       __aeabi_fadd ; 0x100027ea
        0x10001388:    f001fc62    ..b.    BL       __aeabi_f2d ; 0x10002c50
        0x1000138c:    2200        ."      MOVS     r2,#0
        0x1000138e:    4b39        9K      LDR      r3,[pc,#228] ; [0x10001474] = 0x3ff40000
        0x10001390:    f001fb36    ..6.    BL       __aeabi_dmul ; 0x10002a00
        0x10001394:    4607        .F      MOV      r7,r0
        0x10001396:    460c        .F      MOV      r4,r1
        0x10001398:    7a68        hz      LDRB     r0,[r5,#9]
        0x1000139a:    7a29        )z      LDRB     r1,[r5,#8]
        0x1000139c:    0200        ..      LSLS     r0,r0,#8
        0x1000139e:    4308        .C      ORRS     r0,r0,r1
        0x100013a0:    1b80        ..      SUBS     r0,r0,r6
        0x100013a2:    f001fc15    ....    BL       __aeabi_i2d ; 0x10002bd0
        0x100013a6:    463a        :F      MOV      r2,r7
        0x100013a8:    4623        #F      MOV      r3,r4
        0x100013aa:    f001fb29    ..).    BL       __aeabi_dmul ; 0x10002a00
        0x100013ae:    e002        ..      B        0x100013b6 ; smart_update_latency_updatareq + 276
        0x100013b0:    e087        ..      B        0x100014c2 ; smart_update_latency_updatareq + 544
        0x100013b2:    e07d        }.      B        0x100014b0 ; smart_update_latency_updatareq + 526
        0x100013b4:    e00f        ..      B        0x100013d6 ; smart_update_latency_updatareq + 308
        0x100013b6:    2200        ."      MOVS     r2,#0
        0x100013b8:    4b2f        /K      LDR      r3,[pc,#188] ; [0x10001478] = 0x40590000
        0x100013ba:    f001fb89    ....    BL       __aeabi_ddiv ; 0x10002ad0
        0x100013be:    f001fc29    ..).    BL       __aeabi_d2uiz ; 0x10002c14
        0x100013c2:    0401        ..      LSLS     r1,r0,#16
        0x100013c4:    0c09        ..      LSRS     r1,r1,#16
        0x100013c6:    d100        ..      BNE      0x100013ca ; smart_update_latency_updatareq + 296
        0x100013c8:    2101        .!      MOVS     r1,#1
        0x100013ca:    4b2c        ,K      LDR      r3,[pc,#176] ; [0x1000147c] = 0x10001267
        0x100013cc:    2200        ."      MOVS     r2,#0
        0x100013ce:    2080        .       MOVS     r0,#0x80
        0x100013d0:    f7fffc94    ....    BL       TimerStart ; 0x10000cfc
        0x100013d4:    e06c        l.      B        0x100014b0 ; smart_update_latency_updatareq + 526
        0x100013d6:    069a        ..      LSLS     r2,r3,#26
        0x100013d8:    d56a        j.      BPL      0x100014b0 ; smart_update_latency_updatareq + 526
        0x100013da:    7882        .x      LDRB     r2,[r0,#2]
        0x100013dc:    2a01        .*      CMP      r2,#1
        0x100013de:    d167        g.      BNE      0x100014b0 ; smart_update_latency_updatareq + 526
        0x100013e0:    068a        ..      LSLS     r2,r1,#26
        0x100013e2:    d465        e.      BMI      0x100014b0 ; smart_update_latency_updatareq + 526
        0x100013e4:    22ff        ."      MOVS     r2,#0xff
        0x100013e6:    481f        .H      LDR      r0,[pc,#124] ; [0x10001464] = 0x2000315f
        0x100013e8:    3201        .2      ADDS     r2,#1
        0x100013ea:    4311        .C      ORRS     r1,r1,r2
        0x100013ec:    7001        .p      STRB     r1,[r0,#0]
        0x100013ee:    0a09        ..      LSRS     r1,r1,#8
        0x100013f0:    7041        Ap      STRB     r1,[r0,#1]
        0x100013f2:    7860        `x      LDRB     r0,[r4,#1]
        0x100013f4:    7821        !x      LDRB     r1,[r4,#0]
        0x100013f6:    0200        ..      LSLS     r0,r0,#8
        0x100013f8:    4308        .C      ORRS     r0,r0,r1
        0x100013fa:    491a        .I      LDR      r1,[pc,#104] ; [0x10001464] = 0x2000315f
        0x100013fc:    7b0a        .{      LDRB     r2,[r1,#0xc]
        0x100013fe:    7acb        .z      LDRB     r3,[r1,#0xb]
        0x10001400:    0211        ..      LSLS     r1,r2,#8
        0x10001402:    4319        .C      ORRS     r1,r1,r3
        0x10001404:    4288        .B      CMP      r0,r1
        0x10001406:    d953        S.      BLS      0x100014b0 ; smart_update_latency_updatareq + 526
        0x10001408:    f001fbda    ....    BL       __aeabi_ui2f ; 0x10002bc0
        0x1000140c:    4604        .F      MOV      r4,r0
        0x1000140e:    68b8        .h      LDR      r0,[r7,#8]
        0x10001410:    3021        !0      ADDS     r0,r0,#0x21
        0x10001412:    7c41        A|      LDRB     r1,[r0,#0x11]
        0x10001414:    7c02        .|      LDRB     r2,[r0,#0x10]
        0x10001416:    0208        ..      LSLS     r0,r1,#8
        0x10001418:    4310        .C      ORRS     r0,r0,r2
        0x1000141a:    f001fbd1    ....    BL       __aeabi_ui2f ; 0x10002bc0
        0x1000141e:    4621        !F      MOV      r1,r4
        0x10001420:    f001f9e3    ....    BL       __aeabi_fadd ; 0x100027ea
        0x10001424:    f001fc14    ....    BL       __aeabi_f2d ; 0x10002c50
        0x10001428:    2200        ."      MOVS     r2,#0
        0x1000142a:    4b12        .K      LDR      r3,[pc,#72] ; [0x10001474] = 0x3ff40000
        0x1000142c:    f001fae8    ....    BL       __aeabi_dmul ; 0x10002a00
        0x10001430:    4607        .F      MOV      r7,r0
        0x10001432:    460c        .F      MOV      r4,r1
        0x10001434:    7a68        hz      LDRB     r0,[r5,#9]
        0x10001436:    7a29        )z      LDRB     r1,[r5,#8]
        0x10001438:    0200        ..      LSLS     r0,r0,#8
        0x1000143a:    4308        .C      ORRS     r0,r0,r1
        0x1000143c:    1b80        ..      SUBS     r0,r0,r6
        0x1000143e:    f001fbc7    ....    BL       __aeabi_i2d ; 0x10002bd0
        0x10001442:    463a        :F      MOV      r2,r7
        0x10001444:    4623        #F      MOV      r3,r4
        0x10001446:    f001fadb    ....    BL       __aeabi_dmul ; 0x10002a00
        0x1000144a:    2200        ."      MOVS     r2,#0
        0x1000144c:    4b0a        .K      LDR      r3,[pc,#40] ; [0x10001478] = 0x40590000
        0x1000144e:    e017        ..      B        0x10001480 ; smart_update_latency_updatareq + 478
    $d
        0x10001450:    000061c5    .a..    DCD    25029
        0x10001454:    0000ffff    ....    DCD    65535
        0x10001458:    000065a7    .e..    DCD    26023
        0x1000145c:    20003054    T0.     DCD    536883284
        0x10001460:    00004707    .G..    DCD    18183
        0x10001464:    2000315f    _1.     DCD    536883551
        0x10001468:    000044b3    .D..    DCD    17587
        0x1000146c:    00004233    3B..    DCD    16947
        0x10001470:    000055bf    .U..    DCD    21951
        0x10001474:    3ff40000    ...?    DCD    1072955392
        0x10001478:    40590000    ..Y@    DCD    1079574528
        0x1000147c:    10001267    g...    DCD    268440167
    $t
        0x10001480:    f001fb26    ..&.    BL       __aeabi_ddiv ; 0x10002ad0
        0x10001484:    f001fbc6    ....    BL       __aeabi_d2uiz ; 0x10002c14
        0x10001488:    0401        ..      LSLS     r1,r0,#16
        0x1000148a:    0c09        ..      LSRS     r1,r1,#16
        0x1000148c:    d100        ..      BNE      0x10001490 ; smart_update_latency_updatareq + 494
        0x1000148e:    2101        .!      MOVS     r1,#1
        0x10001490:    4bfe        .K      LDR      r3,[pc,#1016] ; [0x1000188c] = 0x10001267
        0x10001492:    2200        ."      MOVS     r2,#0
        0x10001494:    2080        .       MOVS     r0,#0x80
        0x10001496:    f7fffc31    ..1.    BL       TimerStart ; 0x10000cfc
        0x1000149a:    48fd        .H      LDR      r0,[pc,#1012] ; [0x10001890] = 0x2000315f
        0x1000149c:    7841        Ax      LDRB     r1,[r0,#1]
        0x1000149e:    7802        .x      LDRB     r2,[r0,#0]
        0x100014a0:    0209        ..      LSLS     r1,r1,#8
        0x100014a2:    4311        .C      ORRS     r1,r1,r2
        0x100014a4:    22ff        ."      MOVS     r2,#0xff
        0x100014a6:    3201        .2      ADDS     r2,#1
        0x100014a8:    4311        .C      ORRS     r1,r1,r2
        0x100014aa:    7001        .p      STRB     r1,[r0,#0]
        0x100014ac:    0a09        ..      LSRS     r1,r1,#8
        0x100014ae:    7041        Ap      STRB     r1,[r0,#1]
        0x100014b0:    2003        .       MOVS     r0,#3
        0x100014b2:    4669        iF      MOV      r1,sp
        0x100014b4:    8108        ..      STRH     r0,[r1,#8]
        0x100014b6:    2202        ."      MOVS     r2,#2
        0x100014b8:    0391        ..      LSLS     r1,r2,#14
        0x100014ba:    4cf6        .L      LDR      r4,[pc,#984] ; [0x10001894] = 0x3ea1
        0x100014bc:    ab02        ..      ADD      r3,sp,#8
        0x100014be:    2000        .       MOVS     r0,#0
        0x100014c0:    47a0        .G      BLX      r4
        0x100014c2:    bdfe        ..      POP      {r1-r7,pc}
    Lib_ProtocolHookCallback
        0x100014c4:    b510        ..      PUSH     {r4,lr}
        0x100014c6:    4604        .F      MOV      r4,r0
        0x100014c8:    7800        .x      LDRB     r0,[r0,#0]
        0x100014ca:    2800        .(      CMP      r0,#0
        0x100014cc:    d110        ..      BNE      0x100014f0 ; Lib_ProtocolHookCallback + 44
        0x100014ce:    78a1        .x      LDRB     r1,[r4,#2]
        0x100014d0:    7862        bx      LDRB     r2,[r4,#1]
        0x100014d2:    0208        ..      LSLS     r0,r1,#8
        0x100014d4:    4310        .C      ORRS     r0,r0,r2
        0x100014d6:    d00c        ..      BEQ      0x100014f2 ; Lib_ProtocolHookCallback + 46
        0x100014d8:    2801        .(      CMP      r0,#1
        0x100014da:    d109        ..      BNE      0x100014f0 ; Lib_ProtocolHookCallback + 44
        0x100014dc:    f001f8b9    ....    BL       WaitLLCOverSlpth ; 0x10002652
        0x100014e0:    49ed        .I      LDR      r1,[pc,#948] ; [0x10001898] = 0x5f47
        0x100014e2:    1d20         .      ADDS     r0,r4,#4
        0x100014e4:    4788        .G      BLX      r1
        0x100014e6:    2800        .(      CMP      r0,#0
        0x100014e8:    d102        ..      BNE      0x100014f0 ; Lib_ProtocolHookCallback + 44
        0x100014ea:    2028        (       MOVS     r0,#0x28
        0x100014ec:    f7fff978    ..x.    BL       _LCDisConnect ; 0x100007e0
        0x100014f0:    bd10        ..      POP      {r4,pc}
        0x100014f2:    f001f8ae    ....    BL       WaitLLCOverSlpth ; 0x10002652
        0x100014f6:    49e9        .I      LDR      r1,[pc,#932] ; [0x1000189c] = 0x5b5d
        0x100014f8:    1d20         .      ADDS     r0,r4,#4
        0x100014fa:    4788        .G      BLX      r1
        0x100014fc:    2800        .(      CMP      r0,#0
        0x100014fe:    d102        ..      BNE      0x10001506 ; Lib_ProtocolHookCallback + 66
        0x10001500:    2028        (       MOVS     r0,#0x28
        0x10001502:    f7fff96d    ..m.    BL       _LCDisConnect ; 0x100007e0
        0x10001506:    1d20         .      ADDS     r0,r4,#4
        0x10001508:    f7fffecb    ....    BL       smart_update_latency_updatareq ; 0x100012a2
        0x1000150c:    48e4        .H      LDR      r0,[pc,#912] ; [0x100018a0] = 0x20003054
        0x1000150e:    2101        .!      MOVS     r1,#1
        0x10001510:    6883        .h      LDR      r3,[r0,#8]
        0x10001512:    2206        ."      MOVS     r2,#6
        0x10001514:    0409        ..      LSLS     r1,r1,#16
        0x10001516:    2000        .       MOVS     r0,#0
        0x10001518:    4cde        .L      LDR      r4,[pc,#888] ; [0x10001894] = 0x3ea1
        0x1000151a:    3331        13      ADDS     r3,r3,#0x31
        0x1000151c:    47a0        .G      BLX      r4
        0x1000151e:    bd10        ..      POP      {r4,pc}
    Lib_MiscCallback
        0x10001520:    b510        ..      PUSH     {r4,lr}
        0x10001522:    7800        .x      LDRB     r0,[r0,#0]
        0x10001524:    2801        .(      CMP      r0,#1
        0x10001526:    d101        ..      BNE      0x1000152c ; Lib_MiscCallback + 12
        0x10001528:    f7fff971    ..q.    BL       _LCTimer_Handler ; 0x1000080e
        0x1000152c:    bd10        ..      POP      {r4,pc}
    BleInit
        0x1000152e:    b570        p.      PUSH     {r4-r6,lr}
        0x10001530:    48dc        .H      LDR      r0,[pc,#880] ; [0x100018a4] = 0x3d79
        0x10001532:    b086        ..      SUB      sp,sp,#0x18
        0x10001534:    4780        .G      BLX      r0
        0x10001536:    2101        .!      MOVS     r1,#1
        0x10001538:    207f        .       MOVS     r0,#0x7f
        0x1000153a:    f7fffc9b    ....    BL       BBRFWrite ; 0x10000e74
        0x1000153e:    4669        iF      MOV      r1,sp
        0x10001540:    2050        P       MOVS     r0,#0x50
        0x10001542:    f7fffc95    ....    BL       BBRFRead ; 0x10000e70
        0x10001546:    4668        hF      MOV      r0,sp
        0x10001548:    7800        .x      LDRB     r0,[r0,#0]
        0x1000154a:    2804        .(      CMP      r0,#4
        0x1000154c:    d001        ..      BEQ      0x10001552 ; BleInit + 36
        0x1000154e:    48d6        .H      LDR      r0,[pc,#856] ; [0x100018a8] = 0x46f7
        0x10001550:    4780        .G      BLX      r0
        0x10001552:    f7fffd47    ..G.    BL       LPOCalibration ; 0x10000fe4
        0x10001556:    f7fffc90    ....    BL       RCOSCCalibration ; 0x10000e7a
        0x1000155a:    2401        .$      MOVS     r4,#1
        0x1000155c:    4668        hF      MOV      r0,sp
        0x1000155e:    8044        D.      STRH     r4,[r0,#2]
        0x10001560:    8004        ..      STRH     r4,[r0,#0]
        0x10001562:    48d2        .H      LDR      r0,[pc,#840] ; [0x100018ac] = 0x10001521
        0x10001564:    9001        ..      STR      r0,[sp,#4]
        0x10001566:    49d2        .I      LDR      r1,[pc,#840] ; [0x100018b0] = 0x442f
        0x10001568:    4668        hF      MOV      r0,sp
        0x1000156a:    4788        .G      BLX      r1
        0x1000156c:    4668        hF      MOV      r0,sp
        0x1000156e:    7004        .p      STRB     r4,[r0,#0]
        0x10001570:    7044        Dp      STRB     r4,[r0,#1]
        0x10001572:    2400        .$      MOVS     r4,#0
        0x10001574:    8044        D.      STRH     r4,[r0,#2]
        0x10001576:    48cf        .H      LDR      r0,[pc,#828] ; [0x100018b4] = 0x10000b67
        0x10001578:    4dc9        .M      LDR      r5,[pc,#804] ; [0x100018a0] = 0x20003054
        0x1000157a:    9001        ..      STR      r0,[sp,#4]
        0x1000157c:    4bce        .K      LDR      r3,[pc,#824] ; [0x100018b8] = 0x2ce
        0x1000157e:    68a8        .h      LDR      r0,[r5,#8]
        0x10001580:    2208        ."      MOVS     r2,#8
        0x10001582:    4669        iF      MOV      r1,sp
        0x10001584:    18c0        ..      ADDS     r0,r0,r3
        0x10001586:    f001f8f9    ....    BL       __aeabi_memcpy ; 0x1000277c
        0x1000158a:    2101        .!      MOVS     r1,#1
        0x1000158c:    4ecb        .N      LDR      r6,[pc,#812] ; [0x100018bc] = 0x5561
        0x1000158e:    2040        @       MOVS     r0,#0x40
        0x10001590:    47b0        .G      BLX      r6
        0x10001592:    2101        .!      MOVS     r1,#1
        0x10001594:    2080        .       MOVS     r0,#0x80
        0x10001596:    47b0        .G      BLX      r6
        0x10001598:    2101        .!      MOVS     r1,#1
        0x1000159a:    2020                MOVS     r0,#0x20
        0x1000159c:    47b0        .G      BLX      r6
        0x1000159e:    2103        .!      MOVS     r1,#3
        0x100015a0:    4668        hF      MOV      r0,sp
        0x100015a2:    8001        ..      STRH     r1,[r0,#0]
        0x100015a4:    8041        A.      STRH     r1,[r0,#2]
        0x100015a6:    8084        ..      STRH     r4,[r0,#4]
        0x100015a8:    80c4        ..      STRH     r4,[r0,#6]
        0x100015aa:    8104        ..      STRH     r4,[r0,#8]
        0x100015ac:    8144        D.      STRH     r4,[r0,#0xa]
        0x100015ae:    8184        ..      STRH     r4,[r0,#0xc]
        0x100015b0:    81c4        ..      STRH     r4,[r0,#0xe]
        0x100015b2:    48c3        .H      LDR      r0,[pc,#780] ; [0x100018c0] = 0x100014c5
        0x100015b4:    49be        .I      LDR      r1,[pc,#760] ; [0x100018b0] = 0x442f
        0x100015b6:    9004        ..      STR      r0,[sp,#0x10]
        0x100015b8:    4668        hF      MOV      r0,sp
        0x100015ba:    39a2        .9      SUBS     r1,r1,#0xa2
        0x100015bc:    4788        .G      BLX      r1
        0x100015be:    6868        hh      LDR      r0,[r5,#4]
        0x100015c0:    300a        .0      ADDS     r0,r0,#0xa
        0x100015c2:    f001f8ff    ....    BL       __aeabi_uread4 ; 0x100027c4
        0x100015c6:    4ab2        .J      LDR      r2,[pc,#712] ; [0x10001890] = 0x2000315f
        0x100015c8:    4bbe        .K      LDR      r3,[pc,#760] ; [0x100018c4] = 0x5359
        0x100015ca:    3a57        W:      SUBS     r2,r2,#0x57
        0x100015cc:    2157        W!      MOVS     r1,#0x57
        0x100015ce:    4798        .G      BLX      r3
        0x100015d0:    2001        .       MOVS     r0,#1
        0x100015d2:    b006        ..      ADD      sp,sp,#0x18
        0x100015d4:    bd70        p.      POP      {r4-r6,pc}
    DisConnect
        0x100015d6:    48b3        .H      LDR      r0,[pc,#716] ; [0x100018a4] = 0x3d79
        0x100015d8:    b510        ..      PUSH     {r4,lr}
        0x100015da:    300a        .0      ADDS     r0,r0,#0xa
        0x100015dc:    4780        .G      BLX      r0
        0x100015de:    2001        .       MOVS     r0,#1
        0x100015e0:    bd10        ..      POP      {r4,pc}
    SetDevAddr
        0x100015e2:    49b0        .I      LDR      r1,[pc,#704] ; [0x100018a4] = 0x3d79
        0x100015e4:    b510        ..      PUSH     {r4,lr}
        0x100015e6:    3128        (1      ADDS     r1,r1,#0x28
        0x100015e8:    4788        .G      BLX      r1
        0x100015ea:    2001        .       MOVS     r0,#1
        0x100015ec:    bd10        ..      POP      {r4,pc}
    GetDevAddr
        0x100015ee:    49ad        .I      LDR      r1,[pc,#692] ; [0x100018a4] = 0x3d79
        0x100015f0:    b510        ..      PUSH     {r4,lr}
        0x100015f2:    315e        ^1      ADDS     r1,r1,#0x5e
        0x100015f4:    4788        .G      BLX      r1
        0x100015f6:    2001        .       MOVS     r0,#1
        0x100015f8:    bd10        ..      POP      {r4,pc}
    SetLEFeature
        0x100015fa:    49aa        .I      LDR      r1,[pc,#680] ; [0x100018a4] = 0x3d79
        0x100015fc:    b510        ..      PUSH     {r4,lr}
        0x100015fe:    316a        j1      ADDS     r1,r1,#0x6a
        0x10001600:    4788        .G      BLX      r1
        0x10001602:    2001        .       MOVS     r0,#1
        0x10001604:    bd10        ..      POP      {r4,pc}
    SetAdvAccCode
        0x10001606:    49a7        .I      LDR      r1,[pc,#668] ; [0x100018a4] = 0x3d79
        0x10001608:    b510        ..      PUSH     {r4,lr}
        0x1000160a:    3178        x1      ADDS     r1,r1,#0x78
        0x1000160c:    4788        .G      BLX      r1
        0x1000160e:    2001        .       MOVS     r0,#1
        0x10001610:    bd10        ..      POP      {r4,pc}
    SetAdvParams
        0x10001612:    49a4        .I      LDR      r1,[pc,#656] ; [0x100018a4] = 0x3d79
        0x10001614:    b510        ..      PUSH     {r4,lr}
        0x10001616:    3188        .1      ADDS     r1,r1,#0x88
        0x10001618:    4788        .G      BLX      r1
        0x1000161a:    2001        .       MOVS     r0,#1
        0x1000161c:    bd10        ..      POP      {r4,pc}
    SetAdvData
        0x1000161e:    b510        ..      PUSH     {r4,lr}
        0x10001620:    4c9c        .L      LDR      r4,[pc,#624] ; [0x10001894] = 0x3ea1
        0x10001622:    3c38        8<      SUBS     r4,r4,#0x38
        0x10001624:    47a0        .G      BLX      r4
        0x10001626:    2001        .       MOVS     r0,#1
        0x10001628:    bd10        ..      POP      {r4,pc}
    _GAPStartAdv
        0x1000162a:    b5f8        ..      PUSH     {r3-r7,lr}
        0x1000162c:    4c9c        .L      LDR      r4,[pc,#624] ; [0x100018a0] = 0x20003054
        0x1000162e:    49a6        .I      LDR      r1,[pc,#664] ; [0x100018c8] = 0x57b1
        0x10001630:    68a0        .h      LDR      r0,[r4,#8]
        0x10001632:    3037        70      ADDS     r0,r0,#0x37
        0x10001634:    4788        .G      BLX      r1
        0x10001636:    68e0        .h      LDR      r0,[r4,#0xc]
        0x10001638:    233b        ;#      MOVS     r3,#0x3b
        0x1000163a:    7801        .x      LDRB     r1,[r0,#0]
        0x1000163c:    25bf        .%      MOVS     r5,#0xbf
        0x1000163e:    090a        ..      LSRS     r2,r1,#4
        0x10001640:    68a1        .h      LDR      r1,[r4,#8]
        0x10001642:    0112        ..      LSLS     r2,r2,#4
        0x10001644:    5c5b        [\      LDRB     r3,[r3,r1]
        0x10001646:    071b        ..      LSLS     r3,r3,#28
        0x10001648:    0f1b        ..      LSRS     r3,r3,#28
        0x1000164a:    431a        .C      ORRS     r2,r2,r3
        0x1000164c:    7002        .p      STRB     r2,[r0,#0]
        0x1000164e:    0712        ..      LSLS     r2,r2,#28
        0x10001650:    0f12        ..      LSRS     r2,r2,#28
        0x10001652:    2a01        .*      CMP      r2,#1
        0x10001654:    d079        y.      BEQ      0x1000174a ; _GAPStartAdv + 288
        0x10001656:    460b        .F      MOV      r3,r1
        0x10001658:    3340        @3      ADDS     r3,r3,#0x40
        0x1000165a:    785a        Zx      LDRB     r2,[r3,#1]
        0x1000165c:    781b        .x      LDRB     r3,[r3,#0]
        0x1000165e:    0212        ..      LSLS     r2,r2,#8
        0x10001660:    431a        .C      ORRS     r2,r2,r3
        0x10001662:    460b        .F      MOV      r3,r1
        0x10001664:    3342        B3      ADDS     r3,r3,#0x42
        0x10001666:    701a        .p      STRB     r2,[r3,#0]
        0x10001668:    0a12        ..      LSRS     r2,r2,#8
        0x1000166a:    705a        Zp      STRB     r2,[r3,#1]
        0x1000166c:    7802        .x      LDRB     r2,[r0,#0]
        0x1000166e:    7a8b        .z      LDRB     r3,[r1,#0xa]
        0x10001670:    402a        *@      ANDS     r2,r2,r5
        0x10001672:    019b        ..      LSLS     r3,r3,#6
        0x10001674:    431a        .C      ORRS     r2,r2,r3
        0x10001676:    0652        R.      LSLS     r2,r2,#25
        0x10001678:    0e52        R.      LSRS     r2,r2,#25
        0x1000167a:    7002        .p      STRB     r2,[r0,#0]
        0x1000167c:    2366        f#      MOVS     r3,#0x66
        0x1000167e:    5c5b        [\      LDRB     r3,[r3,r1]
        0x10001680:    7842        Bx      LDRB     r2,[r0,#1]
        0x10001682:    1d9b        ..      ADDS     r3,r3,#6
        0x10001684:    0992        ..      LSRS     r2,r2,#6
        0x10001686:    069b        ..      LSLS     r3,r3,#26
        0x10001688:    0192        ..      LSLS     r2,r2,#6
        0x1000168a:    0e9b        ..      LSRS     r3,r3,#26
        0x1000168c:    431a        .C      ORRS     r2,r2,r3
        0x1000168e:    7042        Bp      STRB     r2,[r0,#1]
        0x10001690:    2206        ."      MOVS     r2,#6
        0x10001692:    1c80        ..      ADDS     r0,r0,#2
        0x10001694:    310b        .1      ADDS     r1,r1,#0xb
        0x10001696:    f001f871    ..q.    BL       __aeabi_memcpy ; 0x1000277c
        0x1000169a:    68a1        .h      LDR      r1,[r4,#8]
        0x1000169c:    2066        f       MOVS     r0,#0x66
        0x1000169e:    5c42        B\      LDRB     r2,[r0,r1]
        0x100016a0:    2a00        .*      CMP      r2,#0
        0x100016a2:    d004        ..      BEQ      0x100016ae ; _GAPStartAdv + 132
        0x100016a4:    68e0        .h      LDR      r0,[r4,#0xc]
        0x100016a6:    3167        g1      ADDS     r1,r1,#0x67
        0x100016a8:    3008        .0      ADDS     r0,r0,#8
        0x100016aa:    f001f867    ..g.    BL       __aeabi_memcpy ; 0x1000277c
        0x100016ae:    68a0        .h      LDR      r0,[r4,#8]
        0x100016b0:    2100        .!      MOVS     r1,#0
        0x100016b2:    3020         0      ADDS     r0,r0,#0x20
        0x100016b4:    7741        Aw      STRB     r1,[r0,#0x1d]
        0x100016b6:    68e0        .h      LDR      r0,[r4,#0xc]
        0x100016b8:    4a84        .J      LDR      r2,[pc,#528] ; [0x100018cc] = 0x60d9
        0x100016ba:    7841        Ax      LDRB     r1,[r0,#1]
        0x100016bc:    0689        ..      LSLS     r1,r1,#26
        0x100016be:    0e89        ..      LSRS     r1,r1,#26
        0x100016c0:    1c89        ..      ADDS     r1,r1,#2
        0x100016c2:    4790        .G      BLX      r2
        0x100016c4:    68e0        .h      LDR      r0,[r4,#0xc]
        0x100016c6:    7801        .x      LDRB     r1,[r0,#0]
        0x100016c8:    090a        ..      LSRS     r2,r1,#4
        0x100016ca:    0112        ..      LSLS     r2,r2,#4
        0x100016cc:    1d12        ..      ADDS     r2,r2,#4
        0x100016ce:    7002        .p      STRB     r2,[r0,#0]
        0x100016d0:    68a1        .h      LDR      r1,[r4,#8]
        0x100016d2:    402a        *@      ANDS     r2,r2,r5
        0x100016d4:    7a8b        .z      LDRB     r3,[r1,#0xa]
        0x100016d6:    07db        ..      LSLS     r3,r3,#31
        0x100016d8:    0e5b        [.      LSRS     r3,r3,#25
        0x100016da:    431a        .C      ORRS     r2,r2,r3
        0x100016dc:    7002        .p      STRB     r2,[r0,#0]
        0x100016de:    2346        F#      MOVS     r3,#0x46
        0x100016e0:    5c5b        [\      LDRB     r3,[r3,r1]
        0x100016e2:    7842        Bx      LDRB     r2,[r0,#1]
        0x100016e4:    1d9b        ..      ADDS     r3,r3,#6
        0x100016e6:    0992        ..      LSRS     r2,r2,#6
        0x100016e8:    069b        ..      LSLS     r3,r3,#26
        0x100016ea:    0192        ..      LSLS     r2,r2,#6
        0x100016ec:    0e9b        ..      LSRS     r3,r3,#26
        0x100016ee:    431a        .C      ORRS     r2,r2,r3
        0x100016f0:    7042        Bp      STRB     r2,[r0,#1]
        0x100016f2:    2206        ."      MOVS     r2,#6
        0x100016f4:    1c80        ..      ADDS     r0,r0,#2
        0x100016f6:    310b        .1      ADDS     r1,r1,#0xb
        0x100016f8:    f001f840    ..@.    BL       __aeabi_memcpy ; 0x1000277c
        0x100016fc:    68a1        .h      LDR      r1,[r4,#8]
        0x100016fe:    2046        F       MOVS     r0,#0x46
        0x10001700:    5c42        B\      LDRB     r2,[r0,r1]
        0x10001702:    2a00        .*      CMP      r2,#0
        0x10001704:    d004        ..      BEQ      0x10001710 ; _GAPStartAdv + 230
        0x10001706:    68e0        .h      LDR      r0,[r4,#0xc]
        0x10001708:    3147        G1      ADDS     r1,r1,#0x47
        0x1000170a:    3008        .0      ADDS     r0,r0,#8
        0x1000170c:    f001f836    ..6.    BL       __aeabi_memcpy ; 0x1000277c
        0x10001710:    68e0        .h      LDR      r0,[r4,#0xc]
        0x10001712:    4a6e        nJ      LDR      r2,[pc,#440] ; [0x100018cc] = 0x60d9
        0x10001714:    7841        Ax      LDRB     r1,[r0,#1]
        0x10001716:    322c        ,2      ADDS     r2,r2,#0x2c
        0x10001718:    0689        ..      LSLS     r1,r1,#26
        0x1000171a:    0e89        ..      LSRS     r1,r1,#26
        0x1000171c:    1c89        ..      ADDS     r1,r1,#2
        0x1000171e:    4790        .G      BLX      r2
        0x10001720:    68a5        .h      LDR      r5,[r4,#8]
        0x10001722:    2701        .'      MOVS     r7,#1
        0x10001724:    462e        .F      MOV      r6,r5
        0x10001726:    3620         6      ADDS     r6,r6,#0x20
        0x10001728:    7ef0        .~      LDRB     r0,[r6,#0x1b]
        0x1000172a:    2801        .(      CMP      r0,#1
        0x1000172c:    d03b        ;.      BEQ      0x100017a6 ; _GAPStartAdv + 380
        0x1000172e:    2800        .(      CMP      r0,#0
        0x10001730:    d04c        L.      BEQ      0x100017cc ; _GAPStartAdv + 418
        0x10001732:    2802        .(      CMP      r0,#2
        0x10001734:    d04a        J.      BEQ      0x100017cc ; _GAPStartAdv + 418
        0x10001736:    2806        .(      CMP      r0,#6
        0x10001738:    d048        H.      BEQ      0x100017cc ; _GAPStartAdv + 418
        0x1000173a:    2300        .#      MOVS     r3,#0
        0x1000173c:    4c55        UL      LDR      r4,[pc,#340] ; [0x10001894] = 0x3ea1
        0x1000173e:    461a        .F      MOV      r2,r3
        0x10001740:    2101        .!      MOVS     r1,#1
        0x10001742:    4618        .F      MOV      r0,r3
        0x10001744:    47a0        .G      BLX      r4
        0x10001746:    bdf8        ..      POP      {r3-r7,pc}
        0x10001748:    e7ff        ..      B        0x1000174a ; _GAPStartAdv + 288
        0x1000174a:    460a        .F      MOV      r2,r1
        0x1000174c:    3240        @2      ADDS     r2,r2,#0x40
        0x1000174e:    7913        .y      LDRB     r3,[r2,#4]
        0x10001750:    7153        Sq      STRB     r3,[r2,#5]
        0x10001752:    7a8b        .z      LDRB     r3,[r1,#0xa]
        0x10001754:    7802        .x      LDRB     r2,[r0,#0]
        0x10001756:    07db        ..      LSLS     r3,r3,#31
        0x10001758:    402a        *@      ANDS     r2,r2,r5
        0x1000175a:    0e5b        [.      LSRS     r3,r3,#25
        0x1000175c:    431a        .C      ORRS     r2,r2,r3
        0x1000175e:    7002        .p      STRB     r2,[r0,#0]
        0x10001760:    2387        .#      MOVS     r3,#0x87
        0x10001762:    5c5b        [\      LDRB     r3,[r3,r1]
        0x10001764:    0652        R.      LSLS     r2,r2,#25
        0x10001766:    0e52        R.      LSRS     r2,r2,#25
        0x10001768:    01db        ..      LSLS     r3,r3,#7
        0x1000176a:    431a        .C      ORRS     r2,r2,r3
        0x1000176c:    7002        .p      STRB     r2,[r0,#0]
        0x1000176e:    7842        Bx      LDRB     r2,[r0,#1]
        0x10001770:    310b        .1      ADDS     r1,r1,#0xb
        0x10001772:    0992        ..      LSRS     r2,r2,#6
        0x10001774:    0192        ..      LSLS     r2,r2,#6
        0x10001776:    320c        .2      ADDS     r2,r2,#0xc
        0x10001778:    7042        Bp      STRB     r2,[r0,#1]
        0x1000177a:    2206        ."      MOVS     r2,#6
        0x1000177c:    1c80        ..      ADDS     r0,r0,#2
        0x1000177e:    f000fffd    ....    BL       __aeabi_memcpy ; 0x1000277c
        0x10001782:    68e0        .h      LDR      r0,[r4,#0xc]
        0x10001784:    68a1        .h      LDR      r1,[r4,#8]
        0x10001786:    2206        ."      MOVS     r2,#6
        0x10001788:    3008        .0      ADDS     r0,r0,#8
        0x1000178a:    3188        .1      ADDS     r1,r1,#0x88
        0x1000178c:    f000fff6    ....    BL       __aeabi_memcpy ; 0x1000277c
        0x10001790:    68a1        .h      LDR      r1,[r4,#8]
        0x10001792:    2203        ."      MOVS     r2,#3
        0x10001794:    203d        =       MOVS     r0,#0x3d
        0x10001796:    5442        BT      STRB     r2,[r0,r1]
        0x10001798:    4a4b        KJ      LDR      r2,[pc,#300] ; [0x100018c8] = 0x57b1
        0x1000179a:    2087        .       MOVS     r0,#0x87
        0x1000179c:    5c40        @\      LDRB     r0,[r0,r1]
        0x1000179e:    3a32        2:      SUBS     r2,r2,#0x32
        0x100017a0:    3188        .1      ADDS     r1,r1,#0x88
        0x100017a2:    4790        .G      BLX      r2
        0x100017a4:    e787        ..      B        0x100016b6 ; _GAPStartAdv + 140
        0x100017a6:    3540        @5      ADDS     r5,r5,#0x40
        0x100017a8:    7968        hy      LDRB     r0,[r5,#5]
        0x100017aa:    2800        .(      CMP      r0,#0
        0x100017ac:    d00a        ..      BEQ      0x100017c4 ; _GAPStartAdv + 410
        0x100017ae:    2028        (       MOVS     r0,#0x28
        0x100017b0:    2106        .!      MOVS     r1,#6
        0x100017b2:    6a22        "j      LDR      r2,[r4,#0x20]
        0x100017b4:    7e93        .~      LDRB     r3,[r2,#0x1a]
        0x100017b6:    24fd        .$      MOVS     r4,#0xfd
        0x100017b8:    4023        #@      ANDS     r3,r3,r4
        0x100017ba:    7693        .v      STRB     r3,[r2,#0x1a]
        0x100017bc:    7517        .u      STRB     r7,[r2,#0x14]
        0x100017be:    7f73        s.      LDRB     r3,[r6,#0x1d]
        0x100017c0:    7f32        2.      LDRB     r2,[r6,#0x1c]
        0x100017c2:    e03a        :.      B        0x1000183a ; _GAPStartAdv + 528
        0x100017c4:    2001        .       MOVS     r0,#1
        0x100017c6:    716f        oq      STRB     r7,[r5,#5]
        0x100017c8:    4601        .F      MOV      r1,r0
        0x100017ca:    e7f2        ..      B        0x100017b2 ; _GAPStartAdv + 392
        0x100017cc:    462c        ,F      MOV      r4,r5
        0x100017ce:    3442        B4      ADDS     r4,r4,#0x42
        0x100017d0:    7860        `x      LDRB     r0,[r4,#1]
        0x100017d2:    7821        !x      LDRB     r1,[r4,#0]
        0x100017d4:    0202        ..      LSLS     r2,r0,#8
        0x100017d6:    430a        .C      ORRS     r2,r2,r1
        0x100017d8:    d016        ..      BEQ      0x10001808 ; _GAPStartAdv + 478
        0x100017da:    3522        "5      ADDS     r5,r5,#0x22
        0x100017dc:    7f69        i.      LDRB     r1,[r5,#0x1d]
        0x100017de:    2019        .       MOVS     r0,#0x19
        0x100017e0:    7f2b        +.      LDRB     r3,[r5,#0x1c]
        0x100017e2:    0180        ..      LSLS     r0,r0,#6
        0x100017e4:    0209        ..      LSLS     r1,r1,#8
        0x100017e6:    4342        BC      MULS     r2,r0,r2
        0x100017e8:    4319        .C      ORRS     r1,r1,r3
        0x100017ea:    2001        .       MOVS     r0,#1
        0x100017ec:    0489        ..      LSLS     r1,r1,#18
        0x100017ee:    0c89        ..      LSRS     r1,r1,#18
        0x100017f0:    9100        ..      STR      r1,[sp,#0]
        0x100017f2:    d005        ..      BEQ      0x10001800 ; _GAPStartAdv + 470
        0x100017f4:    4610        .F      MOV      r0,r2
        0x100017f6:    f000ff97    ....    BL       __aeabi_uidiv ; 0x10002728
        0x100017fa:    1c40        @.      ADDS     r0,r0,#1
        0x100017fc:    287f        .(      CMP      r0,#0x7f
        0x100017fe:    d809        ..      BHI      0x10001814 ; _GAPStartAdv + 490
        0x10001800:    b2c5        ..      UXTB     r5,r0
        0x10001802:    7027        'p      STRB     r7,[r4,#0]
        0x10001804:    0a38        8.      LSRS     r0,r7,#8
        0x10001806:    e00c        ..      B        0x10001822 ; _GAPStartAdv + 504
        0x10001808:    0a38        8.      LSRS     r0,r7,#8
        0x1000180a:    7027        'p      STRB     r7,[r4,#0]
        0x1000180c:    7060        `p      STRB     r0,[r4,#1]
        0x1000180e:    2501        .%      MOVS     r5,#1
        0x10001810:    9500        ..      STR      r5,[sp,#0]
        0x10001812:    e007        ..      B        0x10001824 ; _GAPStartAdv + 506
        0x10001814:    257f        .%      MOVS     r5,#0x7f
        0x10001816:    4629        )F      MOV      r1,r5
        0x10001818:    307e        ~0      ADDS     r0,r0,#0x7e
        0x1000181a:    f000ff85    ....    BL       __aeabi_uidiv ; 0x10002728
        0x1000181e:    7020         p      STRB     r0,[r4,#0]
        0x10001820:    0a00        ..      LSRS     r0,r0,#8
        0x10001822:    7060        `p      STRB     r0,[r4,#1]
        0x10001824:    481e        .H      LDR      r0,[pc,#120] ; [0x100018a0] = 0x20003054
        0x10001826:    6a00        .j      LDR      r0,[r0,#0x20]
        0x10001828:    7e81        .~      LDRB     r1,[r0,#0x1a]
        0x1000182a:    2202        ."      MOVS     r2,#2
        0x1000182c:    4311        .C      ORRS     r1,r1,r2
        0x1000182e:    7681        .v      STRB     r1,[r0,#0x1a]
        0x10001830:    7507        .u      STRB     r7,[r0,#0x14]
        0x10001832:    7f73        s.      LDRB     r3,[r6,#0x1d]
        0x10001834:    7f32        2.      LDRB     r2,[r6,#0x1c]
        0x10001836:    9900        ..      LDR      r1,[sp,#0]
        0x10001838:    4628        (F      MOV      r0,r5
        0x1000183a:    4c20         L      LDR      r4,[pc,#128] ; [0x100018bc] = 0x5561
        0x1000183c:    34fe        .4      ADDS     r4,r4,#0xfe
        0x1000183e:    47a0        .G      BLX      r4
        0x10001840:    4823        #H      LDR      r0,[pc,#140] ; [0x100018d0] = 0x569d
        0x10001842:    4780        .G      BLX      r0
        0x10001844:    e77f        ..      B        0x10001746 ; _GAPStartAdv + 284
    StartAdv
        0x10001846:    b510        ..      PUSH     {r4,lr}
        0x10001848:    f7fffeef    ....    BL       _GAPStartAdv ; 0x1000162a
        0x1000184c:    2001        .       MOVS     r0,#1
        0x1000184e:    bd10        ..      POP      {r4,pc}
    StopAdv
        0x10001850:    b510        ..      PUSH     {r4,lr}
        0x10001852:    4920         I      LDR      r1,[pc,#128] ; [0x100018d4] = 0x40020000
        0x10001854:    2003        .       MOVS     r0,#3
        0x10001856:    7008        .p      STRB     r0,[r1,#0]
        0x10001858:    491f        .I      LDR      r1,[pc,#124] ; [0x100018d8] = 0x6245
        0x1000185a:    2064        d       MOVS     r0,#0x64
        0x1000185c:    4788        .G      BLX      r1
        0x1000185e:    4812        .H      LDR      r0,[pc,#72] ; [0x100018a8] = 0x46f7
        0x10001860:    3010        .0      ADDS     r0,r0,#0x10
        0x10001862:    4780        .G      BLX      r0
        0x10001864:    2001        .       MOVS     r0,#1
        0x10001866:    bd10        ..      POP      {r4,pc}
    StopAdv_Noreset
        0x10001868:    b672        r.      CPSID    i
        0x1000186a:    2100        .!      MOVS     r1,#0
        0x1000186c:    4a0c        .J      LDR      r2,[pc,#48] ; [0x100018a0] = 0x20003054
        0x1000186e:    6a10        .j      LDR      r0,[r2,#0x20]
        0x10001870:    7541        Au      STRB     r1,[r0,#0x15]
        0x10001872:    7c03        .|      LDRB     r3,[r0,#0x10]
        0x10001874:    2101        .!      MOVS     r1,#1
        0x10001876:    430b        .C      ORRS     r3,r3,r1
        0x10001878:    7403        .t      STRB     r3,[r0,#0x10]
        0x1000187a:    6890        .h      LDR      r0,[r2,#8]
        0x1000187c:    2245        E"      MOVS     r2,#0x45
        0x1000187e:    5411        .T      STRB     r1,[r2,r0]
        0x10001880:    3042        B0      ADDS     r0,r0,#0x42
        0x10001882:    7001        .p      STRB     r1,[r0,#0]
        0x10001884:    2100        .!      MOVS     r1,#0
        0x10001886:    7041        Ap      STRB     r1,[r0,#1]
        0x10001888:    b662        b.      CPSIE    i
        0x1000188a:    e027        '.      B        0x100018dc ; StopAdv_Noreset + 116
    $d
        0x1000188c:    10001267    g...    DCD    268440167
        0x10001890:    2000315f    _1.     DCD    536883551
        0x10001894:    00003ea1    .>..    DCD    16033
        0x10001898:    00005f47    G_..    DCD    24391
        0x1000189c:    00005b5d    ][..    DCD    23389
        0x100018a0:    20003054    T0.     DCD    536883284
        0x100018a4:    00003d79    y=..    DCD    15737
        0x100018a8:    000046f7    .F..    DCD    18167
        0x100018ac:    10001521    !...    DCD    268440865
        0x100018b0:    0000442f    /D..    DCD    17455
        0x100018b4:    10000b67    g...    DCD    268438375
        0x100018b8:    000002ce    ....    DCD    718
        0x100018bc:    00005561    aU..    DCD    21857
        0x100018c0:    100014c5    ....    DCD    268440773
        0x100018c4:    00005359    YS..    DCD    21337
        0x100018c8:    000057b1    .W..    DCD    22449
        0x100018cc:    000060d9    .`..    DCD    24793
        0x100018d0:    0000569d    .V..    DCD    22173
        0x100018d4:    40020000    ...@    DCD    1073872896
        0x100018d8:    00006245    Eb..    DCD    25157
    $t
        0x100018dc:    2001        .       MOVS     r0,#1
        0x100018de:    4770        pG      BX       lr
    SetScanParams
        0x100018e0:    b510        ..      PUSH     {r4,lr}
        0x100018e2:    49f8        .I      LDR      r1,[pc,#992] ; [0x10001cc4] = 0x4101
        0x100018e4:    4788        .G      BLX      r1
        0x100018e6:    2001        .       MOVS     r0,#1
        0x100018e8:    bd10        ..      POP      {r4,pc}
    StartScan
        0x100018ea:    48f6        .H      LDR      r0,[pc,#984] ; [0x10001cc4] = 0x4101
        0x100018ec:    b510        ..      PUSH     {r4,lr}
        0x100018ee:    305c        \0      ADDS     r0,r0,#0x5c
        0x100018f0:    4780        .G      BLX      r0
        0x100018f2:    2001        .       MOVS     r0,#1
        0x100018f4:    bd10        ..      POP      {r4,pc}
    StopScan
        0x100018f6:    b510        ..      PUSH     {r4,lr}
        0x100018f8:    48f3        .H      LDR      r0,[pc,#972] ; [0x10001cc8] = 0x421d
        0x100018fa:    4780        .G      BLX      r0
        0x100018fc:    2001        .       MOVS     r0,#1
        0x100018fe:    bd10        ..      POP      {r4,pc}
    SetSecParams
        0x10001900:    49f1        .I      LDR      r1,[pc,#964] ; [0x10001cc8] = 0x421d
        0x10001902:    b510        ..      PUSH     {r4,lr}
        0x10001904:    3108        .1      ADDS     r1,r1,#8
        0x10001906:    4788        .G      BLX      r1
        0x10001908:    2001        .       MOVS     r0,#1
        0x1000190a:    bd10        ..      POP      {r4,pc}
    SetConnectionUpdate
        0x1000190c:    49ee        .I      LDR      r1,[pc,#952] ; [0x10001cc8] = 0x421d
        0x1000190e:    b510        ..      PUSH     {r4,lr}
        0x10001910:    3116        .1      ADDS     r1,r1,#0x16
        0x10001912:    4788        .G      BLX      r1
        0x10001914:    2001        .       MOVS     r0,#1
        0x10001916:    bd10        ..      POP      {r4,pc}
    GetLinkParameters
        0x10001918:    49eb        .I      LDR      r1,[pc,#940] ; [0x10001cc8] = 0x421d
        0x1000191a:    b510        ..      PUSH     {r4,lr}
        0x1000191c:    3178        x1      ADDS     r1,r1,#0x78
        0x1000191e:    4788        .G      BLX      r1
        0x10001920:    2001        .       MOVS     r0,#1
        0x10001922:    bd10        ..      POP      {r4,pc}
    SetWinWideMinusCnt
        0x10001924:    49e9        .I      LDR      r1,[pc,#932] ; [0x10001ccc] = 0x20003054
        0x10001926:    7048        Hp      STRB     r0,[r1,#1]
        0x10001928:    2001        .       MOVS     r0,#1
        0x1000192a:    4770        pG      BX       lr
    SetPasskey
        0x1000192c:    49e6        .I      LDR      r1,[pc,#920] ; [0x10001cc8] = 0x421d
        0x1000192e:    b510        ..      PUSH     {r4,lr}
        0x10001930:    3186        .1      ADDS     r1,r1,#0x86
        0x10001932:    4788        .G      BLX      r1
        0x10001934:    2001        .       MOVS     r0,#1
        0x10001936:    bd10        ..      POP      {r4,pc}
    SecurityReq
        0x10001938:    4ae3        .J      LDR      r2,[pc,#908] ; [0x10001cc8] = 0x421d
        0x1000193a:    b510        ..      PUSH     {r4,lr}
        0x1000193c:    328e        .2      ADDS     r2,r2,#0x8e
        0x1000193e:    4790        .G      BLX      r2
        0x10001940:    2001        .       MOVS     r0,#1
        0x10001942:    bd10        ..      POP      {r4,pc}
    SetEvtCallback
        0x10001944:    b57c        |.      PUSH     {r2-r6,lr}
        0x10001946:    4605        .F      MOV      r5,r0
        0x10001948:    f000ff3c    ..<.    BL       __aeabi_uread4 ; 0x100027c4
        0x1000194c:    49df        .I      LDR      r1,[pc,#892] ; [0x10001ccc] = 0x20003054
        0x1000194e:    4604        .F      MOV      r4,r0
        0x10001950:    312c        ,1      ADDS     r1,r1,#0x2c
        0x10001952:    f000ff41    ..A.    BL       __aeabi_uwrite4 ; 0x100027d8
        0x10001956:    1d28        (.      ADDS     r0,r5,#4
        0x10001958:    f000ff34    ..4.    BL       __aeabi_uread4 ; 0x100027c4
        0x1000195c:    49db        .I      LDR      r1,[pc,#876] ; [0x10001ccc] = 0x20003054
        0x1000195e:    3130        01      ADDS     r1,r1,#0x30
        0x10001960:    f000ff3a    ..:.    BL       __aeabi_uwrite4 ; 0x100027d8
        0x10001964:    2040        @       MOVS     r0,#0x40
        0x10001966:    4384        .C      BICS     r4,r4,r0
        0x10001968:    48d9        .H      LDR      r0,[pc,#868] ; [0x10001cd0] = 0x100010f5
        0x1000196a:    49d7        .I      LDR      r1,[pc,#860] ; [0x10001cc8] = 0x421d
        0x1000196c:    9001        ..      STR      r0,[sp,#4]
        0x1000196e:    9400        ..      STR      r4,[sp,#0]
        0x10001970:    4668        hF      MOV      r0,sp
        0x10001972:    3196        .1      ADDS     r1,r1,#0x96
        0x10001974:    4788        .G      BLX      r1
        0x10001976:    2001        .       MOVS     r0,#1
        0x10001978:    bd7c        |.      POP      {r2-r6,pc}
    GetGATTReportHandle
        0x1000197a:    b510        ..      PUSH     {r4,lr}
        0x1000197c:    49d5        .I      LDR      r1,[pc,#852] ; [0x10001cd4] = 0x432d
        0x1000197e:    4788        .G      BLX      r1
        0x10001980:    2001        .       MOVS     r0,#1
        0x10001982:    bd10        ..      POP      {r4,pc}
    SetGATTReadRsp
        0x10001984:    4ad3        .J      LDR      r2,[pc,#844] ; [0x10001cd4] = 0x432d
        0x10001986:    b510        ..      PUSH     {r4,lr}
        0x10001988:    3208        .2      ADDS     r2,r2,#8
        0x1000198a:    4790        .G      BLX      r2
        0x1000198c:    2001        .       MOVS     r0,#1
        0x1000198e:    bd10        ..      POP      {r4,pc}
    CheckFIFOFull
        0x10001990:    b510        ..      PUSH     {r4,lr}
        0x10001992:    48d1        .H      LDR      r0,[pc,#836] ; [0x10001cd8] = 0x4e2b
        0x10001994:    4780        .G      BLX      r0
        0x10001996:    2802        .(      CMP      r0,#2
        0x10001998:    d901        ..      BLS      0x1000199e ; CheckFIFOFull + 14
        0x1000199a:    2000        .       MOVS     r0,#0
        0x1000199c:    bd10        ..      POP      {r4,pc}
        0x1000199e:    2001        .       MOVS     r0,#1
        0x100019a0:    bd10        ..      POP      {r4,pc}
    GATTDataSend
        0x100019a2:    b5f8        ..      PUSH     {r3-r7,lr}
        0x100019a4:    460e        .F      MOV      r6,r1
        0x100019a6:    4607        .F      MOV      r7,r0
        0x100019a8:    49cc        .I      LDR      r1,[pc,#816] ; [0x10001cdc] = 0xaf5
        0x100019aa:    461c        .F      MOV      r4,r3
        0x100019ac:    4615        .F      MOV      r5,r2
        0x100019ae:    2001        .       MOVS     r0,#1
        0x100019b0:    4788        .G      BLX      r1
        0x100019b2:    2800        .(      CMP      r0,#0
        0x100019b4:    d00a        ..      BEQ      0x100019cc ; GATTDataSend + 42
        0x100019b6:    48c8        .H      LDR      r0,[pc,#800] ; [0x10001cd8] = 0x4e2b
        0x100019b8:    4780        .G      BLX      r0
        0x100019ba:    2802        .(      CMP      r0,#2
        0x100019bc:    d907        ..      BLS      0x100019ce ; GATTDataSend + 44
        0x100019be:    4623        #F      MOV      r3,r4
        0x100019c0:    4cc4        .L      LDR      r4,[pc,#784] ; [0x10001cd4] = 0x432d
        0x100019c2:    462a        *F      MOV      r2,r5
        0x100019c4:    4631        1F      MOV      r1,r6
        0x100019c6:    4638        8F      MOV      r0,r7
        0x100019c8:    3418        .4      ADDS     r4,r4,#0x18
        0x100019ca:    47a0        .G      BLX      r4
        0x100019cc:    e6bb        ..      B        0x10001746 ; _GAPStartAdv + 284
        0x100019ce:    2000        .       MOVS     r0,#0
        0x100019d0:    e6b9        ..      B        0x10001746 ; _GAPStartAdv + 284
    ATTCSetCallback
        0x100019d2:    49c3        .I      LDR      r1,[pc,#780] ; [0x10001ce0] = 0x3ab7
        0x100019d4:    4708        .G      BX       r1
    ATTCMTUReq
        0x100019d6:    b510        ..      PUSH     {r4,lr}
        0x100019d8:    4604        .F      MOV      r4,r0
        0x100019da:    49c0        .I      LDR      r1,[pc,#768] ; [0x10001cdc] = 0xaf5
        0x100019dc:    2001        .       MOVS     r0,#1
        0x100019de:    4788        .G      BLX      r1
        0x100019e0:    2800        .(      CMP      r0,#0
        0x100019e2:    d003        ..      BEQ      0x100019ec ; ATTCMTUReq + 22
        0x100019e4:    49be        .I      LDR      r1,[pc,#760] ; [0x10001ce0] = 0x3ab7
        0x100019e6:    4620         F      MOV      r0,r4
        0x100019e8:    3108        .1      ADDS     r1,r1,#8
        0x100019ea:    4788        .G      BLX      r1
        0x100019ec:    bd10        ..      POP      {r4,pc}
    ATTCFindInfoReq
        0x100019ee:    b570        p.      PUSH     {r4-r6,lr}
        0x100019f0:    4605        .F      MOV      r5,r0
        0x100019f2:    4aba        .J      LDR      r2,[pc,#744] ; [0x10001cdc] = 0xaf5
        0x100019f4:    460c        .F      MOV      r4,r1
        0x100019f6:    2001        .       MOVS     r0,#1
        0x100019f8:    4790        .G      BLX      r2
        0x100019fa:    2800        .(      CMP      r0,#0
        0x100019fc:    d004        ..      BEQ      0x10001a08 ; ATTCFindInfoReq + 26
        0x100019fe:    4ab8        .J      LDR      r2,[pc,#736] ; [0x10001ce0] = 0x3ab7
        0x10001a00:    4621        !F      MOV      r1,r4
        0x10001a02:    4628        (F      MOV      r0,r5
        0x10001a04:    3222        "2      ADDS     r2,r2,#0x22
        0x10001a06:    4790        .G      BLX      r2
        0x10001a08:    bd70        p.      POP      {r4-r6,pc}
    ATTCFindByTypeValueReq
        0x10001a0a:    b5ff        ..      PUSH     {r0-r7,lr}
        0x10001a0c:    460f        .F      MOV      r7,r1
        0x10001a0e:    b081        ..      SUB      sp,sp,#4
        0x10001a10:    49b2        .I      LDR      r1,[pc,#712] ; [0x10001cdc] = 0xaf5
        0x10001a12:    461d        .F      MOV      r5,r3
        0x10001a14:    4616        .F      MOV      r6,r2
        0x10001a16:    2001        .       MOVS     r0,#1
        0x10001a18:    9c0a        ..      LDR      r4,[sp,#0x28]
        0x10001a1a:    4788        .G      BLX      r1
        0x10001a1c:    2800        .(      CMP      r0,#0
        0x10001a1e:    d007        ..      BEQ      0x10001a30 ; ATTCFindByTypeValueReq + 38
        0x10001a20:    9400        ..      STR      r4,[sp,#0]
        0x10001a22:    4caf        .L      LDR      r4,[pc,#700] ; [0x10001ce0] = 0x3ab7
        0x10001a24:    462b        +F      MOV      r3,r5
        0x10001a26:    4632        2F      MOV      r2,r6
        0x10001a28:    4639        9F      MOV      r1,r7
        0x10001a2a:    3444        D4      ADDS     r4,r4,#0x44
        0x10001a2c:    9801        ..      LDR      r0,[sp,#4]
        0x10001a2e:    47a0        .G      BLX      r4
        0x10001a30:    b005        ..      ADD      sp,sp,#0x14
        0x10001a32:    bdf0        ..      POP      {r4-r7,pc}
    ATTCReadByTypeReq
        0x10001a34:    b5f8        ..      PUSH     {r3-r7,lr}
        0x10001a36:    460e        .F      MOV      r6,r1
        0x10001a38:    4607        .F      MOV      r7,r0
        0x10001a3a:    49a8        .I      LDR      r1,[pc,#672] ; [0x10001cdc] = 0xaf5
        0x10001a3c:    461c        .F      MOV      r4,r3
        0x10001a3e:    4615        .F      MOV      r5,r2
        0x10001a40:    2001        .       MOVS     r0,#1
        0x10001a42:    4788        .G      BLX      r1
        0x10001a44:    2800        .(      CMP      r0,#0
        0x10001a46:    d006        ..      BEQ      0x10001a56 ; ATTCReadByTypeReq + 34
        0x10001a48:    4623        #F      MOV      r3,r4
        0x10001a4a:    4ca5        .L      LDR      r4,[pc,#660] ; [0x10001ce0] = 0x3ab7
        0x10001a4c:    462a        *F      MOV      r2,r5
        0x10001a4e:    4631        1F      MOV      r1,r6
        0x10001a50:    4638        8F      MOV      r0,r7
        0x10001a52:    347c        |4      ADDS     r4,r4,#0x7c
        0x10001a54:    47a0        .G      BLX      r4
        0x10001a56:    e676        v.      B        0x10001746 ; _GAPStartAdv + 284
    ATTCReadReq
        0x10001a58:    b510        ..      PUSH     {r4,lr}
        0x10001a5a:    4604        .F      MOV      r4,r0
        0x10001a5c:    499f        .I      LDR      r1,[pc,#636] ; [0x10001cdc] = 0xaf5
        0x10001a5e:    2001        .       MOVS     r0,#1
        0x10001a60:    4788        .G      BLX      r1
        0x10001a62:    2800        .(      CMP      r0,#0
        0x10001a64:    d003        ..      BEQ      0x10001a6e ; ATTCReadReq + 22
        0x10001a66:    499e        .I      LDR      r1,[pc,#632] ; [0x10001ce0] = 0x3ab7
        0x10001a68:    4620         F      MOV      r0,r4
        0x10001a6a:    31ac        .1      ADDS     r1,r1,#0xac
        0x10001a6c:    4788        .G      BLX      r1
        0x10001a6e:    bd10        ..      POP      {r4,pc}
    ATTCReadBlobReq
        0x10001a70:    b570        p.      PUSH     {r4-r6,lr}
        0x10001a72:    4605        .F      MOV      r5,r0
        0x10001a74:    4a99        .J      LDR      r2,[pc,#612] ; [0x10001cdc] = 0xaf5
        0x10001a76:    460c        .F      MOV      r4,r1
        0x10001a78:    2001        .       MOVS     r0,#1
        0x10001a7a:    4790        .G      BLX      r2
        0x10001a7c:    2800        .(      CMP      r0,#0
        0x10001a7e:    d004        ..      BEQ      0x10001a8a ; ATTCReadBlobReq + 26
        0x10001a80:    4a97        .J      LDR      r2,[pc,#604] ; [0x10001ce0] = 0x3ab7
        0x10001a82:    4621        !F      MOV      r1,r4
        0x10001a84:    4628        (F      MOV      r0,r5
        0x10001a86:    32c6        .2      ADDS     r2,r2,#0xc6
        0x10001a88:    4790        .G      BLX      r2
        0x10001a8a:    bd70        p.      POP      {r4-r6,pc}
    ATTCReadMultipleReq
        0x10001a8c:    b570        p.      PUSH     {r4-r6,lr}
        0x10001a8e:    4605        .F      MOV      r5,r0
        0x10001a90:    4a92        .J      LDR      r2,[pc,#584] ; [0x10001cdc] = 0xaf5
        0x10001a92:    460c        .F      MOV      r4,r1
        0x10001a94:    2001        .       MOVS     r0,#1
        0x10001a96:    4790        .G      BLX      r2
        0x10001a98:    2800        .(      CMP      r0,#0
        0x10001a9a:    d004        ..      BEQ      0x10001aa6 ; ATTCReadMultipleReq + 26
        0x10001a9c:    4a90        .J      LDR      r2,[pc,#576] ; [0x10001ce0] = 0x3ab7
        0x10001a9e:    4621        !F      MOV      r1,r4
        0x10001aa0:    4628        (F      MOV      r0,r5
        0x10001aa2:    32e8        .2      ADDS     r2,r2,#0xe8
        0x10001aa4:    4790        .G      BLX      r2
        0x10001aa6:    bd70        p.      POP      {r4-r6,pc}
    ATTCReadByGroupTypeReq
        0x10001aa8:    b5f8        ..      PUSH     {r3-r7,lr}
        0x10001aaa:    460e        .F      MOV      r6,r1
        0x10001aac:    4607        .F      MOV      r7,r0
        0x10001aae:    498b        .I      LDR      r1,[pc,#556] ; [0x10001cdc] = 0xaf5
        0x10001ab0:    461c        .F      MOV      r4,r3
        0x10001ab2:    4615        .F      MOV      r5,r2
        0x10001ab4:    2001        .       MOVS     r0,#1
        0x10001ab6:    4788        .G      BLX      r1
        0x10001ab8:    2800        .(      CMP      r0,#0
        0x10001aba:    d005        ..      BEQ      0x10001ac8 ; ATTCReadByGroupTypeReq + 32
        0x10001abc:    4623        #F      MOV      r3,r4
        0x10001abe:    4c89        .L      LDR      r4,[pc,#548] ; [0x10001ce4] = 0x3bbb
        0x10001ac0:    462a        *F      MOV      r2,r5
        0x10001ac2:    4631        1F      MOV      r1,r6
        0x10001ac4:    4638        8F      MOV      r0,r7
        0x10001ac6:    47a0        .G      BLX      r4
        0x10001ac8:    e63d        =.      B        0x10001746 ; _GAPStartAdv + 284
    ATTCWriteReq
        0x10001aca:    b570        p.      PUSH     {r4-r6,lr}
        0x10001acc:    460d        .F      MOV      r5,r1
        0x10001ace:    4606        .F      MOV      r6,r0
        0x10001ad0:    4982        .I      LDR      r1,[pc,#520] ; [0x10001cdc] = 0xaf5
        0x10001ad2:    4614        .F      MOV      r4,r2
        0x10001ad4:    2001        .       MOVS     r0,#1
        0x10001ad6:    4788        .G      BLX      r1
        0x10001ad8:    2800        .(      CMP      r0,#0
        0x10001ada:    d005        ..      BEQ      0x10001ae8 ; ATTCWriteReq + 30
        0x10001adc:    4b81        .K      LDR      r3,[pc,#516] ; [0x10001ce4] = 0x3bbb
        0x10001ade:    4622        "F      MOV      r2,r4
        0x10001ae0:    4629        )F      MOV      r1,r5
        0x10001ae2:    4630        0F      MOV      r0,r6
        0x10001ae4:    3330        03      ADDS     r3,r3,#0x30
        0x10001ae6:    4798        .G      BLX      r3
        0x10001ae8:    bd70        p.      POP      {r4-r6,pc}
    ATTCWriteCmdReq
        0x10001aea:    b570        p.      PUSH     {r4-r6,lr}
        0x10001aec:    460d        .F      MOV      r5,r1
        0x10001aee:    4606        .F      MOV      r6,r0
        0x10001af0:    497a        zI      LDR      r1,[pc,#488] ; [0x10001cdc] = 0xaf5
        0x10001af2:    4614        .F      MOV      r4,r2
        0x10001af4:    2001        .       MOVS     r0,#1
        0x10001af6:    4788        .G      BLX      r1
        0x10001af8:    2800        .(      CMP      r0,#0
        0x10001afa:    d005        ..      BEQ      0x10001b08 ; ATTCWriteCmdReq + 30
        0x10001afc:    4b79        yK      LDR      r3,[pc,#484] ; [0x10001ce4] = 0x3bbb
        0x10001afe:    4622        "F      MOV      r2,r4
        0x10001b00:    4629        )F      MOV      r1,r5
        0x10001b02:    4630        0F      MOV      r0,r6
        0x10001b04:    335c        \3      ADDS     r3,r3,#0x5c
        0x10001b06:    4798        .G      BLX      r3
        0x10001b08:    bd70        p.      POP      {r4-r6,pc}
    ATTCPrepareWriteReq
        0x10001b0a:    b5f8        ..      PUSH     {r3-r7,lr}
        0x10001b0c:    460e        .F      MOV      r6,r1
        0x10001b0e:    4607        .F      MOV      r7,r0
        0x10001b10:    4972        rI      LDR      r1,[pc,#456] ; [0x10001cdc] = 0xaf5
        0x10001b12:    461c        .F      MOV      r4,r3
        0x10001b14:    4615        .F      MOV      r5,r2
        0x10001b16:    2001        .       MOVS     r0,#1
        0x10001b18:    4788        .G      BLX      r1
        0x10001b1a:    2800        .(      CMP      r0,#0
        0x10001b1c:    d006        ..      BEQ      0x10001b2c ; ATTCPrepareWriteReq + 34
        0x10001b1e:    4623        #F      MOV      r3,r4
        0x10001b20:    4c70        pL      LDR      r4,[pc,#448] ; [0x10001ce4] = 0x3bbb
        0x10001b22:    462a        *F      MOV      r2,r5
        0x10001b24:    4631        1F      MOV      r1,r6
        0x10001b26:    4638        8F      MOV      r0,r7
        0x10001b28:    3488        .4      ADDS     r4,r4,#0x88
        0x10001b2a:    47a0        .G      BLX      r4
        0x10001b2c:    e60b        ..      B        0x10001746 ; _GAPStartAdv + 284
    ATTCExecuteWriteReq
        0x10001b2e:    b510        ..      PUSH     {r4,lr}
        0x10001b30:    4604        .F      MOV      r4,r0
        0x10001b32:    496a        jI      LDR      r1,[pc,#424] ; [0x10001cdc] = 0xaf5
        0x10001b34:    2001        .       MOVS     r0,#1
        0x10001b36:    4788        .G      BLX      r1
        0x10001b38:    2800        .(      CMP      r0,#0
        0x10001b3a:    d003        ..      BEQ      0x10001b44 ; ATTCExecuteWriteReq + 22
        0x10001b3c:    4969        iI      LDR      r1,[pc,#420] ; [0x10001ce4] = 0x3bbb
        0x10001b3e:    4620         F      MOV      r0,r4
        0x10001b40:    31b8        .1      ADDS     r1,r1,#0xb8
        0x10001b42:    4788        .G      BLX      r1
        0x10001b44:    bd10        ..      POP      {r4,pc}
    ATTCConfirmation
        0x10001b46:    b510        ..      PUSH     {r4,lr}
        0x10001b48:    4964        dI      LDR      r1,[pc,#400] ; [0x10001cdc] = 0xaf5
        0x10001b4a:    2001        .       MOVS     r0,#1
        0x10001b4c:    4788        .G      BLX      r1
        0x10001b4e:    2800        .(      CMP      r0,#0
        0x10001b50:    d002        ..      BEQ      0x10001b58 ; ATTCConfirmation + 18
        0x10001b52:    4864        dH      LDR      r0,[pc,#400] ; [0x10001ce4] = 0x3bbb
        0x10001b54:    30cc        .0      ADDS     r0,r0,#0xcc
        0x10001b56:    4780        .G      BLX      r0
        0x10001b58:    bd10        ..      POP      {r4,pc}
    _SYSClockSwitch
        0x10001b5a:    b570        p.      PUSH     {r4-r6,lr}
        0x10001b5c:    4d5b        [M      LDR      r5,[pc,#364] ; [0x10001ccc] = 0x20003054
        0x10001b5e:    4604        .F      MOV      r4,r0
        0x10001b60:    2808        .(      CMP      r0,#8
        0x10001b62:    d004        ..      BEQ      0x10001b6e ; _SYSClockSwitch + 20
        0x10001b64:    68a8        .h      LDR      r0,[r5,#8]
        0x10001b66:    7840        @x      LDRB     r0,[r0,#1]
        0x10001b68:    2808        .(      CMP      r0,#8
        0x10001b6a:    d00d        ..      BEQ      0x10001b88 ; _SYSClockSwitch + 46
        0x10001b6c:    e014        ..      B        0x10001b98 ; _SYSClockSwitch + 62
        0x10001b6e:    2100        .!      MOVS     r1,#0
        0x10001b70:    207f        .       MOVS     r0,#0x7f
        0x10001b72:    f7fff97f    ....    BL       BBRFWrite ; 0x10000e74
        0x10001b76:    2101        .!      MOVS     r1,#1
        0x10001b78:    2040        @       MOVS     r0,#0x40
        0x10001b7a:    f7fff97b    ..{.    BL       BBRFWrite ; 0x10000e74
        0x10001b7e:    6a68        hj      LDR      r0,[r5,#0x24]
        0x10001b80:    7801        .x      LDRB     r1,[r0,#0]
        0x10001b82:    08c9        ..      LSRS     r1,r1,#3
        0x10001b84:    00c9        ..      LSLS     r1,r1,#3
        0x10001b86:    e00e        ..      B        0x10001ba6 ; _SYSClockSwitch + 76
        0x10001b88:    2100        .!      MOVS     r1,#0
        0x10001b8a:    207f        .       MOVS     r0,#0x7f
        0x10001b8c:    f7fff972    ..r.    BL       BBRFWrite ; 0x10000e74
        0x10001b90:    2100        .!      MOVS     r1,#0
        0x10001b92:    2040        @       MOVS     r0,#0x40
        0x10001b94:    f7fff96e    ..n.    BL       BBRFWrite ; 0x10000e74
        0x10001b98:    6a68        hj      LDR      r0,[r5,#0x24]
        0x10001b9a:    7801        .x      LDRB     r1,[r0,#0]
        0x10001b9c:    0762        b.      LSLS     r2,r4,#29
        0x10001b9e:    08c9        ..      LSRS     r1,r1,#3
        0x10001ba0:    00c9        ..      LSLS     r1,r1,#3
        0x10001ba2:    0f52        R.      LSRS     r2,r2,#29
        0x10001ba4:    4311        .C      ORRS     r1,r1,r2
        0x10001ba6:    7001        .p      STRB     r1,[r0,#0]
        0x10001ba8:    68a8        .h      LDR      r0,[r5,#8]
        0x10001baa:    7044        Dp      STRB     r4,[r0,#1]
        0x10001bac:    2001        .       MOVS     r0,#1
        0x10001bae:    bd70        p.      POP      {r4-r6,pc}
    MCUClockSwitch
        0x10001bb0:    e7d3        ..      B        _SYSClockSwitch ; 0x10001b5a
    GetMCUClock
        0x10001bb2:    b510        ..      PUSH     {r4,lr}
        0x10001bb4:    4604        .F      MOV      r4,r0
        0x10001bb6:    484c        LH      LDR      r0,[pc,#304] ; [0x10001ce8] = 0x449f
        0x10001bb8:    4780        .G      BLX      r0
        0x10001bba:    7020         p      STRB     r0,[r4,#0]
        0x10001bbc:    2001        .       MOVS     r0,#1
        0x10001bbe:    bd10        ..      POP      {r4,pc}
    GetClock
        0x10001bc0:    b510        ..      PUSH     {r4,lr}
        0x10001bc2:    4604        .F      MOV      r4,r0
        0x10001bc4:    4848        HH      LDR      r0,[pc,#288] ; [0x10001ce8] = 0x449f
        0x10001bc6:    1d80        ..      ADDS     r0,r0,#6
        0x10001bc8:    4780        .G      BLX      r0
        0x10001bca:    7020         p      STRB     r0,[r4,#0]
        0x10001bcc:    2001        .       MOVS     r0,#1
        0x10001bce:    bd10        ..      POP      {r4,pc}
    WakeupConfig
        0x10001bd0:    4945        EI      LDR      r1,[pc,#276] ; [0x10001ce8] = 0x449f
        0x10001bd2:    b510        ..      PUSH     {r4,lr}
        0x10001bd4:    311c        .1      ADDS     r1,r1,#0x1c
        0x10001bd6:    4788        .G      BLX      r1
        0x10001bd8:    2001        .       MOVS     r0,#1
        0x10001bda:    bd10        ..      POP      {r4,pc}
    LLSleep
        0x10001bdc:    4842        BH      LDR      r0,[pc,#264] ; [0x10001ce8] = 0x449f
        0x10001bde:    b510        ..      PUSH     {r4,lr}
        0x10001be0:    3072        r0      ADDS     r0,r0,#0x72
        0x10001be2:    4780        .G      BLX      r0
        0x10001be4:    2001        .       MOVS     r0,#1
        0x10001be6:    bd10        ..      POP      {r4,pc}
    Rand
        0x10001be8:    4840        @H      LDR      r0,[pc,#256] ; [0x10001cec] = 0x5ffb
        0x10001bea:    4700        .G      BX       r0
    DelayUS
        0x10001bec:    4940        @I      LDR      r1,[pc,#256] ; [0x10001cf0] = 0x622b
        0x10001bee:    4708        .G      BX       r1
    DelayMS
        0x10001bf0:    493f        ?I      LDR      r1,[pc,#252] ; [0x10001cf0] = 0x622b
        0x10001bf2:    311a        .1      ADDS     r1,r1,#0x1a
        0x10001bf4:    4708        .G      BX       r1
    GetCompanyID
        0x10001bf6:    b508        ..      PUSH     {r3,lr}
        0x10001bf8:    493e        >I      LDR      r1,[pc,#248] ; [0x10001cf4] = 0x654d
        0x10001bfa:    4668        hF      MOV      r0,sp
        0x10001bfc:    4788        .G      BLX      r1
        0x10001bfe:    4668        hF      MOV      r0,sp
        0x10001c00:    78c0        .x      LDRB     r0,[r0,#3]
        0x10001c02:    0780        ..      LSLS     r0,r0,#30
        0x10001c04:    0fc0        ..      LSRS     r0,r0,#31
        0x10001c06:    bd08        ..      POP      {r3,pc}
    GetQFNType
        0x10001c08:    b508        ..      PUSH     {r3,lr}
        0x10001c0a:    493a        :I      LDR      r1,[pc,#232] ; [0x10001cf4] = 0x654d
        0x10001c0c:    4668        hF      MOV      r0,sp
        0x10001c0e:    4788        .G      BLX      r1
        0x10001c10:    4668        hF      MOV      r0,sp
        0x10001c12:    78c0        .x      LDRB     r0,[r0,#3]
        0x10001c14:    09c0        ..      LSRS     r0,r0,#7
        0x10001c16:    d000        ..      BEQ      0x10001c1a ; GetQFNType + 18
        0x10001c18:    2001        .       MOVS     r0,#1
        0x10001c1a:    bd08        ..      POP      {r3,pc}
    RFRead
        0x10001c1c:    b510        ..      PUSH     {r4,lr}
        0x10001c1e:    f7fff927    ..'.    BL       BBRFRead ; 0x10000e70
        0x10001c22:    bd10        ..      POP      {r4,pc}
    RFWrite
        0x10001c24:    b510        ..      PUSH     {r4,lr}
        0x10001c26:    f7fff925    ..%.    BL       BBRFWrite ; 0x10000e74
        0x10001c2a:    bd10        ..      POP      {r4,pc}
    lib_check_ble_fsm_state
        0x10001c2c:    4827        'H      LDR      r0,[pc,#156] ; [0x10001ccc] = 0x20003054
        0x10001c2e:    6a00        .j      LDR      r0,[r0,#0x20]
        0x10001c30:    7bc0        .{      LDRB     r0,[r0,#0xf]
        0x10001c32:    2805        .(      CMP      r0,#5
        0x10001c34:    d005        ..      BEQ      0x10001c42 ; lib_check_ble_fsm_state + 22
        0x10001c36:    2806        .(      CMP      r0,#6
        0x10001c38:    d003        ..      BEQ      0x10001c42 ; lib_check_ble_fsm_state + 22
        0x10001c3a:    280f        .(      CMP      r0,#0xf
        0x10001c3c:    d001        ..      BEQ      0x10001c42 ; lib_check_ble_fsm_state + 22
        0x10001c3e:    2000        .       MOVS     r0,#0
        0x10001c40:    4770        pG      BX       lr
        0x10001c42:    2001        .       MOVS     r0,#1
        0x10001c44:    4770        pG      BX       lr
    SystemSleep
        0x10001c46:    b510        ..      PUSH     {r4,lr}
        0x10001c48:    f7fffff0    ....    BL       lib_check_ble_fsm_state ; 0x10001c2c
        0x10001c4c:    2800        .(      CMP      r0,#0
        0x10001c4e:    d102        ..      BNE      0x10001c56 ; SystemSleep + 16
        0x10001c50:    4825        %H      LDR      r0,[pc,#148] ; [0x10001ce8] = 0x449f
        0x10001c52:    3052        R0      ADDS     r0,r0,#0x52
        0x10001c54:    4780        .G      BLX      r0
        0x10001c56:    2001        .       MOVS     r0,#1
        0x10001c58:    bd10        ..      POP      {r4,pc}
    SystemPowerDown
        0x10001c5a:    b510        ..      PUSH     {r4,lr}
        0x10001c5c:    491b        .I      LDR      r1,[pc,#108] ; [0x10001ccc] = 0x20003054
        0x10001c5e:    2201        ."      MOVS     r2,#1
        0x10001c60:    6a08        .j      LDR      r0,[r1,#0x20]
        0x10001c62:    7542        Bu      STRB     r2,[r0,#0x15]
        0x10001c64:    7c43        C|      LDRB     r3,[r0,#0x11]
        0x10001c66:    09db        ..      LSRS     r3,r3,#7
        0x10001c68:    01db        ..      LSLS     r3,r3,#7
        0x10001c6a:    1c9b        ..      ADDS     r3,r3,#2
        0x10001c6c:    7443        Ct      STRB     r3,[r0,#0x11]
        0x10001c6e:    1e93        ..      SUBS     r3,r2,#2
        0x10001c70:    7483        .t      STRB     r3,[r0,#0x12]
        0x10001c72:    0a1b        ..      LSRS     r3,r3,#8
        0x10001c74:    74c3        .t      STRB     r3,[r0,#0x13]
        0x10001c76:    6a49        Ij      LDR      r1,[r1,#0x24]
        0x10001c78:    7acb        .z      LDRB     r3,[r1,#0xb]
        0x10001c7a:    24ef        .$      MOVS     r4,#0xef
        0x10001c7c:    4023        #@      ANDS     r3,r3,r4
        0x10001c7e:    72cb        .r      STRB     r3,[r1,#0xb]
        0x10001c80:    7b4b        K{      LDRB     r3,[r1,#0xd]
        0x10001c82:    4393        .C      BICS     r3,r3,r2
        0x10001c84:    734b        Ks      STRB     r3,[r1,#0xd]
        0x10001c86:    7a8b        .z      LDRB     r3,[r1,#0xa]
        0x10001c88:    4313        .C      ORRS     r3,r3,r2
        0x10001c8a:    728b        .r      STRB     r3,[r1,#0xa]
        0x10001c8c:    7e81        .~      LDRB     r1,[r0,#0x1a]
        0x10001c8e:    2302        .#      MOVS     r3,#2
        0x10001c90:    4319        .C      ORRS     r1,r1,r3
        0x10001c92:    7681        .v      STRB     r1,[r0,#0x1a]
        0x10001c94:    7c01        .|      LDRB     r1,[r0,#0x10]
        0x10001c96:    4311        .C      ORRS     r1,r1,r2
        0x10001c98:    7401        .t      STRB     r1,[r0,#0x10]
        0x10001c9a:    4915        .I      LDR      r1,[pc,#84] ; [0x10001cf0] = 0x622b
        0x10001c9c:    2005        .       MOVS     r0,#5
        0x10001c9e:    311a        .1      ADDS     r1,r1,#0x1a
        0x10001ca0:    4788        .G      BLX      r1
        0x10001ca2:    4815        .H      LDR      r0,[pc,#84] ; [0x10001cf8] = 0x46e5
        0x10001ca4:    4780        .G      BLX      r0
        0x10001ca6:    2001        .       MOVS     r0,#1
        0x10001ca8:    bd10        ..      POP      {r4,pc}
    SystemReset
        0x10001caa:    4813        .H      LDR      r0,[pc,#76] ; [0x10001cf8] = 0x46e5
        0x10001cac:    b510        ..      PUSH     {r4,lr}
        0x10001cae:    3012        .0      ADDS     r0,r0,#0x12
        0x10001cb0:    4780        .G      BLX      r0
        0x10001cb2:    2001        .       MOVS     r0,#1
        0x10001cb4:    bd10        ..      POP      {r4,pc}
    CapdetEn
        0x10001cb6:    490f        .I      LDR      r1,[pc,#60] ; [0x10001cf4] = 0x654d
        0x10001cb8:    b510        ..      PUSH     {r4,lr}
        0x10001cba:    317e        ~1      ADDS     r1,r1,#0x7e
        0x10001cbc:    4788        .G      BLX      r1
        0x10001cbe:    2001        .       MOVS     r0,#1
        0x10001cc0:    bd10        ..      POP      {r4,pc}
    $d
        0x10001cc2:    0000        ..      DCW    0
        0x10001cc4:    00004101    .A..    DCD    16641
        0x10001cc8:    0000421d    .B..    DCD    16925
        0x10001ccc:    20003054    T0.     DCD    536883284
        0x10001cd0:    100010f5    ....    DCD    268439797
        0x10001cd4:    0000432d    -C..    DCD    17197
        0x10001cd8:    00004e2b    +N..    DCD    20011
        0x10001cdc:    00000af5    ....    DCD    2805
        0x10001ce0:    00003ab7    .:..    DCD    15031
        0x10001ce4:    00003bbb    .;..    DCD    15291
        0x10001ce8:    0000449f    .D..    DCD    17567
        0x10001cec:    00005ffb    ._..    DCD    24571
        0x10001cf0:    0000622b    +b..    DCD    25131
        0x10001cf4:    0000654d    Me..    DCD    25933
        0x10001cf8:    000046e5    .F..    DCD    18149
    $t
    PowerDownLPOEn
        0x10001cfc:    b510        ..      PUSH     {r4,lr}
        0x10001cfe:    49f8        .I      LDR      r1,[pc,#992] ; [0x100020e0] = 0x65e3
        0x10001d00:    4788        .G      BLX      r1
        0x10001d02:    2001        .       MOVS     r0,#1
        0x10001d04:    e7dc        ..      B        0x10001cc0 ; CapdetEn + 10
    SetBondManagerIndex
        0x10001d06:    b510        ..      PUSH     {r4,lr}
        0x10001d08:    49f6        .I      LDR      r1,[pc,#984] ; [0x100020e4] = 0x473d
        0x10001d0a:    4788        .G      BLX      r1
        0x10001d0c:    2001        .       MOVS     r0,#1
        0x10001d0e:    e7d7        ..      B        0x10001cc0 ; CapdetEn + 10
    GetBondDevice
        0x10001d10:    49f4        .I      LDR      r1,[pc,#976] ; [0x100020e4] = 0x473d
        0x10001d12:    3154        T1      ADDS     r1,r1,#0x54
        0x10001d14:    4708        .G      BX       r1
    AddBondDevice
        0x10001d16:    49f3        .I      LDR      r1,[pc,#972] ; [0x100020e4] = 0x473d
        0x10001d18:    b510        ..      PUSH     {r4,lr}
        0x10001d1a:    31a2        .1      ADDS     r1,r1,#0xa2
        0x10001d1c:    4788        .G      BLX      r1
        0x10001d1e:    2001        .       MOVS     r0,#1
        0x10001d20:    e7ce        ..      B        0x10001cc0 ; CapdetEn + 10
    DelAllBondDevice
        0x10001d22:    48f0        .H      LDR      r0,[pc,#960] ; [0x100020e4] = 0x473d
        0x10001d24:    b510        ..      PUSH     {r4,lr}
        0x10001d26:    30c6        .0      ADDS     r0,r0,#0xc6
        0x10001d28:    4780        .G      BLX      r0
        0x10001d2a:    2001        .       MOVS     r0,#1
        0x10001d2c:    e7c8        ..      B        0x10001cc0 ; CapdetEn + 10
    DelBondDevice
        0x10001d2e:    48ed        .H      LDR      r0,[pc,#948] ; [0x100020e4] = 0x473d
        0x10001d30:    b510        ..      PUSH     {r4,lr}
        0x10001d32:    30de        .0      ADDS     r0,r0,#0xde
        0x10001d34:    4780        .G      BLX      r0
        0x10001d36:    2001        .       MOVS     r0,#1
        0x10001d38:    e7c2        ..      B        0x10001cc0 ; CapdetEn + 10
    ReadProfileData
        0x10001d3a:    4beb        .K      LDR      r3,[pc,#940] ; [0x100020e8] = 0x48a5
        0x10001d3c:    4718        .G      BX       r3
    WriteProfileData
        0x10001d3e:    4bea        .K      LDR      r3,[pc,#936] ; [0x100020e8] = 0x48a5
        0x10001d40:    3336        63      ADDS     r3,r3,#0x36
        0x10001d42:    4718        .G      BX       r3
    EraseFlashData
        0x10001d44:    b5f8        ..      PUSH     {r3-r7,lr}
        0x10001d46:    4607        .F      MOV      r7,r0
        0x10001d48:    48e8        .H      LDR      r0,[pc,#928] ; [0x100020ec] = 0x20003054
        0x10001d4a:    2600        .&      MOVS     r6,#0
        0x10001d4c:    6840        @h      LDR      r0,[r0,#4]
        0x10001d4e:    460d        .F      MOV      r5,r1
        0x10001d50:    4634        4F      MOV      r4,r6
        0x10001d52:    3028        (0      ADDS     r0,r0,#0x28
        0x10001d54:    f000fd36    ..6.    BL       __aeabi_uread4 ; 0x100027c4
        0x10001d58:    0329        ).      LSLS     r1,r5,#12
        0x10001d5a:    19c9        ..      ADDS     r1,r1,r7
        0x10001d5c:    1840        @.      ADDS     r0,r0,r1
        0x10001d5e:    2101        .!      MOVS     r1,#1
        0x10001d60:    04c9        ..      LSLS     r1,r1,#19
        0x10001d62:    4288        .B      CMP      r0,r1
        0x10001d64:    d911        ..      BLS      0x10001d8a ; EraseFlashData + 70
        0x10001d66:    2000        .       MOVS     r0,#0
        0x10001d68:    e4ed        ..      B        0x10001746 ; _GAPStartAdv + 284
        0x10001d6a:    b672        r.      CPSID    i
        0x10001d6c:    48df        .H      LDR      r0,[pc,#892] ; [0x100020ec] = 0x20003054
        0x10001d6e:    6840        @h      LDR      r0,[r0,#4]
        0x10001d70:    3028        (0      ADDS     r0,r0,#0x28
        0x10001d72:    f000fd27    ..'.    BL       __aeabi_uread4 ; 0x100027c4
        0x10001d76:    0321        !.      LSLS     r1,r4,#12
        0x10001d78:    19c9        ..      ADDS     r1,r1,r7
        0x10001d7a:    1840        @.      ADDS     r0,r0,r1
        0x10001d7c:    4adc        .J      LDR      r2,[pc,#880] ; [0x100020f0] = 0x5443
        0x10001d7e:    2101        .!      MOVS     r1,#1
        0x10001d80:    4790        .G      BLX      r2
        0x10001d82:    4606        .F      MOV      r6,r0
        0x10001d84:    b662        b.      CPSIE    i
        0x10001d86:    1c64        d.      ADDS     r4,r4,#1
        0x10001d88:    b2e4        ..      UXTB     r4,r4
        0x10001d8a:    42ac        .B      CMP      r4,r5
        0x10001d8c:    d3ed        ..      BCC      0x10001d6a ; EraseFlashData + 38
        0x10001d8e:    4630        0F      MOV      r0,r6
        0x10001d90:    e4d9        ..      B        0x10001746 ; _GAPStartAdv + 284
    ReadFlashData
        0x10001d92:    b570        p.      PUSH     {r4-r6,lr}
        0x10001d94:    4604        .F      MOV      r4,r0
        0x10001d96:    48d5        .H      LDR      r0,[pc,#852] ; [0x100020ec] = 0x20003054
        0x10001d98:    4616        .F      MOV      r6,r2
        0x10001d9a:    6840        @h      LDR      r0,[r0,#4]
        0x10001d9c:    460d        .F      MOV      r5,r1
        0x10001d9e:    3028        (0      ADDS     r0,r0,#0x28
        0x10001da0:    f000fd10    ....    BL       __aeabi_uread4 ; 0x100027c4
        0x10001da4:    4603        .F      MOV      r3,r0
        0x10001da6:    1961        a.      ADDS     r1,r4,r5
        0x10001da8:    1840        @.      ADDS     r0,r0,r1
        0x10001daa:    2101        .!      MOVS     r1,#1
        0x10001dac:    04c9        ..      LSLS     r1,r1,#19
        0x10001dae:    4288        .B      CMP      r0,r1
        0x10001db0:    d80a        ..      BHI      0x10001dc8 ; ReadFlashData + 54
        0x10001db2:    2b00        .+      CMP      r3,#0
        0x10001db4:    d008        ..      BEQ      0x10001dc8 ; ReadFlashData + 54
        0x10001db6:    b672        r.      CPSID    i
        0x10001db8:    1918        ..      ADDS     r0,r3,r4
        0x10001dba:    4bcd        .K      LDR      r3,[pc,#820] ; [0x100020f0] = 0x5443
        0x10001dbc:    4632        2F      MOV      r2,r6
        0x10001dbe:    4629        )F      MOV      r1,r5
        0x10001dc0:    3bea        .;      SUBS     r3,r3,#0xea
        0x10001dc2:    4798        .G      BLX      r3
        0x10001dc4:    b662        b.      CPSIE    i
        0x10001dc6:    bd70        p.      POP      {r4-r6,pc}
        0x10001dc8:    2000        .       MOVS     r0,#0
        0x10001dca:    bd70        p.      POP      {r4-r6,pc}
    WriteFlashData
        0x10001dcc:    b570        p.      PUSH     {r4-r6,lr}
        0x10001dce:    4604        .F      MOV      r4,r0
        0x10001dd0:    48c6        .H      LDR      r0,[pc,#792] ; [0x100020ec] = 0x20003054
        0x10001dd2:    4616        .F      MOV      r6,r2
        0x10001dd4:    6840        @h      LDR      r0,[r0,#4]
        0x10001dd6:    460d        .F      MOV      r5,r1
        0x10001dd8:    3028        (0      ADDS     r0,r0,#0x28
        0x10001dda:    f000fcf3    ....    BL       __aeabi_uread4 ; 0x100027c4
        0x10001dde:    4603        .F      MOV      r3,r0
        0x10001de0:    1961        a.      ADDS     r1,r4,r5
        0x10001de2:    1840        @.      ADDS     r0,r0,r1
        0x10001de4:    2101        .!      MOVS     r1,#1
        0x10001de6:    04c9        ..      LSLS     r1,r1,#19
        0x10001de8:    4288        .B      CMP      r0,r1
        0x10001dea:    d80a        ..      BHI      0x10001e02 ; WriteFlashData + 54
        0x10001dec:    2b00        .+      CMP      r3,#0
        0x10001dee:    d008        ..      BEQ      0x10001e02 ; WriteFlashData + 54
        0x10001df0:    b672        r.      CPSID    i
        0x10001df2:    1918        ..      ADDS     r0,r3,r4
        0x10001df4:    4bbe        .K      LDR      r3,[pc,#760] ; [0x100020f0] = 0x5443
        0x10001df6:    4632        2F      MOV      r2,r6
        0x10001df8:    4629        )F      MOV      r1,r5
        0x10001dfa:    3b82        .;      SUBS     r3,r3,#0x82
        0x10001dfc:    4798        .G      BLX      r3
        0x10001dfe:    b662        b.      CPSIE    i
        0x10001e00:    bd70        p.      POP      {r4-r6,pc}
        0x10001e02:    2000        .       MOVS     r0,#0
        0x10001e04:    bd70        p.      POP      {r4-r6,pc}
    CodeErase
        0x10001e06:    b570        p.      PUSH     {r4-r6,lr}
        0x10001e08:    48ba        .H      LDR      r0,[pc,#744] ; [0x100020f4] = 0x20003108
        0x10001e0a:    2400        .$      MOVS     r4,#0
        0x10001e0c:    7800        .x      LDRB     r0,[r0,#0]
        0x10001e0e:    4eb8        .N      LDR      r6,[pc,#736] ; [0x100020f0] = 0x5443
        0x10001e10:    4db6        .M      LDR      r5,[pc,#728] ; [0x100020ec] = 0x20003054
        0x10001e12:    2800        .(      CMP      r0,#0
        0x10001e14:    d00d        ..      BEQ      0x10001e32 ; CodeErase + 44
        0x10001e16:    2801        .(      CMP      r0,#1
        0x10001e18:    d01e        ..      BEQ      0x10001e58 ; CodeErase + 82
        0x10001e1a:    e024        $.      B        0x10001e66 ; CodeErase + 96
        0x10001e1c:    b672        r.      CPSID    i
        0x10001e1e:    3014        .0      ADDS     r0,r0,#0x14
        0x10001e20:    f000fcd0    ....    BL       __aeabi_uread4 ; 0x100027c4
        0x10001e24:    0321        !.      LSLS     r1,r4,#12
        0x10001e26:    1840        @.      ADDS     r0,r0,r1
        0x10001e28:    2101        .!      MOVS     r1,#1
        0x10001e2a:    47b0        .G      BLX      r6
        0x10001e2c:    b662        b.      CPSIE    i
        0x10001e2e:    1c64        d.      ADDS     r4,r4,#1
        0x10001e30:    b2e4        ..      UXTB     r4,r4
        0x10001e32:    6868        hh      LDR      r0,[r5,#4]
        0x10001e34:    7bc1        .{      LDRB     r1,[r0,#0xf]
        0x10001e36:    7b82        .{      LDRB     r2,[r0,#0xe]
        0x10001e38:    0209        ..      LSLS     r1,r1,#8
        0x10001e3a:    4311        .C      ORRS     r1,r1,r2
        0x10001e3c:    42a1        .B      CMP      r1,r4
        0x10001e3e:    d8ed        ..      BHI      0x10001e1c ; CodeErase + 22
        0x10001e40:    e011        ..      B        0x10001e66 ; CodeErase + 96
        0x10001e42:    b672        r.      CPSID    i
        0x10001e44:    3010        .0      ADDS     r0,r0,#0x10
        0x10001e46:    f000fcbd    ....    BL       __aeabi_uread4 ; 0x100027c4
        0x10001e4a:    0321        !.      LSLS     r1,r4,#12
        0x10001e4c:    1840        @.      ADDS     r0,r0,r1
        0x10001e4e:    2101        .!      MOVS     r1,#1
        0x10001e50:    47b0        .G      BLX      r6
        0x10001e52:    b662        b.      CPSIE    i
        0x10001e54:    1c64        d.      ADDS     r4,r4,#1
        0x10001e56:    b2e4        ..      UXTB     r4,r4
        0x10001e58:    6868        hh      LDR      r0,[r5,#4]
        0x10001e5a:    7bc1        .{      LDRB     r1,[r0,#0xf]
        0x10001e5c:    7b82        .{      LDRB     r2,[r0,#0xe]
        0x10001e5e:    0209        ..      LSLS     r1,r1,#8
        0x10001e60:    4311        .C      ORRS     r1,r1,r2
        0x10001e62:    42a1        .B      CMP      r1,r4
        0x10001e64:    d8ed        ..      BHI      0x10001e42 ; CodeErase + 60
        0x10001e66:    2001        .       MOVS     r0,#1
        0x10001e68:    bd70        p.      POP      {r4-r6,pc}
    CodeErase_sector
        0x10001e6a:    b570        p.      PUSH     {r4-r6,lr}
        0x10001e6c:    4604        .F      MOV      r4,r0
        0x10001e6e:    460d        .F      MOV      r5,r1
        0x10001e70:    0b00        ..      LSRS     r0,r0,#12
        0x10001e72:    1942        B.      ADDS     r2,r0,r5
        0x10001e74:    489d        .H      LDR      r0,[pc,#628] ; [0x100020ec] = 0x20003054
        0x10001e76:    6840        @h      LDR      r0,[r0,#4]
        0x10001e78:    7bc1        .{      LDRB     r1,[r0,#0xf]
        0x10001e7a:    7b83        .{      LDRB     r3,[r0,#0xe]
        0x10001e7c:    0209        ..      LSLS     r1,r1,#8
        0x10001e7e:    4319        .C      ORRS     r1,r1,r3
        0x10001e80:    428a        .B      CMP      r2,r1
        0x10001e82:    d901        ..      BLS      0x10001e88 ; CodeErase_sector + 30
        0x10001e84:    2000        .       MOVS     r0,#0
        0x10001e86:    bd70        p.      POP      {r4-r6,pc}
        0x10001e88:    499a        .I      LDR      r1,[pc,#616] ; [0x100020f4] = 0x20003108
        0x10001e8a:    4e99        .N      LDR      r6,[pc,#612] ; [0x100020f0] = 0x5443
        0x10001e8c:    7809        .x      LDRB     r1,[r1,#0]
        0x10001e8e:    2900        .)      CMP      r1,#0
        0x10001e90:    d002        ..      BEQ      0x10001e98 ; CodeErase_sector + 46
        0x10001e92:    2901        .)      CMP      r1,#1
        0x10001e94:    d003        ..      BEQ      0x10001e9e ; CodeErase_sector + 52
        0x10001e96:    e00a        ..      B        0x10001eae ; CodeErase_sector + 68
        0x10001e98:    b672        r.      CPSID    i
        0x10001e9a:    3014        .0      ADDS     r0,r0,#0x14
        0x10001e9c:    e001        ..      B        0x10001ea2 ; CodeErase_sector + 56
        0x10001e9e:    b672        r.      CPSID    i
        0x10001ea0:    3010        .0      ADDS     r0,r0,#0x10
        0x10001ea2:    f000fc8f    ....    BL       __aeabi_uread4 ; 0x100027c4
        0x10001ea6:    1900        ..      ADDS     r0,r0,r4
        0x10001ea8:    4629        )F      MOV      r1,r5
        0x10001eaa:    47b0        .G      BLX      r6
        0x10001eac:    b662        b.      CPSIE    i
        0x10001eae:    2001        .       MOVS     r0,#1
        0x10001eb0:    bd70        p.      POP      {r4-r6,pc}
    _FMCodeWrite
        0x10001eb2:    b5f8        ..      PUSH     {r3-r7,lr}
        0x10001eb4:    4604        .F      MOV      r4,r0
        0x10001eb6:    488f        .H      LDR      r0,[pc,#572] ; [0x100020f4] = 0x20003108
        0x10001eb8:    460f        .F      MOV      r7,r1
        0x10001eba:    7801        .x      LDRB     r1,[r0,#0]
        0x10001ebc:    488b        .H      LDR      r0,[pc,#556] ; [0x100020ec] = 0x20003054
        0x10001ebe:    4d8c        .M      LDR      r5,[pc,#560] ; [0x100020f0] = 0x5443
        0x10001ec0:    6840        @h      LDR      r0,[r0,#4]
        0x10001ec2:    3d82        .=      SUBS     r5,r5,#0x82
        0x10001ec4:    4616        .F      MOV      r6,r2
        0x10001ec6:    2900        .)      CMP      r1,#0
        0x10001ec8:    d002        ..      BEQ      0x10001ed0 ; _FMCodeWrite + 30
        0x10001eca:    2901        .)      CMP      r1,#1
        0x10001ecc:    d003        ..      BEQ      0x10001ed6 ; _FMCodeWrite + 36
        0x10001ece:    e00b        ..      B        0x10001ee8 ; _FMCodeWrite + 54
        0x10001ed0:    b672        r.      CPSID    i
        0x10001ed2:    3014        .0      ADDS     r0,r0,#0x14
        0x10001ed4:    e001        ..      B        0x10001eda ; _FMCodeWrite + 40
        0x10001ed6:    b672        r.      CPSID    i
        0x10001ed8:    3010        .0      ADDS     r0,r0,#0x10
        0x10001eda:    f000fc73    ..s.    BL       __aeabi_uread4 ; 0x100027c4
        0x10001ede:    1900        ..      ADDS     r0,r0,r4
        0x10001ee0:    4632        2F      MOV      r2,r6
        0x10001ee2:    4639        9F      MOV      r1,r7
        0x10001ee4:    47a8        .G      BLX      r5
        0x10001ee6:    b662        b.      CPSIE    i
        0x10001ee8:    2001        .       MOVS     r0,#1
        0x10001eea:    e42c        ,.      B        0x10001746 ; _GAPStartAdv + 284
    CodeWrite
        0x10001eec:    b430        0.      PUSH     {r4,r5}
        0x10001eee:    4b7f        .K      LDR      r3,[pc,#508] ; [0x100020ec] = 0x20003054
        0x10001ef0:    685c        \h      LDR      r4,[r3,#4]
        0x10001ef2:    7be3        .{      LDRB     r3,[r4,#0xf]
        0x10001ef4:    7ba4        .{      LDRB     r4,[r4,#0xe]
        0x10001ef6:    021b        ..      LSLS     r3,r3,#8
        0x10001ef8:    4323        #C      ORRS     r3,r3,r4
        0x10001efa:    031b        ..      LSLS     r3,r3,#12
        0x10001efc:    4283        .B      CMP      r3,r0
        0x10001efe:    d202        ..      BCS      0x10001f06 ; CodeWrite + 26
        0x10001f00:    bc30        0.      POP      {r4,r5}
        0x10001f02:    2000        .       MOVS     r0,#0
        0x10001f04:    4770        pG      BX       lr
        0x10001f06:    bc30        0.      POP      {r4,r5}
        0x10001f08:    b2c9        ..      UXTB     r1,r1
        0x10001f0a:    e7d2        ..      B        _FMCodeWrite ; 0x10001eb2
    CodeUpdate
        0x10001f0c:    b430        0.      PUSH     {r4,r5}
        0x10001f0e:    4c7a        zL      LDR      r4,[pc,#488] ; [0x100020f8] = 0x4a7b
        0x10001f10:    46a4        .F      MOV      r12,r4
        0x10001f12:    bc30        0.      POP      {r4,r5}
        0x10001f14:    4760        `G      BX       r12
    FlashDataUpdate
        0x10001f16:    b5f3        ..      PUSH     {r0,r1,r4-r7,lr}
        0x10001f18:    4874        tH      LDR      r0,[pc,#464] ; [0x100020ec] = 0x20003054
        0x10001f1a:    b089        ..      SUB      sp,sp,#0x24
        0x10001f1c:    6840        @h      LDR      r0,[r0,#4]
        0x10001f1e:    2400        .$      MOVS     r4,#0
        0x10001f20:    3028        (0      ADDS     r0,r0,#0x28
        0x10001f22:    f000fc4f    ..O.    BL       __aeabi_uread4 ; 0x100027c4
        0x10001f26:    4607        .F      MOV      r7,r0
        0x10001f28:    9809        ..      LDR      r0,[sp,#0x24]
        0x10001f2a:    0946        F.      LSRS     r6,r0,#5
        0x10001f2c:    2500        .%      MOVS     r5,#0
        0x10001f2e:    e011        ..      B        0x10001f54 ; FlashDataUpdate + 62
        0x10001f30:    b672        r.      CPSID    i
        0x10001f32:    0168        h.      LSLS     r0,r5,#5
        0x10001f34:    4b6e        nK      LDR      r3,[pc,#440] ; [0x100020f0] = 0x5443
        0x10001f36:    19c0        ..      ADDS     r0,r0,r7
        0x10001f38:    2120         !      MOVS     r1,#0x20
        0x10001f3a:    466a        jF      MOV      r2,sp
        0x10001f3c:    3bea        .;      SUBS     r3,r3,#0xea
        0x10001f3e:    4798        .G      BLX      r3
        0x10001f40:    b662        b.      CPSIE    i
        0x10001f42:    2000        .       MOVS     r0,#0
        0x10001f44:    4669        iF      MOV      r1,sp
        0x10001f46:    5c0a        .\      LDRB     r2,[r1,r0]
        0x10001f48:    1c40        @.      ADDS     r0,r0,#1
        0x10001f4a:    1912        ..      ADDS     r2,r2,r4
        0x10001f4c:    b294        ..      UXTH     r4,r2
        0x10001f4e:    2820         (      CMP      r0,#0x20
        0x10001f50:    d3f9        ..      BCC      0x10001f46 ; FlashDataUpdate + 48
        0x10001f52:    1c6d        m.      ADDS     r5,r5,#1
        0x10001f54:    42b5        .B      CMP      r5,r6
        0x10001f56:    d3eb        ..      BCC      0x10001f30 ; FlashDataUpdate + 26
        0x10001f58:    9809        ..      LDR      r0,[sp,#0x24]
        0x10001f5a:    06c6        ..      LSLS     r6,r0,#27
        0x10001f5c:    0ef6        ..      LSRS     r6,r6,#27
        0x10001f5e:    b672        r.      CPSID    i
        0x10001f60:    4631        1F      MOV      r1,r6
        0x10001f62:    0168        h.      LSLS     r0,r5,#5
        0x10001f64:    4b62        bK      LDR      r3,[pc,#392] ; [0x100020f0] = 0x5443
        0x10001f66:    19c0        ..      ADDS     r0,r0,r7
        0x10001f68:    466a        jF      MOV      r2,sp
        0x10001f6a:    3bea        .;      SUBS     r3,r3,#0xea
        0x10001f6c:    4798        .G      BLX      r3
        0x10001f6e:    b662        b.      CPSIE    i
        0x10001f70:    2000        .       MOVS     r0,#0
        0x10001f72:    4669        iF      MOV      r1,sp
        0x10001f74:    e003        ..      B        0x10001f7e ; FlashDataUpdate + 104
        0x10001f76:    5c0a        .\      LDRB     r2,[r1,r0]
        0x10001f78:    1912        ..      ADDS     r2,r2,r4
        0x10001f7a:    b294        ..      UXTH     r4,r2
        0x10001f7c:    1c40        @.      ADDS     r0,r0,#1
        0x10001f7e:    42b0        .B      CMP      r0,r6
        0x10001f80:    d3f9        ..      BCC      0x10001f76 ; FlashDataUpdate + 96
        0x10001f82:    980a        ..      LDR      r0,[sp,#0x28]
        0x10001f84:    4284        .B      CMP      r4,r0
        0x10001f86:    d102        ..      BNE      0x10001f8e ; FlashDataUpdate + 120
        0x10001f88:    2001        .       MOVS     r0,#1
        0x10001f8a:    b00b        ..      ADD      sp,sp,#0x2c
        0x10001f8c:    bdf0        ..      POP      {r4-r7,pc}
        0x10001f8e:    2000        .       MOVS     r0,#0
        0x10001f90:    e7fb        ..      B        0x10001f8a ; FlashDataUpdate + 116
    ble_sched_execute
        0x10001f92:    b5f8        ..      PUSH     {r3-r7,lr}
        0x10001f94:    4853        SH      LDR      r0,[pc,#332] ; [0x100020e4] = 0x473d
        0x10001f96:    38e2        .8      SUBS     r0,r0,#0xe2
        0x10001f98:    4780        .G      BLX      r0
        0x10001f9a:    4c56        VL      LDR      r4,[pc,#344] ; [0x100020f4] = 0x20003108
        0x10001f9c:    3457        W4      ADDS     r4,r4,#0x57
        0x10001f9e:    7a60        `z      LDRB     r0,[r4,#9]
        0x10001fa0:    2800        .(      CMP      r0,#0
        0x10001fa2:    d040        @.      BEQ      0x10002026 ; ble_sched_execute + 148
        0x10001fa4:    0600        ..      LSLS     r0,r0,#24
        0x10001fa6:    2504        .%      MOVS     r5,#4
        0x10001fa8:    2800        .(      CMP      r0,#0
        0x10001faa:    da0f        ..      BGE      0x10001fcc ; ble_sched_execute + 58
        0x10001fac:    7860        `x      LDRB     r0,[r4,#1]
        0x10001fae:    7821        !x      LDRB     r1,[r4,#0]
        0x10001fb0:    0200        ..      LSLS     r0,r0,#8
        0x10001fb2:    4308        .C      ORRS     r0,r0,r1
        0x10001fb4:    0740        @.      LSLS     r0,r0,#29
        0x10001fb6:    d509        ..      BPL      0x10001fcc ; ble_sched_execute + 58
        0x10001fb8:    f7fefea5    ....    BL       smart_latency_start ; 0x10000d06
        0x10001fbc:    7860        `x      LDRB     r0,[r4,#1]
        0x10001fbe:    7821        !x      LDRB     r1,[r4,#0]
        0x10001fc0:    0200        ..      LSLS     r0,r0,#8
        0x10001fc2:    4308        .C      ORRS     r0,r0,r1
        0x10001fc4:    43a8        .C      BICS     r0,r0,r5
        0x10001fc6:    7020         p      STRB     r0,[r4,#0]
        0x10001fc8:    0a00        ..      LSRS     r0,r0,#8
        0x10001fca:    7060        `p      STRB     r0,[r4,#1]
        0x10001fcc:    7860        `x      LDRB     r0,[r4,#1]
        0x10001fce:    7821        !x      LDRB     r1,[r4,#0]
        0x10001fd0:    0200        ..      LSLS     r0,r0,#8
        0x10001fd2:    4308        .C      ORRS     r0,r0,r1
        0x10001fd4:    4f49        IO      LDR      r7,[pc,#292] ; [0x100020fc] = 0x8000
        0x10001fd6:    4e4a        JN      LDR      r6,[pc,#296] ; [0x10002100] = 0x3ea1
        0x10001fd8:    0641        A.      LSLS     r1,r0,#25
        0x10001fda:    d50c        ..      BPL      0x10001ff6 ; ble_sched_execute + 100
        0x10001fdc:    2140        @!      MOVS     r1,#0x40
        0x10001fde:    4388        .C      BICS     r0,r0,r1
        0x10001fe0:    7020         p      STRB     r0,[r4,#0]
        0x10001fe2:    0a00        ..      LSRS     r0,r0,#8
        0x10001fe4:    7060        `p      STRB     r0,[r4,#1]
        0x10001fe6:    2002        .       MOVS     r0,#2
        0x10001fe8:    4669        iF      MOV      r1,sp
        0x10001fea:    8008        ..      STRH     r0,[r1,#0]
        0x10001fec:    4602        .F      MOV      r2,r0
        0x10001fee:    466b        kF      MOV      r3,sp
        0x10001ff0:    4639        9F      MOV      r1,r7
        0x10001ff2:    2000        .       MOVS     r0,#0
        0x10001ff4:    47b0        .G      BLX      r6
        0x10001ff6:    7860        `x      LDRB     r0,[r4,#1]
        0x10001ff8:    7821        !x      LDRB     r1,[r4,#0]
        0x10001ffa:    0200        ..      LSLS     r0,r0,#8
        0x10001ffc:    4308        .C      ORRS     r0,r0,r1
        0x10001ffe:    07c1        ..      LSLS     r1,r0,#31
        0x10002000:    d011        ..      BEQ      0x10002026 ; ble_sched_execute + 148
        0x10002002:    0840        @.      LSRS     r0,r0,#1
        0x10002004:    0040        @.      LSLS     r0,r0,#1
        0x10002006:    7020         p      STRB     r0,[r4,#0]
        0x10002008:    0a01        ..      LSRS     r1,r0,#8
        0x1000200a:    7061        ap      STRB     r1,[r4,#1]
        0x1000200c:    0780        ..      LSLS     r0,r0,#30
        0x1000200e:    d502        ..      BPL      0x10002016 ; ble_sched_execute + 132
        0x10002010:    4668        hF      MOV      r0,sp
        0x10002012:    8005        ..      STRH     r5,[r0,#0]
        0x10002014:    e002        ..      B        0x1000201c ; ble_sched_execute + 138
        0x10002016:    2005        .       MOVS     r0,#5
        0x10002018:    4669        iF      MOV      r1,sp
        0x1000201a:    8008        ..      STRH     r0,[r1,#0]
        0x1000201c:    2202        ."      MOVS     r2,#2
        0x1000201e:    466b        kF      MOV      r3,sp
        0x10002020:    4639        9F      MOV      r1,r7
        0x10002022:    2000        .       MOVS     r0,#0
        0x10002024:    47b0        .G      BLX      r6
        0x10002026:    e40d        ..      B        0x10001844 ; _GAPStartAdv + 538
    ble_sched_finish
        0x10002028:    4836        6H      LDR      r0,[pc,#216] ; [0x10002104] = 0x4bf9
        0x1000202a:    4700        .G      BX       r0
    syd52832_chip_confirm
        0x1000202c:    b538        8.      PUSH     {r3-r5,lr}
        0x1000202e:    4c2f        /L      LDR      r4,[pc,#188] ; [0x100020ec] = 0x20003054
        0x10002030:    7820         x      LDRB     r0,[r4,#0]
        0x10002032:    2800        .(      CMP      r0,#0
        0x10002034:    d105        ..      BNE      0x10002042 ; syd52832_chip_confirm + 22
        0x10002036:    492a        *I      LDR      r1,[pc,#168] ; [0x100020e0] = 0x65e3
        0x10002038:    4668        hF      MOV      r0,sp
        0x1000203a:    3996        .9      SUBS     r1,r1,#0x96
        0x1000203c:    4788        .G      BLX      r1
        0x1000203e:    2001        .       MOVS     r0,#1
        0x10002040:    7020         p      STRB     r0,[r4,#0]
        0x10002042:    2001        .       MOVS     r0,#1
        0x10002044:    bd38        8.      POP      {r3-r5,pc}
    gap_s_smart_update_latency
        0x10002046:    b570        p.      PUSH     {r4-r6,lr}
        0x10002048:    7802        .x      LDRB     r2,[r0,#0]
        0x1000204a:    2a00        .*      CMP      r2,#0
        0x1000204c:    d060        `.      BEQ      0x10002110 ; gap_s_smart_update_latency + 202
        0x1000204e:    4929        )I      LDR      r1,[pc,#164] ; [0x100020f4] = 0x20003108
        0x10002050:    3157        W1      ADDS     r1,r1,#0x57
        0x10002052:    724a        Jr      STRB     r2,[r1,#9]
        0x10002054:    7842        Bx      LDRB     r2,[r0,#1]
        0x10002056:    728a        .r      STRB     r2,[r1,#0xa]
        0x10002058:    2a00        .*      CMP      r2,#0
        0x1000205a:    d001        ..      BEQ      0x10002060 ; gap_s_smart_update_latency + 26
        0x1000205c:    2a04        .*      CMP      r2,#4
        0x1000205e:    d901        ..      BLS      0x10002064 ; gap_s_smart_update_latency + 30
        0x10002060:    2204        ."      MOVS     r2,#4
        0x10002062:    728a        .r      STRB     r2,[r1,#0xa]
        0x10002064:    78c2        .x      LDRB     r2,[r0,#3]
        0x10002066:    7884        .x      LDRB     r4,[r0,#2]
        0x10002068:    0213        ..      LSLS     r3,r2,#8
        0x1000206a:    4a22        "J      LDR      r2,[pc,#136] ; [0x100020f4] = 0x20003108
        0x1000206c:    4323        #C      ORRS     r3,r3,r4
        0x1000206e:    3257        W2      ADDS     r2,r2,#0x57
        0x10002070:    72d3        .r      STRB     r3,[r2,#0xb]
        0x10002072:    0a1c        ..      LSRS     r4,r3,#8
        0x10002074:    7314        .s      STRB     r4,[r2,#0xc]
        0x10002076:    7944        Dy      LDRB     r4,[r0,#5]
        0x10002078:    7905        .y      LDRB     r5,[r0,#4]
        0x1000207a:    0224        $.      LSLS     r4,r4,#8
        0x1000207c:    432c        ,C      ORRS     r4,r4,r5
        0x1000207e:    4615        .F      MOV      r5,r2
        0x10002080:    736c        ls      STRB     r4,[r5,#0xd]
        0x10002082:    0a24        $.      LSRS     r4,r4,#8
        0x10002084:    73ac        .s      STRB     r4,[r5,#0xe]
        0x10002086:    79c4        .y      LDRB     r4,[r0,#7]
        0x10002088:    7985        .y      LDRB     r5,[r0,#6]
        0x1000208a:    0220         .      LSLS     r0,r4,#8
        0x1000208c:    4328        (C      ORRS     r0,r0,r5
        0x1000208e:    73d0        .s      STRB     r0,[r2,#0xf]
        0x10002090:    0a00        ..      LSRS     r0,r0,#8
        0x10002092:    7410        .t      STRB     r0,[r2,#0x10]
        0x10002094:    4815        .H      LDR      r0,[pc,#84] ; [0x100020ec] = 0x20003054
        0x10002096:    2508        .%      MOVS     r5,#8
        0x10002098:    6880        .h      LDR      r0,[r0,#8]
        0x1000209a:    1cd2        ..      ADDS     r2,r2,#3
        0x1000209c:    3021        !0      ADDS     r0,r0,#0x21
        0x1000209e:    7c44        D|      LDRB     r4,[r0,#0x11]
        0x100020a0:    7c00        .|      LDRB     r0,[r0,#0x10]
        0x100020a2:    0224        $.      LSLS     r4,r4,#8
        0x100020a4:    4304        .C      ORRS     r4,r4,r0
        0x100020a6:    2001        .       MOVS     r0,#1
        0x100020a8:    42a3        .B      CMP      r3,r4
        0x100020aa:    7088        .p      STRB     r0,[r1,#2]
        0x100020ac:    d908        ..      BLS      0x100020c0 ; gap_s_smart_update_latency + 122
        0x100020ae:    1b1b        ..      SUBS     r3,r3,r4
        0x100020b0:    e007        ..      B        0x100020c2 ; gap_s_smart_update_latency + 124
        0x100020b2:    7110        .q      STRB     r0,[r2,#4]
        0x100020b4:    0a00        ..      LSRS     r0,r0,#8
        0x100020b6:    e001        ..      B        0x100020bc ; gap_s_smart_update_latency + 118
        0x100020b8:    7115        .q      STRB     r5,[r2,#4]
        0x100020ba:    0a28        (.      LSRS     r0,r5,#8
        0x100020bc:    7150        Pq      STRB     r0,[r2,#5]
        0x100020be:    e007        ..      B        0x100020d0 ; gap_s_smart_update_latency + 138
        0x100020c0:    1ae3        ..      SUBS     r3,r4,r3
        0x100020c2:    7a8c        .z      LDRB     r4,[r1,#0xa]
        0x100020c4:    42a3        .B      CMP      r3,r4
        0x100020c6:    da1f        ..      BGE      0x10002108 ; gap_s_smart_update_latency + 194
        0x100020c8:    7110        .q      STRB     r0,[r2,#4]
        0x100020ca:    0a00        ..      LSRS     r0,r0,#8
        0x100020cc:    7150        Pq      STRB     r0,[r2,#5]
        0x100020ce:    728b        .r      STRB     r3,[r1,#0xa]
        0x100020d0:    7a88        .z      LDRB     r0,[r1,#0xa]
        0x100020d2:    70c8        .p      STRB     r0,[r1,#3]
        0x100020d4:    7108        .q      STRB     r0,[r1,#4]
        0x100020d6:    f7fff888    ....    BL       smart_update_retry ; 0x100011ea
        0x100020da:    2001        .       MOVS     r0,#1
        0x100020dc:    bd70        p.      POP      {r4-r6,pc}
    $d
        0x100020de:    0000        ..      DCW    0
        0x100020e0:    000065e3    .e..    DCD    26083
        0x100020e4:    0000473d    =G..    DCD    18237
        0x100020e8:    000048a5    .H..    DCD    18597
        0x100020ec:    20003054    T0.     DCD    536883284
        0x100020f0:    00005443    CT..    DCD    21571
        0x100020f4:    20003108    .1.     DCD    536883464
        0x100020f8:    00004a7b    {J..    DCD    19067
        0x100020fc:    00008000    ....    DCD    32768
        0x10002100:    00003ea1    .>..    DCD    16033
        0x10002104:    00004bf9    .K..    DCD    19449
    $t
        0x10002108:    00e4        ..      LSLS     r4,r4,#3
        0x1000210a:    42a3        .B      CMP      r3,r4
        0x1000210c:    dad4        ..      BGE      0x100020b8 ; gap_s_smart_update_latency + 114
        0x1000210e:    e7d0        ..      B        0x100020b2 ; gap_s_smart_update_latency + 108
        0x10002110:    2000        .       MOVS     r0,#0
        0x10002112:    e7e3        ..      B        0x100020dc ; gap_s_smart_update_latency + 150
    eFuseManual
        0x10002114:    49f8        .I      LDR      r1,[pc,#992] ; [0x100024f8] = 0x20003054
        0x10002116:    69c9        .i      LDR      r1,[r1,#0x1c]
        0x10002118:    7008        .p      STRB     r0,[r1,#0]
        0x1000211a:    0a02        ..      LSRS     r2,r0,#8
        0x1000211c:    704a        Jp      STRB     r2,[r1,#1]
        0x1000211e:    0c02        ..      LSRS     r2,r0,#16
        0x10002120:    708a        .p      STRB     r2,[r1,#2]
        0x10002122:    0e00        ..      LSRS     r0,r0,#24
        0x10002124:    70c8        .p      STRB     r0,[r1,#3]
        0x10002126:    7a48        Hz      LDRB     r0,[r1,#9]
        0x10002128:    2202        ."      MOVS     r2,#2
        0x1000212a:    4310        .C      ORRS     r0,r0,r2
        0x1000212c:    7248        Hr      STRB     r0,[r1,#9]
        0x1000212e:    4770        pG      BX       lr
    GPADC_Manual_Calibration
        0x10002130:    b538        8.      PUSH     {r3-r5,lr}
        0x10002132:    4604        .F      MOV      r4,r0
        0x10002134:    2000        .       MOVS     r0,#0
        0x10002136:    9000        ..      STR      r0,[sp,#0]
        0x10002138:    49f0        .I      LDR      r1,[pc,#960] ; [0x100024fc] = 0x654d
        0x1000213a:    4668        hF      MOV      r0,sp
        0x1000213c:    4788        .G      BLX      r1
        0x1000213e:    9900        ..      LDR      r1,[sp,#0]
        0x10002140:    20f8        .       MOVS     r0,#0xf8
        0x10002142:    4381        .C      BICS     r1,r1,r0
        0x10002144:    06e0        ..      LSLS     r0,r4,#27
        0x10002146:    0e00        ..      LSRS     r0,r0,#24
        0x10002148:    4308        .C      ORRS     r0,r0,r1
        0x1000214a:    9000        ..      STR      r0,[sp,#0]
        0x1000214c:    f7ffffe2    ....    BL       eFuseManual ; 0x10002114
        0x10002150:    bd38        8.      POP      {r3-r5,pc}
    GPADC_Get_Calibration
        0x10002152:    b508        ..      PUSH     {r3,lr}
        0x10002154:    2000        .       MOVS     r0,#0
        0x10002156:    9000        ..      STR      r0,[sp,#0]
        0x10002158:    49e8        .I      LDR      r1,[pc,#928] ; [0x100024fc] = 0x654d
        0x1000215a:    4668        hF      MOV      r0,sp
        0x1000215c:    4788        .G      BLX      r1
        0x1000215e:    9800        ..      LDR      r0,[sp,#0]
        0x10002160:    0600        ..      LSLS     r0,r0,#24
        0x10002162:    0ec0        ..      LSRS     r0,r0,#27
        0x10002164:    9000        ..      STR      r0,[sp,#0]
        0x10002166:    bd08        ..      POP      {r3,pc}
    GAPGetUartEn
        0x10002168:    48e4        .H      LDR      r0,[pc,#912] ; [0x100024fc] = 0x654d
        0x1000216a:    3072        r0      ADDS     r0,r0,#0x72
        0x1000216c:    4700        .G      BX       r0
    GAPUartEn
        0x1000216e:    49e3        .I      LDR      r1,[pc,#908] ; [0x100024fc] = 0x654d
        0x10002170:    315a        Z1      ADDS     r1,r1,#0x5a
        0x10002172:    4708        .G      BX       r1
    GAPBBDelayUS
        0x10002174:    49e2        .I      LDR      r1,[pc,#904] ; [0x10002500] = 0x622b
        0x10002176:    4708        .G      BX       r1
    GAPBBDelayMS
        0x10002178:    49e1        .I      LDR      r1,[pc,#900] ; [0x10002500] = 0x622b
        0x1000217a:    311a        .1      ADDS     r1,r1,#0x1a
        0x1000217c:    4708        .G      BX       r1
    GAPGetRFAutoSleep
        0x1000217e:    48e1        .H      LDR      r0,[pc,#900] ; [0x10002504] = 0x6a77
        0x10002180:    4700        .G      BX       r0
    GAPSetRFAutoSleep
        0x10002182:    49e0        .I      LDR      r1,[pc,#896] ; [0x10002504] = 0x6a77
        0x10002184:    310c        .1      ADDS     r1,r1,#0xc
        0x10002186:    4708        .G      BX       r1
    Setting4kUpdate
        0x10002188:    b5f8        ..      PUSH     {r3-r7,lr}
        0x1000218a:    2600        .&      MOVS     r6,#0
        0x1000218c:    460b        .F      MOV      r3,r1
        0x1000218e:    4604        .F      MOV      r4,r0
        0x10002190:    2501        .%      MOVS     r5,#1
        0x10002192:    4630        0F      MOV      r0,r6
        0x10002194:    4631        1F      MOV      r1,r6
        0x10002196:    032d        -.      LSLS     r5,r5,#12
        0x10002198:    5c67        g\      LDRB     r7,[r4,r1]
        0x1000219a:    1c49        I.      ADDS     r1,r1,#1
        0x1000219c:    19be        ..      ADDS     r6,r7,r6
        0x1000219e:    42a9        .B      CMP      r1,r5
        0x100021a0:    d3fa        ..      BCC      0x10002198 ; Setting4kUpdate + 16
        0x100021a2:    2100        .!      MOVS     r1,#0
        0x100021a4:    5c67        g\      LDRB     r7,[r4,r1]
        0x100021a6:    1c49        I.      ADDS     r1,r1,#1
        0x100021a8:    4078        x@      EORS     r0,r0,r7
        0x100021aa:    42a9        .B      CMP      r1,r5
        0x100021ac:    d3fa        ..      BCC      0x100021a4 ; Setting4kUpdate + 28
        0x100021ae:    429e        .B      CMP      r6,r3
        0x100021b0:    d121        !.      BNE      0x100021f6 ; Setting4kUpdate + 110
        0x100021b2:    4290        .B      CMP      r0,r2
        0x100021b4:    d11f        ..      BNE      0x100021f6 ; Setting4kUpdate + 110
        0x100021b6:    4ed0        .N      LDR      r6,[pc,#832] ; [0x100024f8] = 0x20003054
        0x100021b8:    6870        ph      LDR      r0,[r6,#4]
        0x100021ba:    300a        .0      ADDS     r0,r0,#0xa
        0x100021bc:    f000fb02    ....    BL       __aeabi_uread4 ; 0x100027c4
        0x100021c0:    1900        ..      ADDS     r0,r0,r4
        0x100021c2:    2257        W"      MOVS     r2,#0x57
        0x100021c4:    49d0        .I      LDR      r1,[pc,#832] ; [0x10002508] = 0x20003108
        0x100021c6:    f000fad9    ....    BL       __aeabi_memcpy ; 0x1000277c
        0x100021ca:    6870        ph      LDR      r0,[r6,#4]
        0x100021cc:    301c        .0      ADDS     r0,r0,#0x1c
        0x100021ce:    f000faf9    ....    BL       __aeabi_uread4 ; 0x100027c4
        0x100021d2:    68b1        .h      LDR      r1,[r6,#8]
        0x100021d4:    1900        ..      ADDS     r0,r0,r4
        0x100021d6:    2207        ."      MOVS     r2,#7
        0x100021d8:    310a        .1      ADDS     r1,r1,#0xa
        0x100021da:    f000facf    ....    BL       __aeabi_memcpy ; 0x1000277c
        0x100021de:    2101        .!      MOVS     r1,#1
        0x100021e0:    4aca        .J      LDR      r2,[pc,#808] ; [0x1000250c] = 0x5443
        0x100021e2:    2000        .       MOVS     r0,#0
        0x100021e4:    4790        .G      BLX      r2
        0x100021e6:    4bc9        .K      LDR      r3,[pc,#804] ; [0x1000250c] = 0x5443
        0x100021e8:    2000        .       MOVS     r0,#0
        0x100021ea:    4622        "F      MOV      r2,r4
        0x100021ec:    4629        )F      MOV      r1,r5
        0x100021ee:    3b82        .;      SUBS     r3,r3,#0x82
        0x100021f0:    4798        .G      BLX      r3
        0x100021f2:    2001        .       MOVS     r0,#1
        0x100021f4:    e42f        /.      B        0x10001a56 ; ATTCReadByTypeReq + 34
        0x100021f6:    2000        .       MOVS     r0,#0
        0x100021f8:    e42d        -.      B        0x10001a56 ; ATTCReadByTypeReq + 34
    SetDevAddr_toflash
        0x100021fa:    b570        p.      PUSH     {r4-r6,lr}
        0x100021fc:    2601        .&      MOVS     r6,#1
        0x100021fe:    4605        .F      MOV      r5,r0
        0x10002200:    4cbd        .L      LDR      r4,[pc,#756] ; [0x100024f8] = 0x20003054
        0x10002202:    0336        6.      LSLS     r6,r6,#12
        0x10002204:    4bc1        .K      LDR      r3,[pc,#772] ; [0x1000250c] = 0x5443
        0x10002206:    2000        .       MOVS     r0,#0
        0x10002208:    4631        1F      MOV      r1,r6
        0x1000220a:    3bea        .;      SUBS     r3,r3,#0xea
        0x1000220c:    6962        bi      LDR      r2,[r4,#0x14]
        0x1000220e:    4798        .G      BLX      r3
        0x10002210:    49bf        .I      LDR      r1,[pc,#764] ; [0x10002510] = 0x3da1
        0x10002212:    4628        (F      MOV      r0,r5
        0x10002214:    4788        .G      BLX      r1
        0x10002216:    6860        `h      LDR      r0,[r4,#4]
        0x10002218:    301c        .0      ADDS     r0,r0,#0x1c
        0x1000221a:    f000fad3    ....    BL       __aeabi_uread4 ; 0x100027c4
        0x1000221e:    6961        ai      LDR      r1,[r4,#0x14]
        0x10002220:    2207        ."      MOVS     r2,#7
        0x10002222:    1840        @.      ADDS     r0,r0,r1
        0x10002224:    68a1        .h      LDR      r1,[r4,#8]
        0x10002226:    310a        .1      ADDS     r1,r1,#0xa
        0x10002228:    f000faa8    ....    BL       __aeabi_memcpy ; 0x1000277c
        0x1000222c:    2101        .!      MOVS     r1,#1
        0x1000222e:    4ab7        .J      LDR      r2,[pc,#732] ; [0x1000250c] = 0x5443
        0x10002230:    2000        .       MOVS     r0,#0
        0x10002232:    4790        .G      BLX      r2
        0x10002234:    4bb5        .K      LDR      r3,[pc,#724] ; [0x1000250c] = 0x5443
        0x10002236:    2000        .       MOVS     r0,#0
        0x10002238:    4631        1F      MOV      r1,r6
        0x1000223a:    3b82        .;      SUBS     r3,r3,#0x82
        0x1000223c:    6962        bi      LDR      r2,[r4,#0x14]
        0x1000223e:    4798        .G      BLX      r3
        0x10002240:    e74c        L.      B        0x100020dc ; gap_s_smart_update_latency + 150
    gap_s_verdor_datas_get
        0x10002242:    b510        ..      PUSH     {r4,lr}
        0x10002244:    4604        .F      MOV      r4,r0
        0x10002246:    48ac        .H      LDR      r0,[pc,#688] ; [0x100024f8] = 0x20003054
        0x10002248:    6840        @h      LDR      r0,[r0,#4]
        0x1000224a:    300a        .0      ADDS     r0,r0,#0xa
        0x1000224c:    f000faba    ....    BL       __aeabi_uread4 ; 0x100027c4
        0x10002250:    4bae        .K      LDR      r3,[pc,#696] ; [0x1000250c] = 0x5443
        0x10002252:    2110        .!      MOVS     r1,#0x10
        0x10002254:    3bea        .;      SUBS     r3,r3,#0xea
        0x10002256:    4622        "F      MOV      r2,r4
        0x10002258:    3057        W0      ADDS     r0,r0,#0x57
        0x1000225a:    4798        .G      BLX      r3
        0x1000225c:    e530        0.      B        0x10001cc0 ; CapdetEn + 10
    gap_s_verdor_datas_set
        0x1000225e:    b570        p.      PUSH     {r4-r6,lr}
        0x10002260:    2601        .&      MOVS     r6,#1
        0x10002262:    4605        .F      MOV      r5,r0
        0x10002264:    4ca4        .L      LDR      r4,[pc,#656] ; [0x100024f8] = 0x20003054
        0x10002266:    0336        6.      LSLS     r6,r6,#12
        0x10002268:    4ba8        .K      LDR      r3,[pc,#672] ; [0x1000250c] = 0x5443
        0x1000226a:    2000        .       MOVS     r0,#0
        0x1000226c:    4631        1F      MOV      r1,r6
        0x1000226e:    3bea        .;      SUBS     r3,r3,#0xea
        0x10002270:    6962        bi      LDR      r2,[r4,#0x14]
        0x10002272:    4798        .G      BLX      r3
        0x10002274:    2101        .!      MOVS     r1,#1
        0x10002276:    4aa5        .J      LDR      r2,[pc,#660] ; [0x1000250c] = 0x5443
        0x10002278:    2000        .       MOVS     r0,#0
        0x1000227a:    4790        .G      BLX      r2
        0x1000227c:    6860        `h      LDR      r0,[r4,#4]
        0x1000227e:    300a        .0      ADDS     r0,r0,#0xa
        0x10002280:    f000faa0    ....    BL       __aeabi_uread4 ; 0x100027c4
        0x10002284:    6961        ai      LDR      r1,[r4,#0x14]
        0x10002286:    2210        ."      MOVS     r2,#0x10
        0x10002288:    3157        W1      ADDS     r1,r1,#0x57
        0x1000228a:    1840        @.      ADDS     r0,r0,r1
        0x1000228c:    4629        )F      MOV      r1,r5
        0x1000228e:    f000fa75    ..u.    BL       __aeabi_memcpy ; 0x1000277c
        0x10002292:    4b9e        .K      LDR      r3,[pc,#632] ; [0x1000250c] = 0x5443
        0x10002294:    2000        .       MOVS     r0,#0
        0x10002296:    4631        1F      MOV      r1,r6
        0x10002298:    3b82        .;      SUBS     r3,r3,#0x82
        0x1000229a:    6962        bi      LDR      r2,[r4,#0x14]
        0x1000229c:    4798        .G      BLX      r3
        0x1000229e:    e71d        ..      B        0x100020dc ; gap_s_smart_update_latency + 150
    gap_s_is_ll_start_enc
        0x100022a0:    4895        .H      LDR      r0,[pc,#596] ; [0x100024f8] = 0x20003054
        0x100022a2:    6900        .i      LDR      r0,[r0,#0x10]
        0x100022a4:    7801        .x      LDRB     r1,[r0,#0]
        0x100022a6:    43c9        .C      MVNS     r1,r1
        0x100022a8:    0789        ..      LSLS     r1,r1,#30
        0x100022aa:    d102        ..      BNE      0x100022b2 ; gap_s_is_ll_start_enc + 18
        0x100022ac:    7880        .x      LDRB     r0,[r0,#2]
        0x100022ae:    2806        .(      CMP      r0,#6
        0x100022b0:    d001        ..      BEQ      0x100022b6 ; gap_s_is_ll_start_enc + 22
        0x100022b2:    2000        .       MOVS     r0,#0
        0x100022b4:    4770        pG      BX       lr
        0x100022b6:    2001        .       MOVS     r0,#1
        0x100022b8:    4770        pG      BX       lr
    GAPBBTXFIFO0Write
        0x100022ba:    4a96        .J      LDR      r2,[pc,#600] ; [0x10002514] = 0x60d9
        0x100022bc:    4710        .G      BX       r2
    flash_peotect_key_confirm
        0x100022be:    b5f3        ..      PUSH     {r0,r1,r4-r7,lr}
        0x100022c0:    b081        ..      SUB      sp,sp,#4
        0x100022c2:    0006        ..      MOVS     r6,r0
        0x100022c4:    d025        %.      BEQ      0x10002312 ; flash_peotect_key_confirm + 84
        0x100022c6:    4f8c        .O      LDR      r7,[pc,#560] ; [0x100024f8] = 0x20003054
        0x100022c8:    69b8        .i      LDR      r0,[r7,#0x18]
        0x100022ca:    4604        .F      MOV      r4,r0
        0x100022cc:    79c1        .y      LDRB     r1,[r0,#7]
        0x100022ce:    7980        .y      LDRB     r0,[r0,#6]
        0x100022d0:    020d        ..      LSLS     r5,r1,#8
        0x100022d2:    4305        .C      ORRS     r5,r5,r0
        0x100022d4:    1ce0        ..      ADDS     r0,r4,#3
        0x100022d6:    f000fa75    ..u.    BL       __aeabi_uread4 ; 0x100027c4
        0x100022da:    0201        ..      LSLS     r1,r0,#8
        0x100022dc:    78a0        .x      LDRB     r0,[r4,#2]
        0x100022de:    4301        .C      ORRS     r1,r1,r0
        0x100022e0:    460c        .F      MOV      r4,r1
        0x100022e2:    2d00        .-      CMP      r5,#0
        0x100022e4:    d017        ..      BEQ      0x10002316 ; flash_peotect_key_confirm + 88
        0x100022e6:    2c00        .,      CMP      r4,#0
        0x100022e8:    d015        ..      BEQ      0x10002316 ; flash_peotect_key_confirm + 88
        0x100022ea:    2101        .!      MOVS     r1,#1
        0x100022ec:    4b87        .K      LDR      r3,[pc,#540] ; [0x1000250c] = 0x5443
        0x100022ee:    0309        ..      LSLS     r1,r1,#12
        0x100022f0:    2000        .       MOVS     r0,#0
        0x100022f2:    3bea        .;      SUBS     r3,r3,#0xea
        0x100022f4:    697a        zi      LDR      r2,[r7,#0x14]
        0x100022f6:    4798        .G      BLX      r3
        0x100022f8:    6878        xh      LDR      r0,[r7,#4]
        0x100022fa:    300a        .0      ADDS     r0,r0,#0xa
        0x100022fc:    f000fa62    ..b.    BL       __aeabi_uread4 ; 0x100027c4
        0x10002300:    6979        yi      LDR      r1,[r7,#0x14]
        0x10002302:    3167        g1      ADDS     r1,r1,#0x67
        0x10002304:    5c40        @\      LDRB     r0,[r0,r1]
        0x10002306:    1c40        @.      ADDS     r0,r0,#1
        0x10002308:    b2c7        ..      UXTB     r7,r0
        0x1000230a:    2f03        ./      CMP      r7,#3
        0x1000230c:    d905        ..      BLS      0x1000231a ; flash_peotect_key_confirm + 92
        0x1000230e:    2002        .       MOVS     r0,#2
        0x10002310:    bdfe        ..      POP      {r1-r7,pc}
        0x10002312:    2001        .       MOVS     r0,#1
        0x10002314:    bdfe        ..      POP      {r1-r7,pc}
        0x10002316:    2004        .       MOVS     r0,#4
        0x10002318:    bdfe        ..      POP      {r1-r7,pc}
        0x1000231a:    42b5        .B      CMP      r5,r6
        0x1000231c:    d104        ..      BNE      0x10002328 ; flash_peotect_key_confirm + 106
        0x1000231e:    9802        ..      LDR      r0,[sp,#8]
        0x10002320:    4284        .B      CMP      r4,r0
        0x10002322:    d101        ..      BNE      0x10002328 ; flash_peotect_key_confirm + 106
        0x10002324:    2000        .       MOVS     r0,#0
        0x10002326:    bdfe        ..      POP      {r1-r7,pc}
        0x10002328:    2101        .!      MOVS     r1,#1
        0x1000232a:    4a78        xJ      LDR      r2,[pc,#480] ; [0x1000250c] = 0x5443
        0x1000232c:    2000        .       MOVS     r0,#0
        0x1000232e:    4790        .G      BLX      r2
        0x10002330:    4c71        qL      LDR      r4,[pc,#452] ; [0x100024f8] = 0x20003054
        0x10002332:    6860        `h      LDR      r0,[r4,#4]
        0x10002334:    300a        .0      ADDS     r0,r0,#0xa
        0x10002336:    f000fa45    ..E.    BL       __aeabi_uread4 ; 0x100027c4
        0x1000233a:    6962        bi      LDR      r2,[r4,#0x14]
        0x1000233c:    4b73        sK      LDR      r3,[pc,#460] ; [0x1000250c] = 0x5443
        0x1000233e:    4611        .F      MOV      r1,r2
        0x10002340:    3167        g1      ADDS     r1,r1,#0x67
        0x10002342:    5447        GT      STRB     r7,[r0,r1]
        0x10002344:    2101        .!      MOVS     r1,#1
        0x10002346:    0309        ..      LSLS     r1,r1,#12
        0x10002348:    2000        .       MOVS     r0,#0
        0x1000234a:    3b82        .;      SUBS     r3,r3,#0x82
        0x1000234c:    4798        .G      BLX      r3
        0x1000234e:    2003        .       MOVS     r0,#3
        0x10002350:    bdfe        ..      POP      {r1-r7,pc}
    flash_data_offect_get
        0x10002352:    486d        mH      LDR      r0,[pc,#436] ; [0x10002508] = 0x20003108
        0x10002354:    2101        .!      MOVS     r1,#1
        0x10002356:    7802        .x      LDRB     r2,[r0,#0]
        0x10002358:    4867        gH      LDR      r0,[pc,#412] ; [0x100024f8] = 0x20003054
        0x1000235a:    0709        ..      LSLS     r1,r1,#28
        0x1000235c:    6840        @h      LDR      r0,[r0,#4]
        0x1000235e:    2a00        .*      CMP      r2,#0
        0x10002360:    d003        ..      BEQ      0x1000236a ; flash_data_offect_get + 24
        0x10002362:    2a01        .*      CMP      r2,#1
        0x10002364:    d007        ..      BEQ      0x10002376 ; flash_data_offect_get + 36
        0x10002366:    2000        .       MOVS     r0,#0
        0x10002368:    4770        pG      BX       lr
        0x1000236a:    7bc2        .{      LDRB     r2,[r0,#0xf]
        0x1000236c:    7b83        .{      LDRB     r3,[r0,#0xe]
        0x1000236e:    0210        ..      LSLS     r0,r2,#8
        0x10002370:    4318        .C      ORRS     r0,r0,r3
        0x10002372:    0340        @.      LSLS     r0,r0,#13
        0x10002374:    e004        ..      B        0x10002380 ; flash_data_offect_get + 46
        0x10002376:    7bc2        .{      LDRB     r2,[r0,#0xf]
        0x10002378:    7b83        .{      LDRB     r3,[r0,#0xe]
        0x1000237a:    0210        ..      LSLS     r0,r2,#8
        0x1000237c:    4318        .C      ORRS     r0,r0,r3
        0x1000237e:    0300        ..      LSLS     r0,r0,#12
        0x10002380:    1840        @.      ADDS     r0,r0,r1
        0x10002382:    4770        pG      BX       lr
    EraseCodeB
        0x10002384:    b570        p.      PUSH     {r4-r6,lr}
        0x10002386:    4604        .F      MOV      r4,r0
        0x10002388:    485f        _H      LDR      r0,[pc,#380] ; [0x10002508] = 0x20003108
        0x1000238a:    460d        .F      MOV      r5,r1
        0x1000238c:    7801        .x      LDRB     r1,[r0,#0]
        0x1000238e:    485a        ZH      LDR      r0,[pc,#360] ; [0x100024f8] = 0x20003054
        0x10002390:    2601        .&      MOVS     r6,#1
        0x10002392:    03b6        ..      LSLS     r6,r6,#14
        0x10002394:    6840        @h      LDR      r0,[r0,#4]
        0x10002396:    2900        .)      CMP      r1,#0
        0x10002398:    d003        ..      BEQ      0x100023a2 ; EraseCodeB + 30
        0x1000239a:    2901        .)      CMP      r1,#1
        0x1000239c:    d003        ..      BEQ      0x100023a6 ; EraseCodeB + 34
        0x1000239e:    2000        .       MOVS     r0,#0
        0x100023a0:    e69c        ..      B        0x100020dc ; gap_s_smart_update_latency + 150
        0x100023a2:    3014        .0      ADDS     r0,r0,#0x14
        0x100023a4:    e000        ..      B        0x100023a8 ; EraseCodeB + 36
        0x100023a6:    3010        .0      ADDS     r0,r0,#0x10
        0x100023a8:    f000fa0c    ....    BL       __aeabi_uread4 ; 0x100027c4
        0x100023ac:    1980        ..      ADDS     r0,r0,r6
        0x100023ae:    b672        r.      CPSID    i
        0x100023b0:    1900        ..      ADDS     r0,r0,r4
        0x100023b2:    4a56        VJ      LDR      r2,[pc,#344] ; [0x1000250c] = 0x5443
        0x100023b4:    4629        )F      MOV      r1,r5
        0x100023b6:    4790        .G      BLX      r2
        0x100023b8:    b662        b.      CPSIE    i
        0x100023ba:    e68f        ..      B        0x100020dc ; gap_s_smart_update_latency + 150
    ReadCodeB
        0x100023bc:    b5f8        ..      PUSH     {r3-r7,lr}
        0x100023be:    4605        .F      MOV      r5,r0
        0x100023c0:    4851        QH      LDR      r0,[pc,#324] ; [0x10002508] = 0x20003108
        0x100023c2:    460f        .F      MOV      r7,r1
        0x100023c4:    7801        .x      LDRB     r1,[r0,#0]
        0x100023c6:    484c        LH      LDR      r0,[pc,#304] ; [0x100024f8] = 0x20003054
        0x100023c8:    2401        .$      MOVS     r4,#1
        0x100023ca:    03a4        ..      LSLS     r4,r4,#14
        0x100023cc:    6840        @h      LDR      r0,[r0,#4]
        0x100023ce:    4616        .F      MOV      r6,r2
        0x100023d0:    2900        .)      CMP      r1,#0
        0x100023d2:    d003        ..      BEQ      0x100023dc ; ReadCodeB + 32
        0x100023d4:    2901        .)      CMP      r1,#1
        0x100023d6:    d003        ..      BEQ      0x100023e0 ; ReadCodeB + 36
        0x100023d8:    2000        .       MOVS     r0,#0
        0x100023da:    e4c5        ..      B        0x10001d68 ; EraseFlashData + 36
        0x100023dc:    3014        .0      ADDS     r0,r0,#0x14
        0x100023de:    e000        ..      B        0x100023e2 ; ReadCodeB + 38
        0x100023e0:    3010        .0      ADDS     r0,r0,#0x10
        0x100023e2:    f000f9ef    ....    BL       __aeabi_uread4 ; 0x100027c4
        0x100023e6:    1900        ..      ADDS     r0,r0,r4
        0x100023e8:    b672        r.      CPSID    i
        0x100023ea:    1940        @.      ADDS     r0,r0,r5
        0x100023ec:    4b47        GK      LDR      r3,[pc,#284] ; [0x1000250c] = 0x5443
        0x100023ee:    4632        2F      MOV      r2,r6
        0x100023f0:    4639        9F      MOV      r1,r7
        0x100023f2:    3bea        .;      SUBS     r3,r3,#0xea
        0x100023f4:    4798        .G      BLX      r3
        0x100023f6:    b662        b.      CPSIE    i
        0x100023f8:    e4b6        ..      B        0x10001d68 ; EraseFlashData + 36
    WriteCodeB
        0x100023fa:    b5f8        ..      PUSH     {r3-r7,lr}
        0x100023fc:    4605        .F      MOV      r5,r0
        0x100023fe:    4842        BH      LDR      r0,[pc,#264] ; [0x10002508] = 0x20003108
        0x10002400:    460f        .F      MOV      r7,r1
        0x10002402:    7801        .x      LDRB     r1,[r0,#0]
        0x10002404:    483c        <H      LDR      r0,[pc,#240] ; [0x100024f8] = 0x20003054
        0x10002406:    2401        .$      MOVS     r4,#1
        0x10002408:    03a4        ..      LSLS     r4,r4,#14
        0x1000240a:    6840        @h      LDR      r0,[r0,#4]
        0x1000240c:    4616        .F      MOV      r6,r2
        0x1000240e:    2900        .)      CMP      r1,#0
        0x10002410:    d003        ..      BEQ      0x1000241a ; WriteCodeB + 32
        0x10002412:    2901        .)      CMP      r1,#1
        0x10002414:    d003        ..      BEQ      0x1000241e ; WriteCodeB + 36
        0x10002416:    2000        .       MOVS     r0,#0
        0x10002418:    e4a6        ..      B        0x10001d68 ; EraseFlashData + 36
        0x1000241a:    3014        .0      ADDS     r0,r0,#0x14
        0x1000241c:    e000        ..      B        0x10002420 ; WriteCodeB + 38
        0x1000241e:    3010        .0      ADDS     r0,r0,#0x10
        0x10002420:    f000f9d0    ....    BL       __aeabi_uread4 ; 0x100027c4
        0x10002424:    1900        ..      ADDS     r0,r0,r4
        0x10002426:    b672        r.      CPSID    i
        0x10002428:    1940        @.      ADDS     r0,r0,r5
        0x1000242a:    4b38        8K      LDR      r3,[pc,#224] ; [0x1000250c] = 0x5443
        0x1000242c:    4632        2F      MOV      r2,r6
        0x1000242e:    4639        9F      MOV      r1,r7
        0x10002430:    3b82        .;      SUBS     r3,r3,#0x82
        0x10002432:    4798        .G      BLX      r3
        0x10002434:    b662        b.      CPSIE    i
        0x10002436:    e497        ..      B        0x10001d68 ; EraseFlashData + 36
    ble_SetTxPower
        0x10002438:    b510        ..      PUSH     {r4,lr}
        0x1000243a:    0003        ..      MOVS     r3,r0
        0x1000243c:    f000fd8f    ....    BL       __ARM_common_switch8 ; 0x10002f5e
    $d
        0x10002440:    160c0609    ....    DCD    369886729
        0x10002444:    3e342a20     *4>    DCD    1043606048
        0x10002448:    00886c41    Al..    DCD    8940609
    $t
        0x1000244c:    2101        .!      MOVS     r1,#1
        0x1000244e:    207f        .       MOVS     r0,#0x7f
        0x10002450:    f7fefd10    ....    BL       BBRFWrite ; 0x10000e74
        0x10002454:    2188        .!      MOVS     r1,#0x88
        0x10002456:    e004        ..      B        0x10002462 ; ble_SetTxPower + 42
        0x10002458:    2101        .!      MOVS     r1,#1
        0x1000245a:    207f        .       MOVS     r0,#0x7f
        0x1000245c:    f7fefd0a    ....    BL       BBRFWrite ; 0x10000e74
        0x10002460:    218a        .!      MOVS     r1,#0x8a
        0x10002462:    2061        a       MOVS     r0,#0x61
        0x10002464:    f7fefd06    ....    BL       BBRFWrite ; 0x10000e74
        0x10002468:    2181        .!      MOVS     r1,#0x81
        0x1000246a:    e06e        n.      B        0x1000254a ; ble_SetTxPower + 274
        0x1000246c:    2101        .!      MOVS     r1,#1
        0x1000246e:    207f        .       MOVS     r0,#0x7f
        0x10002470:    f7fefd00    ....    BL       BBRFWrite ; 0x10000e74
        0x10002474:    218a        .!      MOVS     r1,#0x8a
        0x10002476:    2061        a       MOVS     r0,#0x61
        0x10002478:    f7fefcfc    ....    BL       BBRFWrite ; 0x10000e74
        0x1000247c:    2183        .!      MOVS     r1,#0x83
        0x1000247e:    e064        d.      B        0x1000254a ; ble_SetTxPower + 274
        0x10002480:    2101        .!      MOVS     r1,#1
        0x10002482:    207f        .       MOVS     r0,#0x7f
        0x10002484:    f7fefcf6    ....    BL       BBRFWrite ; 0x10000e74
        0x10002488:    218a        .!      MOVS     r1,#0x8a
        0x1000248a:    2061        a       MOVS     r0,#0x61
        0x1000248c:    f7fefcf2    ....    BL       BBRFWrite ; 0x10000e74
        0x10002490:    2187        .!      MOVS     r1,#0x87
        0x10002492:    e05a        Z.      B        0x1000254a ; ble_SetTxPower + 274
        0x10002494:    2101        .!      MOVS     r1,#1
        0x10002496:    207f        .       MOVS     r0,#0x7f
        0x10002498:    f7fefcec    ....    BL       BBRFWrite ; 0x10000e74
        0x1000249c:    218a        .!      MOVS     r1,#0x8a
        0x1000249e:    2061        a       MOVS     r0,#0x61
        0x100024a0:    f7fefce8    ....    BL       BBRFWrite ; 0x10000e74
        0x100024a4:    218f        .!      MOVS     r1,#0x8f
        0x100024a6:    e050        P.      B        0x1000254a ; ble_SetTxPower + 274
        0x100024a8:    2101        .!      MOVS     r1,#1
        0x100024aa:    207f        .       MOVS     r0,#0x7f
        0x100024ac:    f7fefce2    ....    BL       BBRFWrite ; 0x10000e74
        0x100024b0:    218a        .!      MOVS     r1,#0x8a
        0x100024b2:    2061        a       MOVS     r0,#0x61
        0x100024b4:    f7fefcde    ....    BL       BBRFWrite ; 0x10000e74
        0x100024b8:    219f        .!      MOVS     r1,#0x9f
        0x100024ba:    e046        F.      B        0x1000254a ; ble_SetTxPower + 274
        0x100024bc:    2101        .!      MOVS     r1,#1
        0x100024be:    207f        .       MOVS     r0,#0x7f
        0x100024c0:    e03c        <.      B        0x1000253c ; ble_SetTxPower + 260
        0x100024c2:    2100        .!      MOVS     r1,#0
        0x100024c4:    207f        .       MOVS     r0,#0x7f
        0x100024c6:    f7fefcd5    ....    BL       BBRFWrite ; 0x10000e74
        0x100024ca:    2102        .!      MOVS     r1,#2
        0x100024cc:    2030        0       MOVS     r0,#0x30
        0x100024ce:    f7fefcd1    ....    BL       BBRFWrite ; 0x10000e74
        0x100024d2:    2101        .!      MOVS     r1,#1
        0x100024d4:    207f        .       MOVS     r0,#0x7f
        0x100024d6:    f7fefccd    ....    BL       BBRFWrite ; 0x10000e74
        0x100024da:    211f        .!      MOVS     r1,#0x1f
        0x100024dc:    2063        c       MOVS     r0,#0x63
        0x100024de:    f7fefcc9    ....    BL       BBRFWrite ; 0x10000e74
        0x100024e2:    2103        .!      MOVS     r1,#3
        0x100024e4:    206d        m       MOVS     r0,#0x6d
        0x100024e6:    f7fefcc5    ....    BL       BBRFWrite ; 0x10000e74
        0x100024ea:    218a        .!      MOVS     r1,#0x8a
        0x100024ec:    2061        a       MOVS     r0,#0x61
        0x100024ee:    f7fefcc1    ....    BL       BBRFWrite ; 0x10000e74
        0x100024f2:    21b0        .!      MOVS     r1,#0xb0
        0x100024f4:    e029        ).      B        0x1000254a ; ble_SetTxPower + 274
    $d
        0x100024f6:    0000        ..      DCW    0
        0x100024f8:    20003054    T0.     DCD    536883284
        0x100024fc:    0000654d    Me..    DCD    25933
        0x10002500:    0000622b    +b..    DCD    25131
        0x10002504:    00006a77    wj..    DCD    27255
        0x10002508:    20003108    .1.     DCD    536883464
        0x1000250c:    00005443    CT..    DCD    21571
        0x10002510:    00003da1    .=..    DCD    15777
        0x10002514:    000060d9    .`..    DCD    24793
    $t
        0x10002518:    2100        .!      MOVS     r1,#0
        0x1000251a:    207f        .       MOVS     r0,#0x7f
        0x1000251c:    f7fefcaa    ....    BL       BBRFWrite ; 0x10000e74
        0x10002520:    2102        .!      MOVS     r1,#2
        0x10002522:    2030        0       MOVS     r0,#0x30
        0x10002524:    f7fefca6    ....    BL       BBRFWrite ; 0x10000e74
        0x10002528:    2101        .!      MOVS     r1,#1
        0x1000252a:    207f        .       MOVS     r0,#0x7f
        0x1000252c:    f7fefca2    ....    BL       BBRFWrite ; 0x10000e74
        0x10002530:    211f        .!      MOVS     r1,#0x1f
        0x10002532:    2063        c       MOVS     r0,#0x63
        0x10002534:    f7fefc9e    ....    BL       BBRFWrite ; 0x10000e74
        0x10002538:    2107        .!      MOVS     r1,#7
        0x1000253a:    206d        m       MOVS     r0,#0x6d
        0x1000253c:    f7fefc9a    ....    BL       BBRFWrite ; 0x10000e74
        0x10002540:    218a        .!      MOVS     r1,#0x8a
        0x10002542:    2061        a       MOVS     r0,#0x61
        0x10002544:    f7fefc96    ....    BL       BBRFWrite ; 0x10000e74
        0x10002548:    21bf        .!      MOVS     r1,#0xbf
        0x1000254a:    2065        e       MOVS     r0,#0x65
        0x1000254c:    f7fefc92    ....    BL       BBRFWrite ; 0x10000e74
        0x10002550:    e684        ..      B        0x1000225c ; gap_s_verdor_datas_get + 26
    flash_data_size_get
        0x10002552:    b510        ..      PUSH     {r4,lr}
        0x10002554:    4871        qH      LDR      r0,[pc,#452] ; [0x1000271c] = 0x20003054
        0x10002556:    6840        @h      LDR      r0,[r0,#4]
        0x10002558:    3028        (0      ADDS     r0,r0,#0x28
        0x1000255a:    f000f933    ..3.    BL       __aeabi_uread4 ; 0x100027c4
        0x1000255e:    2101        .!      MOVS     r1,#1
        0x10002560:    04c9        ..      LSLS     r1,r1,#19
        0x10002562:    1a08        ..      SUBS     r0,r1,r0
        0x10002564:    e67a        z.      B        0x1000225c ; gap_s_verdor_datas_get + 26
    code_idx_get
        0x10002566:    486e        nH      LDR      r0,[pc,#440] ; [0x10002720] = 0x20003108
        0x10002568:    7800        .x      LDRB     r0,[r0,#0]
        0x1000256a:    4770        pG      BX       lr
    flash_data_size_set
        0x1000256c:    b5f8        ..      PUSH     {r3-r7,lr}
        0x1000256e:    4605        .F      MOV      r5,r0
        0x10002570:    4e6a        jN      LDR      r6,[pc,#424] ; [0x1000271c] = 0x20003054
        0x10002572:    486b        kH      LDR      r0,[pc,#428] ; [0x10002720] = 0x20003108
        0x10002574:    6972        ri      LDR      r2,[r6,#0x14]
        0x10002576:    7800        .x      LDRB     r0,[r0,#0]
        0x10002578:    4614        .F      MOV      r4,r2
        0x1000257a:    2800        .(      CMP      r0,#0
        0x1000257c:    d001        ..      BEQ      0x10002582 ; flash_data_size_set + 22
        0x1000257e:    2000        .       MOVS     r0,#0
        0x10002580:    e406        ..      B        0x10001d90 ; EraseFlashData + 76
        0x10002582:    0528        (.      LSLS     r0,r5,#20
        0x10002584:    d002        ..      BEQ      0x1000258c ; flash_data_size_set + 32
        0x10002586:    0528        (.      LSLS     r0,r5,#20
        0x10002588:    0d00        ..      LSRS     r0,r0,#20
        0x1000258a:    1a2d        -.      SUBS     r5,r5,r0
        0x1000258c:    b672        r.      CPSID    i
        0x1000258e:    2101        .!      MOVS     r1,#1
        0x10002590:    0309        ..      LSLS     r1,r1,#12
        0x10002592:    4f64        dO      LDR      r7,[pc,#400] ; [0x10002724] = 0x5359
        0x10002594:    2000        .       MOVS     r0,#0
        0x10002596:    47b8        .G      BLX      r7
        0x10002598:    b662        b.      CPSIE    i
        0x1000259a:    2001        .       MOVS     r0,#1
        0x1000259c:    04c0        ..      LSLS     r0,r0,#19
        0x1000259e:    4621        !F      MOV      r1,r4
        0x100025a0:    1b40        @.      SUBS     r0,r0,r5
        0x100025a2:    3128        (1      ADDS     r1,r1,#0x28
        0x100025a4:    f000f918    ....    BL       __aeabi_uwrite4 ; 0x100027d8
        0x100025a8:    4605        .F      MOV      r5,r0
        0x100025aa:    4620         F      MOV      r0,r4
        0x100025ac:    3010        .0      ADDS     r0,r0,#0x10
        0x100025ae:    f000f909    ....    BL       __aeabi_uread4 ; 0x100027c4
        0x100025b2:    9000        ..      STR      r0,[sp,#0]
        0x100025b4:    1a28        (.      SUBS     r0,r5,r0
        0x100025b6:    0841        A.      LSRS     r1,r0,#1
        0x100025b8:    9800        ..      LDR      r0,[sp,#0]
        0x100025ba:    1808        ..      ADDS     r0,r1,r0
        0x100025bc:    4621        !F      MOV      r1,r4
        0x100025be:    3114        .1      ADDS     r1,r1,#0x14
        0x100025c0:    f000f90a    ....    BL       __aeabi_uwrite4 ; 0x100027d8
        0x100025c4:    4601        .F      MOV      r1,r0
        0x100025c6:    9800        ..      LDR      r0,[sp,#0]
        0x100025c8:    1a08        ..      SUBS     r0,r1,r0
        0x100025ca:    0100        ..      LSLS     r0,r0,#4
        0x100025cc:    0c00        ..      LSRS     r0,r0,#16
        0x100025ce:    73a0        .s      STRB     r0,[r4,#0xe]
        0x100025d0:    0a00        ..      LSRS     r0,r0,#8
        0x100025d2:    73e0        .s      STRB     r0,[r4,#0xf]
        0x100025d4:    b672        r.      CPSID    i
        0x100025d6:    2101        .!      MOVS     r1,#1
        0x100025d8:    4a52        RJ      LDR      r2,[pc,#328] ; [0x10002724] = 0x5359
        0x100025da:    2000        .       MOVS     r0,#0
        0x100025dc:    32ea        .2      ADDS     r2,r2,#0xea
        0x100025de:    4790        .G      BLX      r2
        0x100025e0:    b662        b.      CPSIE    i
        0x100025e2:    b672        r.      CPSID    i
        0x100025e4:    2101        .!      MOVS     r1,#1
        0x100025e6:    4b4f        OK      LDR      r3,[pc,#316] ; [0x10002724] = 0x5359
        0x100025e8:    0309        ..      LSLS     r1,r1,#12
        0x100025ea:    2000        .       MOVS     r0,#0
        0x100025ec:    3368        h3      ADDS     r3,r3,#0x68
        0x100025ee:    6972        ri      LDR      r2,[r6,#0x14]
        0x100025f0:    4798        .G      BLX      r3
        0x100025f2:    2131        1!      MOVS     r1,#0x31
        0x100025f4:    2000        .       MOVS     r0,#0
        0x100025f6:    6872        rh      LDR      r2,[r6,#4]
        0x100025f8:    47b8        .G      BLX      r7
        0x100025fa:    b662        b.      CPSIE    i
        0x100025fc:    2001        .       MOVS     r0,#1
        0x100025fe:    e474        t.      B        0x10001eea ; _FMCodeWrite + 56
    Get_RSSI_Last_RX
        0x10002600:    4846        FH      LDR      r0,[pc,#280] ; [0x1000271c] = 0x20003054
        0x10002602:    4b46        FK      LDR      r3,[pc,#280] ; [0x1000271c] = 0x20003054
        0x10002604:    78c0        .x      LDRB     r0,[r0,#3]
        0x10002606:    78db        .x      LDRB     r3,[r3,#3]
        0x10002608:    0902        ..      LSRS     r2,r0,#4
        0x1000260a:    071b        ..      LSLS     r3,r3,#28
        0x1000260c:    2009        .       MOVS     r0,#9
        0x1000260e:    0f1b        ..      LSRS     r3,r3,#28
        0x10002610:    1ac0        ..      SUBS     r0,r0,r3
        0x10002612:    2306        .#      MOVS     r3,#6
        0x10002614:    2100        .!      MOVS     r1,#0
        0x10002616:    4358        XC      MULS     r0,r3,r0
        0x10002618:    2a07        .*      CMP      r2,#7
        0x1000261a:    d008        ..      BEQ      0x1000262e ; Get_RSSI_Last_RX + 46
        0x1000261c:    2a03        .*      CMP      r2,#3
        0x1000261e:    d009        ..      BEQ      0x10002634 ; Get_RSSI_Last_RX + 52
        0x10002620:    2a02        .*      CMP      r2,#2
        0x10002622:    d00b        ..      BEQ      0x1000263c ; Get_RSSI_Last_RX + 60
        0x10002624:    2a01        .*      CMP      r2,#1
        0x10002626:    d00c        ..      BEQ      0x10002642 ; Get_RSSI_Last_RX + 66
        0x10002628:    2a00        .*      CMP      r2,#0
        0x1000262a:    d00d        ..      BEQ      0x10002648 ; Get_RSSI_Last_RX + 72
        0x1000262c:    e00f        ..      B        0x1000264e ; Get_RSSI_Last_RX + 78
        0x1000262e:    2141        A!      MOVS     r1,#0x41
        0x10002630:    43c9        .C      MVNS     r1,r1
        0x10002632:    e001        ..      B        0x10002638 ; Get_RSSI_Last_RX + 56
        0x10002634:    2135        5!      MOVS     r1,#0x35
        0x10002636:    43c9        .C      MVNS     r1,r1
        0x10002638:    1a08        ..      SUBS     r0,r1,r0
        0x1000263a:    e007        ..      B        0x1000264c ; Get_RSSI_Last_RX + 76
        0x1000263c:    2123        #!      MOVS     r1,#0x23
        0x1000263e:    43c9        .C      MVNS     r1,r1
        0x10002640:    e7fa        ..      B        0x10002638 ; Get_RSSI_Last_RX + 56
        0x10002642:    2117        .!      MOVS     r1,#0x17
        0x10002644:    43c9        .C      MVNS     r1,r1
        0x10002646:    e7f7        ..      B        0x10002638 ; Get_RSSI_Last_RX + 56
        0x10002648:    1d80        ..      ADDS     r0,r0,#6
        0x1000264a:    4240        @B      RSBS     r0,r0,#0
        0x1000264c:    b241        A.      SXTB     r1,r0
        0x1000264e:    b2c8        ..      UXTB     r0,r1
        0x10002650:    4770        pG      BX       lr
    WaitLLCOverSlpth
        0x10002652:    b510        ..      PUSH     {r4,lr}
        0x10002654:    f000f855    ..U.    BL       GetOverSlpth ; 0x10002702
        0x10002658:    2800        .(      CMP      r0,#0
        0x1000265a:    d004        ..      BEQ      0x10002666 ; WaitLLCOverSlpth + 20
        0x1000265c:    f000f851    ..Q.    BL       GetOverSlpth ; 0x10002702
        0x10002660:    2801        .(      CMP      r0,#1
        0x10002662:    d0fb        ..      BEQ      0x1000265c ; WaitLLCOverSlpth + 10
        0x10002664:    e5fa        ..      B        0x1000225c ; gap_s_verdor_datas_get + 26
        0x10002666:    f000f84c    ..L.    BL       GetOverSlpth ; 0x10002702
        0x1000266a:    2800        .(      CMP      r0,#0
        0x1000266c:    d0fb        ..      BEQ      0x10002666 ; WaitLLCOverSlpth + 20
        0x1000266e:    f000f848    ..H.    BL       GetOverSlpth ; 0x10002702
        0x10002672:    2801        .(      CMP      r0,#1
        0x10002674:    d0fb        ..      BEQ      0x1000266e ; WaitLLCOverSlpth + 28
        0x10002676:    e5f1        ..      B        0x1000225c ; gap_s_verdor_datas_get + 26
    _BBRXFIFORead
        0x10002678:    b5f0        ..      PUSH     {r4-r7,lr}
        0x1000267a:    4c28        (L      LDR      r4,[pc,#160] ; [0x1000271c] = 0x20003054
        0x1000267c:    2500        .%      MOVS     r5,#0
        0x1000267e:    6a24        $j      LDR      r4,[r4,#0x20]
        0x10002680:    78e6        .x      LDRB     r6,[r4,#3]
        0x10002682:    0736        6.      LSLS     r6,r6,#28
        0x10002684:    d501        ..      BPL      0x1000268a ; _BBRXFIFORead + 18
        0x10002686:    2000        .       MOVS     r0,#0
        0x10002688:    bdf0        ..      POP      {r4-r7,pc}
        0x1000268a:    bf00        ..      NOP      
        0x1000268c:    1c6d        m.      ADDS     r5,r5,#1
        0x1000268e:    b2ed        ..      UXTB     r5,r5
        0x10002690:    2d64        d-      CMP      r5,#0x64
        0x10002692:    d3fa        ..      BCC      0x1000268a ; _BBRXFIFORead + 18
        0x10002694:    4625        %F      MOV      r5,r4
        0x10002696:    3540        @5      ADDS     r5,r5,#0x40
        0x10002698:    7c6e        n|      LDRB     r6,[r5,#0x11]
        0x1000269a:    07b6        ..      LSLS     r6,r6,#30
        0x1000269c:    d4fc        ..      BMI      0x10002698 ; _BBRXFIFORead + 32
        0x1000269e:    2500        .%      MOVS     r5,#0
        0x100026a0:    4626        &F      MOV      r6,r4
        0x100026a2:    36c0        .6      ADDS     r6,r6,#0xc0
        0x100026a4:    7937        7y      LDRB     r7,[r6,#4]
        0x100026a6:    5547        GU      STRB     r7,[r0,r5]
        0x100026a8:    1c6d        m.      ADDS     r5,r5,#1
        0x100026aa:    b2ed        ..      UXTB     r5,r5
        0x100026ac:    2d02        .-      CMP      r5,#2
        0x100026ae:    d3f9        ..      BCC      0x100026a4 ; _BBRXFIFORead + 44
        0x100026b0:    7846        Fx      LDRB     r6,[r0,#1]
        0x100026b2:    2501        .%      MOVS     r5,#1
        0x100026b4:    09f7        ..      LSRS     r7,r6,#7
        0x100026b6:    2f00        ./      CMP      r7,#0
        0x100026b8:    d008        ..      BEQ      0x100026cc ; _BBRXFIFORead + 84
        0x100026ba:    06f6        ..      LSLS     r6,r6,#27
        0x100026bc:    0ef6        ..      LSRS     r6,r6,#27
        0x100026be:    700e        .p      STRB     r6,[r1,#0]
        0x100026c0:    7015        .p      STRB     r5,[r2,#0]
        0x100026c2:    7842        Bx      LDRB     r2,[r0,#1]
        0x100026c4:    0652        R.      LSLS     r2,r2,#25
        0x100026c6:    0fd2        ..      LSRS     r2,r2,#31
        0x100026c8:    701a        .p      STRB     r2,[r3,#0]
        0x100026ca:    e004        ..      B        0x100026d6 ; _BBRXFIFORead + 94
        0x100026cc:    06b3        ..      LSLS     r3,r6,#26
        0x100026ce:    0e9b        ..      LSRS     r3,r3,#26
        0x100026d0:    700b        .p      STRB     r3,[r1,#0]
        0x100026d2:    2300        .#      MOVS     r3,#0
        0x100026d4:    7013        .p      STRB     r3,[r2,#0]
        0x100026d6:    4b11        .K      LDR      r3,[pc,#68] ; [0x1000271c] = 0x20003054
        0x100026d8:    780a        .x      LDRB     r2,[r1,#0]
        0x100026da:    6a1b        .j      LDR      r3,[r3,#0x20]
        0x100026dc:    1c80        ..      ADDS     r0,r0,#2
        0x100026de:    33c0        .3      ADDS     r3,r3,#0xc0
        0x100026e0:    2a27        '*      CMP      r2,#0x27
        0x100026e2:    d20c        ..      BCS      0x100026fe ; _BBRXFIFORead + 134
        0x100026e4:    2200        ."      MOVS     r2,#0
        0x100026e6:    34c0        .4      ADDS     r4,r4,#0xc0
        0x100026e8:    e003        ..      B        0x100026f2 ; _BBRXFIFORead + 122
        0x100026ea:    7926        &y      LDRB     r6,[r4,#4]
        0x100026ec:    5486        .T      STRB     r6,[r0,r2]
        0x100026ee:    1c52        R.      ADDS     r2,r2,#1
        0x100026f0:    b2d2        ..      UXTB     r2,r2
        0x100026f2:    780e        .x      LDRB     r6,[r1,#0]
        0x100026f4:    4296        .B      CMP      r6,r2
        0x100026f6:    d8f8        ..      BHI      0x100026ea ; _BBRXFIFORead + 114
        0x100026f8:    725d        ]r      STRB     r5,[r3,#9]
        0x100026fa:    2001        .       MOVS     r0,#1
        0x100026fc:    bdf0        ..      POP      {r4-r7,pc}
        0x100026fe:    725d        ]r      STRB     r5,[r3,#9]
        0x10002700:    e7c1        ..      B        0x10002686 ; _BBRXFIFORead + 14
    GetOverSlpth
        0x10002702:    4806        .H      LDR      r0,[pc,#24] ; [0x1000271c] = 0x20003054
        0x10002704:    6a01        .j      LDR      r1,[r0,#0x20]
        0x10002706:    460a        .F      MOV      r2,r1
        0x10002708:    3260        `2      ADDS     r2,r2,#0x60
        0x1000270a:    7c90        .|      LDRB     r0,[r2,#0x12]
        0x1000270c:    7c92        .|      LDRB     r2,[r2,#0x12]
        0x1000270e:    3160        `1      ADDS     r1,r1,#0x60
        0x10002710:    e001        ..      B        0x10002716 ; GetOverSlpth + 20
        0x10002712:    7c88        .|      LDRB     r0,[r1,#0x12]
        0x10002714:    7c8a        .|      LDRB     r2,[r1,#0x12]
        0x10002716:    4290        .B      CMP      r0,r2
        0x10002718:    d1fb        ..      BNE      0x10002712 ; GetOverSlpth + 16
        0x1000271a:    4770        pG      BX       lr
    $d
        0x1000271c:    20003054    T0.     DCD    536883284
        0x10002720:    20003108    .1.     DCD    536883464
        0x10002724:    00005359    YS..    DCD    21337
    $t
    .text
    __aeabi_uidiv
    __aeabi_uidivmod
        0x10002728:    b530        0.      PUSH     {r4,r5,lr}
        0x1000272a:    460b        .F      MOV      r3,r1
        0x1000272c:    4601        .F      MOV      r1,r0
        0x1000272e:    2000        .       MOVS     r0,#0
        0x10002730:    2220         "      MOVS     r2,#0x20
        0x10002732:    2401        .$      MOVS     r4,#1
        0x10002734:    e009        ..      B        0x1000274a ; __aeabi_uidiv + 34
        0x10002736:    460d        .F      MOV      r5,r1
        0x10002738:    40d5        .@      LSRS     r5,r5,r2
        0x1000273a:    429d        .B      CMP      r5,r3
        0x1000273c:    d305        ..      BCC      0x1000274a ; __aeabi_uidiv + 34
        0x1000273e:    461d        .F      MOV      r5,r3
        0x10002740:    4095        .@      LSLS     r5,r5,r2
        0x10002742:    1b49        I.      SUBS     r1,r1,r5
        0x10002744:    4625        %F      MOV      r5,r4
        0x10002746:    4095        .@      LSLS     r5,r5,r2
        0x10002748:    1940        @.      ADDS     r0,r0,r5
        0x1000274a:    4615        .F      MOV      r5,r2
        0x1000274c:    1e52        R.      SUBS     r2,r2,#1
        0x1000274e:    2d00        .-      CMP      r5,#0
        0x10002750:    dcf1        ..      BGT      0x10002736 ; __aeabi_uidiv + 14
        0x10002752:    bd30        0.      POP      {r4,r5,pc}
    .text
    __aeabi_idiv
    __aeabi_idivmod
        0x10002754:    b570        p.      PUSH     {r4-r6,lr}
        0x10002756:    2400        .$      MOVS     r4,#0
        0x10002758:    4625        %F      MOV      r5,r4
        0x1000275a:    2800        .(      CMP      r0,#0
        0x1000275c:    da01        ..      BGE      0x10002762 ; __aeabi_idiv + 14
        0x1000275e:    2401        .$      MOVS     r4,#1
        0x10002760:    4240        @B      RSBS     r0,r0,#0
        0x10002762:    2900        .)      CMP      r1,#0
        0x10002764:    da01        ..      BGE      0x1000276a ; __aeabi_idiv + 22
        0x10002766:    2501        .%      MOVS     r5,#1
        0x10002768:    4249        IB      RSBS     r1,r1,#0
        0x1000276a:    f7ffffdd    ....    BL       __aeabi_uidiv ; 0x10002728
        0x1000276e:    42ac        .B      CMP      r4,r5
        0x10002770:    d000        ..      BEQ      0x10002774 ; __aeabi_idiv + 32
        0x10002772:    4240        @B      RSBS     r0,r0,#0
        0x10002774:    2c00        .,      CMP      r4,#0
        0x10002776:    d000        ..      BEQ      0x1000277a ; __aeabi_idiv + 38
        0x10002778:    4249        IB      RSBS     r1,r1,#0
        0x1000277a:    bd70        p.      POP      {r4-r6,pc}
    .text
    __aeabi_memcpy
    __aeabi_memcpy4
    __aeabi_memcpy8
        0x1000277c:    4603        .F      MOV      r3,r0
        0x1000277e:    430b        .C      ORRS     r3,r3,r1
        0x10002780:    079b        ..      LSLS     r3,r3,#30
        0x10002782:    d003        ..      BEQ      0x1000278c ; __aeabi_memcpy + 16
        0x10002784:    e009        ..      B        0x1000279a ; __aeabi_memcpy + 30
        0x10002786:    c908        ..      LDM      r1!,{r3}
        0x10002788:    1f12        ..      SUBS     r2,r2,#4
        0x1000278a:    c008        ..      STM      r0!,{r3}
        0x1000278c:    2a04        .*      CMP      r2,#4
        0x1000278e:    d2fa        ..      BCS      0x10002786 ; __aeabi_memcpy + 10
        0x10002790:    e003        ..      B        0x1000279a ; __aeabi_memcpy + 30
        0x10002792:    780b        .x      LDRB     r3,[r1,#0]
        0x10002794:    7003        .p      STRB     r3,[r0,#0]
        0x10002796:    1c40        @.      ADDS     r0,r0,#1
        0x10002798:    1c49        I.      ADDS     r1,r1,#1
        0x1000279a:    1e52        R.      SUBS     r2,r2,#1
        0x1000279c:    d2f9        ..      BCS      0x10002792 ; __aeabi_memcpy + 22
        0x1000279e:    4770        pG      BX       lr
    .text
    __aeabi_memset
    __aeabi_memset4
    __aeabi_memset8
        0x100027a0:    b2d2        ..      UXTB     r2,r2
        0x100027a2:    e001        ..      B        0x100027a8 ; __aeabi_memset + 8
        0x100027a4:    7002        .p      STRB     r2,[r0,#0]
        0x100027a6:    1c40        @.      ADDS     r0,r0,#1
        0x100027a8:    1e49        I.      SUBS     r1,r1,#1
        0x100027aa:    d2fb        ..      BCS      0x100027a4 ; __aeabi_memset + 4
        0x100027ac:    4770        pG      BX       lr
    __aeabi_memclr
    __aeabi_memclr4
    __aeabi_memclr8
        0x100027ae:    2200        ."      MOVS     r2,#0
        0x100027b0:    e7f6        ..      B        __aeabi_memset ; 0x100027a0
    _memset$wrapper
        0x100027b2:    b510        ..      PUSH     {r4,lr}
        0x100027b4:    4613        .F      MOV      r3,r2
        0x100027b6:    460a        .F      MOV      r2,r1
        0x100027b8:    4604        .F      MOV      r4,r0
        0x100027ba:    4619        .F      MOV      r1,r3
        0x100027bc:    f7fffff0    ....    BL       __aeabi_memset ; 0x100027a0
        0x100027c0:    4620         F      MOV      r0,r4
        0x100027c2:    bd10        ..      POP      {r4,pc}
    .text
    __aeabi_uread4
    __rt_uread4
    _uread4
        0x100027c4:    2103        .!      MOVS     r1,#3
        0x100027c6:    1d00        ..      ADDS     r0,r0,#4
        0x100027c8:    1e40        @.      SUBS     r0,r0,#1
        0x100027ca:    7803        .x      LDRB     r3,[r0,#0]
        0x100027cc:    0212        ..      LSLS     r2,r2,#8
        0x100027ce:    431a        .C      ORRS     r2,r2,r3
        0x100027d0:    1e49        I.      SUBS     r1,r1,#1
        0x100027d2:    d5f9        ..      BPL      0x100027c8 ; __aeabi_uread4 + 4
        0x100027d4:    4610        .F      MOV      r0,r2
        0x100027d6:    4770        pG      BX       lr
    .text
    __aeabi_uwrite4
    __rt_uwrite4
    _uwrite4
        0x100027d8:    4603        .F      MOV      r3,r0
        0x100027da:    2203        ."      MOVS     r2,#3
        0x100027dc:    7008        .p      STRB     r0,[r1,#0]
        0x100027de:    0a00        ..      LSRS     r0,r0,#8
        0x100027e0:    1c49        I.      ADDS     r1,r1,#1
        0x100027e2:    1e52        R.      SUBS     r2,r2,#1
        0x100027e4:    d5fa        ..      BPL      0x100027dc ; __aeabi_uwrite4 + 4
        0x100027e6:    4618        .F      MOV      r0,r3
        0x100027e8:    4770        pG      BX       lr
    .text
    __aeabi_fadd
        0x100027ea:    b5f8        ..      PUSH     {r3-r7,lr}
        0x100027ec:    4602        .F      MOV      r2,r0
        0x100027ee:    404a        J@      EORS     r2,r2,r1
        0x100027f0:    0fd4        ..      LSRS     r4,r2,#31
        0x100027f2:    0042        B.      LSLS     r2,r0,#1
        0x100027f4:    004b        K.      LSLS     r3,r1,#1
        0x100027f6:    0852        R.      LSRS     r2,r2,#1
        0x100027f8:    085b        [.      LSRS     r3,r3,#1
        0x100027fa:    429a        .B      CMP      r2,r3
        0x100027fc:    d202        ..      BCS      0x10002804 ; __aeabi_fadd + 26
        0x100027fe:    4602        .F      MOV      r2,r0
        0x10002800:    4608        .F      MOV      r0,r1
        0x10002802:    4611        .F      MOV      r1,r2
        0x10002804:    004a        J.      LSLS     r2,r1,#1
        0x10002806:    d023        #.      BEQ      0x10002850 ; __aeabi_fadd + 102
        0x10002808:    0dc3        ..      LSRS     r3,r0,#23
        0x1000280a:    004a        J.      LSLS     r2,r1,#1
        0x1000280c:    b2dd        ..      UXTB     r5,r3
        0x1000280e:    0e12        ..      LSRS     r2,r2,#24
        0x10002810:    1aad        ..      SUBS     r5,r5,r2
        0x10002812:    2d20         -      CMP      r5,#0x20
        0x10002814:    da35        5.      BGE      0x10002882 ; __aeabi_fadd + 152
        0x10002816:    0249        I.      LSLS     r1,r1,#9
        0x10002818:    2601        .&      MOVS     r6,#1
        0x1000281a:    0a49        I.      LSRS     r1,r1,#9
        0x1000281c:    05f6        ..      LSLS     r6,r6,#23
        0x1000281e:    198a        ..      ADDS     r2,r1,r6
        0x10002820:    2c00        .,      CMP      r4,#0
        0x10002822:    d000        ..      BEQ      0x10002826 ; __aeabi_fadd + 60
        0x10002824:    4252        RB      RSBS     r2,r2,#0
        0x10002826:    2120         !      MOVS     r1,#0x20
        0x10002828:    1b4f        O.      SUBS     r7,r1,r5
        0x1000282a:    4611        .F      MOV      r1,r2
        0x1000282c:    40b9        .@      LSLS     r1,r1,r7
        0x1000282e:    412a        *A      ASRS     r2,r2,r5
        0x10002830:    1810        ..      ADDS     r0,r2,r0
        0x10002832:    0dc2        ..      LSRS     r2,r0,#23
        0x10002834:    429a        .B      CMP      r2,r3
        0x10002836:    d021        !.      BEQ      0x1000287c ; __aeabi_fadd + 146
        0x10002838:    2c00        .,      CMP      r4,#0
        0x1000283a:    d017        ..      BEQ      0x1000286c ; __aeabi_fadd + 130
        0x1000283c:    2d01        .-      CMP      r5,#1
        0x1000283e:    dc08        ..      BGT      0x10002852 ; __aeabi_fadd + 104
        0x10002840:    05da        ..      LSLS     r2,r3,#23
        0x10002842:    1a80        ..      SUBS     r0,r0,r2
        0x10002844:    0fd2        ..      LSRS     r2,r2,#31
        0x10002846:    1980        ..      ADDS     r0,r0,r6
        0x10002848:    07d2        ..      LSLS     r2,r2,#31
        0x1000284a:    b2db        ..      UXTB     r3,r3
        0x1000284c:    f000fa80    ....    BL       _float_epilogue ; 0x10002d50
        0x10002850:    bdf8        ..      POP      {r3-r7,pc}
        0x10002852:    05da        ..      LSLS     r2,r3,#23
        0x10002854:    1a80        ..      SUBS     r0,r0,r2
        0x10002856:    2301        .#      MOVS     r3,#1
        0x10002858:    0040        @.      LSLS     r0,r0,#1
        0x1000285a:    061b        ..      LSLS     r3,r3,#24
        0x1000285c:    18c0        ..      ADDS     r0,r0,r3
        0x1000285e:    1880        ..      ADDS     r0,r0,r2
        0x10002860:    425a        ZB      RSBS     r2,r3,#0
        0x10002862:    1880        ..      ADDS     r0,r0,r2
        0x10002864:    0fca        ..      LSRS     r2,r1,#31
        0x10002866:    4310        .C      ORRS     r0,r0,r2
        0x10002868:    0049        I.      LSLS     r1,r1,#1
        0x1000286a:    e007        ..      B        0x1000287c ; __aeabi_fadd + 146
        0x1000286c:    0849        I.      LSRS     r1,r1,#1
        0x1000286e:    07c2        ..      LSLS     r2,r0,#31
        0x10002870:    4311        .C      ORRS     r1,r1,r2
        0x10002872:    05da        ..      LSLS     r2,r3,#23
        0x10002874:    1a80        ..      SUBS     r0,r0,r2
        0x10002876:    1980        ..      ADDS     r0,r0,r6
        0x10002878:    0840        @.      LSRS     r0,r0,#1
        0x1000287a:    1880        ..      ADDS     r0,r0,r2
        0x1000287c:    f000fa60    ..`.    BL       __I$use$fp ; 0x10002d40
        0x10002880:    bdf8        ..      POP      {r3-r7,pc}
        0x10002882:    0061        a.      LSLS     r1,r4,#1
        0x10002884:    2201        ."      MOVS     r2,#1
        0x10002886:    1a51        Q.      SUBS     r1,r2,r1
        0x10002888:    1b00        ..      SUBS     r0,r0,r4
        0x1000288a:    e7f7        ..      B        0x1000287c ; __aeabi_fadd + 146
    __aeabi_fsub
        0x1000288c:    2201        ."      MOVS     r2,#1
        0x1000288e:    07d2        ..      LSLS     r2,r2,#31
        0x10002890:    4051        Q@      EORS     r1,r1,r2
        0x10002892:    e7aa        ..      B        __aeabi_fadd ; 0x100027ea
    __aeabi_frsub
        0x10002894:    2201        ."      MOVS     r2,#1
        0x10002896:    07d2        ..      LSLS     r2,r2,#31
        0x10002898:    4050        P@      EORS     r0,r0,r2
        0x1000289a:    e7a6        ..      B        __aeabi_fadd ; 0x100027ea
    .text
    __aeabi_dadd
        0x1000289c:    b5f0        ..      PUSH     {r4-r7,lr}
        0x1000289e:    4607        .F      MOV      r7,r0
        0x100028a0:    4608        .F      MOV      r0,r1
        0x100028a2:    4058        X@      EORS     r0,r0,r3
        0x100028a4:    b087        ..      SUB      sp,sp,#0x1c
        0x100028a6:    0fc0        ..      LSRS     r0,r0,#31
        0x100028a8:    9004        ..      STR      r0,[sp,#0x10]
        0x100028aa:    0048        H.      LSLS     r0,r1,#1
        0x100028ac:    460e        .F      MOV      r6,r1
        0x100028ae:    0059        Y.      LSLS     r1,r3,#1
        0x100028b0:    0840        @.      LSRS     r0,r0,#1
        0x100028b2:    0849        I.      LSRS     r1,r1,#1
        0x100028b4:    1abc        ..      SUBS     r4,r7,r2
        0x100028b6:    4188        .A      SBCS     r0,r0,r1
        0x100028b8:    d205        ..      BCS      0x100028c6 ; __aeabi_dadd + 42
        0x100028ba:    4638        8F      MOV      r0,r7
        0x100028bc:    4631        1F      MOV      r1,r6
        0x100028be:    461e        .F      MOV      r6,r3
        0x100028c0:    4617        .F      MOV      r7,r2
        0x100028c2:    460b        .F      MOV      r3,r1
        0x100028c4:    4602        .F      MOV      r2,r0
        0x100028c6:    0058        X.      LSLS     r0,r3,#1
        0x100028c8:    0840        @.      LSRS     r0,r0,#1
        0x100028ca:    4310        .C      ORRS     r0,r0,r2
        0x100028cc:    d04c        L.      BEQ      0x10002968 ; __aeabi_dadd + 204
        0x100028ce:    0d30        0.      LSRS     r0,r6,#20
        0x100028d0:    9003        ..      STR      r0,[sp,#0xc]
        0x100028d2:    0540        @.      LSLS     r0,r0,#21
        0x100028d4:    0059        Y.      LSLS     r1,r3,#1
        0x100028d6:    0d40        @.      LSRS     r0,r0,#21
        0x100028d8:    0d49        I.      LSRS     r1,r1,#21
        0x100028da:    9005        ..      STR      r0,[sp,#0x14]
        0x100028dc:    1a40        @.      SUBS     r0,r0,r1
        0x100028de:    9002        ..      STR      r0,[sp,#8]
        0x100028e0:    2840        @(      CMP      r0,#0x40
        0x100028e2:    da72        r.      BGE      0x100029ca ; __aeabi_dadd + 302
        0x100028e4:    0318        ..      LSLS     r0,r3,#12
        0x100028e6:    2101        .!      MOVS     r1,#1
        0x100028e8:    0b00        ..      LSRS     r0,r0,#12
        0x100028ea:    0509        ..      LSLS     r1,r1,#20
        0x100028ec:    4308        .C      ORRS     r0,r0,r1
        0x100028ee:    9001        ..      STR      r0,[sp,#4]
        0x100028f0:    9804        ..      LDR      r0,[sp,#0x10]
        0x100028f2:    9200        ..      STR      r2,[sp,#0]
        0x100028f4:    2800        .(      CMP      r0,#0
        0x100028f6:    d005        ..      BEQ      0x10002904 ; __aeabi_dadd + 104
        0x100028f8:    9901        ..      LDR      r1,[sp,#4]
        0x100028fa:    4252        RB      RSBS     r2,r2,#0
        0x100028fc:    2000        .       MOVS     r0,#0
        0x100028fe:    4188        .A      SBCS     r0,r0,r1
        0x10002900:    9200        ..      STR      r2,[sp,#0]
        0x10002902:    9001        ..      STR      r0,[sp,#4]
        0x10002904:    9802        ..      LDR      r0,[sp,#8]
        0x10002906:    2140        @!      MOVS     r1,#0x40
        0x10002908:    1a0a        ..      SUBS     r2,r1,r0
        0x1000290a:    9901        ..      LDR      r1,[sp,#4]
        0x1000290c:    9800        ..      LDR      r0,[sp,#0]
        0x1000290e:    f000f9e3    ....    BL       __aeabi_llsl ; 0x10002cd8
        0x10002912:    4605        .F      MOV      r5,r0
        0x10002914:    460c        .F      MOV      r4,r1
        0x10002916:    466b        kF      MOV      r3,sp
        0x10002918:    cb07        ..      LDM      r3!,{r0-r2}
        0x1000291a:    f000f9fe    ....    BL       __aeabi_lasr ; 0x10002d1a
        0x1000291e:    19c0        ..      ADDS     r0,r0,r7
        0x10002920:    4171        qA      ADCS     r1,r1,r6
        0x10002922:    9a03        ..      LDR      r2,[sp,#0xc]
        0x10002924:    0d0e        ..      LSRS     r6,r1,#20
        0x10002926:    2300        .#      MOVS     r3,#0
        0x10002928:    17d7        ..      ASRS     r7,r2,#31
        0x1000292a:    4056        V@      EORS     r6,r6,r2
        0x1000292c:    461a        .F      MOV      r2,r3
        0x1000292e:    407a        z@      EORS     r2,r2,r7
        0x10002930:    4316        .C      ORRS     r6,r6,r2
        0x10002932:    d044        D.      BEQ      0x100029be ; __aeabi_dadd + 290
        0x10002934:    9a04        ..      LDR      r2,[sp,#0x10]
        0x10002936:    2a00        .*      CMP      r2,#0
        0x10002938:    d02d        -.      BEQ      0x10002996 ; __aeabi_dadd + 250
        0x1000293a:    9a02        ..      LDR      r2,[sp,#8]
        0x1000293c:    2a01        .*      CMP      r2,#1
        0x1000293e:    9a03        ..      LDR      r2,[sp,#0xc]
        0x10002940:    dc15        ..      BGT      0x1000296e ; __aeabi_dadd + 210
        0x10002942:    0512        ..      LSLS     r2,r2,#20
        0x10002944:    1ac0        ..      SUBS     r0,r0,r3
        0x10002946:    4191        .A      SBCS     r1,r1,r2
        0x10002948:    2601        .&      MOVS     r6,#1
        0x1000294a:    0536        6.      LSLS     r6,r6,#20
        0x1000294c:    1c00        ..      ADDS     r0,r0,#0
        0x1000294e:    4171        qA      ADCS     r1,r1,r6
        0x10002950:    0fd2        ..      LSRS     r2,r2,#31
        0x10002952:    9e05        ..      LDR      r6,[sp,#0x14]
        0x10002954:    07d2        ..      LSLS     r2,r2,#31
        0x10002956:    9300        ..      STR      r3,[sp,#0]
        0x10002958:    9201        ..      STR      r2,[sp,#4]
        0x1000295a:    9602        ..      STR      r6,[sp,#8]
        0x1000295c:    462a        *F      MOV      r2,r5
        0x1000295e:    4623        #F      MOV      r3,r4
        0x10002960:    f000fa3c    ..<.    BL       _double_epilogue ; 0x10002ddc
        0x10002964:    b007        ..      ADD      sp,sp,#0x1c
        0x10002966:    bdf0        ..      POP      {r4-r7,pc}
        0x10002968:    4638        8F      MOV      r0,r7
        0x1000296a:    4631        1F      MOV      r1,r6
        0x1000296c:    e7fa        ..      B        0x10002964 ; __aeabi_dadd + 200
        0x1000296e:    0516        ..      LSLS     r6,r2,#20
        0x10002970:    4a22        "J      LDR      r2,[pc,#136] ; [0x100029fc] = 0xffe00000
        0x10002972:    460f        .F      MOV      r7,r1
        0x10002974:    18b2        ..      ADDS     r2,r6,r2
        0x10002976:    1ac0        ..      SUBS     r0,r0,r3
        0x10002978:    41b7        .A      SBCS     r7,r7,r6
        0x1000297a:    2101        .!      MOVS     r1,#1
        0x1000297c:    0509        ..      LSLS     r1,r1,#20
        0x1000297e:    1c00        ..      ADDS     r0,r0,#0
        0x10002980:    414f        OA      ADCS     r7,r7,r1
        0x10002982:    1800        ..      ADDS     r0,r0,r0
        0x10002984:    417f        .A      ADCS     r7,r7,r7
        0x10002986:    4611        .F      MOV      r1,r2
        0x10002988:    1818        ..      ADDS     r0,r3,r0
        0x1000298a:    4179        yA      ADCS     r1,r1,r7
        0x1000298c:    0fe2        ..      LSRS     r2,r4,#31
        0x1000298e:    4310        .C      ORRS     r0,r0,r2
        0x10002990:    196d        m.      ADDS     r5,r5,r5
        0x10002992:    4164        dA      ADCS     r4,r4,r4
        0x10002994:    e013        ..      B        0x100029be ; __aeabi_dadd + 290
        0x10002996:    07e2        ..      LSLS     r2,r4,#31
        0x10002998:    086d        m.      LSRS     r5,r5,#1
        0x1000299a:    4315        .C      ORRS     r5,r5,r2
        0x1000299c:    0864        d.      LSRS     r4,r4,#1
        0x1000299e:    07c2        ..      LSLS     r2,r0,#31
        0x100029a0:    4314        .C      ORRS     r4,r4,r2
        0x100029a2:    9a03        ..      LDR      r2,[sp,#0xc]
        0x100029a4:    2601        .&      MOVS     r6,#1
        0x100029a6:    0512        ..      LSLS     r2,r2,#20
        0x100029a8:    1ac0        ..      SUBS     r0,r0,r3
        0x100029aa:    4191        .A      SBCS     r1,r1,r2
        0x100029ac:    0536        6.      LSLS     r6,r6,#20
        0x100029ae:    1c00        ..      ADDS     r0,r0,#0
        0x100029b0:    4171        qA      ADCS     r1,r1,r6
        0x100029b2:    07ce        ..      LSLS     r6,r1,#31
        0x100029b4:    0840        @.      LSRS     r0,r0,#1
        0x100029b6:    4330        0C      ORRS     r0,r0,r6
        0x100029b8:    0849        I.      LSRS     r1,r1,#1
        0x100029ba:    18c0        ..      ADDS     r0,r0,r3
        0x100029bc:    4151        QA      ADCS     r1,r1,r2
        0x100029be:    462a        *F      MOV      r2,r5
        0x100029c0:    4623        #F      MOV      r3,r4
        0x100029c2:    f000f9fe    ....    BL       _double_round ; 0x10002dc2
        0x100029c6:    e7cd        ..      B        0x10002964 ; __aeabi_dadd + 200
        0x100029c8:    e7ff        ..      B        0x100029ca ; __aeabi_dadd + 302
        0x100029ca:    9804        ..      LDR      r0,[sp,#0x10]
        0x100029cc:    2201        ."      MOVS     r2,#1
        0x100029ce:    0040        @.      LSLS     r0,r0,#1
        0x100029d0:    17c1        ..      ASRS     r1,r0,#31
        0x100029d2:    1a12        ..      SUBS     r2,r2,r0
        0x100029d4:    2300        .#      MOVS     r3,#0
        0x100029d6:    418b        .A      SBCS     r3,r3,r1
        0x100029d8:    9804        ..      LDR      r0,[sp,#0x10]
        0x100029da:    4631        1F      MOV      r1,r6
        0x100029dc:    17c4        ..      ASRS     r4,r0,#31
        0x100029de:    1a38        8.      SUBS     r0,r7,r0
        0x100029e0:    41a1        .A      SBCS     r1,r1,r4
        0x100029e2:    e7ee        ..      B        0x100029c2 ; __aeabi_dadd + 294
    __aeabi_dsub
        0x100029e4:    b430        0.      PUSH     {r4,r5}
        0x100029e6:    2401        .$      MOVS     r4,#1
        0x100029e8:    07e4        ..      LSLS     r4,r4,#31
        0x100029ea:    4063        c@      EORS     r3,r3,r4
        0x100029ec:    bc30        0.      POP      {r4,r5}
        0x100029ee:    e755        U.      B        __aeabi_dadd ; 0x1000289c
    __aeabi_drsub
        0x100029f0:    b430        0.      PUSH     {r4,r5}
        0x100029f2:    2401        .$      MOVS     r4,#1
        0x100029f4:    07e4        ..      LSLS     r4,r4,#31
        0x100029f6:    4061        a@      EORS     r1,r1,r4
        0x100029f8:    bc30        0.      POP      {r4,r5}
        0x100029fa:    e74f        O.      B        __aeabi_dadd ; 0x1000289c
    $d
        0x100029fc:    ffe00000    ....    DCD    4292870144
    $t
    .text
    __aeabi_dmul
        0x10002a00:    b5f0        ..      PUSH     {r4-r7,lr}
        0x10002a02:    b41f        ..      PUSH     {r0-r4}
        0x10002a04:    b088        ..      SUB      sp,sp,#0x20
        0x10002a06:    990b        ..      LDR      r1,[sp,#0x2c]
        0x10002a08:    9809        ..      LDR      r0,[sp,#0x24]
        0x10002a0a:    2400        .$      MOVS     r4,#0
        0x10002a0c:    4048        H@      EORS     r0,r0,r1
        0x10002a0e:    9909        ..      LDR      r1,[sp,#0x24]
        0x10002a10:    0fc0        ..      LSRS     r0,r0,#31
        0x10002a12:    0049        I.      LSLS     r1,r1,#1
        0x10002a14:    0849        I.      LSRS     r1,r1,#1
        0x10002a16:    9109        ..      STR      r1,[sp,#0x24]
        0x10002a18:    07c0        ..      LSLS     r0,r0,#31
        0x10002a1a:    990b        ..      LDR      r1,[sp,#0x2c]
        0x10002a1c:    9000        ..      STR      r0,[sp,#0]
        0x10002a1e:    0049        I.      LSLS     r1,r1,#1
        0x10002a20:    0849        I.      LSRS     r1,r1,#1
        0x10002a22:    910b        ..      STR      r1,[sp,#0x2c]
        0x10002a24:    9909        ..      LDR      r1,[sp,#0x24]
        0x10002a26:    9808        ..      LDR      r0,[sp,#0x20]
        0x10002a28:    46a6        .F      MOV      lr,r4
        0x10002a2a:    4308        .C      ORRS     r0,r0,r1
        0x10002a2c:    d01c        ..      BEQ      0x10002a68 ; __aeabi_dmul + 104
        0x10002a2e:    990b        ..      LDR      r1,[sp,#0x2c]
        0x10002a30:    980a        ..      LDR      r0,[sp,#0x28]
        0x10002a32:    4308        .C      ORRS     r0,r0,r1
        0x10002a34:    d018        ..      BEQ      0x10002a68 ; __aeabi_dmul + 104
        0x10002a36:    9809        ..      LDR      r0,[sp,#0x24]
        0x10002a38:    2401        .$      MOVS     r4,#1
        0x10002a3a:    0040        @.      LSLS     r0,r0,#1
        0x10002a3c:    0d42        B.      LSRS     r2,r0,#21
        0x10002a3e:    0048        H.      LSLS     r0,r1,#1
        0x10002a40:    0d41        A.      LSRS     r1,r0,#21
        0x10002a42:    9809        ..      LDR      r0,[sp,#0x24]
        0x10002a44:    0524        $.      LSLS     r4,r4,#20
        0x10002a46:    0300        ..      LSLS     r0,r0,#12
        0x10002a48:    0b00        ..      LSRS     r0,r0,#12
        0x10002a4a:    4320         C      ORRS     r0,r0,r4
        0x10002a4c:    9009        ..      STR      r0,[sp,#0x24]
        0x10002a4e:    980b        ..      LDR      r0,[sp,#0x2c]
        0x10002a50:    0300        ..      LSLS     r0,r0,#12
        0x10002a52:    0b00        ..      LSRS     r0,r0,#12
        0x10002a54:    4320         C      ORRS     r0,r0,r4
        0x10002a56:    900b        ..      STR      r0,[sp,#0x2c]
        0x10002a58:    1850        P.      ADDS     r0,r2,r1
        0x10002a5a:    491c        .I      LDR      r1,[pc,#112] ; [0x10002acc] = 0xfffffc0d
        0x10002a5c:    1840        @.      ADDS     r0,r0,r1
        0x10002a5e:    2200        ."      MOVS     r2,#0
        0x10002a60:    9001        ..      STR      r0,[sp,#4]
        0x10002a62:    4614        .F      MOV      r4,r2
        0x10002a64:    4610        .F      MOV      r0,r2
        0x10002a66:    e005        ..      B        0x10002a74 ; __aeabi_dmul + 116
        0x10002a68:    2000        .       MOVS     r0,#0
        0x10002a6a:    4601        .F      MOV      r1,r0
        0x10002a6c:    b00d        ..      ADD      sp,sp,#0x34
        0x10002a6e:    bdf0        ..      POP      {r4-r7,pc}
        0x10002a70:    2803        .(      CMP      r0,#3
        0x10002a72:    da01        ..      BGE      0x10002a78 ; __aeabi_dmul + 120
        0x10002a74:    4603        .F      MOV      r3,r0
        0x10002a76:    e000        ..      B        0x10002a7a ; __aeabi_dmul + 122
        0x10002a78:    2303        .#      MOVS     r3,#3
        0x10002a7a:    469c        .F      MOV      r12,r3
        0x10002a7c:    1ac1        ..      SUBS     r1,r0,r3
        0x10002a7e:    ae0a        ..      ADD      r6,sp,#0x28
        0x10002a80:    e00a        ..      B        0x10002a98 ; __aeabi_dmul + 152
        0x10002a82:    005f        _.      LSLS     r7,r3,#1
        0x10002a84:    ad08        ..      ADD      r5,sp,#0x20
        0x10002a86:    5bed        .[      LDRH     r5,[r5,r7]
        0x10002a88:    004f        O.      LSLS     r7,r1,#1
        0x10002a8a:    5bf7        .[      LDRH     r7,[r6,r7]
        0x10002a8c:    437d        }C      MULS     r5,r7,r5
        0x10002a8e:    2700        .'      MOVS     r7,#0
        0x10002a90:    18aa        ..      ADDS     r2,r5,r2
        0x10002a92:    417c        |A      ADCS     r4,r4,r7
        0x10002a94:    1c49        I.      ADDS     r1,r1,#1
        0x10002a96:    1e5b        [.      SUBS     r3,r3,#1
        0x10002a98:    4561        aE      CMP      r1,r12
        0x10002a9a:    ddf2        ..      BLE      0x10002a82 ; __aeabi_dmul + 130
        0x10002a9c:    0041        A.      LSLS     r1,r0,#1
        0x10002a9e:    ab04        ..      ADD      r3,sp,#0x10
        0x10002aa0:    525a        ZR      STRH     r2,[r3,r1]
        0x10002aa2:    0421        !.      LSLS     r1,r4,#16
        0x10002aa4:    0c12        ..      LSRS     r2,r2,#16
        0x10002aa6:    430a        .C      ORRS     r2,r2,r1
        0x10002aa8:    0c24        $.      LSRS     r4,r4,#16
        0x10002aaa:    1c40        @.      ADDS     r0,r0,#1
        0x10002aac:    2808        .(      CMP      r0,#8
        0x10002aae:    dbdf        ..      BLT      0x10002a70 ; __aeabi_dmul + 112
        0x10002ab0:    9801        ..      LDR      r0,[sp,#4]
        0x10002ab2:    9002        ..      STR      r0,[sp,#8]
        0x10002ab4:    9900        ..      LDR      r1,[sp,#0]
        0x10002ab6:    4670        pF      MOV      r0,lr
        0x10002ab8:    9101        ..      STR      r1,[sp,#4]
        0x10002aba:    9000        ..      STR      r0,[sp,#0]
        0x10002abc:    9b05        ..      LDR      r3,[sp,#0x14]
        0x10002abe:    9a04        ..      LDR      r2,[sp,#0x10]
        0x10002ac0:    9907        ..      LDR      r1,[sp,#0x1c]
        0x10002ac2:    9806        ..      LDR      r0,[sp,#0x18]
        0x10002ac4:    f000f98a    ....    BL       _double_epilogue ; 0x10002ddc
        0x10002ac8:    e7d0        ..      B        0x10002a6c ; __aeabi_dmul + 108
    $d
        0x10002aca:    0000        ..      DCW    0
        0x10002acc:    fffffc0d    ....    DCD    4294966285
    $t
    .text
    __aeabi_ddiv
        0x10002ad0:    b5f0        ..      PUSH     {r4-r7,lr}
        0x10002ad2:    460c        .F      MOV      r4,r1
        0x10002ad4:    405c        \@      EORS     r4,r4,r3
        0x10002ad6:    b085        ..      SUB      sp,sp,#0x14
        0x10002ad8:    0fe4        ..      LSRS     r4,r4,#31
        0x10002ada:    07e4        ..      LSLS     r4,r4,#31
        0x10002adc:    9403        ..      STR      r4,[sp,#0xc]
        0x10002ade:    004c        L.      LSLS     r4,r1,#1
        0x10002ae0:    2600        .&      MOVS     r6,#0
        0x10002ae2:    0864        d.      LSRS     r4,r4,#1
        0x10002ae4:    0059        Y.      LSLS     r1,r3,#1
        0x10002ae6:    4694        .F      MOV      r12,r2
        0x10002ae8:    0849        I.      LSRS     r1,r1,#1
        0x10002aea:    4602        .F      MOV      r2,r0
        0x10002aec:    9602        ..      STR      r6,[sp,#8]
        0x10002aee:    4322        "C      ORRS     r2,r2,r4
        0x10002af0:    d021        !.      BEQ      0x10002b36 ; __aeabi_ddiv + 102
        0x10002af2:    4662        bF      MOV      r2,r12
        0x10002af4:    430a        .C      ORRS     r2,r2,r1
        0x10002af6:    d01e        ..      BEQ      0x10002b36 ; __aeabi_ddiv + 102
        0x10002af8:    0062        b.      LSLS     r2,r4,#1
        0x10002afa:    0d57        W.      LSRS     r7,r2,#21
        0x10002afc:    004a        J.      LSLS     r2,r1,#1
        0x10002afe:    030e        ..      LSLS     r6,r1,#12
        0x10002b00:    0323        #.      LSLS     r3,r4,#12
        0x10002b02:    0d55        U.      LSRS     r5,r2,#21
        0x10002b04:    2401        .$      MOVS     r4,#1
        0x10002b06:    4602        .F      MOV      r2,r0
        0x10002b08:    492c        ,I      LDR      r1,[pc,#176] ; [0x10002bbc] = 0x3fd
        0x10002b0a:    0524        $.      LSLS     r4,r4,#20
        0x10002b0c:    1b78        x.      SUBS     r0,r7,r5
        0x10002b0e:    0b1b        ..      LSRS     r3,r3,#12
        0x10002b10:    0b36        6.      LSRS     r6,r6,#12
        0x10002b12:    1840        @.      ADDS     r0,r0,r1
        0x10002b14:    4323        #C      ORRS     r3,r3,r4
        0x10002b16:    4326        &C      ORRS     r6,r6,r4
        0x10002b18:    4661        aF      MOV      r1,r12
        0x10002b1a:    9000        ..      STR      r0,[sp,#0]
        0x10002b1c:    461c        .F      MOV      r4,r3
        0x10002b1e:    1a50        P.      SUBS     r0,r2,r1
        0x10002b20:    41b4        .A      SBCS     r4,r4,r6
        0x10002b22:    d303        ..      BCC      0x10002b2c ; __aeabi_ddiv + 92
        0x10002b24:    9800        ..      LDR      r0,[sp,#0]
        0x10002b26:    1c40        @.      ADDS     r0,r0,#1
        0x10002b28:    9000        ..      STR      r0,[sp,#0]
        0x10002b2a:    e002        ..      B        0x10002b32 ; __aeabi_ddiv + 98
        0x10002b2c:    1892        ..      ADDS     r2,r2,r2
        0x10002b2e:    9800        ..      LDR      r0,[sp,#0]
        0x10002b30:    415b        [A      ADCS     r3,r3,r3
        0x10002b32:    2800        .(      CMP      r0,#0
        0x10002b34:    da03        ..      BGE      0x10002b3e ; __aeabi_ddiv + 110
        0x10002b36:    2000        .       MOVS     r0,#0
        0x10002b38:    4601        .F      MOV      r1,r0
        0x10002b3a:    b005        ..      ADD      sp,sp,#0x14
        0x10002b3c:    bdf0        ..      POP      {r4-r7,pc}
        0x10002b3e:    2000        .       MOVS     r0,#0
        0x10002b40:    2101        .!      MOVS     r1,#1
        0x10002b42:    0509        ..      LSLS     r1,r1,#20
        0x10002b44:    4607        .F      MOV      r7,r0
        0x10002b46:    4686        .F      MOV      lr,r0
        0x10002b48:    e011        ..      B        0x10002b6e ; __aeabi_ddiv + 158
        0x10002b4a:    4664        dF      MOV      r4,r12
        0x10002b4c:    461d        .F      MOV      r5,r3
        0x10002b4e:    1b14        ..      SUBS     r4,r2,r4
        0x10002b50:    41b5        .A      SBCS     r5,r5,r6
        0x10002b52:    d306        ..      BCC      0x10002b62 ; __aeabi_ddiv + 146
        0x10002b54:    4665        eF      MOV      r5,r12
        0x10002b56:    1b52        R.      SUBS     r2,r2,r5
        0x10002b58:    41b3        .A      SBCS     r3,r3,r6
        0x10002b5a:    4674        tF      MOV      r4,lr
        0x10002b5c:    4307        .C      ORRS     r7,r7,r0
        0x10002b5e:    430c        .C      ORRS     r4,r4,r1
        0x10002b60:    46a6        .F      MOV      lr,r4
        0x10002b62:    07cd        ..      LSLS     r5,r1,#31
        0x10002b64:    0840        @.      LSRS     r0,r0,#1
        0x10002b66:    0849        I.      LSRS     r1,r1,#1
        0x10002b68:    4328        (C      ORRS     r0,r0,r5
        0x10002b6a:    1892        ..      ADDS     r2,r2,r2
        0x10002b6c:    415b        [A      ADCS     r3,r3,r3
        0x10002b6e:    4605        .F      MOV      r5,r0
        0x10002b70:    430d        .C      ORRS     r5,r5,r1
        0x10002b72:    d1ea        ..      BNE      0x10002b4a ; __aeabi_ddiv + 122
        0x10002b74:    4610        .F      MOV      r0,r2
        0x10002b76:    4318        .C      ORRS     r0,r0,r3
        0x10002b78:    d013        ..      BEQ      0x10002ba2 ; __aeabi_ddiv + 210
        0x10002b7a:    4660        `F      MOV      r0,r12
        0x10002b7c:    4619        .F      MOV      r1,r3
        0x10002b7e:    4050        P@      EORS     r0,r0,r2
        0x10002b80:    4071        q@      EORS     r1,r1,r6
        0x10002b82:    4308        .C      ORRS     r0,r0,r1
        0x10002b84:    d006        ..      BEQ      0x10002b94 ; __aeabi_ddiv + 196
        0x10002b86:    4660        `F      MOV      r0,r12
        0x10002b88:    1a10        ..      SUBS     r0,r2,r0
        0x10002b8a:    41b3        .A      SBCS     r3,r3,r6
        0x10002b8c:    d206        ..      BCS      0x10002b9c ; __aeabi_ddiv + 204
        0x10002b8e:    2201        ."      MOVS     r2,#1
        0x10002b90:    2300        .#      MOVS     r3,#0
        0x10002b92:    e006        ..      B        0x10002ba2 ; __aeabi_ddiv + 210
        0x10002b94:    2200        ."      MOVS     r2,#0
        0x10002b96:    2301        .#      MOVS     r3,#1
        0x10002b98:    07db        ..      LSLS     r3,r3,#31
        0x10002b9a:    e002        ..      B        0x10002ba2 ; __aeabi_ddiv + 210
        0x10002b9c:    2201        ."      MOVS     r2,#1
        0x10002b9e:    43d2        .C      MVNS     r2,r2
        0x10002ba0:    1053        S.      ASRS     r3,r2,#1
        0x10002ba2:    9800        ..      LDR      r0,[sp,#0]
        0x10002ba4:    4674        tF      MOV      r4,lr
        0x10002ba6:    0501        ..      LSLS     r1,r0,#20
        0x10002ba8:    1c38        8.      ADDS     r0,r7,#0
        0x10002baa:    4161        aA      ADCS     r1,r1,r4
        0x10002bac:    9c02        ..      LDR      r4,[sp,#8]
        0x10002bae:    9d03        ..      LDR      r5,[sp,#0xc]
        0x10002bb0:    1900        ..      ADDS     r0,r0,r4
        0x10002bb2:    4169        iA      ADCS     r1,r1,r5
        0x10002bb4:    f000f905    ....    BL       _double_round ; 0x10002dc2
        0x10002bb8:    e7bf        ..      B        0x10002b3a ; __aeabi_ddiv + 106
    $d
        0x10002bba:    0000        ..      DCW    0
        0x10002bbc:    000003fd    ....    DCD    1021
    $t
    .text
    __aeabi_ui2f
        0x10002bc0:    b510        ..      PUSH     {r4,lr}
        0x10002bc2:    2200        ."      MOVS     r2,#0
        0x10002bc4:    2396        .#      MOVS     r3,#0x96
        0x10002bc6:    4611        .F      MOV      r1,r2
        0x10002bc8:    f000f8c2    ....    BL       _float_epilogue ; 0x10002d50
        0x10002bcc:    bd10        ..      POP      {r4,pc}
        0x10002bce:    0000        ..      MOVS     r0,r0
    .text
    __aeabi_i2d
        0x10002bd0:    b50e        ..      PUSH     {r1-r3,lr}
        0x10002bd2:    17c2        ..      ASRS     r2,r0,#31
        0x10002bd4:    0fc1        ..      LSRS     r1,r0,#31
        0x10002bd6:    4050        P@      EORS     r0,r0,r2
        0x10002bd8:    07ca        ..      LSLS     r2,r1,#31
        0x10002bda:    1840        @.      ADDS     r0,r0,r1
        0x10002bdc:    2100        .!      MOVS     r1,#0
        0x10002bde:    4b05        .K      LDR      r3,[pc,#20] ; [0x10002bf4] = 0x433
        0x10002be0:    9302        ..      STR      r3,[sp,#8]
        0x10002be2:    9201        ..      STR      r2,[sp,#4]
        0x10002be4:    9100        ..      STR      r1,[sp,#0]
        0x10002be6:    460a        .F      MOV      r2,r1
        0x10002be8:    460b        .F      MOV      r3,r1
        0x10002bea:    f000f8f7    ....    BL       _double_epilogue ; 0x10002ddc
        0x10002bee:    b003        ..      ADD      sp,sp,#0xc
        0x10002bf0:    bd00        ..      POP      {pc}
    $d
        0x10002bf2:    0000        ..      DCW    0
        0x10002bf4:    00000433    3...    DCD    1075
    $t
    .text
    __aeabi_ui2d
        0x10002bf8:    b50e        ..      PUSH     {r1-r3,lr}
        0x10002bfa:    4905        .I      LDR      r1,[pc,#20] ; [0x10002c10] = 0x433
        0x10002bfc:    9102        ..      STR      r1,[sp,#8]
        0x10002bfe:    2100        .!      MOVS     r1,#0
        0x10002c00:    9100        ..      STR      r1,[sp,#0]
        0x10002c02:    460a        .F      MOV      r2,r1
        0x10002c04:    460b        .F      MOV      r3,r1
        0x10002c06:    9101        ..      STR      r1,[sp,#4]
        0x10002c08:    f000f8e8    ....    BL       _double_epilogue ; 0x10002ddc
        0x10002c0c:    b003        ..      ADD      sp,sp,#0xc
        0x10002c0e:    bd00        ..      POP      {pc}
    $d
        0x10002c10:    00000433    3...    DCD    1075
    $t
    .text
    __aeabi_d2uiz
        0x10002c14:    004a        J.      LSLS     r2,r1,#1
        0x10002c16:    0309        ..      LSLS     r1,r1,#12
        0x10002c18:    2301        .#      MOVS     r3,#1
        0x10002c1a:    0b09        ..      LSRS     r1,r1,#12
        0x10002c1c:    051b        ..      LSLS     r3,r3,#20
        0x10002c1e:    4319        .C      ORRS     r1,r1,r3
        0x10002c20:    4b09        .K      LDR      r3,[pc,#36] ; [0x10002c48] = 0x3ff
        0x10002c22:    b510        ..      PUSH     {r4,lr}
        0x10002c24:    0d52        R.      LSRS     r2,r2,#21
        0x10002c26:    429a        .B      CMP      r2,r3
        0x10002c28:    da01        ..      BGE      0x10002c2e ; __aeabi_d2uiz + 26
        0x10002c2a:    2000        .       MOVS     r0,#0
        0x10002c2c:    bd10        ..      POP      {r4,pc}
        0x10002c2e:    4b06        .K      LDR      r3,[pc,#24] ; [0x10002c48] = 0x3ff
        0x10002c30:    3334        43      ADDS     r3,r3,#0x34
        0x10002c32:    429a        .B      CMP      r2,r3
        0x10002c34:    dc03        ..      BGT      0x10002c3e ; __aeabi_d2uiz + 42
        0x10002c36:    1a9a        ..      SUBS     r2,r3,r2
        0x10002c38:    f000f85e    ..^.    BL       __aeabi_llsr ; 0x10002cf8
        0x10002c3c:    bd10        ..      POP      {r4,pc}
        0x10002c3e:    4903        .I      LDR      r1,[pc,#12] ; [0x10002c4c] = 0xfffffbcd
        0x10002c40:    1851        Q.      ADDS     r1,r2,r1
        0x10002c42:    4088        .@      LSLS     r0,r0,r1
        0x10002c44:    bd10        ..      POP      {r4,pc}
    $d
        0x10002c46:    0000        ..      DCW    0
        0x10002c48:    000003ff    ....    DCD    1023
        0x10002c4c:    fffffbcd    ....    DCD    4294966221
    $t
    .text
    __aeabi_f2d
        0x10002c50:    0fc2        ..      LSRS     r2,r0,#31
        0x10002c52:    07d2        ..      LSLS     r2,r2,#31
        0x10002c54:    0040        @.      LSLS     r0,r0,#1
        0x10002c56:    0840        @.      LSRS     r0,r0,#1
        0x10002c58:    d00b        ..      BEQ      0x10002c72 ; __aeabi_f2d + 34
        0x10002c5a:    0dc1        ..      LSRS     r1,r0,#23
        0x10002c5c:    2307        .#      MOVS     r3,#7
        0x10002c5e:    01db        ..      LSLS     r3,r3,#7
        0x10002c60:    18c9        ..      ADDS     r1,r1,r3
        0x10002c62:    0240        @.      LSLS     r0,r0,#9
        0x10002c64:    0509        ..      LSLS     r1,r1,#20
        0x10002c66:    0a40        @.      LSRS     r0,r0,#9
        0x10002c68:    4311        .C      ORRS     r1,r1,r2
        0x10002c6a:    08c2        ..      LSRS     r2,r0,#3
        0x10002c6c:    0740        @.      LSLS     r0,r0,#29
        0x10002c6e:    4311        .C      ORRS     r1,r1,r2
        0x10002c70:    4770        pG      BX       lr
        0x10002c72:    2000        .       MOVS     r0,#0
        0x10002c74:    4601        .F      MOV      r1,r0
        0x10002c76:    4770        pG      BX       lr
    .text
    __aeabi_uldivmod
        0x10002c78:    b5f0        ..      PUSH     {r4-r7,lr}
        0x10002c7a:    b41f        ..      PUSH     {r0-r4}
        0x10002c7c:    4606        .F      MOV      r6,r0
        0x10002c7e:    2000        .       MOVS     r0,#0
        0x10002c80:    b082        ..      SUB      sp,sp,#8
        0x10002c82:    4605        .F      MOV      r5,r0
        0x10002c84:    2440        @$      MOVS     r4,#0x40
        0x10002c86:    9101        ..      STR      r1,[sp,#4]
        0x10002c88:    9000        ..      STR      r0,[sp,#0]
        0x10002c8a:    e01b        ..      B        0x10002cc4 ; __aeabi_uldivmod + 76
        0x10002c8c:    9901        ..      LDR      r1,[sp,#4]
        0x10002c8e:    4622        "F      MOV      r2,r4
        0x10002c90:    460f        .F      MOV      r7,r1
        0x10002c92:    4630        0F      MOV      r0,r6
        0x10002c94:    f000f830    ..0.    BL       __aeabi_llsr ; 0x10002cf8
        0x10002c98:    9a04        ..      LDR      r2,[sp,#0x10]
        0x10002c9a:    9b05        ..      LDR      r3,[sp,#0x14]
        0x10002c9c:    1a80        ..      SUBS     r0,r0,r2
        0x10002c9e:    4199        .A      SBCS     r1,r1,r3
        0x10002ca0:    d310        ..      BCC      0x10002cc4 ; __aeabi_uldivmod + 76
        0x10002ca2:    4610        .F      MOV      r0,r2
        0x10002ca4:    4619        .F      MOV      r1,r3
        0x10002ca6:    4622        "F      MOV      r2,r4
        0x10002ca8:    f000f816    ....    BL       __aeabi_llsl ; 0x10002cd8
        0x10002cac:    1a36        6.      SUBS     r6,r6,r0
        0x10002cae:    418f        .A      SBCS     r7,r7,r1
        0x10002cb0:    9701        ..      STR      r7,[sp,#4]
        0x10002cb2:    4622        "F      MOV      r2,r4
        0x10002cb4:    2001        .       MOVS     r0,#1
        0x10002cb6:    2100        .!      MOVS     r1,#0
        0x10002cb8:    9f00        ..      LDR      r7,[sp,#0]
        0x10002cba:    f000f80d    ....    BL       __aeabi_llsl ; 0x10002cd8
        0x10002cbe:    1838        8.      ADDS     r0,r7,r0
        0x10002cc0:    414d        MA      ADCS     r5,r5,r1
        0x10002cc2:    9000        ..      STR      r0,[sp,#0]
        0x10002cc4:    4620         F      MOV      r0,r4
        0x10002cc6:    1e64        d.      SUBS     r4,r4,#1
        0x10002cc8:    2800        .(      CMP      r0,#0
        0x10002cca:    dcdf        ..      BGT      0x10002c8c ; __aeabi_uldivmod + 20
        0x10002ccc:    9b01        ..      LDR      r3,[sp,#4]
        0x10002cce:    9800        ..      LDR      r0,[sp,#0]
        0x10002cd0:    4629        )F      MOV      r1,r5
        0x10002cd2:    4632        2F      MOV      r2,r6
        0x10002cd4:    b007        ..      ADD      sp,sp,#0x1c
        0x10002cd6:    bdf0        ..      POP      {r4-r7,pc}
    .text
    __aeabi_llsl
    _ll_shift_l
        0x10002cd8:    b510        ..      PUSH     {r4,lr}
        0x10002cda:    2a20         *      CMP      r2,#0x20
        0x10002cdc:    db04        ..      BLT      0x10002ce8 ; __aeabi_llsl + 16
        0x10002cde:    4601        .F      MOV      r1,r0
        0x10002ce0:    3a20         :      SUBS     r2,r2,#0x20
        0x10002ce2:    4091        .@      LSLS     r1,r1,r2
        0x10002ce4:    2000        .       MOVS     r0,#0
        0x10002ce6:    bd10        ..      POP      {r4,pc}
        0x10002ce8:    4091        .@      LSLS     r1,r1,r2
        0x10002cea:    2320         #      MOVS     r3,#0x20
        0x10002cec:    1a9c        ..      SUBS     r4,r3,r2
        0x10002cee:    4603        .F      MOV      r3,r0
        0x10002cf0:    40e3        .@      LSRS     r3,r3,r4
        0x10002cf2:    4319        .C      ORRS     r1,r1,r3
        0x10002cf4:    4090        .@      LSLS     r0,r0,r2
        0x10002cf6:    bd10        ..      POP      {r4,pc}
    .text
    __aeabi_llsr
    _ll_ushift_r
        0x10002cf8:    b510        ..      PUSH     {r4,lr}
        0x10002cfa:    2a20         *      CMP      r2,#0x20
        0x10002cfc:    db04        ..      BLT      0x10002d08 ; __aeabi_llsr + 16
        0x10002cfe:    4608        .F      MOV      r0,r1
        0x10002d00:    3a20         :      SUBS     r2,r2,#0x20
        0x10002d02:    40d0        .@      LSRS     r0,r0,r2
        0x10002d04:    2100        .!      MOVS     r1,#0
        0x10002d06:    bd10        ..      POP      {r4,pc}
        0x10002d08:    460b        .F      MOV      r3,r1
        0x10002d0a:    40d3        .@      LSRS     r3,r3,r2
        0x10002d0c:    40d0        .@      LSRS     r0,r0,r2
        0x10002d0e:    2420         $      MOVS     r4,#0x20
        0x10002d10:    1aa2        ..      SUBS     r2,r4,r2
        0x10002d12:    4091        .@      LSLS     r1,r1,r2
        0x10002d14:    4308        .C      ORRS     r0,r0,r1
        0x10002d16:    4619        .F      MOV      r1,r3
        0x10002d18:    bd10        ..      POP      {r4,pc}
    .text
    __aeabi_lasr
    _ll_sshift_r
        0x10002d1a:    b510        ..      PUSH     {r4,lr}
        0x10002d1c:    2a20         *      CMP      r2,#0x20
        0x10002d1e:    db06        ..      BLT      0x10002d2e ; __aeabi_lasr + 20
        0x10002d20:    17cb        ..      ASRS     r3,r1,#31
        0x10002d22:    4608        .F      MOV      r0,r1
        0x10002d24:    3a20         :      SUBS     r2,r2,#0x20
        0x10002d26:    4110        .A      ASRS     r0,r0,r2
        0x10002d28:    17c1        ..      ASRS     r1,r0,#31
        0x10002d2a:    430b        .C      ORRS     r3,r3,r1
        0x10002d2c:    e006        ..      B        0x10002d3c ; __aeabi_lasr + 34
        0x10002d2e:    460b        .F      MOV      r3,r1
        0x10002d30:    4113        .A      ASRS     r3,r3,r2
        0x10002d32:    40d0        .@      LSRS     r0,r0,r2
        0x10002d34:    2420         $      MOVS     r4,#0x20
        0x10002d36:    1aa2        ..      SUBS     r2,r4,r2
        0x10002d38:    4091        .@      LSLS     r1,r1,r2
        0x10002d3a:    4308        .C      ORRS     r0,r0,r1
        0x10002d3c:    4619        .F      MOV      r1,r3
        0x10002d3e:    bd10        ..      POP      {r4,pc}
    .text
    .text
    __I$use$fp
    _float_round
        0x10002d40:    2900        .)      CMP      r1,#0
        0x10002d42:    da04        ..      BGE      0x10002d4e ; __I$use$fp + 14
        0x10002d44:    1c40        @.      ADDS     r0,r0,#1
        0x10002d46:    0049        I.      LSLS     r1,r1,#1
        0x10002d48:    d101        ..      BNE      0x10002d4e ; __I$use$fp + 14
        0x10002d4a:    0840        @.      LSRS     r0,r0,#1
        0x10002d4c:    0040        @.      LSLS     r0,r0,#1
        0x10002d4e:    4770        pG      BX       lr
    _float_epilogue
        0x10002d50:    b470        p.      PUSH     {r4-r6}
        0x10002d52:    2400        .$      MOVS     r4,#0
        0x10002d54:    0c05        ..      LSRS     r5,r0,#16
        0x10002d56:    d105        ..      BNE      0x10002d64 ; _float_epilogue + 20
        0x10002d58:    2410        .$      MOVS     r4,#0x10
        0x10002d5a:    0400        ..      LSLS     r0,r0,#16
        0x10002d5c:    d102        ..      BNE      0x10002d64 ; _float_epilogue + 20
        0x10002d5e:    2900        .)      CMP      r1,#0
        0x10002d60:    d021        !.      BEQ      0x10002da6 ; _float_epilogue + 86
        0x10002d62:    2411        .$      MOVS     r4,#0x11
        0x10002d64:    0e05        ..      LSRS     r5,r0,#24
        0x10002d66:    d101        ..      BNE      0x10002d6c ; _float_epilogue + 28
        0x10002d68:    0200        ..      LSLS     r0,r0,#8
        0x10002d6a:    3408        .4      ADDS     r4,r4,#8
        0x10002d6c:    0f05        ..      LSRS     r5,r0,#28
        0x10002d6e:    d101        ..      BNE      0x10002d74 ; _float_epilogue + 36
        0x10002d70:    0100        ..      LSLS     r0,r0,#4
        0x10002d72:    1d24        $.      ADDS     r4,r4,#4
        0x10002d74:    0f85        ..      LSRS     r5,r0,#30
        0x10002d76:    d101        ..      BNE      0x10002d7c ; _float_epilogue + 44
        0x10002d78:    0080        ..      LSLS     r0,r0,#2
        0x10002d7a:    1ca4        ..      ADDS     r4,r4,#2
        0x10002d7c:    2800        .(      CMP      r0,#0
        0x10002d7e:    db01        ..      BLT      0x10002d84 ; _float_epilogue + 52
        0x10002d80:    0040        @.      LSLS     r0,r0,#1
        0x10002d82:    1c64        d.      ADDS     r4,r4,#1
        0x10002d84:    2900        .)      CMP      r1,#0
        0x10002d86:    d008        ..      BEQ      0x10002d9a ; _float_epilogue + 74
        0x10002d88:    2520         %      MOVS     r5,#0x20
        0x10002d8a:    1b2e        ..      SUBS     r6,r5,r4
        0x10002d8c:    460d        .F      MOV      r5,r1
        0x10002d8e:    40f5        .@      LSRS     r5,r5,r6
        0x10002d90:    40a1        .@      LSLS     r1,r1,r4
        0x10002d92:    d000        ..      BEQ      0x10002d96 ; _float_epilogue + 70
        0x10002d94:    2101        .!      MOVS     r1,#1
        0x10002d96:    4329        )C      ORRS     r1,r1,r5
        0x10002d98:    4308        .C      ORRS     r0,r0,r1
        0x10002d9a:    0601        ..      LSLS     r1,r0,#24
        0x10002d9c:    1b1b        ..      SUBS     r3,r3,r4
        0x10002d9e:    0a00        ..      LSRS     r0,r0,#8
        0x10002da0:    1ddb        ..      ADDS     r3,r3,#7
        0x10002da2:    d502        ..      BPL      0x10002daa ; _float_epilogue + 90
        0x10002da4:    2000        .       MOVS     r0,#0
        0x10002da6:    bc70        p.      POP      {r4-r6}
        0x10002da8:    4770        pG      BX       lr
        0x10002daa:    05db        ..      LSLS     r3,r3,#23
        0x10002dac:    1818        ..      ADDS     r0,r3,r0
        0x10002dae:    1880        ..      ADDS     r0,r0,r2
        0x10002db0:    2900        .)      CMP      r1,#0
        0x10002db2:    daf8        ..      BGE      0x10002da6 ; _float_epilogue + 86
        0x10002db4:    1c40        @.      ADDS     r0,r0,#1
        0x10002db6:    0049        I.      LSLS     r1,r1,#1
        0x10002db8:    d1f5        ..      BNE      0x10002da6 ; _float_epilogue + 86
        0x10002dba:    bc70        p.      POP      {r4-r6}
        0x10002dbc:    0840        @.      LSRS     r0,r0,#1
        0x10002dbe:    0040        @.      LSLS     r0,r0,#1
        0x10002dc0:    4770        pG      BX       lr
    .text
    _double_round
        0x10002dc2:    b510        ..      PUSH     {r4,lr}
        0x10002dc4:    2b00        .+      CMP      r3,#0
        0x10002dc6:    da08        ..      BGE      0x10002dda ; _double_round + 24
        0x10002dc8:    2400        .$      MOVS     r4,#0
        0x10002dca:    1c40        @.      ADDS     r0,r0,#1
        0x10002dcc:    4161        aA      ADCS     r1,r1,r4
        0x10002dce:    1892        ..      ADDS     r2,r2,r2
        0x10002dd0:    415b        [A      ADCS     r3,r3,r3
        0x10002dd2:    431a        .C      ORRS     r2,r2,r3
        0x10002dd4:    d101        ..      BNE      0x10002dda ; _double_round + 24
        0x10002dd6:    0840        @.      LSRS     r0,r0,#1
        0x10002dd8:    0040        @.      LSLS     r0,r0,#1
        0x10002dda:    bd10        ..      POP      {r4,pc}
    _double_epilogue
        0x10002ddc:    b5f0        ..      PUSH     {r4-r7,lr}
        0x10002dde:    b41f        ..      PUSH     {r0-r4}
        0x10002de0:    b082        ..      SUB      sp,sp,#8
        0x10002de2:    4605        .F      MOV      r5,r0
        0x10002de4:    000c        ..      MOVS     r4,r1
        0x10002de6:    d003        ..      BEQ      0x10002df0 ; _double_epilogue + 20
        0x10002de8:    4608        .F      MOV      r0,r1
        0x10002dea:    f000f8a1    ....    BL       __ARM_clz ; 0x10002f30
        0x10002dee:    e002        ..      B        0x10002df6 ; _double_epilogue + 26
        0x10002df0:    f000f89e    ....    BL       __ARM_clz ; 0x10002f30
        0x10002df4:    3020         0      ADDS     r0,r0,#0x20
        0x10002df6:    4602        .F      MOV      r2,r0
        0x10002df8:    9000        ..      STR      r0,[sp,#0]
        0x10002dfa:    4621        !F      MOV      r1,r4
        0x10002dfc:    4628        (F      MOV      r0,r5
        0x10002dfe:    f7ffff6b    ..k.    BL       __aeabi_llsl ; 0x10002cd8
        0x10002e02:    9b04        ..      LDR      r3,[sp,#0x10]
        0x10002e04:    9a05        ..      LDR      r2,[sp,#0x14]
        0x10002e06:    4604        .F      MOV      r4,r0
        0x10002e08:    460f        .F      MOV      r7,r1
        0x10002e0a:    4318        .C      ORRS     r0,r0,r3
        0x10002e0c:    4311        .C      ORRS     r1,r1,r2
        0x10002e0e:    4308        .C      ORRS     r0,r0,r1
        0x10002e10:    d014        ..      BEQ      0x10002e3c ; _double_epilogue + 96
        0x10002e12:    4618        .F      MOV      r0,r3
        0x10002e14:    4310        .C      ORRS     r0,r0,r2
        0x10002e16:    d01b        ..      BEQ      0x10002e50 ; _double_epilogue + 116
        0x10002e18:    9800        ..      LDR      r0,[sp,#0]
        0x10002e1a:    2140        @!      MOVS     r1,#0x40
        0x10002e1c:    1a0a        ..      SUBS     r2,r1,r0
        0x10002e1e:    4618        .F      MOV      r0,r3
        0x10002e20:    9905        ..      LDR      r1,[sp,#0x14]
        0x10002e22:    f7ffff69    ..i.    BL       __aeabi_llsr ; 0x10002cf8
        0x10002e26:    4605        .F      MOV      r5,r0
        0x10002e28:    460e        .F      MOV      r6,r1
        0x10002e2a:    9a00        ..      LDR      r2,[sp,#0]
        0x10002e2c:    9905        ..      LDR      r1,[sp,#0x14]
        0x10002e2e:    9804        ..      LDR      r0,[sp,#0x10]
        0x10002e30:    f7ffff52    ..R.    BL       __aeabi_llsl ; 0x10002cd8
        0x10002e34:    4308        .C      ORRS     r0,r0,r1
        0x10002e36:    d005        ..      BEQ      0x10002e44 ; _double_epilogue + 104
        0x10002e38:    2001        .       MOVS     r0,#1
        0x10002e3a:    e004        ..      B        0x10002e46 ; _double_epilogue + 106
        0x10002e3c:    4620         F      MOV      r0,r4
        0x10002e3e:    4639        9F      MOV      r1,r7
        0x10002e40:    b007        ..      ADD      sp,sp,#0x1c
        0x10002e42:    bdf0        ..      POP      {r4-r7,pc}
        0x10002e44:    2000        .       MOVS     r0,#0
        0x10002e46:    17c1        ..      ASRS     r1,r0,#31
        0x10002e48:    4305        .C      ORRS     r5,r5,r0
        0x10002e4a:    430e        .C      ORRS     r6,r6,r1
        0x10002e4c:    432c        ,C      ORRS     r4,r4,r5
        0x10002e4e:    4337        7C      ORRS     r7,r7,r6
        0x10002e50:    9900        ..      LDR      r1,[sp,#0]
        0x10002e52:    980e        ..      LDR      r0,[sp,#0x38]
        0x10002e54:    0563        c.      LSLS     r3,r4,#21
        0x10002e56:    1a40        @.      SUBS     r0,r0,r1
        0x10002e58:    0579        y.      LSLS     r1,r7,#21
        0x10002e5a:    0ae4        ..      LSRS     r4,r4,#11
        0x10002e5c:    2200        ."      MOVS     r2,#0
        0x10002e5e:    430c        .C      ORRS     r4,r4,r1
        0x10002e60:    0afd        ..      LSRS     r5,r7,#11
        0x10002e62:    300a        .0      ADDS     r0,r0,#0xa
        0x10002e64:    d502        ..      BPL      0x10002e6c ; _double_epilogue + 144
        0x10002e66:    2000        .       MOVS     r0,#0
        0x10002e68:    4601        .F      MOV      r1,r0
        0x10002e6a:    e7e9        ..      B        0x10002e40 ; _double_epilogue + 100
        0x10002e6c:    0501        ..      LSLS     r1,r0,#20
        0x10002e6e:    1910        ..      ADDS     r0,r2,r4
        0x10002e70:    4169        iA      ADCS     r1,r1,r5
        0x10002e72:    9c0c        ..      LDR      r4,[sp,#0x30]
        0x10002e74:    9d0d        ..      LDR      r5,[sp,#0x34]
        0x10002e76:    1900        ..      ADDS     r0,r0,r4
        0x10002e78:    4169        iA      ADCS     r1,r1,r5
        0x10002e7a:    f7ffffa2    ....    BL       _double_round ; 0x10002dc2
        0x10002e7e:    e7df        ..      B        0x10002e40 ; _double_epilogue + 100
    .text
    __aeabi_d2ulz
        0x10002e80:    004a        J.      LSLS     r2,r1,#1
        0x10002e82:    0309        ..      LSLS     r1,r1,#12
        0x10002e84:    2301        .#      MOVS     r3,#1
        0x10002e86:    0b09        ..      LSRS     r1,r1,#12
        0x10002e88:    051b        ..      LSLS     r3,r3,#20
        0x10002e8a:    4319        .C      ORRS     r1,r1,r3
        0x10002e8c:    4b0a        .K      LDR      r3,[pc,#40] ; [0x10002eb8] = 0x3ff
        0x10002e8e:    b510        ..      PUSH     {r4,lr}
        0x10002e90:    0d52        R.      LSRS     r2,r2,#21
        0x10002e92:    429a        .B      CMP      r2,r3
        0x10002e94:    da02        ..      BGE      0x10002e9c ; __aeabi_d2ulz + 28
        0x10002e96:    2000        .       MOVS     r0,#0
        0x10002e98:    4601        .F      MOV      r1,r0
        0x10002e9a:    bd10        ..      POP      {r4,pc}
        0x10002e9c:    4b06        .K      LDR      r3,[pc,#24] ; [0x10002eb8] = 0x3ff
        0x10002e9e:    3334        43      ADDS     r3,r3,#0x34
        0x10002ea0:    429a        .B      CMP      r2,r3
        0x10002ea2:    dc03        ..      BGT      0x10002eac ; __aeabi_d2ulz + 44
        0x10002ea4:    1a9a        ..      SUBS     r2,r3,r2
        0x10002ea6:    f7ffff27    ..'.    BL       __aeabi_llsr ; 0x10002cf8
        0x10002eaa:    bd10        ..      POP      {r4,pc}
        0x10002eac:    4b03        .K      LDR      r3,[pc,#12] ; [0x10002ebc] = 0xfffffbcd
        0x10002eae:    18d2        ..      ADDS     r2,r2,r3
        0x10002eb0:    f7ffff12    ....    BL       __aeabi_llsl ; 0x10002cd8
        0x10002eb4:    bd10        ..      POP      {r4,pc}
    $d
        0x10002eb6:    0000        ..      DCW    0
        0x10002eb8:    000003ff    ....    DCD    1023
        0x10002ebc:    fffffbcd    ....    DCD    4294966221
    $t
    .text
    __aeabi_cdrcmple
        0x10002ec0:    b510        ..      PUSH     {r4,lr}
        0x10002ec2:    2900        .)      CMP      r1,#0
        0x10002ec4:    db04        ..      BLT      0x10002ed0 ; __aeabi_cdrcmple + 16
        0x10002ec6:    2401        .$      MOVS     r4,#1
        0x10002ec8:    07e4        ..      LSLS     r4,r4,#31
        0x10002eca:    4240        @B      RSBS     r0,r0,#0
        0x10002ecc:    418c        .A      SBCS     r4,r4,r1
        0x10002ece:    4621        !F      MOV      r1,r4
        0x10002ed0:    2b00        .+      CMP      r3,#0
        0x10002ed2:    db04        ..      BLT      0x10002ede ; __aeabi_cdrcmple + 30
        0x10002ed4:    461c        .F      MOV      r4,r3
        0x10002ed6:    2301        .#      MOVS     r3,#1
        0x10002ed8:    07db        ..      LSLS     r3,r3,#31
        0x10002eda:    4252        RB      RSBS     r2,r2,#0
        0x10002edc:    41a3        .A      SBCS     r3,r3,r4
        0x10002ede:    4299        .B      CMP      r1,r3
        0x10002ee0:    d100        ..      BNE      0x10002ee4 ; __aeabi_cdrcmple + 36
        0x10002ee2:    4290        .B      CMP      r0,r2
        0x10002ee4:    bd10        ..      POP      {r4,pc}
    $d
        0x10002ee6:    0000        ..      DCW    0
    $t
    .text
    __scatterload
    __scatterload_rt2
        0x10002ee8:    4c06        .L      LDR      r4,[pc,#24] ; [0x10002f04] = 0x10003834
        0x10002eea:    2501        .%      MOVS     r5,#1
        0x10002eec:    4e06        .N      LDR      r6,[pc,#24] ; [0x10002f08] = 0x10003854
        0x10002eee:    e005        ..      B        0x10002efc ; __scatterload + 20
        0x10002ef0:    68e3        .h      LDR      r3,[r4,#0xc]
        0x10002ef2:    cc07        ..      LDM      r4!,{r0-r2}
        0x10002ef4:    432b        +C      ORRS     r3,r3,r5
        0x10002ef6:    3c0c        .<      SUBS     r4,r4,#0xc
        0x10002ef8:    4798        .G      BLX      r3
        0x10002efa:    3410        .4      ADDS     r4,r4,#0x10
        0x10002efc:    42b4        .B      CMP      r4,r6
        0x10002efe:    d3f7        ..      BCC      0x10002ef0 ; __scatterload + 8
        0x10002f00:    f7fdf8e2    ....    BL       __main_after_scatterload ; 0x100000c8
    $d
        0x10002f04:    10003834    48..    DCD    268449844
        0x10002f08:    10003854    T8..    DCD    268449876
    $t
    i.__0vsprintf
    __0vsprintf
    __1vsprintf
    __2vsprintf
    __c89vsprintf
    vsprintf
        0x10002f0c:    b537        7.      PUSH     {r0-r2,r4,r5,lr}
        0x10002f0e:    4614        .F      MOV      r4,r2
        0x10002f10:    4608        .F      MOV      r0,r1
        0x10002f12:    4b06        .K      LDR      r3,[pc,#24] ; [0x10002f2c] = 0x10003829
        0x10002f14:    466a        jF      MOV      r2,sp
        0x10002f16:    4621        !F      MOV      r1,r4
        0x10002f18:    f000f8ea    ....    BL       _printf_core ; 0x100030f0
        0x10002f1c:    4604        .F      MOV      r4,r0
        0x10002f1e:    4669        iF      MOV      r1,sp
        0x10002f20:    2000        .       MOVS     r0,#0
        0x10002f22:    f000fc81    ....    BL       _sputc ; 0x10003828
        0x10002f26:    4620         F      MOV      r0,r4
        0x10002f28:    bd3e        >.      POP      {r1-r5,pc}
    $d
        0x10002f2a:    0000        ..      DCW    0
        0x10002f2c:    10003829    )8..    DCD    268449833
    $t
    i.__ARM_clz
    __ARM_clz
        0x10002f30:    2120         !      MOVS     r1,#0x20
        0x10002f32:    0c02        ..      LSRS     r2,r0,#16
        0x10002f34:    d001        ..      BEQ      0x10002f3a ; __ARM_clz + 10
        0x10002f36:    2110        .!      MOVS     r1,#0x10
        0x10002f38:    4610        .F      MOV      r0,r2
        0x10002f3a:    0a02        ..      LSRS     r2,r0,#8
        0x10002f3c:    d001        ..      BEQ      0x10002f42 ; __ARM_clz + 18
        0x10002f3e:    4610        .F      MOV      r0,r2
        0x10002f40:    3908        .9      SUBS     r1,r1,#8
        0x10002f42:    0902        ..      LSRS     r2,r0,#4
        0x10002f44:    d001        ..      BEQ      0x10002f4a ; __ARM_clz + 26
        0x10002f46:    4610        .F      MOV      r0,r2
        0x10002f48:    1f09        ..      SUBS     r1,r1,#4
        0x10002f4a:    0882        ..      LSRS     r2,r0,#2
        0x10002f4c:    d001        ..      BEQ      0x10002f52 ; __ARM_clz + 34
        0x10002f4e:    4610        .F      MOV      r0,r2
        0x10002f50:    1e89        ..      SUBS     r1,r1,#2
        0x10002f52:    0842        B.      LSRS     r2,r0,#1
        0x10002f54:    d001        ..      BEQ      0x10002f5a ; __ARM_clz + 42
        0x10002f56:    1e88        ..      SUBS     r0,r1,#2
        0x10002f58:    4770        pG      BX       lr
        0x10002f5a:    1a08        ..      SUBS     r0,r1,r0
        0x10002f5c:    4770        pG      BX       lr
    i.__ARM_common_switch8
    __ARM_common_switch8
        0x10002f5e:    b430        0.      PUSH     {r4,r5}
        0x10002f60:    4674        tF      MOV      r4,lr
        0x10002f62:    1e64        d.      SUBS     r4,r4,#1
        0x10002f64:    7825        %x      LDRB     r5,[r4,#0]
        0x10002f66:    1c64        d.      ADDS     r4,r4,#1
        0x10002f68:    42ab        .B      CMP      r3,r5
        0x10002f6a:    d200        ..      BCS      0x10002f6e ; __ARM_common_switch8 + 16
        0x10002f6c:    461d        .F      MOV      r5,r3
        0x10002f6e:    5d63        c]      LDRB     r3,[r4,r5]
        0x10002f70:    005b        [.      LSLS     r3,r3,#1
        0x10002f72:    18e3        ..      ADDS     r3,r4,r3
        0x10002f74:    bc30        0.      POP      {r4,r5}
        0x10002f76:    4718        .G      BX       r3
    i.__scatterload_copy
    __scatterload_copy
        0x10002f78:    e002        ..      B        0x10002f80 ; __scatterload_copy + 8
        0x10002f7a:    c808        ..      LDM      r0!,{r3}
        0x10002f7c:    1f12        ..      SUBS     r2,r2,#4
        0x10002f7e:    c108        ..      STM      r1!,{r3}
        0x10002f80:    2a00        .*      CMP      r2,#0
        0x10002f82:    d1fa        ..      BNE      0x10002f7a ; __scatterload_copy + 2
        0x10002f84:    4770        pG      BX       lr
    i.__scatterload_null
    __scatterload_null
        0x10002f86:    4770        pG      BX       lr
    i.__scatterload_zeroinit
    __scatterload_zeroinit
        0x10002f88:    2000        .       MOVS     r0,#0
        0x10002f8a:    e001        ..      B        0x10002f90 ; __scatterload_zeroinit + 8
        0x10002f8c:    c101        ..      STM      r1!,{r0}
        0x10002f8e:    1f12        ..      SUBS     r2,r2,#4
        0x10002f90:    2a00        .*      CMP      r2,#0
        0x10002f92:    d1fb        ..      BNE      0x10002f8c ; __scatterload_zeroinit + 4
        0x10002f94:    4770        pG      BX       lr
        0x10002f96:    0000        ..      MOVS     r0,r0
    i._fp_digits
    _fp_digits
        0x10002f98:    b5f0        ..      PUSH     {r4-r7,lr}
        0x10002f9a:    b41f        ..      PUSH     {r0-r4}
        0x10002f9c:    b084        ..      SUB      sp,sp,#0x10
        0x10002f9e:    9807        ..      LDR      r0,[sp,#0x1c]
        0x10002fa0:    9906        ..      LDR      r1,[sp,#0x18]
        0x10002fa2:    0d02        ..      LSRS     r2,r0,#20
        0x10002fa4:    4301        .C      ORRS     r1,r1,r0
        0x10002fa6:    d014        ..      BEQ      0x10002fd2 ; _fp_digits + 58
        0x10002fa8:    484a        JH      LDR      r0,[pc,#296] ; [0x100030d4] = 0xfffffc01
        0x10002faa:    494b        KI      LDR      r1,[pc,#300] ; [0x100030d8] = 0x4d10
        0x10002fac:    1810        ..      ADDS     r0,r2,r0
        0x10002fae:    4348        HC      MULS     r0,r1,r0
        0x10002fb0:    1405        ..      ASRS     r5,r0,#16
        0x10002fb2:    980f        ..      LDR      r0,[sp,#0x3c]
        0x10002fb4:    2801        .(      CMP      r0,#1
        0x10002fb6:    980e        ..      LDR      r0,[sp,#0x38]
        0x10002fb8:    d01c        ..      BEQ      0x10002ff4 ; _fp_digits + 92
        0x10002fba:    1a28        (.      SUBS     r0,r5,r0
        0x10002fbc:    1c40        @.      ADDS     r0,r0,#1
        0x10002fbe:    2400        .$      MOVS     r4,#0
        0x10002fc0:    4e46        FN      LDR      r6,[pc,#280] ; [0x100030dc] = 0x40240000
        0x10002fc2:    4947        GI      LDR      r1,[pc,#284] ; [0x100030e0] = 0x3ff00000
        0x10002fc4:    9400        ..      STR      r4,[sp,#0]
        0x10002fc6:    9101        ..      STR      r1,[sp,#4]
        0x10002fc8:    9002        ..      STR      r0,[sp,#8]
        0x10002fca:    2800        .(      CMP      r0,#0
        0x10002fcc:    da14        ..      BGE      0x10002ff8 ; _fp_digits + 96
        0x10002fce:    4247        GB      RSBS     r7,r0,#0
        0x10002fd0:    e027        '.      B        0x10003022 ; _fp_digits + 138
        0x10002fd2:    980f        ..      LDR      r0,[sp,#0x3c]
        0x10002fd4:    2401        .$      MOVS     r4,#1
        0x10002fd6:    a343        C.      ADR      r3,{pc}+0x10e ; 0x100030e4
        0x10002fd8:    2801        .(      CMP      r0,#1
        0x10002fda:    d008        ..      BEQ      0x10002fee ; _fp_digits + 86
        0x10002fdc:    2100        .!      MOVS     r1,#0
        0x10002fde:    9804        ..      LDR      r0,[sp,#0x10]
        0x10002fe0:    9a0f        ..      LDR      r2,[sp,#0x3c]
        0x10002fe2:    6084        .`      STR      r4,[r0,#8]
        0x10002fe4:    6003        .`      STR      r3,[r0,#0]
        0x10002fe6:    60c2        .`      STR      r2,[r0,#0xc]
        0x10002fe8:    6041        A`      STR      r1,[r0,#4]
        0x10002fea:    b009        ..      ADD      sp,sp,#0x24
        0x10002fec:    bdf0        ..      POP      {r4-r7,pc}
        0x10002fee:    980e        ..      LDR      r0,[sp,#0x38]
        0x10002ff0:    43c1        .C      MVNS     r1,r0
        0x10002ff2:    e7f4        ..      B        0x10002fde ; _fp_digits + 70
        0x10002ff4:    4240        @B      RSBS     r0,r0,#0
        0x10002ff6:    e7e2        ..      B        0x10002fbe ; _fp_digits + 38
        0x10002ff8:    4607        .F      MOV      r7,r0
        0x10002ffa:    e012        ..      B        0x10003022 ; _fp_digits + 138
        0x10002ffc:    07f8        ..      LSLS     r0,r7,#31
        0x10002ffe:    d007        ..      BEQ      0x10003010 ; _fp_digits + 120
        0x10003000:    4622        "F      MOV      r2,r4
        0x10003002:    4633        3F      MOV      r3,r6
        0x10003004:    9901        ..      LDR      r1,[sp,#4]
        0x10003006:    9800        ..      LDR      r0,[sp,#0]
        0x10003008:    f7fffcfa    ....    BL       __aeabi_dmul ; 0x10002a00
        0x1000300c:    9101        ..      STR      r1,[sp,#4]
        0x1000300e:    9000        ..      STR      r0,[sp,#0]
        0x10003010:    4622        "F      MOV      r2,r4
        0x10003012:    4633        3F      MOV      r3,r6
        0x10003014:    4610        .F      MOV      r0,r2
        0x10003016:    4619        .F      MOV      r1,r3
        0x10003018:    f7fffcf2    ....    BL       __aeabi_dmul ; 0x10002a00
        0x1000301c:    4604        .F      MOV      r4,r0
        0x1000301e:    460e        .F      MOV      r6,r1
        0x10003020:    107f        ..      ASRS     r7,r7,#1
        0x10003022:    2f00        ./      CMP      r7,#0
        0x10003024:    d1ea        ..      BNE      0x10002ffc ; _fp_digits + 100
        0x10003026:    9802        ..      LDR      r0,[sp,#8]
        0x10003028:    9b01        ..      LDR      r3,[sp,#4]
        0x1000302a:    2800        .(      CMP      r0,#0
        0x1000302c:    9a00        ..      LDR      r2,[sp,#0]
        0x1000302e:    9907        ..      LDR      r1,[sp,#0x1c]
        0x10003030:    9806        ..      LDR      r0,[sp,#0x18]
        0x10003032:    da02        ..      BGE      0x1000303a ; _fp_digits + 162
        0x10003034:    f7fffce4    ....    BL       __aeabi_dmul ; 0x10002a00
        0x10003038:    e001        ..      B        0x1000303e ; _fp_digits + 166
        0x1000303a:    f7fffd49    ..I.    BL       __aeabi_ddiv ; 0x10002ad0
        0x1000303e:    4604        .F      MOV      r4,r0
        0x10003040:    460e        .F      MOV      r6,r1
        0x10003042:    2200        ."      MOVS     r2,#0
        0x10003044:    4b28        (K      LDR      r3,[pc,#160] ; [0x100030e8] = 0x43f00000
        0x10003046:    f7ffff3b    ..;.    BL       __aeabi_cdrcmple ; 0x10002ec0
        0x1000304a:    d803        ..      BHI      0x10003054 ; _fp_digits + 188
        0x1000304c:    2000        .       MOVS     r0,#0
        0x1000304e:    43c0        .C      MVNS     r0,r0
        0x10003050:    4601        .F      MOV      r1,r0
        0x10003052:    e007        ..      B        0x10003064 ; _fp_digits + 204
        0x10003054:    2200        ."      MOVS     r2,#0
        0x10003056:    4b25        %K      LDR      r3,[pc,#148] ; [0x100030ec] = 0x3fe00000
        0x10003058:    4620         F      MOV      r0,r4
        0x1000305a:    4631        1F      MOV      r1,r6
        0x1000305c:    f7fffc1e    ....    BL       __aeabi_dadd ; 0x1000289c
        0x10003060:    f7ffff0e    ....    BL       __aeabi_d2ulz ; 0x10002e80
        0x10003064:    2410        .$      MOVS     r4,#0x10
        0x10003066:    e009        ..      B        0x1000307c ; _fp_digits + 228
        0x10003068:    2c00        .,      CMP      r4,#0
        0x1000306a:    db0a        ..      BLT      0x10003082 ; _fp_digits + 234
        0x1000306c:    220a        ."      MOVS     r2,#0xa
        0x1000306e:    2300        .#      MOVS     r3,#0
        0x10003070:    f7fffe02    ....    BL       __aeabi_uldivmod ; 0x10002c78
        0x10003074:    9b05        ..      LDR      r3,[sp,#0x14]
        0x10003076:    3230        02      ADDS     r2,r2,#0x30
        0x10003078:    551a        .U      STRB     r2,[r3,r4]
        0x1000307a:    1e64        d.      SUBS     r4,r4,#1
        0x1000307c:    4602        .F      MOV      r2,r0
        0x1000307e:    430a        .C      ORRS     r2,r2,r1
        0x10003080:    d1f2        ..      BNE      0x10003068 ; _fp_digits + 208
        0x10003082:    2211        ."      MOVS     r2,#0x11
        0x10003084:    1c64        d.      ADDS     r4,r4,#1
        0x10003086:    9b05        ..      LDR      r3,[sp,#0x14]
        0x10003088:    1b12        ..      SUBS     r2,r2,r4
        0x1000308a:    191c        ..      ADDS     r4,r3,r4
        0x1000308c:    9b0f        ..      LDR      r3,[sp,#0x3c]
        0x1000308e:    2b01        .+      CMP      r3,#1
        0x10003090:    d003        ..      BEQ      0x1000309a ; _fp_digits + 258
        0x10003092:    2301        .#      MOVS     r3,#1
        0x10003094:    4308        .C      ORRS     r0,r0,r1
        0x10003096:    d10e        ..      BNE      0x100030b6 ; _fp_digits + 286
        0x10003098:    e00a        ..      B        0x100030b0 ; _fp_digits + 280
        0x1000309a:    4308        .C      ORRS     r0,r0,r1
        0x1000309c:    d004        ..      BEQ      0x100030a8 ; _fp_digits + 272
        0x1000309e:    2011        .       MOVS     r0,#0x11
        0x100030a0:    900e        ..      STR      r0,[sp,#0x38]
        0x100030a2:    2000        .       MOVS     r0,#0
        0x100030a4:    900f        ..      STR      r0,[sp,#0x3c]
        0x100030a6:    e784        ..      B        0x10002fb2 ; _fp_digits + 26
        0x100030a8:    980e        ..      LDR      r0,[sp,#0x38]
        0x100030aa:    1a15        ..      SUBS     r5,r2,r0
        0x100030ac:    1e6d        m.      SUBS     r5,r5,#1
        0x100030ae:    e00b        ..      B        0x100030c8 ; _fp_digits + 304
        0x100030b0:    980e        ..      LDR      r0,[sp,#0x38]
        0x100030b2:    4282        .B      CMP      r2,r0
        0x100030b4:    dd02        ..      BLE      0x100030bc ; _fp_digits + 292
        0x100030b6:    2300        .#      MOVS     r3,#0
        0x100030b8:    1c6d        m.      ADDS     r5,r5,#1
        0x100030ba:    e003        ..      B        0x100030c4 ; _fp_digits + 300
        0x100030bc:    4282        .B      CMP      r2,r0
        0x100030be:    da01        ..      BGE      0x100030c4 ; _fp_digits + 300
        0x100030c0:    2300        .#      MOVS     r3,#0
        0x100030c2:    1e6d        m.      SUBS     r5,r5,#1
        0x100030c4:    2b00        .+      CMP      r3,#0
        0x100030c6:    d0ee        ..      BEQ      0x100030a6 ; _fp_digits + 270
        0x100030c8:    9804        ..      LDR      r0,[sp,#0x10]
        0x100030ca:    990f        ..      LDR      r1,[sp,#0x3c]
        0x100030cc:    6082        .`      STR      r2,[r0,#8]
        0x100030ce:    60c1        .`      STR      r1,[r0,#0xc]
        0x100030d0:    c030        0.      STM      r0!,{r4,r5}
        0x100030d2:    e78a        ..      B        0x10002fea ; _fp_digits + 82
    $d
        0x100030d4:    fffffc01    ....    DCD    4294966273
        0x100030d8:    00004d10    .M..    DCD    19728
        0x100030dc:    40240000    ..$@    DCD    1076101120
        0x100030e0:    3ff00000    ...?    DCD    1072693248
        0x100030e4:    00000030    0...    DCD    48
        0x100030e8:    43f00000    ...C    DCD    1139802112
        0x100030ec:    3fe00000    ...?    DCD    1071644672
    $t
    i._printf_core
    _printf_core
        0x100030f0:    b5ff        ..      PUSH     {r0-r7,lr}
        0x100030f2:    b097        ..      SUB      sp,sp,#0x5c
        0x100030f4:    4606        .F      MOV      r6,r0
        0x100030f6:    2500        .%      MOVS     r5,#0
        0x100030f8:    e218        ..      B        0x1000352c ; _printf_core + 1084
        0x100030fa:    2825        %(      CMP      r0,#0x25
        0x100030fc:    d177        w.      BNE      0x100031ee ; _printf_core + 254
        0x100030fe:    2400        .$      MOVS     r4,#0
        0x10003100:    4627        'F      MOV      r7,r4
        0x10003102:    49fd        .I      LDR      r1,[pc,#1012] ; [0x100034f8] = 0x12809
        0x10003104:    9404        ..      STR      r4,[sp,#0x10]
        0x10003106:    e000        ..      B        0x1000310a ; _printf_core + 26
        0x10003108:    4304        .C      ORRS     r4,r4,r0
        0x1000310a:    1c76        v.      ADDS     r6,r6,#1
        0x1000310c:    7832        2x      LDRB     r2,[r6,#0]
        0x1000310e:    2001        .       MOVS     r0,#1
        0x10003110:    3a20         :      SUBS     r2,r2,#0x20
        0x10003112:    4090        .@      LSLS     r0,r0,r2
        0x10003114:    4208        .B      TST      r0,r1
        0x10003116:    d1f7        ..      BNE      0x10003108 ; _printf_core + 24
        0x10003118:    7830        0x      LDRB     r0,[r6,#0]
        0x1000311a:    282a        *(      CMP      r0,#0x2a
        0x1000311c:    d00e        ..      BEQ      0x1000313c ; _printf_core + 76
        0x1000311e:    2202        ."      MOVS     r2,#2
        0x10003120:    7830        0x      LDRB     r0,[r6,#0]
        0x10003122:    4601        .F      MOV      r1,r0
        0x10003124:    3930        09      SUBS     r1,r1,#0x30
        0x10003126:    2909        .)      CMP      r1,#9
        0x10003128:    d816        ..      BHI      0x10003158 ; _printf_core + 104
        0x1000312a:    9904        ..      LDR      r1,[sp,#0x10]
        0x1000312c:    230a        .#      MOVS     r3,#0xa
        0x1000312e:    4359        YC      MULS     r1,r3,r1
        0x10003130:    3930        09      SUBS     r1,r1,#0x30
        0x10003132:    1840        @.      ADDS     r0,r0,r1
        0x10003134:    4314        .C      ORRS     r4,r4,r2
        0x10003136:    1c76        v.      ADDS     r6,r6,#1
        0x10003138:    9004        ..      STR      r0,[sp,#0x10]
        0x1000313a:    e7f1        ..      B        0x10003120 ; _printf_core + 48
        0x1000313c:    9818        ..      LDR      r0,[sp,#0x60]
        0x1000313e:    c802        ..      LDM      r0!,{r1}
        0x10003140:    9104        ..      STR      r1,[sp,#0x10]
        0x10003142:    9018        ..      STR      r0,[sp,#0x60]
        0x10003144:    2900        .)      CMP      r1,#0
        0x10003146:    da04        ..      BGE      0x10003152 ; _printf_core + 98
        0x10003148:    2001        .       MOVS     r0,#1
        0x1000314a:    0340        @.      LSLS     r0,r0,#13
        0x1000314c:    4304        .C      ORRS     r4,r4,r0
        0x1000314e:    4248        HB      RSBS     r0,r1,#0
        0x10003150:    9004        ..      STR      r0,[sp,#0x10]
        0x10003152:    2002        .       MOVS     r0,#2
        0x10003154:    4304        .C      ORRS     r4,r4,r0
        0x10003156:    1c76        v.      ADDS     r6,r6,#1
        0x10003158:    7830        0x      LDRB     r0,[r6,#0]
        0x1000315a:    282e        .(      CMP      r0,#0x2e
        0x1000315c:    d114        ..      BNE      0x10003188 ; _printf_core + 152
        0x1000315e:    2004        .       MOVS     r0,#4
        0x10003160:    4304        .C      ORRS     r4,r4,r0
        0x10003162:    7870        px      LDRB     r0,[r6,#1]
        0x10003164:    1c76        v.      ADDS     r6,r6,#1
        0x10003166:    282a        *(      CMP      r0,#0x2a
        0x10003168:    d109        ..      BNE      0x1000317e ; _printf_core + 142
        0x1000316a:    9818        ..      LDR      r0,[sp,#0x60]
        0x1000316c:    1c76        v.      ADDS     r6,r6,#1
        0x1000316e:    c880        ..      LDM      r0!,{r7}
        0x10003170:    9018        ..      STR      r0,[sp,#0x60]
        0x10003172:    e009        ..      B        0x10003188 ; _printf_core + 152
        0x10003174:    210a        .!      MOVS     r1,#0xa
        0x10003176:    434f        OC      MULS     r7,r1,r7
        0x10003178:    3f30        0?      SUBS     r7,r7,#0x30
        0x1000317a:    19c7        ..      ADDS     r7,r0,r7
        0x1000317c:    1c76        v.      ADDS     r6,r6,#1
        0x1000317e:    7830        0x      LDRB     r0,[r6,#0]
        0x10003180:    4601        .F      MOV      r1,r0
        0x10003182:    3930        09      SUBS     r1,r1,#0x30
        0x10003184:    2909        .)      CMP      r1,#9
        0x10003186:    d9f5        ..      BLS      0x10003174 ; _printf_core + 132
        0x10003188:    7830        0x      LDRB     r0,[r6,#0]
        0x1000318a:    286c        l(      CMP      r0,#0x6c
        0x1000318c:    d010        ..      BEQ      0x100031b0 ; _printf_core + 192
        0x1000318e:    dc06        ..      BGT      0x1000319e ; _printf_core + 174
        0x10003190:    284c        L(      CMP      r0,#0x4c
        0x10003192:    d01a        ..      BEQ      0x100031ca ; _printf_core + 218
        0x10003194:    2868        h(      CMP      r0,#0x68
        0x10003196:    d00e        ..      BEQ      0x100031b6 ; _printf_core + 198
        0x10003198:    286a        j(      CMP      r0,#0x6a
        0x1000319a:    d117        ..      BNE      0x100031cc ; _printf_core + 220
        0x1000319c:    e004        ..      B        0x100031a8 ; _printf_core + 184
        0x1000319e:    2874        t(      CMP      r0,#0x74
        0x100031a0:    d013        ..      BEQ      0x100031ca ; _printf_core + 218
        0x100031a2:    287a        z(      CMP      r0,#0x7a
        0x100031a4:    d112        ..      BNE      0x100031cc ; _printf_core + 220
        0x100031a6:    e010        ..      B        0x100031ca ; _printf_core + 218
        0x100031a8:    2001        .       MOVS     r0,#1
        0x100031aa:    0540        @.      LSLS     r0,r0,#21
        0x100031ac:    4304        .C      ORRS     r4,r4,r0
        0x100031ae:    e00c        ..      B        0x100031ca ; _printf_core + 218
        0x100031b0:    2101        .!      MOVS     r1,#1
        0x100031b2:    0509        ..      LSLS     r1,r1,#20
        0x100031b4:    e001        ..      B        0x100031ba ; _printf_core + 202
        0x100031b6:    2103        .!      MOVS     r1,#3
        0x100031b8:    0509        ..      LSLS     r1,r1,#20
        0x100031ba:    430c        .C      ORRS     r4,r4,r1
        0x100031bc:    7871        qx      LDRB     r1,[r6,#1]
        0x100031be:    4281        .B      CMP      r1,r0
        0x100031c0:    d103        ..      BNE      0x100031ca ; _printf_core + 218
        0x100031c2:    2001        .       MOVS     r0,#1
        0x100031c4:    0500        ..      LSLS     r0,r0,#20
        0x100031c6:    1824        $.      ADDS     r4,r4,r0
        0x100031c8:    1c76        v.      ADDS     r6,r6,#1
        0x100031ca:    1c76        v.      ADDS     r6,r6,#1
        0x100031cc:    7830        0x      LDRB     r0,[r6,#0]
        0x100031ce:    9011        ..      STR      r0,[sp,#0x44]
        0x100031d0:    2866        f(      CMP      r0,#0x66
        0x100031d2:    d00b        ..      BEQ      0x100031ec ; _printf_core + 252
        0x100031d4:    dc13        ..      BGT      0x100031fe ; _printf_core + 270
        0x100031d6:    2858        X(      CMP      r0,#0x58
        0x100031d8:    d07d        }.      BEQ      0x100032d6 ; _printf_core + 486
        0x100031da:    dc09        ..      BGT      0x100031f0 ; _printf_core + 256
        0x100031dc:    2800        .(      CMP      r0,#0
        0x100031de:    d07b        {.      BEQ      0x100032d8 ; _printf_core + 488
        0x100031e0:    2845        E(      CMP      r0,#0x45
        0x100031e2:    d0f6        ..      BEQ      0x100031d2 ; _printf_core + 226
        0x100031e4:    2846        F(      CMP      r0,#0x46
        0x100031e6:    d0f4        ..      BEQ      0x100031d2 ; _printf_core + 226
        0x100031e8:    2847        G(      CMP      r0,#0x47
        0x100031ea:    d11a        ..      BNE      0x10003222 ; _printf_core + 306
        0x100031ec:    e1a5        ..      B        0x1000353a ; _printf_core + 1098
        0x100031ee:    e018        ..      B        0x10003222 ; _printf_core + 306
        0x100031f0:    2863        c(      CMP      r0,#0x63
        0x100031f2:    d035        5.      BEQ      0x10003260 ; _printf_core + 368
        0x100031f4:    2864        d(      CMP      r0,#0x64
        0x100031f6:    d070        p.      BEQ      0x100032da ; _printf_core + 490
        0x100031f8:    2865        e(      CMP      r0,#0x65
        0x100031fa:    d112        ..      BNE      0x10003222 ; _printf_core + 306
        0x100031fc:    e19d        ..      B        0x1000353a ; _printf_core + 1098
        0x100031fe:    2870        p(      CMP      r0,#0x70
        0x10003200:    d06c        l.      BEQ      0x100032dc ; _printf_core + 492
        0x10003202:    dc08        ..      BGT      0x10003216 ; _printf_core + 294
        0x10003204:    2867        g(      CMP      r0,#0x67
        0x10003206:    d0f1        ..      BEQ      0x100031ec ; _printf_core + 252
        0x10003208:    2869        i(      CMP      r0,#0x69
        0x1000320a:    d07b        {.      BEQ      0x10003304 ; _printf_core + 532
        0x1000320c:    286e        n(      CMP      r0,#0x6e
        0x1000320e:    d00d        ..      BEQ      0x1000322c ; _printf_core + 316
        0x10003210:    286f        o(      CMP      r0,#0x6f
        0x10003212:    d106        ..      BNE      0x10003222 ; _printf_core + 306
        0x10003214:    e0ba        ..      B        0x1000338c ; _printf_core + 668
        0x10003216:    2873        s(      CMP      r0,#0x73
        0x10003218:    d02e        ..      BEQ      0x10003278 ; _printf_core + 392
        0x1000321a:    2875        u(      CMP      r0,#0x75
        0x1000321c:    d071        q.      BEQ      0x10003302 ; _printf_core + 530
        0x1000321e:    2878        x(      CMP      r0,#0x78
        0x10003220:    d059        Y.      BEQ      0x100032d6 ; _printf_core + 486
        0x10003222:    9a1a        ..      LDR      r2,[sp,#0x68]
        0x10003224:    9919        ..      LDR      r1,[sp,#0x64]
        0x10003226:    4790        .G      BLX      r2
        0x10003228:    1c6d        m.      ADDS     r5,r5,#1
        0x1000322a:    e17e        ~.      B        0x1000352a ; _printf_core + 1082
        0x1000322c:    0260        `.      LSLS     r0,r4,#9
        0x1000322e:    0f40        @.      LSRS     r0,r0,#29
        0x10003230:    2802        .(      CMP      r0,#2
        0x10003232:    d009        ..      BEQ      0x10003248 ; _printf_core + 344
        0x10003234:    2803        .(      CMP      r0,#3
        0x10003236:    d00d        ..      BEQ      0x10003254 ; _printf_core + 356
        0x10003238:    2804        .(      CMP      r0,#4
        0x1000323a:    9818        ..      LDR      r0,[sp,#0x60]
        0x1000323c:    6801        .h      LDR      r1,[r0,#0]
        0x1000323e:    d00d        ..      BEQ      0x1000325c ; _printf_core + 364
        0x10003240:    600d        .`      STR      r5,[r1,#0]
        0x10003242:    1d00        ..      ADDS     r0,r0,#4
        0x10003244:    9018        ..      STR      r0,[sp,#0x60]
        0x10003246:    e170        p.      B        0x1000352a ; _printf_core + 1082
        0x10003248:    9818        ..      LDR      r0,[sp,#0x60]
        0x1000324a:    17ea        ..      ASRS     r2,r5,#31
        0x1000324c:    6801        .h      LDR      r1,[r0,#0]
        0x1000324e:    600d        .`      STR      r5,[r1,#0]
        0x10003250:    604a        J`      STR      r2,[r1,#4]
        0x10003252:    e7f6        ..      B        0x10003242 ; _printf_core + 338
        0x10003254:    9818        ..      LDR      r0,[sp,#0x60]
        0x10003256:    6801        .h      LDR      r1,[r0,#0]
        0x10003258:    800d        ..      STRH     r5,[r1,#0]
        0x1000325a:    e7f2        ..      B        0x10003242 ; _printf_core + 338
        0x1000325c:    700d        .p      STRB     r5,[r1,#0]
        0x1000325e:    e7f0        ..      B        0x10003242 ; _printf_core + 338
        0x10003260:    9818        ..      LDR      r0,[sp,#0x60]
        0x10003262:    466a        jF      MOV      r2,sp
        0x10003264:    7801        .x      LDRB     r1,[r0,#0]
        0x10003266:    7211        .r      STRB     r1,[r2,#8]
        0x10003268:    1d00        ..      ADDS     r0,r0,#4
        0x1000326a:    9018        ..      STR      r0,[sp,#0x60]
        0x1000326c:    2000        .       MOVS     r0,#0
        0x1000326e:    7250        Pr      STRB     r0,[r2,#9]
        0x10003270:    a802        ..      ADD      r0,sp,#8
        0x10003272:    9000        ..      STR      r0,[sp,#0]
        0x10003274:    2001        .       MOVS     r0,#1
        0x10003276:    e005        ..      B        0x10003284 ; _printf_core + 404
        0x10003278:    9818        ..      LDR      r0,[sp,#0x60]
        0x1000327a:    c802        ..      LDM      r0!,{r1}
        0x1000327c:    9018        ..      STR      r0,[sp,#0x60]
        0x1000327e:    2000        .       MOVS     r0,#0
        0x10003280:    9100        ..      STR      r1,[sp,#0]
        0x10003282:    43c0        .C      MVNS     r0,r0
        0x10003284:    0761        a.      LSLS     r1,r4,#29
        0x10003286:    d50d        ..      BPL      0x100032a4 ; _printf_core + 436
        0x10003288:    2100        .!      MOVS     r1,#0
        0x1000328a:    e001        ..      B        0x10003290 ; _printf_core + 416
        0x1000328c:    9901        ..      LDR      r1,[sp,#4]
        0x1000328e:    1c49        I.      ADDS     r1,r1,#1
        0x10003290:    9101        ..      STR      r1,[sp,#4]
        0x10003292:    42b9        .B      CMP      r1,r7
        0x10003294:    da12        ..      BGE      0x100032bc ; _printf_core + 460
        0x10003296:    4281        .B      CMP      r1,r0
        0x10003298:    dbf8        ..      BLT      0x1000328c ; _printf_core + 412
        0x1000329a:    9a00        ..      LDR      r2,[sp,#0]
        0x1000329c:    5c51        Q\      LDRB     r1,[r2,r1]
        0x1000329e:    2900        .)      CMP      r1,#0
        0x100032a0:    d1f4        ..      BNE      0x1000328c ; _printf_core + 412
        0x100032a2:    e00b        ..      B        0x100032bc ; _printf_core + 460
        0x100032a4:    2100        .!      MOVS     r1,#0
        0x100032a6:    e001        ..      B        0x100032ac ; _printf_core + 444
        0x100032a8:    9901        ..      LDR      r1,[sp,#4]
        0x100032aa:    1c49        I.      ADDS     r1,r1,#1
        0x100032ac:    9101        ..      STR      r1,[sp,#4]
        0x100032ae:    4281        .B      CMP      r1,r0
        0x100032b0:    dbfa        ..      BLT      0x100032a8 ; _printf_core + 440
        0x100032b2:    9a01        ..      LDR      r2,[sp,#4]
        0x100032b4:    9900        ..      LDR      r1,[sp,#0]
        0x100032b6:    5c89        .\      LDRB     r1,[r1,r2]
        0x100032b8:    2900        .)      CMP      r1,#0
        0x100032ba:    d1f5        ..      BNE      0x100032a8 ; _printf_core + 440
        0x100032bc:    9901        ..      LDR      r1,[sp,#4]
        0x100032be:    9804        ..      LDR      r0,[sp,#0x10]
        0x100032c0:    9b1a        ..      LDR      r3,[sp,#0x68]
        0x100032c2:    1a47        G.      SUBS     r7,r0,r1
        0x100032c4:    4621        !F      MOV      r1,r4
        0x100032c6:    4638        8F      MOV      r0,r7
        0x100032c8:    9a19        ..      LDR      r2,[sp,#0x64]
        0x100032ca:    f000fa97    ....    BL       _printf_pre_padding ; 0x100037fc
        0x100032ce:    9901        ..      LDR      r1,[sp,#4]
        0x100032d0:    1940        @.      ADDS     r0,r0,r5
        0x100032d2:    1845        E.      ADDS     r5,r0,r1
        0x100032d4:    e00b        ..      B        0x100032ee ; _printf_core + 510
        0x100032d6:    e04f        O.      B        0x10003378 ; _printf_core + 648
        0x100032d8:    e12c        ,.      B        0x10003534 ; _printf_core + 1092
        0x100032da:    e013        ..      B        0x10003304 ; _printf_core + 532
        0x100032dc:    e04e        N.      B        0x1000337c ; _printf_core + 652
        0x100032de:    9800        ..      LDR      r0,[sp,#0]
        0x100032e0:    9900        ..      LDR      r1,[sp,#0]
        0x100032e2:    7800        .x      LDRB     r0,[r0,#0]
        0x100032e4:    1c49        I.      ADDS     r1,r1,#1
        0x100032e6:    9100        ..      STR      r1,[sp,#0]
        0x100032e8:    9a1a        ..      LDR      r2,[sp,#0x68]
        0x100032ea:    9919        ..      LDR      r1,[sp,#0x64]
        0x100032ec:    4790        .G      BLX      r2
        0x100032ee:    9801        ..      LDR      r0,[sp,#4]
        0x100032f0:    1e40        @.      SUBS     r0,r0,#1
        0x100032f2:    9001        ..      STR      r0,[sp,#4]
        0x100032f4:    1c40        @.      ADDS     r0,r0,#1
        0x100032f6:    d1f2        ..      BNE      0x100032de ; _printf_core + 494
        0x100032f8:    4621        !F      MOV      r1,r4
        0x100032fa:    4638        8F      MOV      r0,r7
        0x100032fc:    9b1a        ..      LDR      r3,[sp,#0x68]
        0x100032fe:    9a19        ..      LDR      r2,[sp,#0x64]
        0x10003300:    e110        ..      B        0x10003524 ; _printf_core + 1076
        0x10003302:    e037        7.      B        0x10003374 ; _printf_core + 644
        0x10003304:    200a        .       MOVS     r0,#0xa
        0x10003306:    2100        .!      MOVS     r1,#0
        0x10003308:    9000        ..      STR      r0,[sp,#0]
        0x1000330a:    9101        ..      STR      r1,[sp,#4]
        0x1000330c:    0260        `.      LSLS     r0,r4,#9
        0x1000330e:    0f41        A.      LSRS     r1,r0,#29
        0x10003310:    2902        .)      CMP      r1,#2
        0x10003312:    d007        ..      BEQ      0x10003324 ; _printf_core + 564
        0x10003314:    9a18        ..      LDR      r2,[sp,#0x60]
        0x10003316:    ca01        ..      LDM      r2!,{r0}
        0x10003318:    9218        ..      STR      r2,[sp,#0x60]
        0x1000331a:    17c2        ..      ASRS     r2,r0,#31
        0x1000331c:    4694        .F      MOV      r12,r2
        0x1000331e:    2903        .)      CMP      r1,#3
        0x10003320:    d008        ..      BEQ      0x10003334 ; _printf_core + 580
        0x10003322:    e00a        ..      B        0x1000333a ; _printf_core + 586
        0x10003324:    9818        ..      LDR      r0,[sp,#0x60]
        0x10003326:    1dc0        ..      ADDS     r0,r0,#7
        0x10003328:    08c1        ..      LSRS     r1,r0,#3
        0x1000332a:    00c9        ..      LSLS     r1,r1,#3
        0x1000332c:    c905        ..      LDM      r1!,{r0,r2}
        0x1000332e:    9118        ..      STR      r1,[sp,#0x60]
        0x10003330:    4694        .F      MOV      r12,r2
        0x10003332:    e007        ..      B        0x10003344 ; _printf_core + 596
        0x10003334:    b200        ..      SXTH     r0,r0
        0x10003336:    17c2        ..      ASRS     r2,r0,#31
        0x10003338:    4694        .F      MOV      r12,r2
        0x1000333a:    2904        .)      CMP      r1,#4
        0x1000333c:    d102        ..      BNE      0x10003344 ; _printf_core + 596
        0x1000333e:    b240        @.      SXTB     r0,r0
        0x10003340:    17c1        ..      ASRS     r1,r0,#31
        0x10003342:    468c        .F      MOV      r12,r1
        0x10003344:    2200        ."      MOVS     r2,#0
        0x10003346:    4661        aF      MOV      r1,r12
        0x10003348:    4594        .E      CMP      r12,r2
        0x1000334a:    da06        ..      BGE      0x1000335a ; _printf_core + 618
        0x1000334c:    460a        .F      MOV      r2,r1
        0x1000334e:    2100        .!      MOVS     r1,#0
        0x10003350:    4240        @B      RSBS     r0,r0,#0
        0x10003352:    4191        .A      SBCS     r1,r1,r2
        0x10003354:    468c        .F      MOV      r12,r1
        0x10003356:    212d        -!      MOVS     r1,#0x2d
        0x10003358:    e002        ..      B        0x10003360 ; _printf_core + 624
        0x1000335a:    0521        !.      LSLS     r1,r4,#20
        0x1000335c:    d504        ..      BPL      0x10003368 ; _printf_core + 632
        0x1000335e:    212b        +!      MOVS     r1,#0x2b
        0x10003360:    466a        jF      MOV      r2,sp
        0x10003362:    7311        .s      STRB     r1,[r2,#0xc]
        0x10003364:    2101        .!      MOVS     r1,#1
        0x10003366:    e003        ..      B        0x10003370 ; _printf_core + 640
        0x10003368:    07e1        ..      LSLS     r1,r4,#31
        0x1000336a:    d001        ..      BEQ      0x10003370 ; _printf_core + 640
        0x1000336c:    2120         !      MOVS     r1,#0x20
        0x1000336e:    e7f7        ..      B        0x10003360 ; _printf_core + 624
        0x10003370:    9102        ..      STR      r1,[sp,#8]
        0x10003372:    e055        U.      B        0x10003420 ; _printf_core + 816
        0x10003374:    200a        .       MOVS     r0,#0xa
        0x10003376:    e00a        ..      B        0x1000338e ; _printf_core + 670
        0x10003378:    2010        .       MOVS     r0,#0x10
        0x1000337a:    e008        ..      B        0x1000338e ; _printf_core + 670
        0x1000337c:    2010        .       MOVS     r0,#0x10
        0x1000337e:    9000        ..      STR      r0,[sp,#0]
        0x10003380:    2100        .!      MOVS     r1,#0
        0x10003382:    2004        .       MOVS     r0,#4
        0x10003384:    4304        .C      ORRS     r4,r4,r0
        0x10003386:    9101        ..      STR      r1,[sp,#4]
        0x10003388:    2708        .'      MOVS     r7,#8
        0x1000338a:    e003        ..      B        0x10003394 ; _printf_core + 676
        0x1000338c:    2008        .       MOVS     r0,#8
        0x1000338e:    2100        .!      MOVS     r1,#0
        0x10003390:    9101        ..      STR      r1,[sp,#4]
        0x10003392:    9000        ..      STR      r0,[sp,#0]
        0x10003394:    0260        `.      LSLS     r0,r4,#9
        0x10003396:    0f41        A.      LSRS     r1,r0,#29
        0x10003398:    2902        .)      CMP      r1,#2
        0x1000339a:    d007        ..      BEQ      0x100033ac ; _printf_core + 700
        0x1000339c:    9a18        ..      LDR      r2,[sp,#0x60]
        0x1000339e:    ca01        ..      LDM      r2!,{r0}
        0x100033a0:    9218        ..      STR      r2,[sp,#0x60]
        0x100033a2:    2200        ."      MOVS     r2,#0
        0x100033a4:    4694        .F      MOV      r12,r2
        0x100033a6:    2903        .)      CMP      r1,#3
        0x100033a8:    d008        ..      BEQ      0x100033bc ; _printf_core + 716
        0x100033aa:    e008        ..      B        0x100033be ; _printf_core + 718
        0x100033ac:    9818        ..      LDR      r0,[sp,#0x60]
        0x100033ae:    1dc0        ..      ADDS     r0,r0,#7
        0x100033b0:    08c1        ..      LSRS     r1,r0,#3
        0x100033b2:    00c9        ..      LSLS     r1,r1,#3
        0x100033b4:    c905        ..      LDM      r1!,{r0,r2}
        0x100033b6:    9118        ..      STR      r1,[sp,#0x60]
        0x100033b8:    4694        .F      MOV      r12,r2
        0x100033ba:    e003        ..      B        0x100033c4 ; _printf_core + 724
        0x100033bc:    b280        ..      UXTH     r0,r0
        0x100033be:    2904        .)      CMP      r1,#4
        0x100033c0:    d100        ..      BNE      0x100033c4 ; _printf_core + 724
        0x100033c2:    b2c0        ..      UXTB     r0,r0
        0x100033c4:    2100        .!      MOVS     r1,#0
        0x100033c6:    9102        ..      STR      r1,[sp,#8]
        0x100033c8:    0721        !.      LSLS     r1,r4,#28
        0x100033ca:    d529        ).      BPL      0x10003420 ; _printf_core + 816
        0x100033cc:    9911        ..      LDR      r1,[sp,#0x44]
        0x100033ce:    2970        p)      CMP      r1,#0x70
        0x100033d0:    d006        ..      BEQ      0x100033e0 ; _printf_core + 752
        0x100033d2:    9a00        ..      LDR      r2,[sp,#0]
        0x100033d4:    2110        .!      MOVS     r1,#0x10
        0x100033d6:    9b01        ..      LDR      r3,[sp,#4]
        0x100033d8:    404a        J@      EORS     r2,r2,r1
        0x100033da:    431a        .C      ORRS     r2,r2,r3
        0x100033dc:    d005        ..      BEQ      0x100033ea ; _printf_core + 762
        0x100033de:    e00e        ..      B        0x100033fe ; _printf_core + 782
        0x100033e0:    2140        @!      MOVS     r1,#0x40
        0x100033e2:    466a        jF      MOV      r2,sp
        0x100033e4:    7311        .s      STRB     r1,[r2,#0xc]
        0x100033e6:    2101        .!      MOVS     r1,#1
        0x100033e8:    e008        ..      B        0x100033fc ; _printf_core + 780
        0x100033ea:    4661        aF      MOV      r1,r12
        0x100033ec:    4301        .C      ORRS     r1,r1,r0
        0x100033ee:    d006        ..      BEQ      0x100033fe ; _printf_core + 782
        0x100033f0:    2130        0!      MOVS     r1,#0x30
        0x100033f2:    466a        jF      MOV      r2,sp
        0x100033f4:    7311        .s      STRB     r1,[r2,#0xc]
        0x100033f6:    9911        ..      LDR      r1,[sp,#0x44]
        0x100033f8:    7351        Qs      STRB     r1,[r2,#0xd]
        0x100033fa:    2102        .!      MOVS     r1,#2
        0x100033fc:    9102        ..      STR      r1,[sp,#8]
        0x100033fe:    9a00        ..      LDR      r2,[sp,#0]
        0x10003400:    2108        .!      MOVS     r1,#8
        0x10003402:    9b01        ..      LDR      r3,[sp,#4]
        0x10003404:    404a        J@      EORS     r2,r2,r1
        0x10003406:    431a        .C      ORRS     r2,r2,r3
        0x10003408:    d10a        ..      BNE      0x10003420 ; _printf_core + 816
        0x1000340a:    4661        aF      MOV      r1,r12
        0x1000340c:    4301        .C      ORRS     r1,r1,r0
        0x1000340e:    d101        ..      BNE      0x10003414 ; _printf_core + 804
        0x10003410:    0761        a.      LSLS     r1,r4,#29
        0x10003412:    d505        ..      BPL      0x10003420 ; _printf_core + 816
        0x10003414:    2130        0!      MOVS     r1,#0x30
        0x10003416:    466a        jF      MOV      r2,sp
        0x10003418:    7311        .s      STRB     r1,[r2,#0xc]
        0x1000341a:    2101        .!      MOVS     r1,#1
        0x1000341c:    1e7f        ..      SUBS     r7,r7,#1
        0x1000341e:    9102        ..      STR      r1,[sp,#8]
        0x10003420:    9911        ..      LDR      r1,[sp,#0x44]
        0x10003422:    2958        X)      CMP      r1,#0x58
        0x10003424:    d004        ..      BEQ      0x10003430 ; _printf_core + 832
        0x10003426:    a135        5.      ADR      r1,{pc}+0xd6 ; 0x100034fc
        0x10003428:    910e        ..      STR      r1,[sp,#0x38]
        0x1000342a:    a90d        ..      ADD      r1,sp,#0x34
        0x1000342c:    910d        ..      STR      r1,[sp,#0x34]
        0x1000342e:    e00d        ..      B        0x1000344c ; _printf_core + 860
        0x10003430:    a137        7.      ADR      r1,{pc}+0xe0 ; 0x10003510
        0x10003432:    e7f9        ..      B        0x10003428 ; _printf_core + 824
        0x10003434:    4661        aF      MOV      r1,r12
        0x10003436:    9b01        ..      LDR      r3,[sp,#4]
        0x10003438:    9a00        ..      LDR      r2,[sp,#0]
        0x1000343a:    f7fffc1d    ....    BL       __aeabi_uldivmod ; 0x10002c78
        0x1000343e:    9b0e        ..      LDR      r3,[sp,#0x38]
        0x10003440:    468c        .F      MOV      r12,r1
        0x10003442:    5c9b        .\      LDRB     r3,[r3,r2]
        0x10003444:    9a0d        ..      LDR      r2,[sp,#0x34]
        0x10003446:    1e52        R.      SUBS     r2,r2,#1
        0x10003448:    920d        ..      STR      r2,[sp,#0x34]
        0x1000344a:    7013        .p      STRB     r3,[r2,#0]
        0x1000344c:    4661        aF      MOV      r1,r12
        0x1000344e:    4301        .C      ORRS     r1,r1,r0
        0x10003450:    d1f0        ..      BNE      0x10003434 ; _printf_core + 836
        0x10003452:    980d        ..      LDR      r0,[sp,#0x34]
        0x10003454:    a905        ..      ADD      r1,sp,#0x14
        0x10003456:    1a08        ..      SUBS     r0,r1,r0
        0x10003458:    3020         0      ADDS     r0,r0,#0x20
        0x1000345a:    9001        ..      STR      r0,[sp,#4]
        0x1000345c:    0760        `.      LSLS     r0,r4,#29
        0x1000345e:    d503        ..      BPL      0x10003468 ; _printf_core + 888
        0x10003460:    2001        .       MOVS     r0,#1
        0x10003462:    0400        ..      LSLS     r0,r0,#16
        0x10003464:    4384        .C      BICS     r4,r4,r0
        0x10003466:    e000        ..      B        0x1000346a ; _printf_core + 890
        0x10003468:    2701        .'      MOVS     r7,#1
        0x1000346a:    9801        ..      LDR      r0,[sp,#4]
        0x1000346c:    4287        .B      CMP      r7,r0
        0x1000346e:    dd01        ..      BLE      0x10003474 ; _printf_core + 900
        0x10003470:    1a38        8.      SUBS     r0,r7,r0
        0x10003472:    e000        ..      B        0x10003476 ; _printf_core + 902
        0x10003474:    2000        .       MOVS     r0,#0
        0x10003476:    9901        ..      LDR      r1,[sp,#4]
        0x10003478:    9000        ..      STR      r0,[sp,#0]
        0x1000347a:    1841        A.      ADDS     r1,r0,r1
        0x1000347c:    9802        ..      LDR      r0,[sp,#8]
        0x1000347e:    1809        ..      ADDS     r1,r1,r0
        0x10003480:    9804        ..      LDR      r0,[sp,#0x10]
        0x10003482:    1a40        @.      SUBS     r0,r0,r1
        0x10003484:    9004        ..      STR      r0,[sp,#0x10]
        0x10003486:    03e0        ..      LSLS     r0,r4,#15
        0x10003488:    d406        ..      BMI      0x10003498 ; _printf_core + 936
        0x1000348a:    4621        !F      MOV      r1,r4
        0x1000348c:    9b1a        ..      LDR      r3,[sp,#0x68]
        0x1000348e:    9a19        ..      LDR      r2,[sp,#0x64]
        0x10003490:    9804        ..      LDR      r0,[sp,#0x10]
        0x10003492:    f000f9b3    ....    BL       _printf_pre_padding ; 0x100037fc
        0x10003496:    1945        E.      ADDS     r5,r0,r5
        0x10003498:    2700        .'      MOVS     r7,#0
        0x1000349a:    e006        ..      B        0x100034aa ; _printf_core + 954
        0x1000349c:    a803        ..      ADD      r0,sp,#0xc
        0x1000349e:    9a1a        ..      LDR      r2,[sp,#0x68]
        0x100034a0:    5dc0        .]      LDRB     r0,[r0,r7]
        0x100034a2:    9919        ..      LDR      r1,[sp,#0x64]
        0x100034a4:    4790        .G      BLX      r2
        0x100034a6:    1c6d        m.      ADDS     r5,r5,#1
        0x100034a8:    1c7f        ..      ADDS     r7,r7,#1
        0x100034aa:    9802        ..      LDR      r0,[sp,#8]
        0x100034ac:    4287        .B      CMP      r7,r0
        0x100034ae:    dbf5        ..      BLT      0x1000349c ; _printf_core + 940
        0x100034b0:    03e0        ..      LSLS     r0,r4,#15
        0x100034b2:    d50c        ..      BPL      0x100034ce ; _printf_core + 990
        0x100034b4:    4621        !F      MOV      r1,r4
        0x100034b6:    9b1a        ..      LDR      r3,[sp,#0x68]
        0x100034b8:    9a19        ..      LDR      r2,[sp,#0x64]
        0x100034ba:    9804        ..      LDR      r0,[sp,#0x10]
        0x100034bc:    f000f99e    ....    BL       _printf_pre_padding ; 0x100037fc
        0x100034c0:    1945        E.      ADDS     r5,r0,r5
        0x100034c2:    e004        ..      B        0x100034ce ; _printf_core + 990
        0x100034c4:    9a1a        ..      LDR      r2,[sp,#0x68]
        0x100034c6:    2030        0       MOVS     r0,#0x30
        0x100034c8:    9919        ..      LDR      r1,[sp,#0x64]
        0x100034ca:    4790        .G      BLX      r2
        0x100034cc:    1c6d        m.      ADDS     r5,r5,#1
        0x100034ce:    9900        ..      LDR      r1,[sp,#0]
        0x100034d0:    1e48        H.      SUBS     r0,r1,#1
        0x100034d2:    9000        ..      STR      r0,[sp,#0]
        0x100034d4:    2900        .)      CMP      r1,#0
        0x100034d6:    dcf5        ..      BGT      0x100034c4 ; _printf_core + 980
        0x100034d8:    e008        ..      B        0x100034ec ; _printf_core + 1020
        0x100034da:    980d        ..      LDR      r0,[sp,#0x34]
        0x100034dc:    990d        ..      LDR      r1,[sp,#0x34]
        0x100034de:    7800        .x      LDRB     r0,[r0,#0]
        0x100034e0:    1c49        I.      ADDS     r1,r1,#1
        0x100034e2:    910d        ..      STR      r1,[sp,#0x34]
        0x100034e4:    9a1a        ..      LDR      r2,[sp,#0x68]
        0x100034e6:    9919        ..      LDR      r1,[sp,#0x64]
        0x100034e8:    4790        .G      BLX      r2
        0x100034ea:    1c6d        m.      ADDS     r5,r5,#1
        0x100034ec:    9901        ..      LDR      r1,[sp,#4]
        0x100034ee:    1e48        H.      SUBS     r0,r1,#1
        0x100034f0:    9001        ..      STR      r0,[sp,#4]
        0x100034f2:    2900        .)      CMP      r1,#0
        0x100034f4:    dcf1        ..      BGT      0x100034da ; _printf_core + 1002
        0x100034f6:    e163        c.      B        0x100037c0 ; _printf_core + 1744
    $d
        0x100034f8:    00012809    .(..    DCD    75785
        0x100034fc:    33323130    0123    DCD    858927408
        0x10003500:    37363534    4567    DCD    926299444
        0x10003504:    62613938    89ab    DCD    1650538808
        0x10003508:    66656463    cdef    DCD    1717920867
        0x1000350c:    00000000    ....    DCD    0
        0x10003510:    33323130    0123    DCD    858927408
        0x10003514:    37363534    4567    DCD    926299444
        0x10003518:    42413938    89AB    DCD    1111570744
        0x1000351c:    46454443    CDEF    DCD    1178944579
        0x10003520:    00000000    ....    DCD    0
    $t
        0x10003524:    f000f95a    ..Z.    BL       _printf_post_padding ; 0x100037dc
        0x10003528:    1945        E.      ADDS     r5,r0,r5
        0x1000352a:    1c76        v.      ADDS     r6,r6,#1
        0x1000352c:    7830        0x      LDRB     r0,[r6,#0]
        0x1000352e:    2800        .(      CMP      r0,#0
        0x10003530:    d000        ..      BEQ      0x10003534 ; _printf_core + 1092
        0x10003532:    e5e2        ..      B        0x100030fa ; _printf_core + 10
        0x10003534:    4628        (F      MOV      r0,r5
        0x10003536:    b01b        ..      ADD      sp,sp,#0x6c
        0x10003538:    bdf0        ..      POP      {r4-r7,pc}
        0x1000353a:    0760        `.      LSLS     r0,r4,#29
        0x1000353c:    d400        ..      BMI      0x10003540 ; _printf_core + 1104
        0x1000353e:    2706        .'      MOVS     r7,#6
        0x10003540:    9818        ..      LDR      r0,[sp,#0x60]
        0x10003542:    1dc0        ..      ADDS     r0,r0,#7
        0x10003544:    08c1        ..      LSRS     r1,r0,#3
        0x10003546:    00c9        ..      LSLS     r1,r1,#3
        0x10003548:    6848        Hh      LDR      r0,[r1,#4]
        0x1000354a:    680a        .h      LDR      r2,[r1,#0]
        0x1000354c:    3108        .1      ADDS     r1,r1,#8
        0x1000354e:    0fc3        ..      LSRS     r3,r0,#31
        0x10003550:    07db        ..      LSLS     r3,r3,#31
        0x10003552:    9118        ..      STR      r1,[sp,#0x60]
        0x10003554:    0019        ..      MOVS     r1,r3
        0x10003556:    d001        ..      BEQ      0x1000355c ; _printf_core + 1132
        0x10003558:    a19c        ..      ADR      r1,{pc}+0x274 ; 0x100037cc
        0x1000355a:    e008        ..      B        0x1000356e ; _printf_core + 1150
        0x1000355c:    0521        !.      LSLS     r1,r4,#20
        0x1000355e:    d501        ..      BPL      0x10003564 ; _printf_core + 1140
        0x10003560:    a19b        ..      ADR      r1,{pc}+0x270 ; 0x100037d0
        0x10003562:    e004        ..      B        0x1000356e ; _printf_core + 1150
        0x10003564:    07e1        ..      LSLS     r1,r4,#31
        0x10003566:    d001        ..      BEQ      0x1000356c ; _printf_core + 1148
        0x10003568:    a19a        ..      ADR      r1,{pc}+0x26c ; 0x100037d4
        0x1000356a:    e000        ..      B        0x1000356e ; _printf_core + 1150
        0x1000356c:    a19a        ..      ADR      r1,{pc}+0x26c ; 0x100037d8
        0x1000356e:    0043        C.      LSLS     r3,r0,#1
        0x10003570:    9811        ..      LDR      r0,[sp,#0x44]
        0x10003572:    085b        [.      LSRS     r3,r3,#1
        0x10003574:    9110        ..      STR      r1,[sp,#0x40]
        0x10003576:    2865        e(      CMP      r0,#0x65
        0x10003578:    d00c        ..      BEQ      0x10003594 ; _printf_core + 1188
        0x1000357a:    dc06        ..      BGT      0x1000358a ; _printf_core + 1178
        0x1000357c:    2845        E(      CMP      r0,#0x45
        0x1000357e:    d009        ..      BEQ      0x10003594 ; _printf_core + 1188
        0x10003580:    2846        F(      CMP      r0,#0x46
        0x10003582:    d01d        ..      BEQ      0x100035c0 ; _printf_core + 1232
        0x10003584:    2847        G(      CMP      r0,#0x47
        0x10003586:    d141        A.      BNE      0x1000360c ; _printf_core + 1308
        0x10003588:    e041        A.      B        0x1000360e ; _printf_core + 1310
        0x1000358a:    2866        f(      CMP      r0,#0x66
        0x1000358c:    d018        ..      BEQ      0x100035c0 ; _printf_core + 1232
        0x1000358e:    2867        g(      CMP      r0,#0x67
        0x10003590:    d13c        <.      BNE      0x1000360c ; _printf_core + 1308
        0x10003592:    e03c        <.      B        0x1000360e ; _printf_core + 1310
        0x10003594:    2100        .!      MOVS     r1,#0
        0x10003596:    2f11        ./      CMP      r7,#0x11
        0x10003598:    db01        ..      BLT      0x1000359e ; _printf_core + 1198
        0x1000359a:    2011        .       MOVS     r0,#0x11
        0x1000359c:    e000        ..      B        0x100035a0 ; _printf_core + 1200
        0x1000359e:    1c78        x.      ADDS     r0,r7,#1
        0x100035a0:    9101        ..      STR      r1,[sp,#4]
        0x100035a2:    9000        ..      STR      r0,[sp,#0]
        0x100035a4:    a908        ..      ADD      r1,sp,#0x20
        0x100035a6:    a811        ..      ADD      r0,sp,#0x44
        0x100035a8:    f7fffcf6    ....    BL       _fp_digits ; 0x10002f98
        0x100035ac:    9913        ..      LDR      r1,[sp,#0x4c]
        0x100035ae:    9105        ..      STR      r1,[sp,#0x14]
        0x100035b0:    2100        .!      MOVS     r1,#0
        0x100035b2:    9a11        ..      LDR      r2,[sp,#0x44]
        0x100035b4:    9215        ..      STR      r2,[sp,#0x54]
        0x100035b6:    1c7f        ..      ADDS     r7,r7,#1
        0x100035b8:    9812        ..      LDR      r0,[sp,#0x48]
        0x100035ba:    9701        ..      STR      r7,[sp,#4]
        0x100035bc:    9100        ..      STR      r1,[sp,#0]
        0x100035be:    e050        P.      B        0x10003662 ; _printf_core + 1394
        0x100035c0:    2001        .       MOVS     r0,#1
        0x100035c2:    07c0        ..      LSLS     r0,r0,#31
        0x100035c4:    9003        ..      STR      r0,[sp,#0xc]
        0x100035c6:    2001        .       MOVS     r0,#1
        0x100035c8:    9001        ..      STR      r0,[sp,#4]
        0x100035ca:    a908        ..      ADD      r1,sp,#0x20
        0x100035cc:    9700        ..      STR      r7,[sp,#0]
        0x100035ce:    a811        ..      ADD      r0,sp,#0x44
        0x100035d0:    f7fffce2    ....    BL       _fp_digits ; 0x10002f98
        0x100035d4:    9a13        ..      LDR      r2,[sp,#0x4c]
        0x100035d6:    9914        ..      LDR      r1,[sp,#0x50]
        0x100035d8:    9205        ..      STR      r2,[sp,#0x14]
        0x100035da:    2200        ."      MOVS     r2,#0
        0x100035dc:    9b11        ..      LDR      r3,[sp,#0x44]
        0x100035de:    9200        ..      STR      r2,[sp,#0]
        0x100035e0:    9812        ..      LDR      r0,[sp,#0x48]
        0x100035e2:    9315        ..      STR      r3,[sp,#0x54]
        0x100035e4:    9a05        ..      LDR      r2,[sp,#0x14]
        0x100035e6:    9201        ..      STR      r2,[sp,#4]
        0x100035e8:    2900        .)      CMP      r1,#0
        0x100035ea:    d001        ..      BEQ      0x100035f0 ; _printf_core + 1280
        0x100035ec:    4610        .F      MOV      r0,r2
        0x100035ee:    e002        ..      B        0x100035f6 ; _printf_core + 1286
        0x100035f0:    1c79        y.      ADDS     r1,r7,#1
        0x100035f2:    1840        @.      ADDS     r0,r0,r1
        0x100035f4:    9001        ..      STR      r0,[sp,#4]
        0x100035f6:    1a38        8.      SUBS     r0,r7,r0
        0x100035f8:    d501        ..      BPL      0x100035fe ; _printf_core + 1294
        0x100035fa:    9801        ..      LDR      r0,[sp,#4]
        0x100035fc:    e004        ..      B        0x10003608 ; _printf_core + 1304
        0x100035fe:    4240        @B      RSBS     r0,r0,#0
        0x10003600:    1e40        @.      SUBS     r0,r0,#1
        0x10003602:    9000        ..      STR      r0,[sp,#0]
        0x10003604:    1c78        x.      ADDS     r0,r7,#1
        0x10003606:    9001        ..      STR      r0,[sp,#4]
        0x10003608:    1bc0        ..      SUBS     r0,r0,r7
        0x1000360a:    9002        ..      STR      r0,[sp,#8]
        0x1000360c:    e043        C.      B        0x10003696 ; _printf_core + 1446
        0x1000360e:    2f01        ./      CMP      r7,#1
        0x10003610:    da00        ..      BGE      0x10003614 ; _printf_core + 1316
        0x10003612:    2701        .'      MOVS     r7,#1
        0x10003614:    2100        .!      MOVS     r1,#0
        0x10003616:    2f11        ./      CMP      r7,#0x11
        0x10003618:    dd01        ..      BLE      0x1000361e ; _printf_core + 1326
        0x1000361a:    2011        .       MOVS     r0,#0x11
        0x1000361c:    e000        ..      B        0x10003620 ; _printf_core + 1328
        0x1000361e:    4638        8F      MOV      r0,r7
        0x10003620:    9101        ..      STR      r1,[sp,#4]
        0x10003622:    9000        ..      STR      r0,[sp,#0]
        0x10003624:    a908        ..      ADD      r1,sp,#0x20
        0x10003626:    a811        ..      ADD      r0,sp,#0x44
        0x10003628:    f7fffcb6    ....    BL       _fp_digits ; 0x10002f98
        0x1000362c:    9913        ..      LDR      r1,[sp,#0x4c]
        0x1000362e:    9105        ..      STR      r1,[sp,#0x14]
        0x10003630:    9a11        ..      LDR      r2,[sp,#0x44]
        0x10003632:    2100        .!      MOVS     r1,#0
        0x10003634:    9812        ..      LDR      r0,[sp,#0x48]
        0x10003636:    9215        ..      STR      r2,[sp,#0x54]
        0x10003638:    9100        ..      STR      r1,[sp,#0]
        0x1000363a:    9701        ..      STR      r7,[sp,#4]
        0x1000363c:    0721        !.      LSLS     r1,r4,#28
        0x1000363e:    d40c        ..      BMI      0x1000365a ; _printf_core + 1386
        0x10003640:    9905        ..      LDR      r1,[sp,#0x14]
        0x10003642:    42b9        .B      CMP      r1,r7
        0x10003644:    db01        ..      BLT      0x1000364a ; _printf_core + 1370
        0x10003646:    9901        ..      LDR      r1,[sp,#4]
        0x10003648:    e000        ..      B        0x1000364c ; _printf_core + 1372
        0x1000364a:    9101        ..      STR      r1,[sp,#4]
        0x1000364c:    2901        .)      CMP      r1,#1
        0x1000364e:    dd04        ..      BLE      0x1000365a ; _printf_core + 1386
        0x10003650:    9a15        ..      LDR      r2,[sp,#0x54]
        0x10003652:    1e49        I.      SUBS     r1,r1,#1
        0x10003654:    5c51        Q\      LDRB     r1,[r2,r1]
        0x10003656:    2930        0)      CMP      r1,#0x30
        0x10003658:    d006        ..      BEQ      0x10003668 ; _printf_core + 1400
        0x1000365a:    42b8        .B      CMP      r0,r7
        0x1000365c:    da01        ..      BGE      0x10003662 ; _printf_core + 1394
        0x1000365e:    1d01        ..      ADDS     r1,r0,#4
        0x10003660:    da05        ..      BGE      0x1000366e ; _printf_core + 1406
        0x10003662:    2101        .!      MOVS     r1,#1
        0x10003664:    9102        ..      STR      r1,[sp,#8]
        0x10003666:    e015        ..      B        0x10003694 ; _printf_core + 1444
        0x10003668:    9901        ..      LDR      r1,[sp,#4]
        0x1000366a:    1e49        I.      SUBS     r1,r1,#1
        0x1000366c:    e7ed        ..      B        0x1000364a ; _printf_core + 1370
        0x1000366e:    2800        .(      CMP      r0,#0
        0x10003670:    dc05        ..      BGT      0x1000367e ; _printf_core + 1422
        0x10003672:    9900        ..      LDR      r1,[sp,#0]
        0x10003674:    1841        A.      ADDS     r1,r0,r1
        0x10003676:    9100        ..      STR      r1,[sp,#0]
        0x10003678:    9901        ..      LDR      r1,[sp,#4]
        0x1000367a:    1a09        ..      SUBS     r1,r1,r0
        0x1000367c:    e003        ..      B        0x10003686 ; _printf_core + 1430
        0x1000367e:    9a01        ..      LDR      r2,[sp,#4]
        0x10003680:    1c41        A.      ADDS     r1,r0,#1
        0x10003682:    4291        .B      CMP      r1,r2
        0x10003684:    dd00        ..      BLE      0x10003688 ; _printf_core + 1432
        0x10003686:    9101        ..      STR      r1,[sp,#4]
        0x10003688:    9900        ..      LDR      r1,[sp,#0]
        0x1000368a:    1a40        @.      SUBS     r0,r0,r1
        0x1000368c:    1c40        @.      ADDS     r0,r0,#1
        0x1000368e:    9002        ..      STR      r0,[sp,#8]
        0x10003690:    2001        .       MOVS     r0,#1
        0x10003692:    07c0        ..      LSLS     r0,r0,#31
        0x10003694:    9003        ..      STR      r0,[sp,#0xc]
        0x10003696:    0720         .      LSLS     r0,r4,#28
        0x10003698:    d406        ..      BMI      0x100036a8 ; _printf_core + 1464
        0x1000369a:    9902        ..      LDR      r1,[sp,#8]
        0x1000369c:    9801        ..      LDR      r0,[sp,#4]
        0x1000369e:    4281        .B      CMP      r1,r0
        0x100036a0:    db02        ..      BLT      0x100036a8 ; _printf_core + 1464
        0x100036a2:    2000        .       MOVS     r0,#0
        0x100036a4:    43c0        .C      MVNS     r0,r0
        0x100036a6:    9002        ..      STR      r0,[sp,#8]
        0x100036a8:    2000        .       MOVS     r0,#0
        0x100036aa:    4669        iF      MOV      r1,sp
        0x100036ac:    77c8        .w      STRB     r0,[r1,#0x1f]
        0x100036ae:    af07        ..      ADD      r7,sp,#0x1c
        0x100036b0:    2101        .!      MOVS     r1,#1
        0x100036b2:    9803        ..      LDR      r0,[sp,#0xc]
        0x100036b4:    3703        .7      ADDS     r7,#3
        0x100036b6:    07c9        ..      LSLS     r1,r1,#31
        0x100036b8:    4288        .B      CMP      r0,r1
        0x100036ba:    d024        $.      BEQ      0x10003706 ; _printf_core + 1558
        0x100036bc:    2002        .       MOVS     r0,#2
        0x100036be:    9011        ..      STR      r0,[sp,#0x44]
        0x100036c0:    202b        +       MOVS     r0,#0x2b
        0x100036c2:    9012        ..      STR      r0,[sp,#0x48]
        0x100036c4:    9803        ..      LDR      r0,[sp,#0xc]
        0x100036c6:    2800        .(      CMP      r0,#0
        0x100036c8:    da0c        ..      BGE      0x100036e4 ; _printf_core + 1524
        0x100036ca:    4240        @B      RSBS     r0,r0,#0
        0x100036cc:    9003        ..      STR      r0,[sp,#0xc]
        0x100036ce:    202d        -       MOVS     r0,#0x2d
        0x100036d0:    9012        ..      STR      r0,[sp,#0x48]
        0x100036d2:    e007        ..      B        0x100036e4 ; _printf_core + 1524
        0x100036d4:    210a        .!      MOVS     r1,#0xa
        0x100036d6:    9803        ..      LDR      r0,[sp,#0xc]
        0x100036d8:    f7fff826    ..&.    BL       __aeabi_uidiv ; 0x10002728
        0x100036dc:    3130        01      ADDS     r1,r1,#0x30
        0x100036de:    1e7f        ..      SUBS     r7,r7,#1
        0x100036e0:    9003        ..      STR      r0,[sp,#0xc]
        0x100036e2:    7039        9p      STRB     r1,[r7,#0]
        0x100036e4:    9911        ..      LDR      r1,[sp,#0x44]
        0x100036e6:    1e48        H.      SUBS     r0,r1,#1
        0x100036e8:    9011        ..      STR      r0,[sp,#0x44]
        0x100036ea:    2900        .)      CMP      r1,#0
        0x100036ec:    dcf2        ..      BGT      0x100036d4 ; _printf_core + 1508
        0x100036ee:    9803        ..      LDR      r0,[sp,#0xc]
        0x100036f0:    2800        .(      CMP      r0,#0
        0x100036f2:    d1ef        ..      BNE      0x100036d4 ; _printf_core + 1508
        0x100036f4:    1e79        y.      SUBS     r1,r7,#1
        0x100036f6:    9812        ..      LDR      r0,[sp,#0x48]
        0x100036f8:    7008        .p      STRB     r0,[r1,#0]
        0x100036fa:    7830        0x      LDRB     r0,[r6,#0]
        0x100036fc:    2120         !      MOVS     r1,#0x20
        0x100036fe:    4008        .@      ANDS     r0,r0,r1
        0x10003700:    3045        E0      ADDS     r0,r0,#0x45
        0x10003702:    1ebf        ..      SUBS     r7,r7,#2
        0x10003704:    7038        8p      STRB     r0,[r7,#0]
        0x10003706:    a806        ..      ADD      r0,sp,#0x18
        0x10003708:    1bc0        ..      SUBS     r0,r0,r7
        0x1000370a:    1dc0        ..      ADDS     r0,r0,#7
        0x1000370c:    9003        ..      STR      r0,[sp,#0xc]
        0x1000370e:    9810        ..      LDR      r0,[sp,#0x40]
        0x10003710:    7800        .x      LDRB     r0,[r0,#0]
        0x10003712:    2800        .(      CMP      r0,#0
        0x10003714:    d000        ..      BEQ      0x10003718 ; _printf_core + 1576
        0x10003716:    2001        .       MOVS     r0,#1
        0x10003718:    9901        ..      LDR      r1,[sp,#4]
        0x1000371a:    1841        A.      ADDS     r1,r0,r1
        0x1000371c:    9802        ..      LDR      r0,[sp,#8]
        0x1000371e:    17c0        ..      ASRS     r0,r0,#31
        0x10003720:    1809        ..      ADDS     r1,r1,r0
        0x10003722:    9803        ..      LDR      r0,[sp,#0xc]
        0x10003724:    1809        ..      ADDS     r1,r1,r0
        0x10003726:    9804        ..      LDR      r0,[sp,#0x10]
        0x10003728:    1a40        @.      SUBS     r0,r0,r1
        0x1000372a:    1e40        @.      SUBS     r0,r0,#1
        0x1000372c:    9004        ..      STR      r0,[sp,#0x10]
        0x1000372e:    03e0        ..      LSLS     r0,r4,#15
        0x10003730:    d406        ..      BMI      0x10003740 ; _printf_core + 1616
        0x10003732:    4621        !F      MOV      r1,r4
        0x10003734:    9b1a        ..      LDR      r3,[sp,#0x68]
        0x10003736:    9a19        ..      LDR      r2,[sp,#0x64]
        0x10003738:    9804        ..      LDR      r0,[sp,#0x10]
        0x1000373a:    f000f85f    .._.    BL       _printf_pre_padding ; 0x100037fc
        0x1000373e:    1945        E.      ADDS     r5,r0,r5
        0x10003740:    9810        ..      LDR      r0,[sp,#0x40]
        0x10003742:    7800        .x      LDRB     r0,[r0,#0]
        0x10003744:    2800        .(      CMP      r0,#0
        0x10003746:    d003        ..      BEQ      0x10003750 ; _printf_core + 1632
        0x10003748:    9a1a        ..      LDR      r2,[sp,#0x68]
        0x1000374a:    9919        ..      LDR      r1,[sp,#0x64]
        0x1000374c:    4790        .G      BLX      r2
        0x1000374e:    1c6d        m.      ADDS     r5,r5,#1
        0x10003750:    03e0        ..      LSLS     r0,r4,#15
        0x10003752:    d524        $.      BPL      0x1000379e ; _printf_core + 1710
        0x10003754:    4621        !F      MOV      r1,r4
        0x10003756:    9b1a        ..      LDR      r3,[sp,#0x68]
        0x10003758:    9a19        ..      LDR      r2,[sp,#0x64]
        0x1000375a:    9804        ..      LDR      r0,[sp,#0x10]
        0x1000375c:    f000f84e    ..N.    BL       _printf_pre_padding ; 0x100037fc
        0x10003760:    1945        E.      ADDS     r5,r0,r5
        0x10003762:    e01c        ..      B        0x1000379e ; _printf_core + 1710
        0x10003764:    9800        ..      LDR      r0,[sp,#0]
        0x10003766:    2800        .(      CMP      r0,#0
        0x10003768:    db07        ..      BLT      0x1000377a ; _printf_core + 1674
        0x1000376a:    9900        ..      LDR      r1,[sp,#0]
        0x1000376c:    9805        ..      LDR      r0,[sp,#0x14]
        0x1000376e:    4288        .B      CMP      r0,r1
        0x10003770:    dd03        ..      BLE      0x1000377a ; _printf_core + 1674
        0x10003772:    9815        ..      LDR      r0,[sp,#0x54]
        0x10003774:    5c40        @\      LDRB     r0,[r0,r1]
        0x10003776:    9919        ..      LDR      r1,[sp,#0x64]
        0x10003778:    e001        ..      B        0x1000377e ; _printf_core + 1678
        0x1000377a:    9919        ..      LDR      r1,[sp,#0x64]
        0x1000377c:    2030        0       MOVS     r0,#0x30
        0x1000377e:    9a1a        ..      LDR      r2,[sp,#0x68]
        0x10003780:    4790        .G      BLX      r2
        0x10003782:    9800        ..      LDR      r0,[sp,#0]
        0x10003784:    1c6d        m.      ADDS     r5,r5,#1
        0x10003786:    1c40        @.      ADDS     r0,r0,#1
        0x10003788:    9000        ..      STR      r0,[sp,#0]
        0x1000378a:    9802        ..      LDR      r0,[sp,#8]
        0x1000378c:    1e40        @.      SUBS     r0,r0,#1
        0x1000378e:    9002        ..      STR      r0,[sp,#8]
        0x10003790:    2800        .(      CMP      r0,#0
        0x10003792:    d104        ..      BNE      0x1000379e ; _printf_core + 1710
        0x10003794:    9a1a        ..      LDR      r2,[sp,#0x68]
        0x10003796:    202e        .       MOVS     r0,#0x2e
        0x10003798:    9919        ..      LDR      r1,[sp,#0x64]
        0x1000379a:    4790        .G      BLX      r2
        0x1000379c:    1c6d        m.      ADDS     r5,r5,#1
        0x1000379e:    9901        ..      LDR      r1,[sp,#4]
        0x100037a0:    1e48        H.      SUBS     r0,r1,#1
        0x100037a2:    9001        ..      STR      r0,[sp,#4]
        0x100037a4:    2900        .)      CMP      r1,#0
        0x100037a6:    dcdd        ..      BGT      0x10003764 ; _printf_core + 1652
        0x100037a8:    e005        ..      B        0x100037b6 ; _printf_core + 1734
        0x100037aa:    7838        8x      LDRB     r0,[r7,#0]
        0x100037ac:    9a1a        ..      LDR      r2,[sp,#0x68]
        0x100037ae:    1c7f        ..      ADDS     r7,r7,#1
        0x100037b0:    9919        ..      LDR      r1,[sp,#0x64]
        0x100037b2:    4790        .G      BLX      r2
        0x100037b4:    1c6d        m.      ADDS     r5,r5,#1
        0x100037b6:    9903        ..      LDR      r1,[sp,#0xc]
        0x100037b8:    1e48        H.      SUBS     r0,r1,#1
        0x100037ba:    9003        ..      STR      r0,[sp,#0xc]
        0x100037bc:    2900        .)      CMP      r1,#0
        0x100037be:    dcf4        ..      BGT      0x100037aa ; _printf_core + 1722
        0x100037c0:    4621        !F      MOV      r1,r4
        0x100037c2:    9b1a        ..      LDR      r3,[sp,#0x68]
        0x100037c4:    9a19        ..      LDR      r2,[sp,#0x64]
        0x100037c6:    9804        ..      LDR      r0,[sp,#0x10]
        0x100037c8:    e6ac        ..      B        0x10003524 ; _printf_core + 1076
    $d
        0x100037ca:    0000        ..      DCW    0
        0x100037cc:    0000002d    -...    DCD    45
        0x100037d0:    0000002b    +...    DCD    43
        0x100037d4:    00000020     ...    DCD    32
        0x100037d8:    00000000    ....    DCD    0
    $t
    i._printf_post_padding
    _printf_post_padding
        0x100037dc:    b5f8        ..      PUSH     {r3-r7,lr}
        0x100037de:    4604        .F      MOV      r4,r0
        0x100037e0:    2500        .%      MOVS     r5,#0
        0x100037e2:    461e        .F      MOV      r6,r3
        0x100037e4:    4617        .F      MOV      r7,r2
        0x100037e6:    0488        ..      LSLS     r0,r1,#18
        0x100037e8:    d404        ..      BMI      0x100037f4 ; _printf_post_padding + 24
        0x100037ea:    e005        ..      B        0x100037f8 ; _printf_post_padding + 28
        0x100037ec:    4639        9F      MOV      r1,r7
        0x100037ee:    2020                MOVS     r0,#0x20
        0x100037f0:    47b0        .G      BLX      r6
        0x100037f2:    1c6d        m.      ADDS     r5,r5,#1
        0x100037f4:    1e64        d.      SUBS     r4,r4,#1
        0x100037f6:    d5f9        ..      BPL      0x100037ec ; _printf_post_padding + 16
        0x100037f8:    4628        (F      MOV      r0,r5
        0x100037fa:    bdf8        ..      POP      {r3-r7,pc}
    i._printf_pre_padding
    _printf_pre_padding
        0x100037fc:    b5ff        ..      PUSH     {r0-r7,lr}
        0x100037fe:    4604        .F      MOV      r4,r0
        0x10003800:    2500        .%      MOVS     r5,#0
        0x10003802:    b081        ..      SUB      sp,sp,#4
        0x10003804:    461e        .F      MOV      r6,r3
        0x10003806:    03c8        ..      LSLS     r0,r1,#15
        0x10003808:    d501        ..      BPL      0x1000380e ; _printf_pre_padding + 18
        0x1000380a:    2730        0'      MOVS     r7,#0x30
        0x1000380c:    e000        ..      B        0x10003810 ; _printf_pre_padding + 20
        0x1000380e:    2720         '      MOVS     r7,#0x20
        0x10003810:    0488        ..      LSLS     r0,r1,#18
        0x10003812:    d504        ..      BPL      0x1000381e ; _printf_pre_padding + 34
        0x10003814:    e005        ..      B        0x10003822 ; _printf_pre_padding + 38
        0x10003816:    4638        8F      MOV      r0,r7
        0x10003818:    9903        ..      LDR      r1,[sp,#0xc]
        0x1000381a:    47b0        .G      BLX      r6
        0x1000381c:    1c6d        m.      ADDS     r5,r5,#1
        0x1000381e:    1e64        d.      SUBS     r4,r4,#1
        0x10003820:    d5f9        ..      BPL      0x10003816 ; _printf_pre_padding + 26
        0x10003822:    4628        (F      MOV      r0,r5
        0x10003824:    b005        ..      ADD      sp,sp,#0x14
        0x10003826:    bdf0        ..      POP      {r4-r7,pc}
    i._sputc
    _sputc
        0x10003828:    680a        .h      LDR      r2,[r1,#0]
        0x1000382a:    1c53        S.      ADDS     r3,r2,#1
        0x1000382c:    600b        .`      STR      r3,[r1,#0]
        0x1000382e:    7010        .p      STRB     r0,[r2,#0]
        0x10003830:    4770        pG      BX       lr
        0x10003832:    0000        ..      MOVS     r0,r0
    $d.realdata
    Region$$Table$$Base
        0x10003834:    10003854    T8..    DCD    268449876
        0x10003838:    20003000    .0.     DCD    536883200
        0x1000383c:    00000088    ....    DCD    136
        0x10003840:    10002f78    x/..    DCD    268447608
        0x10003844:    100038dc    .8..    DCD    268450012
        0x10003848:    20003088    .0.     DCD    536883336
        0x1000384c:    000004e8    ....    DCD    1256
        0x10003850:    10002f88    ./..    DCD    268447624
    Region$$Table$$Limit

** Section #2 'RW_IRAM1' (SHT_PROGBITS) [SHF_ALLOC + SHF_WRITE]
    Size   : 136 bytes (alignment 4)
    Address: 0x20003000


** Section #3 'RW_IRAM1' (SHT_NOBITS) [SHF_ALLOC + SHF_WRITE]
    Size   : 1256 bytes (alignment 8)
    Address: 0x20003088


** Section #4 '.debug_abbrev' (SHT_PROGBITS)
    Size   : 1476 bytes


** Section #5 '.debug_frame' (SHT_PROGBITS)
    Size   : 5484 bytes


** Section #6 '.debug_info' (SHT_PROGBITS)
    Size   : 111492 bytes


** Section #7 '.debug_line' (SHT_PROGBITS)
    Size   : 10112 bytes


** Section #8 '.debug_loc' (SHT_PROGBITS)
    Size   : 10800 bytes


** Section #9 '.debug_macinfo' (SHT_PROGBITS)
    Size   : 18272 bytes


** Section #10 '.debug_pubnames' (SHT_PROGBITS)
    Size   : 3004 bytes


** Section #11 '.symtab' (SHT_SYMTAB)
    Size   : 7584 bytes (alignment 4)
    String table #12 '.strtab'
    Last local symbol no. 221


** Section #12 '.strtab' (SHT_STRTAB)
    Size   : 5712 bytes


** Section #13 '.note' (SHT_NOTE)
    Size   : 28 bytes (alignment 4)


** Section #14 '.comment' (SHT_PROGBITS)
    Size   : 8940 bytes


** Section #15 '.shstrtab' (SHT_STRTAB)
    Size   : 156 bytes


