
========================================================================

** ELF Header Information

    File Name: .\output\Syd8811_Peripheral.axf

    Machine class: ELFCLASS32 (32-bit)
    Data encoding: ELFDATA2LSB (Little endian)
    Header version: EV_CURRENT (Current version)
    Operating System ABI: none
    ABI Version: 0
    File Type: ET_EXEC (Executable) (2)
    Machine: EM_ARM (ARM)

    Image Entry point: 0x100000c1
    Flags: EF_ARM_HASENTRY + EF_ARM_ABI_FLOAT_SOFT (0x05000202)

    ARM ELF revision: 5 (ABI version 2)

    Conforms to Soft float procedure-call standard

    Built with
    Component: ARM Compiler 5.06 update 6 (build 750) Tool: armasm [4d35ec]
    Component: ARM Compiler 5.06 update 6 (build 750) Tool: armlink [4d35ed]

    Header size: 52 bytes (0x34)
    Program header entry size: 32 bytes (0x20)
    Section header entry size: 40 bytes (0x28)

    Program header entries: 1
    Section header entries: 16

    Program header offset: 200940 (0x000310ec)
    Section header offset: 200972 (0x0003110c)

    Section header string table index: 15

========================================================================

** Program header #0 (PT_LOAD) [PF_X + PF_W + PF_R + PF_ARM_ENTRY]
    Size : 17524 bytes (16256 bytes in file)
    Virtual address: 0x10000000 (Alignment 8)


========================================================================

** Section #1 'ER_IROM1' (SHT_PROGBITS) [SHF_ALLOC + SHF_EXECINSTR]
    Size   : 16092 bytes (alignment 4)
    Address: 0x10000000

    $d.realdata
    RESET
    __Vectors
        0x10000000:    20003598    .5.     DCD    536884632
        0x10000004:    100008d1    ....    DCD    268437713
        0x10000008:    100008d9    ....    DCD    268437721
        0x1000000c:    100008db    ....    DCD    268437723
        0x10000010:    00000000    ....    DCD    0
        0x10000014:    00000000    ....    DCD    0
        0x10000018:    00000000    ....    DCD    0
        0x1000001c:    00000000    ....    DCD    0
        0x10000020:    00000000    ....    DCD    0
        0x10000024:    00000000    ....    DCD    0
        0x10000028:    00000000    ....    DCD    0
        0x1000002c:    100008dd    ....    DCD    268437725
        0x10000030:    00000000    ....    DCD    0
        0x10000034:    00000000    ....    DCD    0
        0x10000038:    100008df    ....    DCD    268437727
        0x1000003c:    100008e1    ....    DCD    268437729
        0x10000040:    00000000    ....    DCD    0
        0x10000044:    100008e3    ....    DCD    268437731
        0x10000048:    100008e3    ....    DCD    268437731
        0x1000004c:    100008e3    ....    DCD    268437731
        0x10000050:    100008e3    ....    DCD    268437731
        0x10000054:    100008e3    ....    DCD    268437731
        0x10000058:    10000759    Y...    DCD    268437337
        0x1000005c:    1000080b    ....    DCD    268437515
        0x10000060:    100001d9    ....    DCD    268435929
        0x10000064:    100002b7    ....    DCD    268436151
        0x10000068:    100002ef    ....    DCD    268436207
        0x1000006c:    100008e3    ....    DCD    268437731
        0x10000070:    100004a9    ....    DCD    268436649
        0x10000074:    100008e3    ....    DCD    268437731
        0x10000078:    100008e3    ....    DCD    268437731
        0x1000007c:    100008e3    ....    DCD    268437731
        0x10000080:    100008e3    ....    DCD    268437731
        0x10000084:    100008e3    ....    DCD    268437731
        0x10000088:    100008e3    ....    DCD    268437731
        0x1000008c:    100008e3    ....    DCD    268437731
        0x10000090:    100008e3    ....    DCD    268437731
        0x10000094:    100008e3    ....    DCD    268437731
        0x10000098:    10000327    '...    DCD    268436263
        0x1000009c:    100008e3    ....    DCD    268437731
        0x100000a0:    00000000    ....    DCD    0
        0x100000a4:    00000000    ....    DCD    0
        0x100000a8:    00000000    ....    DCD    0
        0x100000ac:    00000000    ....    DCD    0
        0x100000b0:    00000000    ....    DCD    0
        0x100000b4:    00000000    ....    DCD    0
        0x100000b8:    00000000    ....    DCD    0
        0x100000bc:    00000000    ....    DCD    0
    $t
    .ARM.Collect$$$$00000000
    .ARM.Collect$$$$00000001
    __Vectors_End
    __main
    _main_stk
        0x100000c0:    4803        .H      LDR      r0,__lit__00000000 ; [0x100000d0] = 0x20003598
        0x100000c2:    4685        .F      MOV      sp,r0
    .ARM.Collect$$$$00000004
    _main_scatterload
        0x100000c4:    f003fa34    ..4.    BL       __scatterload ; 0x10003530
    .ARM.Collect$$$$00000008
    .ARM.Collect$$$$0000000A
    .ARM.Collect$$$$0000000B
    __main_after_scatterload
    _main_clock
    _main_cpp_init
    _main_init
        0x100000c8:    4800        .H      LDR      r0,[pc,#0] ; [0x100000cc] = 0x100000eb
        0x100000ca:    4700        .G      BX       r0
    $d
        0x100000cc:    100000eb    ....    DCD    268435691
    .ARM.Collect$$$$00002712
    __lit__00000000
    .ARM.Collect$$$$0000000D
    .ARM.Collect$$$$0000000F
    __rt_final_cpp
    __rt_final_exit
        0x100000d0:    20003598    .5.     DCD    536884632
    $t
    .text
    Timer_1_callback
        0x100000d4:    b510        ..      PUSH     {r4,lr}
        0x100000d6:    2001        .       MOVS     r0,#1
        0x100000d8:    4921        !I      LDR      r1,[pc,#132] ; [0x10000160] = 0x20003000
        0x100000da:    7008        .p      STRB     r0,[r1,#0]
        0x100000dc:    2002        .       MOVS     r0,#2
        0x100000de:    f000f9ca    ....    BL       GPIO_Pin_Turn ; 0x10000476
        0x100000e2:    a020         .      ADR      r0,{pc}+0x82 ; 0x10000164
        0x100000e4:    f000fa30    ..0.    BL       dbg_printf ; 0x10000548
        0x100000e8:    bd10        ..      POP      {r4,pc}
    main
        0x100000ea:    b672        r.      CPSID    i
        0x100000ec:    f001fbc9    ....    BL       BleInit ; 0x10001882
        0x100000f0:    2000        .       MOVS     r0,#0
        0x100000f2:    f001ff68    ..h.    BL       MCUClockSwitch ; 0x10001fc6
        0x100000f6:    2000        .       MOVS     r0,#0
        0x100000f8:    f001f808    ....    BL       ClockSwitch ; 0x1000110c
        0x100000fc:    20ff        .       MOVS     r0,#0xff
        0x100000fe:    30f5        .0      ADDS     r0,r0,#0xf5
        0x10000100:    f000f84c    ..L.    BL       delay_ms ; 0x1000019c
        0x10000104:    f001f82b    ..+.    BL       LPOCalibration ; 0x1000115e
        0x10000108:    2001        .       MOVS     r0,#1
        0x1000010a:    f000f937    ..7.    BL       GPIO_Set_Output ; 0x1000037c
        0x1000010e:    2002        .       MOVS     r0,#2
        0x10000110:    f000f934    ..4.    BL       GPIO_Set_Output ; 0x1000037c
        0x10000114:    2001        .       MOVS     r0,#1
        0x10000116:    0540        @.      LSLS     r0,r0,#21
        0x10000118:    f000f930    ..0.    BL       GPIO_Set_Output ; 0x1000037c
        0x1000011c:    2101        .!      MOVS     r1,#1
        0x1000011e:    0509        ..      LSLS     r1,r1,#20
        0x10000120:    4608        .F      MOV      r0,r1
        0x10000122:    f000f944    ..D.    BL       GPIO_Set_Input ; 0x100003ae
        0x10000126:    4914        .I      LDR      r1,[pc,#80] ; [0x10000178] = 0x100000d5
        0x10000128:    2001        .       MOVS     r0,#1
        0x1000012a:    03c0        ..      LSLS     r0,r0,#15
        0x1000012c:    f000f870    ..p.    BL       timer_1_enable ; 0x10000210
        0x10000130:    f000fa06    ....    BL       dbg_init ; 0x10000540
        0x10000134:    a011        ..      ADR      r0,{pc}+0x48 ; 0x1000017c
        0x10000136:    f000fa07    ....    BL       dbg_printf ; 0x10000548
        0x1000013a:    2005        .       MOVS     r0,#5
        0x1000013c:    01c0        ..      LSLS     r0,r0,#7
        0x1000013e:    f000fbab    ....    BL       wdt_enable ; 0x10000898
        0x10000142:    b662        b.      CPSIE    i
        0x10000144:    e00a        ..      B        0x1000015c ; main + 114
        0x10000146:    4806        .H      LDR      r0,[pc,#24] ; [0x10000160] = 0x20003000
        0x10000148:    7800        .x      LDRB     r0,[r0,#0]
        0x1000014a:    2800        .(      CMP      r0,#0
        0x1000014c:    d004        ..      BEQ      0x10000158 ; main + 110
        0x1000014e:    2000        .       MOVS     r0,#0
        0x10000150:    4903        .I      LDR      r1,[pc,#12] ; [0x10000160] = 0x20003000
        0x10000152:    7008        .p      STRB     r0,[r1,#0]
        0x10000154:    f000fbaf    ....    BL       wdt_clear ; 0x100008b6
        0x10000158:    f002f923    ..#.    BL       ble_sched_execute ; 0x100023a2
        0x1000015c:    e7f3        ..      B        0x10000146 ; main + 92
    $d
        0x1000015e:    0000        ..      DCW    0
        0x10000160:    20003000    .0.     DCD    536883200
        0x10000164:    656d6954    Time    DCD    1701669204
        0x10000168:    5f315f72    r_1_    DCD    1597071218
        0x1000016c:    6c6c6163    call    DCD    1819042147
        0x10000170:    6b636162    back    DCD    1801675106
        0x10000174:    00000a0d    ....    DCD    2573
        0x10000178:    100000d5    ....    DCD    268435669
        0x1000017c:    38445953    SYD8    DCD    944003411
        0x10000180:    20313138    811     DCD    540094776
        0x10000184:    656d6954    Time    DCD    1701669204
        0x10000188:    65542072    r Te    DCD    1700012146
        0x1000018c:    32207473    st 2    DCD    840987763
        0x10000190:    2d383130    018-    DCD    758657328
        0x10000194:    32312d39    9-12    DCD    842083641
        0x10000198:    00000a0d    ....    DCD    2573
    $t
    .text
    delay_ms
        0x1000019c:    2100        .!      MOVS     r1,#0
        0x1000019e:    e008        ..      B        0x100001b2 ; delay_ms + 22
        0x100001a0:    2200        ."      MOVS     r2,#0
        0x100001a2:    e001        ..      B        0x100001a8 ; delay_ms + 12
        0x100001a4:    1c53        S.      ADDS     r3,r2,#1
        0x100001a6:    b29a        ..      UXTH     r2,r3
        0x100001a8:    4b0a        .K      LDR      r3,[pc,#40] ; [0x100001d4] = 0xa8c
        0x100001aa:    429a        .B      CMP      r2,r3
        0x100001ac:    dbfa        ..      BLT      0x100001a4 ; delay_ms + 8
        0x100001ae:    1c4b        K.      ADDS     r3,r1,#1
        0x100001b0:    b299        ..      UXTH     r1,r3
        0x100001b2:    4281        .B      CMP      r1,r0
        0x100001b4:    dbf4        ..      BLT      0x100001a0 ; delay_ms + 4
        0x100001b6:    4770        pG      BX       lr
    delay_us
        0x100001b8:    2100        .!      MOVS     r1,#0
        0x100001ba:    e007        ..      B        0x100001cc ; delay_us + 20
        0x100001bc:    2200        ."      MOVS     r2,#0
        0x100001be:    e001        ..      B        0x100001c4 ; delay_us + 12
        0x100001c0:    1c53        S.      ADDS     r3,r2,#1
        0x100001c2:    b29a        ..      UXTH     r2,r3
        0x100001c4:    2a02        .*      CMP      r2,#2
        0x100001c6:    dbfb        ..      BLT      0x100001c0 ; delay_us + 8
        0x100001c8:    1c4b        K.      ADDS     r3,r1,#1
        0x100001ca:    b299        ..      UXTH     r1,r3
        0x100001cc:    4281        .B      CMP      r1,r0
        0x100001ce:    dbf5        ..      BLT      0x100001bc ; delay_us + 4
        0x100001d0:    4770        pG      BX       lr
    $d
        0x100001d2:    0000        ..      DCW    0
        0x100001d4:    00000a8c    ....    DCD    2700
    $t
    .text
    TIMER0_IRQHandler
        0x100001d8:    b510        ..      PUSH     {r4,lr}
        0x100001da:    4863        cH      LDR      r0,[pc,#396] ; [0x10000368] = 0x20003004
        0x100001dc:    6800        .h      LDR      r0,[r0,#0]
        0x100001de:    3020         0      ADDS     r0,r0,#0x20
        0x100001e0:    7cc0        .|      LDRB     r0,[r0,#0x13]
        0x100001e2:    07c0        ..      LSLS     r0,r0,#31
        0x100001e4:    0fc0        ..      LSRS     r0,r0,#31
        0x100001e6:    2800        .(      CMP      r0,#0
        0x100001e8:    d011        ..      BEQ      0x1000020e ; TIMER0_IRQHandler + 54
        0x100001ea:    485f        _H      LDR      r0,[pc,#380] ; [0x10000368] = 0x20003004
        0x100001ec:    6800        .h      LDR      r0,[r0,#0]
        0x100001ee:    3020         0      ADDS     r0,r0,#0x20
        0x100001f0:    7c40        @|      LDRB     r0,[r0,#0x11]
        0x100001f2:    0840        @.      LSRS     r0,r0,#1
        0x100001f4:    0040        @.      LSLS     r0,r0,#1
        0x100001f6:    1c40        @.      ADDS     r0,r0,#1
        0x100001f8:    495b        [I      LDR      r1,[pc,#364] ; [0x10000368] = 0x20003004
        0x100001fa:    6809        .h      LDR      r1,[r1,#0]
        0x100001fc:    3120         1      ADDS     r1,r1,#0x20
        0x100001fe:    7448        Ht      STRB     r0,[r1,#0x11]
        0x10000200:    485a        ZH      LDR      r0,[pc,#360] ; [0x1000036c] = 0x200030a4
        0x10000202:    6800        .h      LDR      r0,[r0,#0]
        0x10000204:    2800        .(      CMP      r0,#0
        0x10000206:    d002        ..      BEQ      0x1000020e ; TIMER0_IRQHandler + 54
        0x10000208:    4958        XI      LDR      r1,[pc,#352] ; [0x1000036c] = 0x200030a4
        0x1000020a:    6808        .h      LDR      r0,[r1,#0]
        0x1000020c:    4780        .G      BLX      r0
        0x1000020e:    bd10        ..      POP      {r4,pc}
    timer_1_enable
        0x10000210:    b570        p.      PUSH     {r4-r6,lr}
        0x10000212:    4604        .F      MOV      r4,r0
        0x10000214:    460d        .F      MOV      r5,r1
        0x10000216:    4854        TH      LDR      r0,[pc,#336] ; [0x10000368] = 0x20003004
        0x10000218:    6800        .h      LDR      r0,[r0,#0]
        0x1000021a:    3020         0      ADDS     r0,r0,#0x20
        0x1000021c:    7c00        .|      LDRB     r0,[r0,#0x10]
        0x1000021e:    0780        ..      LSLS     r0,r0,#30
        0x10000220:    0fc0        ..      LSRS     r0,r0,#31
        0x10000222:    2800        .(      CMP      r0,#0
        0x10000224:    d00c        ..      BEQ      0x10000240 ; timer_1_enable + 48
        0x10000226:    4850        PH      LDR      r0,[pc,#320] ; [0x10000368] = 0x20003004
        0x10000228:    6800        .h      LDR      r0,[r0,#0]
        0x1000022a:    3020         0      ADDS     r0,r0,#0x20
        0x1000022c:    7c00        .|      LDRB     r0,[r0,#0x10]
        0x1000022e:    2102        .!      MOVS     r1,#2
        0x10000230:    4388        .C      BICS     r0,r0,r1
        0x10000232:    494d        MI      LDR      r1,[pc,#308] ; [0x10000368] = 0x20003004
        0x10000234:    6809        .h      LDR      r1,[r1,#0]
        0x10000236:    3120         1      ADDS     r1,r1,#0x20
        0x10000238:    7408        .t      STRB     r0,[r1,#0x10]
        0x1000023a:    2032        2       MOVS     r0,#0x32
        0x1000023c:    f7ffffbc    ....    BL       delay_us ; 0x100001b8
        0x10000240:    4849        IH      LDR      r0,[pc,#292] ; [0x10000368] = 0x20003004
        0x10000242:    6800        .h      LDR      r0,[r0,#0]
        0x10000244:    3020         0      ADDS     r0,r0,#0x20
        0x10000246:    7604        .v      STRB     r4,[r0,#0x18]
        0x10000248:    0a21        !.      LSRS     r1,r4,#8
        0x1000024a:    7641        Av      STRB     r1,[r0,#0x19]
        0x1000024c:    0c21        !.      LSRS     r1,r4,#16
        0x1000024e:    7681        .v      STRB     r1,[r0,#0x1a]
        0x10000250:    0e21        !.      LSRS     r1,r4,#24
        0x10000252:    76c1        .v      STRB     r1,[r0,#0x1b]
        0x10000254:    4844        DH      LDR      r0,[pc,#272] ; [0x10000368] = 0x20003004
        0x10000256:    6800        .h      LDR      r0,[r0,#0]
        0x10000258:    3020         0      ADDS     r0,r0,#0x20
        0x1000025a:    7c00        .|      LDRB     r0,[r0,#0x10]
        0x1000025c:    2120         !      MOVS     r1,#0x20
        0x1000025e:    4388        .C      BICS     r0,r0,r1
        0x10000260:    3020         0      ADDS     r0,r0,#0x20
        0x10000262:    4941        AI      LDR      r1,[pc,#260] ; [0x10000368] = 0x20003004
        0x10000264:    6809        .h      LDR      r1,[r1,#0]
        0x10000266:    3120         1      ADDS     r1,r1,#0x20
        0x10000268:    7408        .t      STRB     r0,[r1,#0x10]
        0x1000026a:    483f        ?H      LDR      r0,[pc,#252] ; [0x10000368] = 0x20003004
        0x1000026c:    6800        .h      LDR      r0,[r0,#0]
        0x1000026e:    3020         0      ADDS     r0,r0,#0x20
        0x10000270:    7c80        .|      LDRB     r0,[r0,#0x12]
        0x10000272:    2102        .!      MOVS     r1,#2
        0x10000274:    4388        .C      BICS     r0,r0,r1
        0x10000276:    493c        <I      LDR      r1,[pc,#240] ; [0x10000368] = 0x20003004
        0x10000278:    6809        .h      LDR      r1,[r1,#0]
        0x1000027a:    3120         1      ADDS     r1,r1,#0x20
        0x1000027c:    7488        .t      STRB     r0,[r1,#0x12]
        0x1000027e:    483b        ;H      LDR      r0,[pc,#236] ; [0x1000036c] = 0x200030a4
        0x10000280:    6045        E`      STR      r5,[r0,#4]
        0x10000282:    4839        9H      LDR      r0,[pc,#228] ; [0x10000368] = 0x20003004
        0x10000284:    6800        .h      LDR      r0,[r0,#0]
        0x10000286:    3020         0      ADDS     r0,r0,#0x20
        0x10000288:    7c40        @|      LDRB     r0,[r0,#0x11]
        0x1000028a:    2102        .!      MOVS     r1,#2
        0x1000028c:    4388        .C      BICS     r0,r0,r1
        0x1000028e:    1c80        ..      ADDS     r0,r0,#2
        0x10000290:    4935        5I      LDR      r1,[pc,#212] ; [0x10000368] = 0x20003004
        0x10000292:    6809        .h      LDR      r1,[r1,#0]
        0x10000294:    3120         1      ADDS     r1,r1,#0x20
        0x10000296:    7448        Ht      STRB     r0,[r1,#0x11]
        0x10000298:    2009        .       MOVS     r0,#9
        0x1000029a:    f000f85b    ..[.    BL       __NVIC_EnableIRQ ; 0x10000354
        0x1000029e:    4832        2H      LDR      r0,[pc,#200] ; [0x10000368] = 0x20003004
        0x100002a0:    6800        .h      LDR      r0,[r0,#0]
        0x100002a2:    3020         0      ADDS     r0,r0,#0x20
        0x100002a4:    7c00        .|      LDRB     r0,[r0,#0x10]
        0x100002a6:    2102        .!      MOVS     r1,#2
        0x100002a8:    4388        .C      BICS     r0,r0,r1
        0x100002aa:    1c80        ..      ADDS     r0,r0,#2
        0x100002ac:    492e        .I      LDR      r1,[pc,#184] ; [0x10000368] = 0x20003004
        0x100002ae:    6809        .h      LDR      r1,[r1,#0]
        0x100002b0:    3120         1      ADDS     r1,r1,#0x20
        0x100002b2:    7408        .t      STRB     r0,[r1,#0x10]
        0x100002b4:    bd70        p.      POP      {r4-r6,pc}
    TIMER1_IRQHandler
        0x100002b6:    b510        ..      PUSH     {r4,lr}
        0x100002b8:    482b        +H      LDR      r0,[pc,#172] ; [0x10000368] = 0x20003004
        0x100002ba:    6800        .h      LDR      r0,[r0,#0]
        0x100002bc:    3020         0      ADDS     r0,r0,#0x20
        0x100002be:    7cc0        .|      LDRB     r0,[r0,#0x13]
        0x100002c0:    0780        ..      LSLS     r0,r0,#30
        0x100002c2:    0fc0        ..      LSRS     r0,r0,#31
        0x100002c4:    2800        .(      CMP      r0,#0
        0x100002c6:    d011        ..      BEQ      0x100002ec ; TIMER1_IRQHandler + 54
        0x100002c8:    4827        'H      LDR      r0,[pc,#156] ; [0x10000368] = 0x20003004
        0x100002ca:    6800        .h      LDR      r0,[r0,#0]
        0x100002cc:    3020         0      ADDS     r0,r0,#0x20
        0x100002ce:    7c40        @|      LDRB     r0,[r0,#0x11]
        0x100002d0:    2102        .!      MOVS     r1,#2
        0x100002d2:    4388        .C      BICS     r0,r0,r1
        0x100002d4:    1c80        ..      ADDS     r0,r0,#2
        0x100002d6:    4924        $I      LDR      r1,[pc,#144] ; [0x10000368] = 0x20003004
        0x100002d8:    6809        .h      LDR      r1,[r1,#0]
        0x100002da:    3120         1      ADDS     r1,r1,#0x20
        0x100002dc:    7448        Ht      STRB     r0,[r1,#0x11]
        0x100002de:    4823        #H      LDR      r0,[pc,#140] ; [0x1000036c] = 0x200030a4
        0x100002e0:    6840        @h      LDR      r0,[r0,#4]
        0x100002e2:    2800        .(      CMP      r0,#0
        0x100002e4:    d002        ..      BEQ      0x100002ec ; TIMER1_IRQHandler + 54
        0x100002e6:    4921        !I      LDR      r1,[pc,#132] ; [0x1000036c] = 0x200030a4
        0x100002e8:    6848        Hh      LDR      r0,[r1,#4]
        0x100002ea:    4780        .G      BLX      r0
        0x100002ec:    bd10        ..      POP      {r4,pc}
    TIMER2_IRQHandler
        0x100002ee:    b510        ..      PUSH     {r4,lr}
        0x100002f0:    481d        .H      LDR      r0,[pc,#116] ; [0x10000368] = 0x20003004
        0x100002f2:    6800        .h      LDR      r0,[r0,#0]
        0x100002f4:    3020         0      ADDS     r0,r0,#0x20
        0x100002f6:    7cc0        .|      LDRB     r0,[r0,#0x13]
        0x100002f8:    0740        @.      LSLS     r0,r0,#29
        0x100002fa:    0fc0        ..      LSRS     r0,r0,#31
        0x100002fc:    2800        .(      CMP      r0,#0
        0x100002fe:    d011        ..      BEQ      0x10000324 ; TIMER2_IRQHandler + 54
        0x10000300:    4819        .H      LDR      r0,[pc,#100] ; [0x10000368] = 0x20003004
        0x10000302:    6800        .h      LDR      r0,[r0,#0]
        0x10000304:    3020         0      ADDS     r0,r0,#0x20
        0x10000306:    7c40        @|      LDRB     r0,[r0,#0x11]
        0x10000308:    2104        .!      MOVS     r1,#4
        0x1000030a:    4388        .C      BICS     r0,r0,r1
        0x1000030c:    1d00        ..      ADDS     r0,r0,#4
        0x1000030e:    4916        .I      LDR      r1,[pc,#88] ; [0x10000368] = 0x20003004
        0x10000310:    6809        .h      LDR      r1,[r1,#0]
        0x10000312:    3120         1      ADDS     r1,r1,#0x20
        0x10000314:    7448        Ht      STRB     r0,[r1,#0x11]
        0x10000316:    4815        .H      LDR      r0,[pc,#84] ; [0x1000036c] = 0x200030a4
        0x10000318:    6880        .h      LDR      r0,[r0,#8]
        0x1000031a:    2800        .(      CMP      r0,#0
        0x1000031c:    d002        ..      BEQ      0x10000324 ; TIMER2_IRQHandler + 54
        0x1000031e:    4913        .I      LDR      r1,[pc,#76] ; [0x1000036c] = 0x200030a4
        0x10000320:    6888        .h      LDR      r0,[r1,#8]
        0x10000322:    4780        .G      BLX      r0
        0x10000324:    bd10        ..      POP      {r4,pc}
    HTIMER_IRQHandler
        0x10000326:    b510        ..      PUSH     {r4,lr}
        0x10000328:    4811        .H      LDR      r0,[pc,#68] ; [0x10000370] = 0x20003008
        0x1000032a:    6800        .h      LDR      r0,[r0,#0]
        0x1000032c:    7d00        .}      LDRB     r0,[r0,#0x14]
        0x1000032e:    07c4        ..      LSLS     r4,r0,#31
        0x10000330:    0fe4        ..      LSRS     r4,r4,#31
        0x10000332:    480f        .H      LDR      r0,[pc,#60] ; [0x10000370] = 0x20003008
        0x10000334:    6800        .h      LDR      r0,[r0,#0]
        0x10000336:    7d00        .}      LDRB     r0,[r0,#0x14]
        0x10000338:    0840        @.      LSRS     r0,r0,#1
        0x1000033a:    0040        @.      LSLS     r0,r0,#1
        0x1000033c:    1c40        @.      ADDS     r0,r0,#1
        0x1000033e:    490c        .I      LDR      r1,[pc,#48] ; [0x10000370] = 0x20003008
        0x10000340:    6809        .h      LDR      r1,[r1,#0]
        0x10000342:    7508        .u      STRB     r0,[r1,#0x14]
        0x10000344:    480b        .H      LDR      r0,[pc,#44] ; [0x10000374] = 0x2000300c
        0x10000346:    6800        .h      LDR      r0,[r0,#0]
        0x10000348:    2800        .(      CMP      r0,#0
        0x1000034a:    d002        ..      BEQ      0x10000352 ; HTIMER_IRQHandler + 44
        0x1000034c:    4809        .H      LDR      r0,[pc,#36] ; [0x10000374] = 0x2000300c
        0x1000034e:    6800        .h      LDR      r0,[r0,#0]
        0x10000350:    4780        .G      BLX      r0
        0x10000352:    bd10        ..      POP      {r4,pc}
    __NVIC_EnableIRQ
        0x10000354:    2800        .(      CMP      r0,#0
        0x10000356:    db05        ..      BLT      0x10000364 ; __NVIC_EnableIRQ + 16
        0x10000358:    06c2        ..      LSLS     r2,r0,#27
        0x1000035a:    0ed2        ..      LSRS     r2,r2,#27
        0x1000035c:    2101        .!      MOVS     r1,#1
        0x1000035e:    4091        .@      LSLS     r1,r1,r2
        0x10000360:    4a05        .J      LDR      r2,[pc,#20] ; [0x10000378] = 0xe000e100
        0x10000362:    6011        .`      STR      r1,[r2,#0]
        0x10000364:    4770        pG      BX       lr
    $d
        0x10000366:    0000        ..      DCW    0
        0x10000368:    20003004    .0.     DCD    536883204
        0x1000036c:    200030a4    .0.     DCD    536883364
        0x10000370:    20003008    .0.     DCD    536883208
        0x10000374:    2000300c    .0.     DCD    536883212
        0x10000378:    e000e100    ....    DCD    3758153984
    $t
    .text
    GPIO_Set_Output
        0x1000037c:    496b        kI      LDR      r1,[pc,#428] ; [0x1000052c] = 0x20003014
        0x1000037e:    6809        .h      LDR      r1,[r1,#0]
        0x10000380:    460a        .F      MOV      r2,r1
        0x10000382:    7813        .x      LDRB     r3,[r2,#0]
        0x10000384:    4619        .F      MOV      r1,r3
        0x10000386:    7853        Sx      LDRB     r3,[r2,#1]
        0x10000388:    021b        ..      LSLS     r3,r3,#8
        0x1000038a:    4319        .C      ORRS     r1,r1,r3
        0x1000038c:    7893        .x      LDRB     r3,[r2,#2]
        0x1000038e:    041b        ..      LSLS     r3,r3,#16
        0x10000390:    4319        .C      ORRS     r1,r1,r3
        0x10000392:    78d2        .x      LDRB     r2,[r2,#3]
        0x10000394:    0612        ..      LSLS     r2,r2,#24
        0x10000396:    4311        .C      ORRS     r1,r1,r2
        0x10000398:    4381        .C      BICS     r1,r1,r0
        0x1000039a:    4a64        dJ      LDR      r2,[pc,#400] ; [0x1000052c] = 0x20003014
        0x1000039c:    6812        .h      LDR      r2,[r2,#0]
        0x1000039e:    7011        .p      STRB     r1,[r2,#0]
        0x100003a0:    0a0b        ..      LSRS     r3,r1,#8
        0x100003a2:    7053        Sp      STRB     r3,[r2,#1]
        0x100003a4:    0c0b        ..      LSRS     r3,r1,#16
        0x100003a6:    7093        .p      STRB     r3,[r2,#2]
        0x100003a8:    0e09        ..      LSRS     r1,r1,#24
        0x100003aa:    70d1        .p      STRB     r1,[r2,#3]
        0x100003ac:    4770        pG      BX       lr
    GPIO_Set_Input
        0x100003ae:    b510        ..      PUSH     {r4,lr}
        0x100003b0:    4a5e        ^J      LDR      r2,[pc,#376] ; [0x1000052c] = 0x20003014
        0x100003b2:    6812        .h      LDR      r2,[r2,#0]
        0x100003b4:    4613        .F      MOV      r3,r2
        0x100003b6:    781c        .x      LDRB     r4,[r3,#0]
        0x100003b8:    4622        "F      MOV      r2,r4
        0x100003ba:    785c        \x      LDRB     r4,[r3,#1]
        0x100003bc:    0224        $.      LSLS     r4,r4,#8
        0x100003be:    4322        "C      ORRS     r2,r2,r4
        0x100003c0:    789c        .x      LDRB     r4,[r3,#2]
        0x100003c2:    0424        $.      LSLS     r4,r4,#16
        0x100003c4:    4322        "C      ORRS     r2,r2,r4
        0x100003c6:    78db        .x      LDRB     r3,[r3,#3]
        0x100003c8:    061b        ..      LSLS     r3,r3,#24
        0x100003ca:    431a        .C      ORRS     r2,r2,r3
        0x100003cc:    4302        .C      ORRS     r2,r2,r0
        0x100003ce:    4b57        WK      LDR      r3,[pc,#348] ; [0x1000052c] = 0x20003014
        0x100003d0:    681b        .h      LDR      r3,[r3,#0]
        0x100003d2:    701a        .p      STRB     r2,[r3,#0]
        0x100003d4:    0a14        ..      LSRS     r4,r2,#8
        0x100003d6:    705c        \p      STRB     r4,[r3,#1]
        0x100003d8:    0c14        ..      LSRS     r4,r2,#16
        0x100003da:    709c        .p      STRB     r4,[r3,#2]
        0x100003dc:    0e12        ..      LSRS     r2,r2,#24
        0x100003de:    70da        .p      STRB     r2,[r3,#3]
        0x100003e0:    4a53        SJ      LDR      r2,[pc,#332] ; [0x10000530] = 0x2000301c
        0x100003e2:    6812        .h      LDR      r2,[r2,#0]
        0x100003e4:    4613        .F      MOV      r3,r2
        0x100003e6:    781c        .x      LDRB     r4,[r3,#0]
        0x100003e8:    4622        "F      MOV      r2,r4
        0x100003ea:    785c        \x      LDRB     r4,[r3,#1]
        0x100003ec:    0224        $.      LSLS     r4,r4,#8
        0x100003ee:    4322        "C      ORRS     r2,r2,r4
        0x100003f0:    789c        .x      LDRB     r4,[r3,#2]
        0x100003f2:    0424        $.      LSLS     r4,r4,#16
        0x100003f4:    4322        "C      ORRS     r2,r2,r4
        0x100003f6:    78db        .x      LDRB     r3,[r3,#3]
        0x100003f8:    061b        ..      LSLS     r3,r3,#24
        0x100003fa:    431a        .C      ORRS     r2,r2,r3
        0x100003fc:    4302        .C      ORRS     r2,r2,r0
        0x100003fe:    4b4c        LK      LDR      r3,[pc,#304] ; [0x10000530] = 0x2000301c
        0x10000400:    681b        .h      LDR      r3,[r3,#0]
        0x10000402:    701a        .p      STRB     r2,[r3,#0]
        0x10000404:    0a14        ..      LSRS     r4,r2,#8
        0x10000406:    705c        \p      STRB     r4,[r3,#1]
        0x10000408:    0c14        ..      LSRS     r4,r2,#16
        0x1000040a:    709c        .p      STRB     r4,[r3,#2]
        0x1000040c:    0e12        ..      LSRS     r2,r2,#24
        0x1000040e:    70da        .p      STRB     r2,[r3,#3]
        0x10000410:    4a47        GJ      LDR      r2,[pc,#284] ; [0x10000530] = 0x2000301c
        0x10000412:    6812        .h      LDR      r2,[r2,#0]
        0x10000414:    2308        .#      MOVS     r3,#8
        0x10000416:    18d3        ..      ADDS     r3,r2,r3
        0x10000418:    781c        .x      LDRB     r4,[r3,#0]
        0x1000041a:    4622        "F      MOV      r2,r4
        0x1000041c:    785c        \x      LDRB     r4,[r3,#1]
        0x1000041e:    0224        $.      LSLS     r4,r4,#8
        0x10000420:    4322        "C      ORRS     r2,r2,r4
        0x10000422:    789c        .x      LDRB     r4,[r3,#2]
        0x10000424:    0424        $.      LSLS     r4,r4,#16
        0x10000426:    4322        "C      ORRS     r2,r2,r4
        0x10000428:    78db        .x      LDRB     r3,[r3,#3]
        0x1000042a:    061b        ..      LSLS     r3,r3,#24
        0x1000042c:    431a        .C      ORRS     r2,r2,r3
        0x1000042e:    4382        .C      BICS     r2,r2,r0
        0x10000430:    4b3f        ?K      LDR      r3,[pc,#252] ; [0x10000530] = 0x2000301c
        0x10000432:    681b        .h      LDR      r3,[r3,#0]
        0x10000434:    721a        .r      STRB     r2,[r3,#8]
        0x10000436:    0a14        ..      LSRS     r4,r2,#8
        0x10000438:    725c        \r      STRB     r4,[r3,#9]
        0x1000043a:    0c14        ..      LSRS     r4,r2,#16
        0x1000043c:    729c        .r      STRB     r4,[r3,#0xa]
        0x1000043e:    0e12        ..      LSRS     r2,r2,#24
        0x10000440:    72da        .r      STRB     r2,[r3,#0xb]
        0x10000442:    4a3b        ;J      LDR      r2,[pc,#236] ; [0x10000530] = 0x2000301c
        0x10000444:    6812        .h      LDR      r2,[r2,#0]
        0x10000446:    2308        .#      MOVS     r3,#8
        0x10000448:    18d3        ..      ADDS     r3,r2,r3
        0x1000044a:    781c        .x      LDRB     r4,[r3,#0]
        0x1000044c:    4622        "F      MOV      r2,r4
        0x1000044e:    785c        \x      LDRB     r4,[r3,#1]
        0x10000450:    0224        $.      LSLS     r4,r4,#8
        0x10000452:    4322        "C      ORRS     r2,r2,r4
        0x10000454:    789c        .x      LDRB     r4,[r3,#2]
        0x10000456:    0424        $.      LSLS     r4,r4,#16
        0x10000458:    4322        "C      ORRS     r2,r2,r4
        0x1000045a:    78db        .x      LDRB     r3,[r3,#3]
        0x1000045c:    061b        ..      LSLS     r3,r3,#24
        0x1000045e:    431a        .C      ORRS     r2,r2,r3
        0x10000460:    430a        .C      ORRS     r2,r2,r1
        0x10000462:    4b33        3K      LDR      r3,[pc,#204] ; [0x10000530] = 0x2000301c
        0x10000464:    681b        .h      LDR      r3,[r3,#0]
        0x10000466:    721a        .r      STRB     r2,[r3,#8]
        0x10000468:    0a14        ..      LSRS     r4,r2,#8
        0x1000046a:    725c        \r      STRB     r4,[r3,#9]
        0x1000046c:    0c14        ..      LSRS     r4,r2,#16
        0x1000046e:    729c        .r      STRB     r4,[r3,#0xa]
        0x10000470:    0e12        ..      LSRS     r2,r2,#24
        0x10000472:    72da        .r      STRB     r2,[r3,#0xb]
        0x10000474:    bd10        ..      POP      {r4,pc}
    GPIO_Pin_Turn
        0x10000476:    492f        /I      LDR      r1,[pc,#188] ; [0x10000534] = 0x20003018
        0x10000478:    6809        .h      LDR      r1,[r1,#0]
        0x1000047a:    460a        .F      MOV      r2,r1
        0x1000047c:    7813        .x      LDRB     r3,[r2,#0]
        0x1000047e:    4619        .F      MOV      r1,r3
        0x10000480:    7853        Sx      LDRB     r3,[r2,#1]
        0x10000482:    021b        ..      LSLS     r3,r3,#8
        0x10000484:    4319        .C      ORRS     r1,r1,r3
        0x10000486:    7893        .x      LDRB     r3,[r2,#2]
        0x10000488:    041b        ..      LSLS     r3,r3,#16
        0x1000048a:    4319        .C      ORRS     r1,r1,r3
        0x1000048c:    78d2        .x      LDRB     r2,[r2,#3]
        0x1000048e:    0612        ..      LSLS     r2,r2,#24
        0x10000490:    4311        .C      ORRS     r1,r1,r2
        0x10000492:    4041        A@      EORS     r1,r1,r0
        0x10000494:    4a27        'J      LDR      r2,[pc,#156] ; [0x10000534] = 0x20003018
        0x10000496:    6812        .h      LDR      r2,[r2,#0]
        0x10000498:    7011        .p      STRB     r1,[r2,#0]
        0x1000049a:    0a0b        ..      LSRS     r3,r1,#8
        0x1000049c:    7053        Sp      STRB     r3,[r2,#1]
        0x1000049e:    0c0b        ..      LSRS     r3,r1,#16
        0x100004a0:    7093        .p      STRB     r3,[r2,#2]
        0x100004a2:    0e09        ..      LSRS     r1,r1,#24
        0x100004a4:    70d1        .p      STRB     r1,[r2,#3]
        0x100004a6:    4770        pG      BX       lr
    GPIO_IRQHandler
        0x100004a8:    b510        ..      PUSH     {r4,lr}
        0x100004aa:    4823        #H      LDR      r0,[pc,#140] ; [0x10000538] = 0x20003020
        0x100004ac:    6800        .h      LDR      r0,[r0,#0]
        0x100004ae:    2118        .!      MOVS     r1,#0x18
        0x100004b0:    1841        A.      ADDS     r1,r0,r1
        0x100004b2:    780a        .x      LDRB     r2,[r1,#0]
        0x100004b4:    4610        .F      MOV      r0,r2
        0x100004b6:    784a        Jx      LDRB     r2,[r1,#1]
        0x100004b8:    0212        ..      LSLS     r2,r2,#8
        0x100004ba:    4310        .C      ORRS     r0,r0,r2
        0x100004bc:    788a        .x      LDRB     r2,[r1,#2]
        0x100004be:    0412        ..      LSLS     r2,r2,#16
        0x100004c0:    4310        .C      ORRS     r0,r0,r2
        0x100004c2:    78c9        .x      LDRB     r1,[r1,#3]
        0x100004c4:    0609        ..      LSLS     r1,r1,#24
        0x100004c6:    4308        .C      ORRS     r0,r0,r1
        0x100004c8:    491b        .I      LDR      r1,[pc,#108] ; [0x10000538] = 0x20003020
        0x100004ca:    6809        .h      LDR      r1,[r1,#0]
        0x100004cc:    2210        ."      MOVS     r2,#0x10
        0x100004ce:    188a        ..      ADDS     r2,r1,r2
        0x100004d0:    7813        .x      LDRB     r3,[r2,#0]
        0x100004d2:    4619        .F      MOV      r1,r3
        0x100004d4:    7853        Sx      LDRB     r3,[r2,#1]
        0x100004d6:    021b        ..      LSLS     r3,r3,#8
        0x100004d8:    4319        .C      ORRS     r1,r1,r3
        0x100004da:    7893        .x      LDRB     r3,[r2,#2]
        0x100004dc:    041b        ..      LSLS     r3,r3,#16
        0x100004de:    4319        .C      ORRS     r1,r1,r3
        0x100004e0:    78d2        .x      LDRB     r2,[r2,#3]
        0x100004e2:    0612        ..      LSLS     r2,r2,#24
        0x100004e4:    4311        .C      ORRS     r1,r1,r2
        0x100004e6:    4388        .C      BICS     r0,r0,r1
        0x100004e8:    2800        .(      CMP      r0,#0
        0x100004ea:    d01e        ..      BEQ      0x1000052a ; GPIO_IRQHandler + 130
        0x100004ec:    4813        .H      LDR      r0,[pc,#76] ; [0x1000053c] = 0x20003024
        0x100004ee:    6800        .h      LDR      r0,[r0,#0]
        0x100004f0:    2800        .(      CMP      r0,#0
        0x100004f2:    d002        ..      BEQ      0x100004fa ; GPIO_IRQHandler + 82
        0x100004f4:    4811        .H      LDR      r0,[pc,#68] ; [0x1000053c] = 0x20003024
        0x100004f6:    6800        .h      LDR      r0,[r0,#0]
        0x100004f8:    4780        .G      BLX      r0
        0x100004fa:    480f        .H      LDR      r0,[pc,#60] ; [0x10000538] = 0x20003020
        0x100004fc:    6800        .h      LDR      r0,[r0,#0]
        0x100004fe:    2118        .!      MOVS     r1,#0x18
        0x10000500:    1841        A.      ADDS     r1,r0,r1
        0x10000502:    780a        .x      LDRB     r2,[r1,#0]
        0x10000504:    4610        .F      MOV      r0,r2
        0x10000506:    784a        Jx      LDRB     r2,[r1,#1]
        0x10000508:    0212        ..      LSLS     r2,r2,#8
        0x1000050a:    4310        .C      ORRS     r0,r0,r2
        0x1000050c:    788a        .x      LDRB     r2,[r1,#2]
        0x1000050e:    0412        ..      LSLS     r2,r2,#16
        0x10000510:    4310        .C      ORRS     r0,r0,r2
        0x10000512:    78c9        .x      LDRB     r1,[r1,#3]
        0x10000514:    0609        ..      LSLS     r1,r1,#24
        0x10000516:    4308        .C      ORRS     r0,r0,r1
        0x10000518:    4907        .I      LDR      r1,[pc,#28] ; [0x10000538] = 0x20003020
        0x1000051a:    6809        .h      LDR      r1,[r1,#0]
        0x1000051c:    7008        .p      STRB     r0,[r1,#0]
        0x1000051e:    0a02        ..      LSRS     r2,r0,#8
        0x10000520:    704a        Jp      STRB     r2,[r1,#1]
        0x10000522:    0c02        ..      LSRS     r2,r0,#16
        0x10000524:    708a        .p      STRB     r2,[r1,#2]
        0x10000526:    0e00        ..      LSRS     r0,r0,#24
        0x10000528:    70c8        .p      STRB     r0,[r1,#3]
        0x1000052a:    bd10        ..      POP      {r4,pc}
    $d
        0x1000052c:    20003014    .0.     DCD    536883220
        0x10000530:    2000301c    .0.     DCD    536883228
        0x10000534:    20003018    .0.     DCD    536883224
        0x10000538:    20003020     0.     DCD    536883232
        0x1000053c:    20003024    $0.     DCD    536883236
    $t
    .text
    dbg_init
        0x10000540:    b510        ..      PUSH     {r4,lr}
        0x10000542:    f000f827    ..'.    BL       uart_0_init ; 0x10000594
        0x10000546:    bd10        ..      POP      {r4,pc}
    dbg_printf
        0x10000548:    b40f        ..      PUSH     {r0-r3}
        0x1000054a:    b538        8.      PUSH     {r3-r5,lr}
        0x1000054c:    2500        .%      MOVS     r5,#0
        0x1000054e:    2400        .$      MOVS     r4,#0
        0x10000550:    9804        ..      LDR      r0,[sp,#0x10]
        0x10000552:    2800        .(      CMP      r0,#0
        0x10000554:    d103        ..      BNE      0x1000055e ; dbg_printf + 22
        0x10000556:    bc38        8.      POP      {r3-r5}
        0x10000558:    bc08        ..      POP      {r3}
        0x1000055a:    b004        ..      ADD      sp,sp,#0x10
        0x1000055c:    4718        .G      BX       r3
        0x1000055e:    a805        ..      ADD      r0,sp,#0x14
        0x10000560:    9000        ..      STR      r0,[sp,#0]
        0x10000562:    480b        .H      LDR      r0,[pc,#44] ; [0x10000590] = 0x200030b0
        0x10000564:    9a00        ..      LDR      r2,[sp,#0]
        0x10000566:    9904        ..      LDR      r1,[sp,#0x10]
        0x10000568:    f002fff4    ....    BL       __0vsprintf ; 0x10003554
        0x1000056c:    b2c5        ..      UXTB     r5,r0
        0x1000056e:    2000        .       MOVS     r0,#0
        0x10000570:    9000        ..      STR      r0,[sp,#0]
        0x10000572:    2d80        .-      CMP      r5,#0x80
        0x10000574:    dd00        ..      BLE      0x10000578 ; dbg_printf + 48
        0x10000576:    2580        .%      MOVS     r5,#0x80
        0x10000578:    2400        .$      MOVS     r4,#0
        0x1000057a:    e005        ..      B        0x10000588 ; dbg_printf + 64
        0x1000057c:    4904        .I      LDR      r1,[pc,#16] ; [0x10000590] = 0x200030b0
        0x1000057e:    5d08        .]      LDRB     r0,[r1,r4]
        0x10000580:    f000f8b2    ....    BL       uart_0_write ; 0x100006e8
        0x10000584:    1c60        `.      ADDS     r0,r4,#1
        0x10000586:    b2c4        ..      UXTB     r4,r0
        0x10000588:    42ac        .B      CMP      r4,r5
        0x1000058a:    dbf7        ..      BLT      0x1000057c ; dbg_printf + 52
        0x1000058c:    bf00        ..      NOP      
        0x1000058e:    e7e2        ..      B        0x10000556 ; dbg_printf + 14
    $d
        0x10000590:    200030b0    .0.     DCD    536883376
    $t
    .text
    uart_0_init
        0x10000594:    b510        ..      PUSH     {r4,lr}
        0x10000596:    48bc        .H      LDR      r0,[pc,#752] ; [0x10000888] = 0x20003010
        0x10000598:    6800        .h      LDR      r0,[r0,#0]
        0x1000059a:    7bc0        .{      LDRB     r0,[r0,#0xf]
        0x1000059c:    0980        ..      LSRS     r0,r0,#6
        0x1000059e:    0180        ..      LSLS     r0,r0,#6
        0x100005a0:    1cc0        ..      ADDS     r0,r0,#3
        0x100005a2:    49b9        .I      LDR      r1,[pc,#740] ; [0x10000888] = 0x20003010
        0x100005a4:    6809        .h      LDR      r1,[r1,#0]
        0x100005a6:    73c8        .s      STRB     r0,[r1,#0xf]
        0x100005a8:    48b7        .H      LDR      r0,[pc,#732] ; [0x10000888] = 0x20003010
        0x100005aa:    6800        .h      LDR      r0,[r0,#0]
        0x100005ac:    7c00        .|      LDRB     r0,[r0,#0x10]
        0x100005ae:    0980        ..      LSRS     r0,r0,#6
        0x100005b0:    0180        ..      LSLS     r0,r0,#6
        0x100005b2:    1d00        ..      ADDS     r0,r0,#4
        0x100005b4:    49b4        .I      LDR      r1,[pc,#720] ; [0x10000888] = 0x20003010
        0x100005b6:    6809        .h      LDR      r1,[r1,#0]
        0x100005b8:    7408        .t      STRB     r0,[r1,#0x10]
        0x100005ba:    48b3        .H      LDR      r0,[pc,#716] ; [0x10000888] = 0x20003010
        0x100005bc:    6800        .h      LDR      r0,[r0,#0]
        0x100005be:    3020         0      ADDS     r0,r0,#0x20
        0x100005c0:    7880        .x      LDRB     r0,[r0,#2]
        0x100005c2:    2120         !      MOVS     r1,#0x20
        0x100005c4:    4388        .C      BICS     r0,r0,r1
        0x100005c6:    49b0        .I      LDR      r1,[pc,#704] ; [0x10000888] = 0x20003010
        0x100005c8:    6809        .h      LDR      r1,[r1,#0]
        0x100005ca:    3120         1      ADDS     r1,r1,#0x20
        0x100005cc:    7088        .p      STRB     r0,[r1,#2]
        0x100005ce:    48ae        .H      LDR      r0,[pc,#696] ; [0x10000888] = 0x20003010
        0x100005d0:    6800        .h      LDR      r0,[r0,#0]
        0x100005d2:    3020         0      ADDS     r0,r0,#0x20
        0x100005d4:    7880        .x      LDRB     r0,[r0,#2]
        0x100005d6:    2140        @!      MOVS     r1,#0x40
        0x100005d8:    4388        .C      BICS     r0,r0,r1
        0x100005da:    49ab        .I      LDR      r1,[pc,#684] ; [0x10000888] = 0x20003010
        0x100005dc:    6809        .h      LDR      r1,[r1,#0]
        0x100005de:    3120         1      ADDS     r1,r1,#0x20
        0x100005e0:    7088        .p      STRB     r0,[r1,#2]
        0x100005e2:    48aa        .H      LDR      r0,[pc,#680] ; [0x1000088c] = 0x20003058
        0x100005e4:    6800        .h      LDR      r0,[r0,#0]
        0x100005e6:    7880        .x      LDRB     r0,[r0,#2]
        0x100005e8:    0840        @.      LSRS     r0,r0,#1
        0x100005ea:    0040        @.      LSLS     r0,r0,#1
        0x100005ec:    49a7        .I      LDR      r1,[pc,#668] ; [0x1000088c] = 0x20003058
        0x100005ee:    6809        .h      LDR      r1,[r1,#0]
        0x100005f0:    7088        .p      STRB     r0,[r1,#2]
        0x100005f2:    48a6        .H      LDR      r0,[pc,#664] ; [0x1000088c] = 0x20003058
        0x100005f4:    6800        .h      LDR      r0,[r0,#0]
        0x100005f6:    7800        .x      LDRB     r0,[r0,#0]
        0x100005f8:    0900        ..      LSRS     r0,r0,#4
        0x100005fa:    0100        ..      LSLS     r0,r0,#4
        0x100005fc:    3008        .0      ADDS     r0,r0,#8
        0x100005fe:    49a3        .I      LDR      r1,[pc,#652] ; [0x1000088c] = 0x20003058
        0x10000600:    6809        .h      LDR      r1,[r1,#0]
        0x10000602:    7008        .p      STRB     r0,[r1,#0]
        0x10000604:    48a1        .H      LDR      r0,[pc,#644] ; [0x1000088c] = 0x20003058
        0x10000606:    6800        .h      LDR      r0,[r0,#0]
        0x10000608:    7800        .x      LDRB     r0,[r0,#0]
        0x1000060a:    2180        .!      MOVS     r1,#0x80
        0x1000060c:    4388        .C      BICS     r0,r0,r1
        0x1000060e:    499f        .I      LDR      r1,[pc,#636] ; [0x1000088c] = 0x20003058
        0x10000610:    6809        .h      LDR      r1,[r1,#0]
        0x10000612:    7008        .p      STRB     r0,[r1,#0]
        0x10000614:    489d        .H      LDR      r0,[pc,#628] ; [0x1000088c] = 0x20003058
        0x10000616:    6800        .h      LDR      r0,[r0,#0]
        0x10000618:    7800        .x      LDRB     r0,[r0,#0]
        0x1000061a:    2140        @!      MOVS     r1,#0x40
        0x1000061c:    4388        .C      BICS     r0,r0,r1
        0x1000061e:    3040        @0      ADDS     r0,r0,#0x40
        0x10000620:    499a        .I      LDR      r1,[pc,#616] ; [0x1000088c] = 0x20003058
        0x10000622:    6809        .h      LDR      r1,[r1,#0]
        0x10000624:    7008        .p      STRB     r0,[r1,#0]
        0x10000626:    4899        .H      LDR      r0,[pc,#612] ; [0x1000088c] = 0x20003058
        0x10000628:    6800        .h      LDR      r0,[r0,#0]
        0x1000062a:    78c0        .x      LDRB     r0,[r0,#3]
        0x1000062c:    2110        .!      MOVS     r1,#0x10
        0x1000062e:    4388        .C      BICS     r0,r0,r1
        0x10000630:    3010        .0      ADDS     r0,r0,#0x10
        0x10000632:    4996        .I      LDR      r1,[pc,#600] ; [0x1000088c] = 0x20003058
        0x10000634:    6809        .h      LDR      r1,[r1,#0]
        0x10000636:    70c8        .p      STRB     r0,[r1,#3]
        0x10000638:    4894        .H      LDR      r0,[pc,#592] ; [0x1000088c] = 0x20003058
        0x1000063a:    6800        .h      LDR      r0,[r0,#0]
        0x1000063c:    7880        .x      LDRB     r0,[r0,#2]
        0x1000063e:    2104        .!      MOVS     r1,#4
        0x10000640:    4388        .C      BICS     r0,r0,r1
        0x10000642:    1d00        ..      ADDS     r0,r0,#4
        0x10000644:    4991        .I      LDR      r1,[pc,#580] ; [0x1000088c] = 0x20003058
        0x10000646:    6809        .h      LDR      r1,[r1,#0]
        0x10000648:    7088        .p      STRB     r0,[r1,#2]
        0x1000064a:    4890        .H      LDR      r0,[pc,#576] ; [0x1000088c] = 0x20003058
        0x1000064c:    6800        .h      LDR      r0,[r0,#0]
        0x1000064e:    7880        .x      LDRB     r0,[r0,#2]
        0x10000650:    2120         !      MOVS     r1,#0x20
        0x10000652:    4388        .C      BICS     r0,r0,r1
        0x10000654:    498d        .I      LDR      r1,[pc,#564] ; [0x1000088c] = 0x20003058
        0x10000656:    6809        .h      LDR      r1,[r1,#0]
        0x10000658:    7088        .p      STRB     r0,[r1,#2]
        0x1000065a:    488c        .H      LDR      r0,[pc,#560] ; [0x1000088c] = 0x20003058
        0x1000065c:    6800        .h      LDR      r0,[r0,#0]
        0x1000065e:    7880        .x      LDRB     r0,[r0,#2]
        0x10000660:    2110        .!      MOVS     r1,#0x10
        0x10000662:    4388        .C      BICS     r0,r0,r1
        0x10000664:    4989        .I      LDR      r1,[pc,#548] ; [0x1000088c] = 0x20003058
        0x10000666:    6809        .h      LDR      r1,[r1,#0]
        0x10000668:    7088        .p      STRB     r0,[r1,#2]
        0x1000066a:    4888        .H      LDR      r0,[pc,#544] ; [0x1000088c] = 0x20003058
        0x1000066c:    6800        .h      LDR      r0,[r0,#0]
        0x1000066e:    7880        .x      LDRB     r0,[r0,#2]
        0x10000670:    2180        .!      MOVS     r1,#0x80
        0x10000672:    4388        .C      BICS     r0,r0,r1
        0x10000674:    4985        .I      LDR      r1,[pc,#532] ; [0x1000088c] = 0x20003058
        0x10000676:    6809        .h      LDR      r1,[r1,#0]
        0x10000678:    7088        .p      STRB     r0,[r1,#2]
        0x1000067a:    4884        .H      LDR      r0,[pc,#528] ; [0x1000088c] = 0x20003058
        0x1000067c:    6800        .h      LDR      r0,[r0,#0]
        0x1000067e:    7880        .x      LDRB     r0,[r0,#2]
        0x10000680:    2140        @!      MOVS     r1,#0x40
        0x10000682:    4388        .C      BICS     r0,r0,r1
        0x10000684:    4981        .I      LDR      r1,[pc,#516] ; [0x1000088c] = 0x20003058
        0x10000686:    6809        .h      LDR      r1,[r1,#0]
        0x10000688:    7088        .p      STRB     r0,[r1,#2]
        0x1000068a:    4880        .H      LDR      r0,[pc,#512] ; [0x1000088c] = 0x20003058
        0x1000068c:    6800        .h      LDR      r0,[r0,#0]
        0x1000068e:    7800        .x      LDRB     r0,[r0,#0]
        0x10000690:    2110        .!      MOVS     r1,#0x10
        0x10000692:    4388        .C      BICS     r0,r0,r1
        0x10000694:    497d        }I      LDR      r1,[pc,#500] ; [0x1000088c] = 0x20003058
        0x10000696:    6809        .h      LDR      r1,[r1,#0]
        0x10000698:    7008        .p      STRB     r0,[r1,#0]
        0x1000069a:    487c        |H      LDR      r0,[pc,#496] ; [0x1000088c] = 0x20003058
        0x1000069c:    6800        .h      LDR      r0,[r0,#0]
        0x1000069e:    7800        .x      LDRB     r0,[r0,#0]
        0x100006a0:    2120         !      MOVS     r1,#0x20
        0x100006a2:    4388        .C      BICS     r0,r0,r1
        0x100006a4:    4979        yI      LDR      r1,[pc,#484] ; [0x1000088c] = 0x20003058
        0x100006a6:    6809        .h      LDR      r1,[r1,#0]
        0x100006a8:    7008        .p      STRB     r0,[r1,#0]
        0x100006aa:    4878        xH      LDR      r0,[pc,#480] ; [0x1000088c] = 0x20003058
        0x100006ac:    6800        .h      LDR      r0,[r0,#0]
        0x100006ae:    7880        .x      LDRB     r0,[r0,#2]
        0x100006b0:    2102        .!      MOVS     r1,#2
        0x100006b2:    4388        .C      BICS     r0,r0,r1
        0x100006b4:    1c80        ..      ADDS     r0,r0,#2
        0x100006b6:    4975        uI      LDR      r1,[pc,#468] ; [0x1000088c] = 0x20003058
        0x100006b8:    6809        .h      LDR      r1,[r1,#0]
        0x100006ba:    7088        .p      STRB     r0,[r1,#2]
        0x100006bc:    4873        sH      LDR      r0,[pc,#460] ; [0x1000088c] = 0x20003058
        0x100006be:    6800        .h      LDR      r0,[r0,#0]
        0x100006c0:    78c0        .x      LDRB     r0,[r0,#3]
        0x100006c2:    2120         !      MOVS     r1,#0x20
        0x100006c4:    4388        .C      BICS     r0,r0,r1
        0x100006c6:    3020         0      ADDS     r0,r0,#0x20
        0x100006c8:    4970        pI      LDR      r1,[pc,#448] ; [0x1000088c] = 0x20003058
        0x100006ca:    6809        .h      LDR      r1,[r1,#0]
        0x100006cc:    70c8        .p      STRB     r0,[r1,#3]
        0x100006ce:    2006        .       MOVS     r0,#6
        0x100006d0:    f000f8d0    ....    BL       __NVIC_EnableIRQ ; 0x10000874
        0x100006d4:    486d        mH      LDR      r0,[pc,#436] ; [0x1000088c] = 0x20003058
        0x100006d6:    6800        .h      LDR      r0,[r0,#0]
        0x100006d8:    7880        .x      LDRB     r0,[r0,#2]
        0x100006da:    2108        .!      MOVS     r1,#8
        0x100006dc:    4388        .C      BICS     r0,r0,r1
        0x100006de:    3008        .0      ADDS     r0,r0,#8
        0x100006e0:    496a        jI      LDR      r1,[pc,#424] ; [0x1000088c] = 0x20003058
        0x100006e2:    6809        .h      LDR      r1,[r1,#0]
        0x100006e4:    7088        .p      STRB     r0,[r1,#2]
        0x100006e6:    bd10        ..      POP      {r4,pc}
    uart_0_write
        0x100006e8:    4968        hI      LDR      r1,[pc,#416] ; [0x1000088c] = 0x20003058
        0x100006ea:    6809        .h      LDR      r1,[r1,#0]
        0x100006ec:    7048        Hp      STRB     r0,[r1,#1]
        0x100006ee:    bf00        ..      NOP      
        0x100006f0:    4966        fI      LDR      r1,[pc,#408] ; [0x1000088c] = 0x20003058
        0x100006f2:    6809        .h      LDR      r1,[r1,#0]
        0x100006f4:    7809        .x      LDRB     r1,[r1,#0]
        0x100006f6:    0689        ..      LSLS     r1,r1,#26
        0x100006f8:    0fc9        ..      LSRS     r1,r1,#31
        0x100006fa:    2900        .)      CMP      r1,#0
        0x100006fc:    d0f8        ..      BEQ      0x100006f0 ; uart_0_write + 8
        0x100006fe:    4963        cI      LDR      r1,[pc,#396] ; [0x1000088c] = 0x20003058
        0x10000700:    6809        .h      LDR      r1,[r1,#0]
        0x10000702:    7809        .x      LDRB     r1,[r1,#0]
        0x10000704:    2220         "      MOVS     r2,#0x20
        0x10000706:    4391        .C      BICS     r1,r1,r2
        0x10000708:    4a60        `J      LDR      r2,[pc,#384] ; [0x1000088c] = 0x20003058
        0x1000070a:    6812        .h      LDR      r2,[r2,#0]
        0x1000070c:    7011        .p      STRB     r1,[r2,#0]
        0x1000070e:    4770        pG      BX       lr
    uart_0_read
        0x10000710:    b518        ..      PUSH     {r3,r4,lr}
        0x10000712:    4602        .F      MOV      r2,r0
        0x10000714:    2000        .       MOVS     r0,#0
        0x10000716:    2300        .#      MOVS     r3,#0
        0x10000718:    9300        ..      STR      r3,[sp,#0]
        0x1000071a:    e014        ..      B        0x10000746 ; uart_0_read + 54
        0x1000071c:    4b5b        [K      LDR      r3,[pc,#364] ; [0x1000088c] = 0x20003058
        0x1000071e:    681b        .h      LDR      r3,[r3,#0]
        0x10000720:    791b        .y      LDRB     r3,[r3,#4]
        0x10000722:    540b        .T      STRB     r3,[r1,r0]
        0x10000724:    1c43        C.      ADDS     r3,r0,#1
        0x10000726:    b2d8        ..      UXTB     r0,r3
        0x10000728:    466b        kF      MOV      r3,sp
        0x1000072a:    781b        .x      LDRB     r3,[r3,#0]
        0x1000072c:    1c5b        [.      ADDS     r3,r3,#1
        0x1000072e:    b2dc        ..      UXTB     r4,r3
        0x10000730:    9400        ..      STR      r4,[sp,#0]
        0x10000732:    466b        kF      MOV      r3,sp
        0x10000734:    781b        .x      LDRB     r3,[r3,#0]
        0x10000736:    1c5b        [.      ADDS     r3,r3,#1
        0x10000738:    b2dc        ..      UXTB     r4,r3
        0x1000073a:    9400        ..      STR      r4,[sp,#0]
        0x1000073c:    466b        kF      MOV      r3,sp
        0x1000073e:    781b        .x      LDRB     r3,[r3,#0]
        0x10000740:    1c5b        [.      ADDS     r3,r3,#1
        0x10000742:    b2dc        ..      UXTB     r4,r3
        0x10000744:    9400        ..      STR      r4,[sp,#0]
        0x10000746:    4b51        QK      LDR      r3,[pc,#324] ; [0x1000088c] = 0x20003058
        0x10000748:    681b        .h      LDR      r3,[r3,#0]
        0x1000074a:    78db        .x      LDRB     r3,[r3,#3]
        0x1000074c:    07db        ..      LSLS     r3,r3,#31
        0x1000074e:    0fdb        ..      LSRS     r3,r3,#31
        0x10000750:    2b00        .+      CMP      r3,#0
        0x10000752:    d0e3        ..      BEQ      0x1000071c ; uart_0_read + 12
        0x10000754:    7010        .p      STRB     r0,[r2,#0]
        0x10000756:    bd18        ..      POP      {r3,r4,pc}
    UART0_IRQHandler
        0x10000758:    b50c        ..      PUSH     {r2,r3,lr}
        0x1000075a:    484c        LH      LDR      r0,[pc,#304] ; [0x1000088c] = 0x20003058
        0x1000075c:    6800        .h      LDR      r0,[r0,#0]
        0x1000075e:    7800        .x      LDRB     r0,[r0,#0]
        0x10000760:    06c0        ..      LSLS     r0,r0,#27
        0x10000762:    0fc0        ..      LSRS     r0,r0,#31
        0x10000764:    2800        .(      CMP      r0,#0
        0x10000766:    d00c        ..      BEQ      0x10000782 ; UART0_IRQHandler + 42
        0x10000768:    4848        HH      LDR      r0,[pc,#288] ; [0x1000088c] = 0x20003058
        0x1000076a:    6800        .h      LDR      r0,[r0,#0]
        0x1000076c:    7800        .x      LDRB     r0,[r0,#0]
        0x1000076e:    2110        .!      MOVS     r1,#0x10
        0x10000770:    4388        .C      BICS     r0,r0,r1
        0x10000772:    4946        FI      LDR      r1,[pc,#280] ; [0x1000088c] = 0x20003058
        0x10000774:    6809        .h      LDR      r1,[r1,#0]
        0x10000776:    7008        .p      STRB     r0,[r1,#0]
        0x10000778:    4669        iF      MOV      r1,sp
        0x1000077a:    a801        ..      ADD      r0,sp,#4
        0x1000077c:    f7ffffc8    ....    BL       uart_0_read ; 0x10000710
        0x10000780:    bf00        ..      NOP      
        0x10000782:    4842        BH      LDR      r0,[pc,#264] ; [0x1000088c] = 0x20003058
        0x10000784:    6800        .h      LDR      r0,[r0,#0]
        0x10000786:    7800        .x      LDRB     r0,[r0,#0]
        0x10000788:    0680        ..      LSLS     r0,r0,#26
        0x1000078a:    0fc0        ..      LSRS     r0,r0,#31
        0x1000078c:    2800        .(      CMP      r0,#0
        0x1000078e:    d007        ..      BEQ      0x100007a0 ; UART0_IRQHandler + 72
        0x10000790:    483e        >H      LDR      r0,[pc,#248] ; [0x1000088c] = 0x20003058
        0x10000792:    6800        .h      LDR      r0,[r0,#0]
        0x10000794:    7800        .x      LDRB     r0,[r0,#0]
        0x10000796:    2120         !      MOVS     r1,#0x20
        0x10000798:    4388        .C      BICS     r0,r0,r1
        0x1000079a:    493c        <I      LDR      r1,[pc,#240] ; [0x1000088c] = 0x20003058
        0x1000079c:    6809        .h      LDR      r1,[r1,#0]
        0x1000079e:    7008        .p      STRB     r0,[r1,#0]
        0x100007a0:    483a        :H      LDR      r0,[pc,#232] ; [0x1000088c] = 0x20003058
        0x100007a2:    6800        .h      LDR      r0,[r0,#0]
        0x100007a4:    7880        .x      LDRB     r0,[r0,#2]
        0x100007a6:    0780        ..      LSLS     r0,r0,#30
        0x100007a8:    0fc0        ..      LSRS     r0,r0,#31
        0x100007aa:    2800        .(      CMP      r0,#0
        0x100007ac:    d008        ..      BEQ      0x100007c0 ; UART0_IRQHandler + 104
        0x100007ae:    4837        7H      LDR      r0,[pc,#220] ; [0x1000088c] = 0x20003058
        0x100007b0:    6800        .h      LDR      r0,[r0,#0]
        0x100007b2:    7880        .x      LDRB     r0,[r0,#2]
        0x100007b4:    2102        .!      MOVS     r1,#2
        0x100007b6:    4388        .C      BICS     r0,r0,r1
        0x100007b8:    1c80        ..      ADDS     r0,r0,#2
        0x100007ba:    4934        4I      LDR      r1,[pc,#208] ; [0x1000088c] = 0x20003058
        0x100007bc:    6809        .h      LDR      r1,[r1,#0]
        0x100007be:    7088        .p      STRB     r0,[r1,#2]
        0x100007c0:    bd0c        ..      POP      {r2,r3,pc}
    uart_1_read
        0x100007c2:    b518        ..      PUSH     {r3,r4,lr}
        0x100007c4:    4602        .F      MOV      r2,r0
        0x100007c6:    2000        .       MOVS     r0,#0
        0x100007c8:    2300        .#      MOVS     r3,#0
        0x100007ca:    9300        ..      STR      r3,[sp,#0]
        0x100007cc:    e014        ..      B        0x100007f8 ; uart_1_read + 54
        0x100007ce:    4b30        0K      LDR      r3,[pc,#192] ; [0x10000890] = 0x2000305c
        0x100007d0:    681b        .h      LDR      r3,[r3,#0]
        0x100007d2:    791b        .y      LDRB     r3,[r3,#4]
        0x100007d4:    540b        .T      STRB     r3,[r1,r0]
        0x100007d6:    1c43        C.      ADDS     r3,r0,#1
        0x100007d8:    b2d8        ..      UXTB     r0,r3
        0x100007da:    466b        kF      MOV      r3,sp
        0x100007dc:    781b        .x      LDRB     r3,[r3,#0]
        0x100007de:    1c5b        [.      ADDS     r3,r3,#1
        0x100007e0:    b2dc        ..      UXTB     r4,r3
        0x100007e2:    9400        ..      STR      r4,[sp,#0]
        0x100007e4:    466b        kF      MOV      r3,sp
        0x100007e6:    781b        .x      LDRB     r3,[r3,#0]
        0x100007e8:    1c5b        [.      ADDS     r3,r3,#1
        0x100007ea:    b2dc        ..      UXTB     r4,r3
        0x100007ec:    9400        ..      STR      r4,[sp,#0]
        0x100007ee:    466b        kF      MOV      r3,sp
        0x100007f0:    781b        .x      LDRB     r3,[r3,#0]
        0x100007f2:    1c5b        [.      ADDS     r3,r3,#1
        0x100007f4:    b2dc        ..      UXTB     r4,r3
        0x100007f6:    9400        ..      STR      r4,[sp,#0]
        0x100007f8:    4b25        %K      LDR      r3,[pc,#148] ; [0x10000890] = 0x2000305c
        0x100007fa:    681b        .h      LDR      r3,[r3,#0]
        0x100007fc:    78db        .x      LDRB     r3,[r3,#3]
        0x100007fe:    07db        ..      LSLS     r3,r3,#31
        0x10000800:    0fdb        ..      LSRS     r3,r3,#31
        0x10000802:    2b00        .+      CMP      r3,#0
        0x10000804:    d0e3        ..      BEQ      0x100007ce ; uart_1_read + 12
        0x10000806:    7010        .p      STRB     r0,[r2,#0]
        0x10000808:    bd18        ..      POP      {r3,r4,pc}
    UART1_IRQHandler
        0x1000080a:    b50c        ..      PUSH     {r2,r3,lr}
        0x1000080c:    4820         H      LDR      r0,[pc,#128] ; [0x10000890] = 0x2000305c
        0x1000080e:    6800        .h      LDR      r0,[r0,#0]
        0x10000810:    7800        .x      LDRB     r0,[r0,#0]
        0x10000812:    06c0        ..      LSLS     r0,r0,#27
        0x10000814:    0fc0        ..      LSRS     r0,r0,#31
        0x10000816:    2800        .(      CMP      r0,#0
        0x10000818:    d00c        ..      BEQ      0x10000834 ; UART1_IRQHandler + 42
        0x1000081a:    481d        .H      LDR      r0,[pc,#116] ; [0x10000890] = 0x2000305c
        0x1000081c:    6800        .h      LDR      r0,[r0,#0]
        0x1000081e:    7800        .x      LDRB     r0,[r0,#0]
        0x10000820:    2110        .!      MOVS     r1,#0x10
        0x10000822:    4388        .C      BICS     r0,r0,r1
        0x10000824:    491a        .I      LDR      r1,[pc,#104] ; [0x10000890] = 0x2000305c
        0x10000826:    6809        .h      LDR      r1,[r1,#0]
        0x10000828:    7008        .p      STRB     r0,[r1,#0]
        0x1000082a:    4669        iF      MOV      r1,sp
        0x1000082c:    a801        ..      ADD      r0,sp,#4
        0x1000082e:    f7ffffc8    ....    BL       uart_1_read ; 0x100007c2
        0x10000832:    bf00        ..      NOP      
        0x10000834:    4816        .H      LDR      r0,[pc,#88] ; [0x10000890] = 0x2000305c
        0x10000836:    6800        .h      LDR      r0,[r0,#0]
        0x10000838:    7800        .x      LDRB     r0,[r0,#0]
        0x1000083a:    0680        ..      LSLS     r0,r0,#26
        0x1000083c:    0fc0        ..      LSRS     r0,r0,#31
        0x1000083e:    2800        .(      CMP      r0,#0
        0x10000840:    d007        ..      BEQ      0x10000852 ; UART1_IRQHandler + 72
        0x10000842:    4813        .H      LDR      r0,[pc,#76] ; [0x10000890] = 0x2000305c
        0x10000844:    6800        .h      LDR      r0,[r0,#0]
        0x10000846:    7800        .x      LDRB     r0,[r0,#0]
        0x10000848:    2120         !      MOVS     r1,#0x20
        0x1000084a:    4388        .C      BICS     r0,r0,r1
        0x1000084c:    4910        .I      LDR      r1,[pc,#64] ; [0x10000890] = 0x2000305c
        0x1000084e:    6809        .h      LDR      r1,[r1,#0]
        0x10000850:    7008        .p      STRB     r0,[r1,#0]
        0x10000852:    480f        .H      LDR      r0,[pc,#60] ; [0x10000890] = 0x2000305c
        0x10000854:    6800        .h      LDR      r0,[r0,#0]
        0x10000856:    7880        .x      LDRB     r0,[r0,#2]
        0x10000858:    0780        ..      LSLS     r0,r0,#30
        0x1000085a:    0fc0        ..      LSRS     r0,r0,#31
        0x1000085c:    2800        .(      CMP      r0,#0
        0x1000085e:    d008        ..      BEQ      0x10000872 ; UART1_IRQHandler + 104
        0x10000860:    480b        .H      LDR      r0,[pc,#44] ; [0x10000890] = 0x2000305c
        0x10000862:    6800        .h      LDR      r0,[r0,#0]
        0x10000864:    7880        .x      LDRB     r0,[r0,#2]
        0x10000866:    2102        .!      MOVS     r1,#2
        0x10000868:    4388        .C      BICS     r0,r0,r1
        0x1000086a:    1c80        ..      ADDS     r0,r0,#2
        0x1000086c:    4908        .I      LDR      r1,[pc,#32] ; [0x10000890] = 0x2000305c
        0x1000086e:    6809        .h      LDR      r1,[r1,#0]
        0x10000870:    7088        .p      STRB     r0,[r1,#2]
        0x10000872:    bd0c        ..      POP      {r2,r3,pc}
    __NVIC_EnableIRQ
        0x10000874:    2800        .(      CMP      r0,#0
        0x10000876:    db05        ..      BLT      0x10000884 ; __NVIC_EnableIRQ + 16
        0x10000878:    06c2        ..      LSLS     r2,r0,#27
        0x1000087a:    0ed2        ..      LSRS     r2,r2,#27
        0x1000087c:    2101        .!      MOVS     r1,#1
        0x1000087e:    4091        .@      LSLS     r1,r1,r2
        0x10000880:    4a04        .J      LDR      r2,[pc,#16] ; [0x10000894] = 0xe000e100
        0x10000882:    6011        .`      STR      r1,[r2,#0]
        0x10000884:    4770        pG      BX       lr
    $d
        0x10000886:    0000        ..      DCW    0
        0x10000888:    20003010    .0.     DCD    536883216
        0x1000088c:    20003058    X0.     DCD    536883288
        0x10000890:    2000305c    \0.     DCD    536883292
        0x10000894:    e000e100    ....    DCD    3758153984
    $t
    .text
    wdt_enable
        0x10000898:    490c        .I      LDR      r1,[pc,#48] ; [0x100008cc] = 0x20003060
        0x1000089a:    6809        .h      LDR      r1,[r1,#0]
        0x1000089c:    7048        Hp      STRB     r0,[r1,#1]
        0x1000089e:    0a02        ..      LSRS     r2,r0,#8
        0x100008a0:    708a        .p      STRB     r2,[r1,#2]
        0x100008a2:    490a        .I      LDR      r1,[pc,#40] ; [0x100008cc] = 0x20003060
        0x100008a4:    6809        .h      LDR      r1,[r1,#0]
        0x100008a6:    7809        .x      LDRB     r1,[r1,#0]
        0x100008a8:    0849        I.      LSRS     r1,r1,#1
        0x100008aa:    0049        I.      LSLS     r1,r1,#1
        0x100008ac:    1c49        I.      ADDS     r1,r1,#1
        0x100008ae:    4a07        .J      LDR      r2,[pc,#28] ; [0x100008cc] = 0x20003060
        0x100008b0:    6812        .h      LDR      r2,[r2,#0]
        0x100008b2:    7011        .p      STRB     r1,[r2,#0]
        0x100008b4:    4770        pG      BX       lr
    wdt_clear
        0x100008b6:    4805        .H      LDR      r0,[pc,#20] ; [0x100008cc] = 0x20003060
        0x100008b8:    6800        .h      LDR      r0,[r0,#0]
        0x100008ba:    7800        .x      LDRB     r0,[r0,#0]
        0x100008bc:    2102        .!      MOVS     r1,#2
        0x100008be:    4388        .C      BICS     r0,r0,r1
        0x100008c0:    1c80        ..      ADDS     r0,r0,#2
        0x100008c2:    4902        .I      LDR      r1,[pc,#8] ; [0x100008cc] = 0x20003060
        0x100008c4:    6809        .h      LDR      r1,[r1,#0]
        0x100008c6:    7008        .p      STRB     r0,[r1,#0]
        0x100008c8:    4770        pG      BX       lr
    $d
        0x100008ca:    0000        ..      DCW    0
        0x100008cc:    20003060    `0.     DCD    536883296
    $t
    .text
    Reset_Handler
        0x100008d0:    4804        .H      LDR      r0,[pc,#16] ; [0x100008e4] = 0x100008ed
        0x100008d2:    4780        .G      BLX      r0
        0x100008d4:    4804        .H      LDR      r0,[pc,#16] ; [0x100008e8] = 0x100000c1
        0x100008d6:    4700        .G      BX       r0
    NMI_Handler
        0x100008d8:    e7fe        ..      B        NMI_Handler ; 0x100008d8
    HardFault_Handler
        0x100008da:    e7fe        ..      B        HardFault_Handler ; 0x100008da
    SVC_Handler
        0x100008dc:    e7fe        ..      B        SVC_Handler ; 0x100008dc
    PendSV_Handler
        0x100008de:    e7fe        ..      B        PendSV_Handler ; 0x100008de
    SysTick_Handler
        0x100008e0:    e7fe        ..      B        SysTick_Handler ; 0x100008e0
    CAP_IRQHandler
    GPADC_IRQHandler
    HID_IRQHandler
    HPWM_IRQHandler
    I2C0_IRQHandler
    I2C1_IRQHandler
    IR_Rx_IRQHandler
    IR_Tx_IRQHandler
    ISO_7816_IRQHandler
    LLC2_IRQHandler
    LLC_IRQHandler
    RTC_IRQHandler
    SPIM_IRQHandler
    SW_IRQHandler
    TIMER3_IRQHandler
    TOUCH_IRQHandler
        0x100008e2:    e7fe        ..      B        CAP_IRQHandler ; 0x100008e2
    $d
        0x100008e4:    100008ed    ....    DCD    268437741
        0x100008e8:    100000c1    ....    DCD    268435649
    $t
    .text
    SystemInit
        0x100008ec:    4801        .H      LDR      r0,[pc,#4] ; [0x100008f4] = 0xf42400
        0x100008ee:    4902        .I      LDR      r1,[pc,#8] ; [0x100008f8] = 0x20003064
        0x100008f0:    6008        .`      STR      r0,[r1,#0]
        0x100008f2:    4770        pG      BX       lr
    $d
        0x100008f4:    00f42400    .$..    DCD    16000000
        0x100008f8:    20003064    d0.     DCD    536883300
    $t
    .text
    _LCDisConnect
        0x100008fc:    b5f1        ..      PUSH     {r0,r4-r7,lr}
        0x100008fe:    48f9        .H      LDR      r0,[pc,#996] ; [0x10000ce4] = 0x65bf
        0x10000900:    4780        .G      BLX      r0
        0x10000902:    4607        .F      MOV      r7,r0
        0x10000904:    48f8        .H      LDR      r0,[pc,#992] ; [0x10000ce8] = 0x6a77
        0x10000906:    4780        .G      BLX      r0
        0x10000908:    4606        .F      MOV      r6,r0
        0x1000090a:    4cf6        .L      LDR      r4,[pc,#984] ; [0x10000ce4] = 0x65bf
        0x1000090c:    2001        .       MOVS     r0,#1
        0x1000090e:    3c18        .<      SUBS     r4,r4,#0x18
        0x10000910:    47a0        .G      BLX      r4
        0x10000912:    4df5        .M      LDR      r5,[pc,#980] ; [0x10000ce8] = 0x6a77
        0x10000914:    2000        .       MOVS     r0,#0
        0x10000916:    350c        .5      ADDS     r5,r5,#0xc
        0x10000918:    47a8        .G      BLX      r5
        0x1000091a:    49f4        .I      LDR      r1,[pc,#976] ; [0x10000cec] = 0x16cf
        0x1000091c:    9800        ..      LDR      r0,[sp,#0]
        0x1000091e:    4788        .G      BLX      r1
        0x10000920:    4630        0F      MOV      r0,r6
        0x10000922:    47a8        .G      BLX      r5
        0x10000924:    4638        8F      MOV      r0,r7
        0x10000926:    47a0        .G      BLX      r4
        0x10000928:    bdf8        ..      POP      {r3-r7,pc}
    _LCTimer_Handler
        0x1000092a:    b5f0        ..      PUSH     {r4-r7,lr}
        0x1000092c:    4df0        .M      LDR      r5,[pc,#960] ; [0x10000cf0] = 0x20003068
        0x1000092e:    48f1        .H      LDR      r0,[pc,#964] ; [0x10000cf4] = 0x3ce
        0x10000930:    68e9        .h      LDR      r1,[r5,#0xc]
        0x10000932:    b085        ..      SUB      sp,sp,#0x14
        0x10000934:    1808        ..      ADDS     r0,r1,r0
        0x10000936:    4604        .F      MOV      r4,r0
        0x10000938:    f002fa67    ..g.    BL       __aeabi_uread4 ; 0x10002e0a
        0x1000093c:    4621        !F      MOV      r1,r4
        0x1000093e:    1c40        @.      ADDS     r0,r0,#1
        0x10000940:    f002fa6d    ..m.    BL       __aeabi_uwrite4 ; 0x10002e1e
        0x10000944:    2400        .$      MOVS     r4,#0
        0x10000946:    48ea        .H      LDR      r0,[pc,#936] ; [0x10000cf0] = 0x20003068
        0x10000948:    2501        .%      MOVS     r5,#1
        0x1000094a:    68c6        .h      LDR      r6,[r0,#0xc]
        0x1000094c:    48e9        .H      LDR      r0,[pc,#932] ; [0x10000cf4] = 0x3ce
        0x1000094e:    380c        .8      SUBS     r0,r0,#0xc
        0x10000950:    1831        1.      ADDS     r1,r6,r0
        0x10000952:    9103        ..      STR      r1,[sp,#0xc]
        0x10000954:    7c48        H|      LDRB     r0,[r1,#0x11]
        0x10000956:    7c09        .|      LDRB     r1,[r1,#0x10]
        0x10000958:    0200        ..      LSLS     r0,r0,#8
        0x1000095a:    4308        .C      ORRS     r0,r0,r1
        0x1000095c:    40a5        .@      LSLS     r5,r5,r4
        0x1000095e:    4228        (B      TST      r0,r5
        0x10000960:    9002        ..      STR      r0,[sp,#8]
        0x10000962:    d03b        ;.      BEQ      0x100009dc ; _LCTimer_Handler + 178
        0x10000964:    200b        .       MOVS     r0,#0xb
        0x10000966:    4360        `C      MULS     r0,r4,r0
        0x10000968:    1981        ..      ADDS     r1,r0,r6
        0x1000096a:    48e2        .H      LDR      r0,[pc,#904] ; [0x10000cf4] = 0x3ce
        0x1000096c:    9100        ..      STR      r1,[sp,#0]
        0x1000096e:    3009        .0      ADDS     r0,r0,#9
        0x10000970:    1808        ..      ADDS     r0,r1,r0
        0x10000972:    9001        ..      STR      r0,[sp,#4]
        0x10000974:    f002fa49    ..I.    BL       __aeabi_uread4 ; 0x10002e0a
        0x10000978:    4607        .F      MOV      r7,r0
        0x1000097a:    48de        .H      LDR      r0,[pc,#888] ; [0x10000cf4] = 0x3ce
        0x1000097c:    1830        0.      ADDS     r0,r6,r0
        0x1000097e:    f002fa44    ..D.    BL       __aeabi_uread4 ; 0x10002e0a
        0x10000982:    4287        .B      CMP      r7,r0
        0x10000984:    d12a        *.      BNE      0x100009dc ; _LCTimer_Handler + 178
        0x10000986:    210f        .!      MOVS     r1,#0xf
        0x10000988:    9800        ..      LDR      r0,[sp,#0]
        0x1000098a:    0189        ..      LSLS     r1,r1,#6
        0x1000098c:    1840        @.      ADDS     r0,r0,r1
        0x1000098e:    7d00        .}      LDRB     r0,[r0,#0x14]
        0x10000990:    2800        .(      CMP      r0,#0
        0x10000992:    d00c        ..      BEQ      0x100009ae ; _LCTimer_Handler + 132
        0x10000994:    4ad7        .J      LDR      r2,[pc,#860] ; [0x10000cf4] = 0x3ce
        0x10000996:    9900        ..      LDR      r1,[sp,#0]
        0x10000998:    3a0d        .:      SUBS     r2,r2,#0xd
        0x1000099a:    188a        ..      ADDS     r2,r1,r2
        0x1000099c:    7d51        Q}      LDRB     r1,[r2,#0x15]
        0x1000099e:    7d12        .}      LDRB     r2,[r2,#0x14]
        0x100009a0:    0209        ..      LSLS     r1,r1,#8
        0x100009a2:    4311        .C      ORRS     r1,r1,r2
        0x100009a4:    1878        x.      ADDS     r0,r7,r1
        0x100009a6:    9901        ..      LDR      r1,[sp,#4]
        0x100009a8:    f002fa39    ..9.    BL       __aeabi_uwrite4 ; 0x10002e1e
        0x100009ac:    e005        ..      B        0x100009ba ; _LCTimer_Handler + 144
        0x100009ae:    9802        ..      LDR      r0,[sp,#8]
        0x100009b0:    9903        ..      LDR      r1,[sp,#0xc]
        0x100009b2:    43a8        .C      BICS     r0,r0,r5
        0x100009b4:    7408        .t      STRB     r0,[r1,#0x10]
        0x100009b6:    0a00        ..      LSRS     r0,r0,#8
        0x100009b8:    7448        Ht      STRB     r0,[r1,#0x11]
        0x100009ba:    48ce        .H      LDR      r0,[pc,#824] ; [0x10000cf4] = 0x3ce
        0x100009bc:    9900        ..      LDR      r1,[sp,#0]
        0x100009be:    300d        .0      ADDS     r0,r0,#0xd
        0x100009c0:    1808        ..      ADDS     r0,r1,r0
        0x100009c2:    f002fa22    ..".    BL       __aeabi_uread4 ; 0x10002e0a
        0x100009c6:    2800        .(      CMP      r0,#0
        0x100009c8:    d008        ..      BEQ      0x100009dc ; _LCTimer_Handler + 178
        0x100009ca:    2d02        .-      CMP      r5,#2
        0x100009cc:    d019        ..      BEQ      0x10000a02 ; _LCTimer_Handler + 216
        0x100009ce:    2d04        .-      CMP      r5,#4
        0x100009d0:    d017        ..      BEQ      0x10000a02 ; _LCTimer_Handler + 216
        0x100009d2:    2d08        .-      CMP      r5,#8
        0x100009d4:    d015        ..      BEQ      0x10000a02 ; _LCTimer_Handler + 216
        0x100009d6:    2d10        .-      CMP      r5,#0x10
        0x100009d8:    d01a        ..      BEQ      0x10000a10 ; _LCTimer_Handler + 230
        0x100009da:    4780        .G      BLX      r0
        0x100009dc:    1c64        d.      ADDS     r4,r4,#1
        0x100009de:    b2e4        ..      UXTB     r4,r4
        0x100009e0:    2c0a        .,      CMP      r4,#0xa
        0x100009e2:    d3b0        ..      BCC      0x10000946 ; _LCTimer_Handler + 28
        0x100009e4:    48c2        .H      LDR      r0,[pc,#776] ; [0x10000cf0] = 0x20003068
        0x100009e6:    68c1        .h      LDR      r1,[r0,#0xc]
        0x100009e8:    48c2        .H      LDR      r0,[pc,#776] ; [0x10000cf4] = 0x3ce
        0x100009ea:    380c        .8      SUBS     r0,r0,#0xc
        0x100009ec:    1809        ..      ADDS     r1,r1,r0
        0x100009ee:    7c48        H|      LDRB     r0,[r1,#0x11]
        0x100009f0:    7c09        .|      LDRB     r1,[r1,#0x10]
        0x100009f2:    0200        ..      LSLS     r0,r0,#8
        0x100009f4:    4308        .C      ORRS     r0,r0,r1
        0x100009f6:    0580        ..      LSLS     r0,r0,#22
        0x100009f8:    d101        ..      BNE      0x100009fe ; _LCTimer_Handler + 212
        0x100009fa:    48bf        .H      LDR      r0,[pc,#764] ; [0x10000cf8] = 0x1201
        0x100009fc:    4780        .G      BLX      r0
        0x100009fe:    b005        ..      ADD      sp,sp,#0x14
        0x10000a00:    bdf0        ..      POP      {r4-r7,pc}
        0x10000a02:    49be        .I      LDR      r1,[pc,#760] ; [0x10000cfc] = 0xaf5
        0x10000a04:    2001        .       MOVS     r0,#1
        0x10000a06:    4788        .G      BLX      r1
        0x10000a08:    2800        .(      CMP      r0,#0
        0x10000a0a:    d0e7        ..      BEQ      0x100009dc ; _LCTimer_Handler + 178
        0x10000a0c:    2022        "       MOVS     r0,#0x22
        0x10000a0e:    e005        ..      B        0x10000a1c ; _LCTimer_Handler + 242
        0x10000a10:    49ba        .I      LDR      r1,[pc,#744] ; [0x10000cfc] = 0xaf5
        0x10000a12:    2001        .       MOVS     r0,#1
        0x10000a14:    4788        .G      BLX      r1
        0x10000a16:    2800        .(      CMP      r0,#0
        0x10000a18:    d0e0        ..      BEQ      0x100009dc ; _LCTimer_Handler + 178
        0x10000a1a:    203b        ;       MOVS     r0,#0x3b
        0x10000a1c:    f7ffff6e    ..n.    BL       _LCDisConnect ; 0x100008fc
        0x10000a20:    e7dc        ..      B        0x100009dc ; _LCTimer_Handler + 178
    _LCRxPkt_Handler
        0x10000a22:    b5fe        ..      PUSH     {r1-r7,lr}
        0x10000a24:    2000        .       MOVS     r0,#0
        0x10000a26:    4669        iF      MOV      r1,sp
        0x10000a28:    7108        .q      STRB     r0,[r1,#4]
        0x10000a2a:    7008        .p      STRB     r0,[r1,#0]
        0x10000a2c:    4fb4        .O      LDR      r7,[pc,#720] ; [0x10000d00] = 0x5749
        0x10000a2e:    7208        .r      STRB     r0,[r1,#8]
        0x10000a30:    4eb4        .N      LDR      r6,[pc,#720] ; [0x10000d04] = 0x1979
        0x10000a32:    4caf        .L      LDR      r4,[pc,#700] ; [0x10000cf0] = 0x20003068
        0x10000a34:    47b8        .G      BLX      r7
        0x10000a36:    71a0        .q      STRB     r0,[r4,#6]
        0x10000a38:    ab02        ..      ADD      r3,sp,#8
        0x10000a3a:    466a        jF      MOV      r2,sp
        0x10000a3c:    a901        ..      ADD      r1,sp,#4
        0x10000a3e:    6960        `i      LDR      r0,[r4,#0x14]
        0x10000a40:    f002f893    ....    BL       _BBRXFIFORead ; 0x10002b6a
        0x10000a44:    2800        .(      CMP      r0,#0
        0x10000a46:    d03c        <.      BEQ      0x10000ac2 ; _LCRxPkt_Handler + 160
        0x10000a48:    2008        .       MOVS     r0,#8
        0x10000a4a:    47b0        .G      BLX      r6
        0x10000a4c:    2800        .(      CMP      r0,#0
        0x10000a4e:    d003        ..      BEQ      0x10000a58 ; _LCRxPkt_Handler + 54
        0x10000a50:    2002        .       MOVS     r0,#2
        0x10000a52:    47b0        .G      BLX      r6
        0x10000a54:    2800        .(      CMP      r0,#0
        0x10000a56:    d00f        ..      BEQ      0x10000a78 ; _LCRxPkt_Handler + 86
        0x10000a58:    4668        hF      MOV      r0,sp
        0x10000a5a:    7800        .x      LDRB     r0,[r0,#0]
        0x10000a5c:    2801        .(      CMP      r0,#1
        0x10000a5e:    d011        ..      BEQ      0x10000a84 ; _LCRxPkt_Handler + 98
        0x10000a60:    68e0        .h      LDR      r0,[r4,#0xc]
        0x10000a62:    6965        ei      LDR      r5,[r4,#0x14]
        0x10000a64:    7a40        @z      LDRB     r0,[r0,#9]
        0x10000a66:    2801        .(      CMP      r0,#1
        0x10000a68:    d02c        ,.      BEQ      0x10000ac4 ; _LCRxPkt_Handler + 162
        0x10000a6a:    2802        .(      CMP      r0,#2
        0x10000a6c:    d1e2        ..      BNE      0x10000a34 ; _LCRxPkt_Handler + 18
        0x10000a6e:    4aa6        .J      LDR      r2,[pc,#664] ; [0x10000d08] = 0x1e8b
        0x10000a70:    79a1        .y      LDRB     r1,[r4,#6]
        0x10000a72:    4628        (F      MOV      r0,r5
        0x10000a74:    4790        .G      BLX      r2
        0x10000a76:    e7dd        ..      B        0x10000a34 ; _LCRxPkt_Handler + 18
        0x10000a78:    2101        .!      MOVS     r1,#1
        0x10000a7a:    4668        hF      MOV      r0,sp
        0x10000a7c:    7001        .p      STRB     r1,[r0,#0]
        0x10000a7e:    7a00        .z      LDRB     r0,[r0,#8]
        0x10000a80:    2800        .(      CMP      r0,#0
        0x10000a82:    d01b        ..      BEQ      0x10000abc ; _LCRxPkt_Handler + 154
        0x10000a84:    2125        %!      MOVS     r1,#0x25
        0x10000a86:    68e0        .h      LDR      r0,[r4,#0xc]
        0x10000a88:    0149        I.      LSLS     r1,r1,#5
        0x10000a8a:    1841        A.      ADDS     r1,r0,r1
        0x10000a8c:    7b49        I{      LDRB     r1,[r1,#0xd]
        0x10000a8e:    6965        ei      LDR      r5,[r4,#0x14]
        0x10000a90:    2900        .)      CMP      r1,#0
        0x10000a92:    d008        ..      BEQ      0x10000aa6 ; _LCRxPkt_Handler + 132
        0x10000a94:    4997        .I      LDR      r1,[pc,#604] ; [0x10000cf4] = 0x3ce
        0x10000a96:    31d4        .1      ADDS     r1,r1,#0xd4
        0x10000a98:    1840        @.      ADDS     r0,r0,r1
        0x10000a9a:    7b41        A{      LDRB     r1,[r0,#0xd]
        0x10000a9c:    7b02        .{      LDRB     r2,[r0,#0xc]
        0x10000a9e:    0208        ..      LSLS     r0,r1,#8
        0x10000aa0:    499a        .I      LDR      r1,[pc,#616] ; [0x10000d0c] = 0x622b
        0x10000aa2:    4310        .C      ORRS     r0,r0,r2
        0x10000aa4:    4788        .G      BLX      r1
        0x10000aa6:    4628        (F      MOV      r0,r5
        0x10000aa8:    f002f8a4    ....    BL       _rom_rx_sweyntooth_protect ; 0x10002bf4
        0x10000aac:    2800        .(      CMP      r0,#0
        0x10000aae:    d0c1        ..      BEQ      0x10000a34 ; _LCRxPkt_Handler + 18
        0x10000ab0:    4668        hF      MOV      r0,sp
        0x10000ab2:    4a95        .J      LDR      r2,[pc,#596] ; [0x10000d08] = 0x1e8b
        0x10000ab4:    7901        .y      LDRB     r1,[r0,#4]
        0x10000ab6:    3296        .2      ADDS     r2,r2,#0x96
        0x10000ab8:    6960        `i      LDR      r0,[r4,#0x14]
        0x10000aba:    e7db        ..      B        0x10000a74 ; _LCRxPkt_Handler + 82
        0x10000abc:    203d        =       MOVS     r0,#0x3d
        0x10000abe:    f7ffff1d    ....    BL       _LCDisConnect ; 0x100008fc
        0x10000ac2:    bdfe        ..      POP      {r1-r7,pc}
        0x10000ac4:    7828        (x      LDRB     r0,[r5,#0]
        0x10000ac6:    0700        ..      LSLS     r0,r0,#28
        0x10000ac8:    0f00        ..      LSRS     r0,r0,#28
        0x10000aca:    2805        .(      CMP      r0,#5
        0x10000acc:    d1b2        ..      BNE      0x10000a34 ; _LCRxPkt_Handler + 18
        0x10000ace:    7e68        h~      LDRB     r0,[r5,#0x19]
        0x10000ad0:    7e29        )~      LDRB     r1,[r5,#0x18]
        0x10000ad2:    0200        ..      LSLS     r0,r0,#8
        0x10000ad4:    4308        .C      ORRS     r0,r0,r1
        0x10000ad6:    2806        .(      CMP      r0,#6
        0x10000ad8:    d305        ..      BCC      0x10000ae6 ; _LCRxPkt_Handler + 196
        0x10000ada:    7f68        h.      LDRB     r0,[r5,#0x1d]
        0x10000adc:    7f29        ).      LDRB     r1,[r5,#0x1c]
        0x10000ade:    0200        ..      LSLS     r0,r0,#8
        0x10000ae0:    4308        .C      ORRS     r0,r0,r1
        0x10000ae2:    280a        .(      CMP      r0,#0xa
        0x10000ae4:    d203        ..      BCS      0x10000aee ; _LCRxPkt_Handler + 204
        0x10000ae6:    4981        .I      LDR      r1,[pc,#516] ; [0x10000cec] = 0x16cf
        0x10000ae8:    2012        .       MOVS     r0,#0x12
        0x10000aea:    4788        .G      BLX      r1
        0x10000aec:    e7a2        ..      B        0x10000a34 ; _LCRxPkt_Handler + 18
        0x10000aee:    4984        .I      LDR      r1,[pc,#528] ; [0x10000d00] = 0x5749
        0x10000af0:    31ee        .1      ADDS     r1,r1,#0xee
        0x10000af2:    1ca8        ..      ADDS     r0,r5,#2
        0x10000af4:    4788        .G      BLX      r1
        0x10000af6:    7828        (x      LDRB     r0,[r5,#0]
        0x10000af8:    2287        ."      MOVS     r2,#0x87
        0x10000afa:    0640        @.      LSLS     r0,r0,#25
        0x10000afc:    0fc1        ..      LSRS     r1,r0,#31
        0x10000afe:    68e0        .h      LDR      r0,[r4,#0xc]
        0x10000b00:    5411        .T      STRB     r1,[r2,r0]
        0x10000b02:    2206        ."      MOVS     r2,#6
        0x10000b04:    1ca9        ..      ADDS     r1,r5,#2
        0x10000b06:    3088        .0      ADDS     r0,r0,#0x88
        0x10000b08:    f002f94e    ..N.    BL       __aeabi_memcpy ; 0x10002da8
        0x10000b0c:    2137        7!      MOVS     r1,#0x37
        0x10000b0e:    6920         i      LDR      r0,[r4,#0x10]
        0x10000b10:    f002f963    ..c.    BL       __aeabi_memclr ; 0x10002dda
        0x10000b14:    e78e        ..      B        0x10000a34 ; _LCRxPkt_Handler + 18
    _LCTxPkt_Handler
        0x10000b16:    b5f0        ..      PUSH     {r4-r7,lr}
        0x10000b18:    4978        xI      LDR      r1,[pc,#480] ; [0x10000cfc] = 0xaf5
        0x10000b1a:    b099        ..      SUB      sp,sp,#0x64
        0x10000b1c:    2004        .       MOVS     r0,#4
        0x10000b1e:    4788        .G      BLX      r1
        0x10000b20:    2800        .(      CMP      r0,#0
        0x10000b22:    d00e        ..      BEQ      0x10000b42 ; _LCTxPkt_Handler + 44
        0x10000b24:    4975        uI      LDR      r1,[pc,#468] ; [0x10000cfc] = 0xaf5
        0x10000b26:    2004        .       MOVS     r0,#4
        0x10000b28:    311a        .1      ADDS     r1,r1,#0x1a
        0x10000b2a:    4788        .G      BLX      r1
        0x10000b2c:    4972        rI      LDR      r1,[pc,#456] ; [0x10000cf8] = 0x1201
        0x10000b2e:    201f        .       MOVS     r0,#0x1f
        0x10000b30:    31ac        .1      ADDS     r1,r1,#0xac
        0x10000b32:    4788        .G      BLX      r1
        0x10000b34:    4876        vH      LDR      r0,[pc,#472] ; [0x10000d10] = 0x60bd
        0x10000b36:    4780        .G      BLX      r0
        0x10000b38:    2016        .       MOVS     r0,#0x16
        0x10000b3a:    f7fffedf    ....    BL       _LCDisConnect ; 0x100008fc
        0x10000b3e:    b019        ..      ADD      sp,sp,#0x64
        0x10000b40:    bdf0        ..      POP      {r4-r7,pc}
        0x10000b42:    4874        tH      LDR      r0,[pc,#464] ; [0x10000d14] = 0x4e05
        0x10000b44:    4780        .G      BLX      r0
        0x10000b46:    2800        .(      CMP      r0,#0
        0x10000b48:    d010        ..      BEQ      0x10000b6c ; _LCTxPkt_Handler + 86
        0x10000b4a:    4d69        iM      LDR      r5,[pc,#420] ; [0x10000cf0] = 0x20003068
        0x10000b4c:    68ec        .h      LDR      r4,[r5,#0xc]
        0x10000b4e:    79a1        .y      LDRB     r1,[r4,#6]
        0x10000b50:    0708        ..      LSLS     r0,r1,#28
        0x10000b52:    d5f4        ..      BPL      0x10000b3e ; _LCTxPkt_Handler + 40
        0x10000b54:    79e0        .y      LDRB     r0,[r4,#7]
        0x10000b56:    07c2        ..      LSLS     r2,r0,#31
        0x10000b58:    d01c        ..      BEQ      0x10000b94 ; _LCTxPkt_Handler + 126
        0x10000b5a:    496f        oI      LDR      r1,[pc,#444] ; [0x10000d18] = 0x2627
        0x10000b5c:    4620         F      MOV      r0,r4
        0x10000b5e:    3098        .0      ADDS     r0,r0,#0x98
        0x10000b60:    4788        .G      BLX      r1
        0x10000b62:    68e8        .h      LDR      r0,[r5,#0xc]
        0x10000b64:    79c1        .y      LDRB     r1,[r0,#7]
        0x10000b66:    0849        I.      LSRS     r1,r1,#1
        0x10000b68:    0049        I.      LSLS     r1,r1,#1
        0x10000b6a:    e01f        ..      B        0x10000bac ; _LCTxPkt_Handler + 150
        0x10000b6c:    4e69        iN      LDR      r6,[pc,#420] ; [0x10000d14] = 0x4e05
        0x10000b6e:    4f68        hO      LDR      r7,[pc,#416] ; [0x10000d10] = 0x60bd
        0x10000b70:    4d67        gM      LDR      r5,[pc,#412] ; [0x10000d10] = 0x60bd
        0x10000b72:    36b2        .6      ADDS     r6,r6,#0xb2
        0x10000b74:    371c        .7      ADDS     r7,r7,#0x1c
        0x10000b76:    466c        lF      MOV      r4,sp
        0x10000b78:    3510        .5      ADDS     r5,r5,#0x10
        0x10000b7a:    e007        ..      B        0x10000b8c ; _LCTxPkt_Handler + 118
        0x10000b7c:    4668        hF      MOV      r0,sp
        0x10000b7e:    47b0        .G      BLX      r6
        0x10000b80:    2801        .(      CMP      r0,#1
        0x10000b82:    d1dc        ..      BNE      0x10000b3e ; _LCTxPkt_Handler + 40
        0x10000b84:    4668        hF      MOV      r0,sp
        0x10000b86:    7801        .x      LDRB     r1,[r0,#0]
        0x10000b88:    1c60        `.      ADDS     r0,r4,#1
        0x10000b8a:    47b8        .G      BLX      r7
        0x10000b8c:    47a8        .G      BLX      r5
        0x10000b8e:    2800        .(      CMP      r0,#0
        0x10000b90:    d0f4        ..      BEQ      0x10000b7c ; _LCTxPkt_Handler + 102
        0x10000b92:    e7d4        ..      B        0x10000b3e ; _LCTxPkt_Handler + 40
        0x10000b94:    0782        ..      LSLS     r2,r0,#30
        0x10000b96:    d50b        ..      BPL      0x10000bb0 ; _LCTxPkt_Handler + 154
        0x10000b98:    4a5f        _J      LDR      r2,[pc,#380] ; [0x10000d18] = 0x2627
        0x10000b9a:    4620         F      MOV      r0,r4
        0x10000b9c:    321c        .2      ADDS     r2,r2,#0x1c
        0x10000b9e:    308e        .0      ADDS     r0,r0,#0x8e
        0x10000ba0:    1c81        ..      ADDS     r1,r0,#2
        0x10000ba2:    4790        .G      BLX      r2
        0x10000ba4:    68e8        .h      LDR      r0,[r5,#0xc]
        0x10000ba6:    22fd        ."      MOVS     r2,#0xfd
        0x10000ba8:    79c1        .y      LDRB     r1,[r0,#7]
        0x10000baa:    e023        #.      B        0x10000bf4 ; _LCTxPkt_Handler + 222
        0x10000bac:    71c1        .q      STRB     r1,[r0,#7]
        0x10000bae:    e7c6        ..      B        0x10000b3e ; _LCTxPkt_Handler + 40
        0x10000bb0:    0742        B.      LSLS     r2,r0,#29
        0x10000bb2:    d508        ..      BPL      0x10000bc6 ; _LCTxPkt_Handler + 176
        0x10000bb4:    4958        XI      LDR      r1,[pc,#352] ; [0x10000d18] = 0x2627
        0x10000bb6:    4620         F      MOV      r0,r4
        0x10000bb8:    3160        `1      ADDS     r1,r1,#0x60
        0x10000bba:    30a8        .0      ADDS     r0,r0,#0xa8
        0x10000bbc:    4788        .G      BLX      r1
        0x10000bbe:    68e8        .h      LDR      r0,[r5,#0xc]
        0x10000bc0:    22fb        ."      MOVS     r2,#0xfb
        0x10000bc2:    79c1        .y      LDRB     r1,[r0,#7]
        0x10000bc4:    e016        ..      B        0x10000bf4 ; _LCTxPkt_Handler + 222
        0x10000bc6:    0702        ..      LSLS     r2,r0,#28
        0x10000bc8:    26f7        .&      MOVS     r6,#0xf7
        0x10000bca:    2a00        .*      CMP      r2,#0
        0x10000bcc:    da09        ..      BGE      0x10000be2 ; _LCTxPkt_Handler + 204
        0x10000bce:    4a52        RJ      LDR      r2,[pc,#328] ; [0x10000d18] = 0x2627
        0x10000bd0:    4621        !F      MOV      r1,r4
        0x10000bd2:    3242        B2      ADDS     r2,r2,#0x42
        0x10000bd4:    7aa0        .z      LDRB     r0,[r4,#0xa]
        0x10000bd6:    310b        .1      ADDS     r1,r1,#0xb
        0x10000bd8:    4790        .G      BLX      r2
        0x10000bda:    68e8        .h      LDR      r0,[r5,#0xc]
        0x10000bdc:    79c1        .y      LDRB     r1,[r0,#7]
        0x10000bde:    4031        1@      ANDS     r1,r1,r6
        0x10000be0:    e7e4        ..      B        0x10000bac ; _LCTxPkt_Handler + 150
        0x10000be2:    06c0        ..      LSLS     r0,r0,#27
        0x10000be4:    d508        ..      BPL      0x10000bf8 ; _LCTxPkt_Handler + 226
        0x10000be6:    494c        LI      LDR      r1,[pc,#304] ; [0x10000d18] = 0x2627
        0x10000be8:    4668        hF      MOV      r0,sp
        0x10000bea:    317c        |1      ADDS     r1,r1,#0x7c
        0x10000bec:    4788        .G      BLX      r1
        0x10000bee:    68e8        .h      LDR      r0,[r5,#0xc]
        0x10000bf0:    22ef        ."      MOVS     r2,#0xef
        0x10000bf2:    79c1        .y      LDRB     r1,[r0,#7]
        0x10000bf4:    4011        .@      ANDS     r1,r1,r2
        0x10000bf6:    e7d9        ..      B        0x10000bac ; _LCTxPkt_Handler + 150
        0x10000bf8:    4620         F      MOV      r0,r4
        0x10000bfa:    4031        1@      ANDS     r1,r1,r6
        0x10000bfc:    30ff        .0      ADDS     r0,r0,#0xff
        0x10000bfe:    71a1        .q      STRB     r1,[r4,#6]
        0x10000c00:    3021        !0      ADDS     r0,r0,#0x21
        0x10000c02:    7d01        .}      LDRB     r1,[r0,#0x14]
        0x10000c04:    2600        .&      MOVS     r6,#0
        0x10000c06:    2900        .)      CMP      r1,#0
        0x10000c08:    d010        ..      BEQ      0x10000c2c ; _LCTxPkt_Handler + 278
        0x10000c0a:    7506        .u      STRB     r6,[r0,#0x14]
        0x10000c0c:    4621        !F      MOV      r1,r4
        0x10000c0e:    2207        ."      MOVS     r2,#7
        0x10000c10:    3187        .1      ADDS     r1,r1,#0x87
        0x10000c12:    a80c        ..      ADD      r0,sp,#0x30
        0x10000c14:    f002f8c8    ....    BL       __aeabi_memcpy ; 0x10002da8
        0x10000c18:    4621        !F      MOV      r1,r4
        0x10000c1a:    a80d        ..      ADD      r0,sp,#0x34
        0x10000c1c:    222a        *"      MOVS     r2,#0x2a
        0x10000c1e:    318e        .1      ADDS     r1,r1,#0x8e
        0x10000c20:    3003        .0      ADDS     r0,#3
        0x10000c22:    f002f8c1    ....    BL       __aeabi_memcpy ; 0x10002da8
        0x10000c26:    493d        =I      LDR      r1,[pc,#244] ; [0x10000d1c] = 0x47df
        0x10000c28:    a80c        ..      ADD      r0,sp,#0x30
        0x10000c2a:    4788        .G      BLX      r1
        0x10000c2c:    2001        .       MOVS     r0,#1
        0x10000c2e:    4669        iF      MOV      r1,sp
        0x10000c30:    7008        .p      STRB     r0,[r1,#0]
        0x10000c32:    7048        Hp      STRB     r0,[r1,#1]
        0x10000c34:    708e        .p      STRB     r6,[r1,#2]
        0x10000c36:    68e9        .h      LDR      r1,[r5,#0xc]
        0x10000c38:    a800        ..      ADD      r0,sp,#0
        0x10000c3a:    222a        *"      MOVS     r2,#0x2a
        0x10000c3c:    3003        .0      ADDS     r0,#3
        0x10000c3e:    318e        .1      ADDS     r1,r1,#0x8e
        0x10000c40:    f002f8b2    ....    BL       __aeabi_memcpy ; 0x10002da8
        0x10000c44:    222d        -"      MOVS     r2,#0x2d
        0x10000c46:    2108        .!      MOVS     r1,#8
        0x10000c48:    4c35        5L      LDR      r4,[pc,#212] ; [0x10000d20] = 0x3ea1
        0x10000c4a:    466b        kF      MOV      r3,sp
        0x10000c4c:    2000        .       MOVS     r0,#0
        0x10000c4e:    47a0        .G      BLX      r4
        0x10000c50:    e775        u.      B        0x10000b3e ; _LCTxPkt_Handler + 40
    _BBGetMask
        0x10000c52:    4927        'I      LDR      r1,[pc,#156] ; [0x10000cf0] = 0x20003068
        0x10000c54:    2801        .(      CMP      r0,#1
        0x10000c56:    6a89        .j      LDR      r1,[r1,#0x28]
        0x10000c58:    d00f        ..      BEQ      0x10000c7a ; _BBGetMask + 40
        0x10000c5a:    2802        .(      CMP      r0,#2
        0x10000c5c:    d011        ..      BEQ      0x10000c82 ; _BBGetMask + 48
        0x10000c5e:    2804        .(      CMP      r0,#4
        0x10000c60:    d012        ..      BEQ      0x10000c88 ; _BBGetMask + 54
        0x10000c62:    2808        .(      CMP      r0,#8
        0x10000c64:    d013        ..      BEQ      0x10000c8e ; _BBGetMask + 60
        0x10000c66:    2810        .(      CMP      r0,#0x10
        0x10000c68:    d014        ..      BEQ      0x10000c94 ; _BBGetMask + 66
        0x10000c6a:    2820         (      CMP      r0,#0x20
        0x10000c6c:    d015        ..      BEQ      0x10000c9a ; _BBGetMask + 72
        0x10000c6e:    2840        @(      CMP      r0,#0x40
        0x10000c70:    d016        ..      BEQ      0x10000ca0 ; _BBGetMask + 78
        0x10000c72:    2880        .(      CMP      r0,#0x80
        0x10000c74:    d018        ..      BEQ      0x10000ca8 ; _BBGetMask + 86
        0x10000c76:    2001        .       MOVS     r0,#1
        0x10000c78:    4770        pG      BX       lr
        0x10000c7a:    7888        .x      LDRB     r0,[r1,#2]
        0x10000c7c:    07c0        ..      LSLS     r0,r0,#31
        0x10000c7e:    0fc0        ..      LSRS     r0,r0,#31
        0x10000c80:    4770        pG      BX       lr
        0x10000c82:    7888        .x      LDRB     r0,[r1,#2]
        0x10000c84:    0780        ..      LSLS     r0,r0,#30
        0x10000c86:    e00d        ..      B        0x10000ca4 ; _BBGetMask + 82
        0x10000c88:    7888        .x      LDRB     r0,[r1,#2]
        0x10000c8a:    0740        @.      LSLS     r0,r0,#29
        0x10000c8c:    e00a        ..      B        0x10000ca4 ; _BBGetMask + 82
        0x10000c8e:    7888        .x      LDRB     r0,[r1,#2]
        0x10000c90:    0700        ..      LSLS     r0,r0,#28
        0x10000c92:    e007        ..      B        0x10000ca4 ; _BBGetMask + 82
        0x10000c94:    7888        .x      LDRB     r0,[r1,#2]
        0x10000c96:    06c0        ..      LSLS     r0,r0,#27
        0x10000c98:    e004        ..      B        0x10000ca4 ; _BBGetMask + 82
        0x10000c9a:    7888        .x      LDRB     r0,[r1,#2]
        0x10000c9c:    0680        ..      LSLS     r0,r0,#26
        0x10000c9e:    e001        ..      B        0x10000ca4 ; _BBGetMask + 82
        0x10000ca0:    7888        .x      LDRB     r0,[r1,#2]
        0x10000ca2:    0640        @.      LSLS     r0,r0,#25
        0x10000ca4:    0fc0        ..      LSRS     r0,r0,#31
        0x10000ca6:    4770        pG      BX       lr
        0x10000ca8:    7888        .x      LDRB     r0,[r1,#2]
        0x10000caa:    09c0        ..      LSRS     r0,r0,#7
        0x10000cac:    4770        pG      BX       lr
    Lib_LLEvtCallback
        0x10000cae:    b510        ..      PUSH     {r4,lr}
        0x10000cb0:    7801        .x      LDRB     r1,[r0,#0]
        0x10000cb2:    2901        .)      CMP      r1,#1
        0x10000cb4:    d140        @.      BNE      0x10000d38 ; Lib_LLEvtCallback + 138
        0x10000cb6:    1c40        @.      ADDS     r0,r0,#1
        0x10000cb8:    f002f8a7    ....    BL       __aeabi_uread4 ; 0x10002e0a
        0x10000cbc:    4a0c        .J      LDR      r2,[pc,#48] ; [0x10000cf0] = 0x20003068
        0x10000cbe:    2810        .(      CMP      r0,#0x10
        0x10000cc0:    d05b        [.      BEQ      0x10000d7a ; Lib_LLEvtCallback + 204
        0x10000cc2:    dc2f        /.      BGT      0x10000d24 ; Lib_LLEvtCallback + 118
        0x10000cc4:    2801        .(      CMP      r0,#1
        0x10000cc6:    d038        8.      BEQ      0x10000d3a ; Lib_LLEvtCallback + 140
        0x10000cc8:    2802        .(      CMP      r0,#2
        0x10000cca:    d03e        >.      BEQ      0x10000d4a ; Lib_LLEvtCallback + 156
        0x10000ccc:    2804        .(      CMP      r0,#4
        0x10000cce:    d044        D.      BEQ      0x10000d5a ; Lib_LLEvtCallback + 172
        0x10000cd0:    2808        .(      CMP      r0,#8
        0x10000cd2:    d131        1.      BNE      0x10000d38 ; Lib_LLEvtCallback + 138
        0x10000cd4:    f7ffffbd    ....    BL       _BBGetMask ; 0x10000c52
        0x10000cd8:    2800        .(      CMP      r0,#0
        0x10000cda:    d12d        -.      BNE      0x10000d38 ; Lib_LLEvtCallback + 138
        0x10000cdc:    4803        .H      LDR      r0,[pc,#12] ; [0x10000cec] = 0x16cf
        0x10000cde:    3856        V8      SUBS     r0,r0,#0x56
        0x10000ce0:    e029        ).      B        0x10000d36 ; Lib_LLEvtCallback + 136
    $d
        0x10000ce2:    0000        ..      DCW    0
        0x10000ce4:    000065bf    .e..    DCD    26047
        0x10000ce8:    00006a77    wj..    DCD    27255
        0x10000cec:    000016cf    ....    DCD    5839
        0x10000cf0:    20003068    h0.     DCD    536883304
        0x10000cf4:    000003ce    ....    DCD    974
        0x10000cf8:    00001201    ....    DCD    4609
        0x10000cfc:    00000af5    ....    DCD    2805
        0x10000d00:    00005749    IW..    DCD    22345
        0x10000d04:    00001979    y...    DCD    6521
        0x10000d08:    00001e8b    ....    DCD    7819
        0x10000d0c:    0000622b    +b..    DCD    25131
        0x10000d10:    000060bd    .`..    DCD    24765
        0x10000d14:    00004e05    .N..    DCD    19973
        0x10000d18:    00002627    '&..    DCD    9767
        0x10000d1c:    000047df    .G..    DCD    18399
        0x10000d20:    00003ea1    .>..    DCD    16033
    $t
        0x10000d24:    2820         (      CMP      r0,#0x20
        0x10000d26:    d038        8.      BEQ      0x10000d9a ; Lib_LLEvtCallback + 236
        0x10000d28:    2840        @(      CMP      r0,#0x40
        0x10000d2a:    d105        ..      BNE      0x10000d38 ; Lib_LLEvtCallback + 138
        0x10000d2c:    f7ffff91    ....    BL       _BBGetMask ; 0x10000c52
        0x10000d30:    2800        .(      CMP      r0,#0
        0x10000d32:    d101        ..      BNE      0x10000d38 ; Lib_LLEvtCallback + 138
        0x10000d34:    48f8        .H      LDR      r0,[pc,#992] ; [0x10001118] = 0x16cd
        0x10000d36:    4780        .G      BLX      r0
        0x10000d38:    bd10        ..      POP      {r4,pc}
        0x10000d3a:    2001        .       MOVS     r0,#1
        0x10000d3c:    f7ffff89    ....    BL       _BBGetMask ; 0x10000c52
        0x10000d40:    2800        .(      CMP      r0,#0
        0x10000d42:    d1f9        ..      BNE      0x10000d38 ; Lib_LLEvtCallback + 138
        0x10000d44:    f7fffee7    ....    BL       _LCTxPkt_Handler ; 0x10000b16
        0x10000d48:    bd10        ..      POP      {r4,pc}
        0x10000d4a:    2002        .       MOVS     r0,#2
        0x10000d4c:    f7ffff81    ....    BL       _BBGetMask ; 0x10000c52
        0x10000d50:    2800        .(      CMP      r0,#0
        0x10000d52:    d1f9        ..      BNE      0x10000d48 ; Lib_LLEvtCallback + 154
        0x10000d54:    f7fffe65    ..e.    BL       _LCRxPkt_Handler ; 0x10000a22
        0x10000d58:    bd10        ..      POP      {r4,pc}
        0x10000d5a:    2004        .       MOVS     r0,#4
        0x10000d5c:    f7ffff79    ..y.    BL       _BBGetMask ; 0x10000c52
        0x10000d60:    2800        .(      CMP      r0,#0
        0x10000d62:    d1f9        ..      BNE      0x10000d58 ; Lib_LLEvtCallback + 170
        0x10000d64:    68d0        .h      LDR      r0,[r2,#0xc]
        0x10000d66:    7a40        @z      LDRB     r0,[r0,#9]
        0x10000d68:    2801        .(      CMP      r0,#1
        0x10000d6a:    d003        ..      BEQ      0x10000d74 ; Lib_LLEvtCallback + 198
        0x10000d6c:    2802        .(      CMP      r0,#2
        0x10000d6e:    d1f3        ..      BNE      0x10000d58 ; Lib_LLEvtCallback + 170
        0x10000d70:    48ea        .H      LDR      r0,[pc,#936] ; [0x1000111c] = 0x1527
        0x10000d72:    e7e0        ..      B        0x10000d36 ; Lib_LLEvtCallback + 136
        0x10000d74:    48e9        .H      LDR      r0,[pc,#932] ; [0x1000111c] = 0x1527
        0x10000d76:    38ae        .8      SUBS     r0,r0,#0xae
        0x10000d78:    e7dd        ..      B        0x10000d36 ; Lib_LLEvtCallback + 136
        0x10000d7a:    2010        .       MOVS     r0,#0x10
        0x10000d7c:    f7ffff69    ..i.    BL       _BBGetMask ; 0x10000c52
        0x10000d80:    2800        .(      CMP      r0,#0
        0x10000d82:    d1e9        ..      BNE      0x10000d58 ; Lib_LLEvtCallback + 170
        0x10000d84:    6a90        .j      LDR      r0,[r2,#0x28]
        0x10000d86:    3020         0      ADDS     r0,r0,#0x20
        0x10000d88:    7d40        @}      LDRB     r0,[r0,#0x15]
        0x10000d8a:    0740        @.      LSLS     r0,r0,#29
        0x10000d8c:    d501        ..      BPL      0x10000d92 ; Lib_LLEvtCallback + 228
        0x10000d8e:    203e        >       MOVS     r0,#0x3e
        0x10000d90:    e000        ..      B        0x10000d94 ; Lib_LLEvtCallback + 230
        0x10000d92:    2008        .       MOVS     r0,#8
        0x10000d94:    f7fffdb2    ....    BL       _LCDisConnect ; 0x100008fc
        0x10000d98:    bd10        ..      POP      {r4,pc}
        0x10000d9a:    2020                MOVS     r0,#0x20
        0x10000d9c:    f7ffff59    ..Y.    BL       _BBGetMask ; 0x10000c52
        0x10000da0:    2800        .(      CMP      r0,#0
        0x10000da2:    d1f9        ..      BNE      0x10000d98 ; Lib_LLEvtCallback + 234
        0x10000da4:    48dc        .H      LDR      r0,[pc,#880] ; [0x10001118] = 0x16cd
        0x10000da6:    380c        .8      SUBS     r0,r0,#0xc
        0x10000da8:    e7c5        ..      B        0x10000d36 ; Lib_LLEvtCallback + 136
    ConnectionLatencyMode
        0x10000daa:    b570        p.      PUSH     {r4-r6,lr}
        0x10000dac:    2510        .%      MOVS     r5,#0x10
        0x10000dae:    2608        .&      MOVS     r6,#8
        0x10000db0:    4cdb        .L      LDR      r4,[pc,#876] ; [0x10001120] = 0x20003068
        0x10000db2:    2800        .(      CMP      r0,#0
        0x10000db4:    d021        !.      BEQ      0x10000dfa ; ConnectionLatencyMode + 80
        0x10000db6:    6aa0        .j      LDR      r0,[r4,#0x28]
        0x10000db8:    7e81        .~      LDRB     r1,[r0,#0x1a]
        0x10000dba:    4331        1C      ORRS     r1,r1,r6
        0x10000dbc:    7681        .v      STRB     r1,[r0,#0x1a]
        0x10000dbe:    4601        .F      MOV      r1,r0
        0x10000dc0:    3160        `1      ADDS     r1,r1,#0x60
        0x10000dc2:    7e0a        .~      LDRB     r2,[r1,#0x18]
        0x10000dc4:    7863        cx      LDRB     r3,[r4,#1]
        0x10000dc6:    0952        R.      LSRS     r2,r2,#5
        0x10000dc8:    0152        R.      LSLS     r2,r2,#5
        0x10000dca:    06db        ..      LSLS     r3,r3,#27
        0x10000dcc:    0edb        ..      LSRS     r3,r3,#27
        0x10000dce:    431a        .C      ORRS     r2,r2,r3
        0x10000dd0:    760a        .v      STRB     r2,[r1,#0x18]
        0x10000dd2:    3020         0      ADDS     r0,r0,#0x20
        0x10000dd4:    7b42        B{      LDRB     r2,[r0,#0xd]
        0x10000dd6:    7b06        .{      LDRB     r6,[r0,#0xc]
        0x10000dd8:    0213        ..      LSLS     r3,r2,#8
        0x10000dda:    68e2        .h      LDR      r2,[r4,#0xc]
        0x10000ddc:    4333        3C      ORRS     r3,r3,r6
        0x10000dde:    3223        #2      ADDS     r2,r2,#0x23
        0x10000de0:    7c54        T|      LDRB     r4,[r2,#0x11]
        0x10000de2:    7c16        .|      LDRB     r6,[r2,#0x10]
        0x10000de4:    0222        ".      LSLS     r2,r4,#8
        0x10000de6:    4332        2C      ORRS     r2,r2,r6
        0x10000de8:    4293        .B      CMP      r3,r2
        0x10000dea:    d014        ..      BEQ      0x10000e16 ; ConnectionLatencyMode + 108
        0x10000dec:    7302        .s      STRB     r2,[r0,#0xc]
        0x10000dee:    0a12        ..      LSRS     r2,r2,#8
        0x10000df0:    7342        Bs      STRB     r2,[r0,#0xd]
        0x10000df2:    7dc8        .}      LDRB     r0,[r1,#0x17]
        0x10000df4:    4328        (C      ORRS     r0,r0,r5
        0x10000df6:    75c8        .u      STRB     r0,[r1,#0x17]
        0x10000df8:    e00d        ..      B        0x10000e16 ; ConnectionLatencyMode + 108
        0x10000dfa:    f001fea3    ....    BL       WaitLLCOverSlpth ; 0x10002b44
        0x10000dfe:    6aa0        .j      LDR      r0,[r4,#0x28]
        0x10000e00:    2200        ."      MOVS     r2,#0
        0x10000e02:    4601        .F      MOV      r1,r0
        0x10000e04:    3120         1      ADDS     r1,r1,#0x20
        0x10000e06:    730a        .s      STRB     r2,[r1,#0xc]
        0x10000e08:    734a        Js      STRB     r2,[r1,#0xd]
        0x10000e0a:    3060        `0      ADDS     r0,r0,#0x60
        0x10000e0c:    7dc1        .}      LDRB     r1,[r0,#0x17]
        0x10000e0e:    4329        )C      ORRS     r1,r1,r5
        0x10000e10:    75c1        .u      STRB     r1,[r0,#0x17]
        0x10000e12:    48c4        .H      LDR      r0,[pc,#784] ; [0x10001124] = 0x40020020
        0x10000e14:    7706        .w      STRB     r6,[r0,#0x1c]
        0x10000e16:    2001        .       MOVS     r0,#1
        0x10000e18:    bd70        p.      POP      {r4-r6,pc}
    sw_timer_latency_callback
        0x10000e1a:    48c1        .H      LDR      r0,[pc,#772] ; [0x10001120] = 0x20003068
        0x10000e1c:    68c0        .h      LDR      r0,[r0,#0xc]
        0x10000e1e:    3023        #0      ADDS     r0,r0,#0x23
        0x10000e20:    7c41        A|      LDRB     r1,[r0,#0x11]
        0x10000e22:    7c02        .|      LDRB     r2,[r0,#0x10]
        0x10000e24:    0208        ..      LSLS     r0,r1,#8
        0x10000e26:    4310        .C      ORRS     r0,r0,r2
        0x10000e28:    d00b        ..      BEQ      0x10000e42 ; sw_timer_latency_callback + 40
        0x10000e2a:    49bf        .I      LDR      r1,[pc,#764] ; [0x10001128] = 0x20003187
        0x10000e2c:    7848        Hx      LDRB     r0,[r1,#1]
        0x10000e2e:    780a        .x      LDRB     r2,[r1,#0]
        0x10000e30:    0200        ..      LSLS     r0,r0,#8
        0x10000e32:    4310        .C      ORRS     r0,r0,r2
        0x10000e34:    2203        ."      MOVS     r2,#3
        0x10000e36:    4310        .C      ORRS     r0,r0,r2
        0x10000e38:    7008        .p      STRB     r0,[r1,#0]
        0x10000e3a:    0a00        ..      LSRS     r0,r0,#8
        0x10000e3c:    7048        Hp      STRB     r0,[r1,#1]
        0x10000e3e:    2001        .       MOVS     r0,#1
        0x10000e40:    e7b3        ..      B        ConnectionLatencyMode ; 0x10000daa
        0x10000e42:    4770        pG      BX       lr
    TimerStart
        0x10000e44:    b430        0.      PUSH     {r4,r5}
        0x10000e46:    4cb9        .L      LDR      r4,[pc,#740] ; [0x1000112c] = 0x44ab
        0x10000e48:    46a4        .F      MOV      r12,r4
        0x10000e4a:    bc30        0.      POP      {r4,r5}
        0x10000e4c:    4760        `G      BX       r12
    smart_latency_start
        0x10000e4e:    b5f8        ..      PUSH     {r3-r7,lr}
        0x10000e50:    48b5        .H      LDR      r0,[pc,#724] ; [0x10001128] = 0x20003187
        0x10000e52:    7a40        @z      LDRB     r0,[r0,#9]
        0x10000e54:    0600        ..      LSLS     r0,r0,#24
        0x10000e56:    d563        c.      BPL      0x10000f20 ; smart_latency_start + 210
        0x10000e58:    48b1        .H      LDR      r0,[pc,#708] ; [0x10001120] = 0x20003068
        0x10000e5a:    68c6        .h      LDR      r6,[r0,#0xc]
        0x10000e5c:    4630        0F      MOV      r0,r6
        0x10000e5e:    3023        #0      ADDS     r0,r0,#0x23
        0x10000e60:    7c41        A|      LDRB     r1,[r0,#0x11]
        0x10000e62:    7c00        .|      LDRB     r0,[r0,#0x10]
        0x10000e64:    020f        ..      LSLS     r7,r1,#8
        0x10000e66:    49b0        .I      LDR      r1,[pc,#704] ; [0x10001128] = 0x20003187
        0x10000e68:    4307        .C      ORRS     r7,r7,r0
        0x10000e6a:    7848        Hx      LDRB     r0,[r1,#1]
        0x10000e6c:    7809        .x      LDRB     r1,[r1,#0]
        0x10000e6e:    0204        ..      LSLS     r4,r0,#8
        0x10000e70:    430c        .C      ORRS     r4,r4,r1
        0x10000e72:    2f00        ./      CMP      r7,#0
        0x10000e74:    d101        ..      BNE      0x10000e7a ; smart_latency_start + 44
        0x10000e76:    0760        `.      LSLS     r0,r4,#29
        0x10000e78:    d552        R.      BPL      0x10000f20 ; smart_latency_start + 210
        0x10000e7a:    4dab        .M      LDR      r5,[pc,#684] ; [0x10001128] = 0x20003187
        0x10000e7c:    7ba8        .{      LDRB     r0,[r5,#0xe]
        0x10000e7e:    7b69        i{      LDRB     r1,[r5,#0xd]
        0x10000e80:    0200        ..      LSLS     r0,r0,#8
        0x10000e82:    1c6d        m.      ADDS     r5,r5,#1
        0x10000e84:    4308        .C      ORRS     r0,r0,r1
        0x10000e86:    d04b        K.      BEQ      0x10000f20 ; smart_latency_start + 210
        0x10000e88:    2f00        ./      CMP      r7,#0
        0x10000e8a:    d049        I.      BEQ      0x10000f20 ; smart_latency_start + 210
        0x10000e8c:    7968        hy      LDRB     r0,[r5,#5]
        0x10000e8e:    7929        )y      LDRB     r1,[r5,#4]
        0x10000e90:    0200        ..      LSLS     r0,r0,#8
        0x10000e92:    4308        .C      ORRS     r0,r0,r1
        0x10000e94:    d12e        ..      BNE      0x10000ef4 ; smart_latency_start + 166
        0x10000e96:    3621        !6      ADDS     r6,r6,#0x21
        0x10000e98:    7c70        p|      LDRB     r0,[r6,#0x11]
        0x10000e9a:    7c31        1|      LDRB     r1,[r6,#0x10]
        0x10000e9c:    0200        ..      LSLS     r0,r0,#8
        0x10000e9e:    4308        .C      ORRS     r0,r0,r1
        0x10000ea0:    f002f9ce    ....    BL       __aeabi_ui2d ; 0x10003240
        0x10000ea4:    2200        ."      MOVS     r2,#0
        0x10000ea6:    4ba2        .K      LDR      r3,[pc,#648] ; [0x10001130] = 0x3ff40000
        0x10000ea8:    f002f8ce    ....    BL       __aeabi_dmul ; 0x10003048
        0x10000eac:    f002f9d6    ....    BL       __aeabi_d2uiz ; 0x1000325c
        0x10000eb0:    b280        ..      UXTH     r0,r0
        0x10000eb2:    4378        xC      MULS     r0,r7,r0
        0x10000eb4:    2164        d!      MOVS     r1,#0x64
        0x10000eb6:    f001ff63    ..c.    BL       __aeabi_idiv ; 0x10002d80
        0x10000eba:    0440        @.      LSLS     r0,r0,#17
        0x10000ebc:    0c01        ..      LSRS     r1,r0,#16
        0x10000ebe:    7129        )q      STRB     r1,[r5,#4]
        0x10000ec0:    0a08        ..      LSRS     r0,r1,#8
        0x10000ec2:    7168        hq      STRB     r0,[r5,#5]
        0x10000ec4:    200a        .       MOVS     r0,#0xa
        0x10000ec6:    4341        AC      MULS     r1,r0,r1
        0x10000ec8:    7d70        p}      LDRB     r0,[r6,#0x15]
        0x10000eca:    7d32        2}      LDRB     r2,[r6,#0x14]
        0x10000ecc:    0200        ..      LSLS     r0,r0,#8
        0x10000ece:    4310        .C      ORRS     r0,r0,r2
        0x10000ed0:    4281        .B      CMP      r1,r0
        0x10000ed2:    d306        ..      BCC      0x10000ee2 ; smart_latency_start + 148
        0x10000ed4:    210a        .!      MOVS     r1,#0xa
        0x10000ed6:    1e40        @.      SUBS     r0,r0,#1
        0x10000ed8:    f001ff52    ..R.    BL       __aeabi_idiv ; 0x10002d80
        0x10000edc:    7128        (q      STRB     r0,[r5,#4]
        0x10000ede:    0a00        ..      LSRS     r0,r0,#8
        0x10000ee0:    7168        hq      STRB     r0,[r5,#5]
        0x10000ee2:    7968        hy      LDRB     r0,[r5,#5]
        0x10000ee4:    7929        )y      LDRB     r1,[r5,#4]
        0x10000ee6:    0200        ..      LSLS     r0,r0,#8
        0x10000ee8:    4308        .C      ORRS     r0,r0,r1
        0x10000eea:    d103        ..      BNE      0x10000ef4 ; smart_latency_start + 166
        0x10000eec:    2001        .       MOVS     r0,#1
        0x10000eee:    7128        (q      STRB     r0,[r5,#4]
        0x10000ef0:    2000        .       MOVS     r0,#0
        0x10000ef2:    7168        hq      STRB     r0,[r5,#5]
        0x10000ef4:    488c        .H      LDR      r0,[pc,#560] ; [0x10001128] = 0x20003187
        0x10000ef6:    07a1        ..      LSLS     r1,r4,#30
        0x10000ef8:    d509        ..      BPL      0x10000f0e ; smart_latency_start + 192
        0x10000efa:    2102        .!      MOVS     r1,#2
        0x10000efc:    438c        .C      BICS     r4,r4,r1
        0x10000efe:    2101        .!      MOVS     r1,#1
        0x10000f00:    430c        .C      ORRS     r4,r4,r1
        0x10000f02:    7004        .p      STRB     r4,[r0,#0]
        0x10000f04:    0a21        !.      LSRS     r1,r4,#8
        0x10000f06:    7041        Ap      STRB     r1,[r0,#1]
        0x10000f08:    2000        .       MOVS     r0,#0
        0x10000f0a:    f7ffff4e    ..N.    BL       ConnectionLatencyMode ; 0x10000daa
        0x10000f0e:    7968        hy      LDRB     r0,[r5,#5]
        0x10000f10:    792a        *y      LDRB     r2,[r5,#4]
        0x10000f12:    0201        ..      LSLS     r1,r0,#8
        0x10000f14:    4311        .C      ORRS     r1,r1,r2
        0x10000f16:    4b87        .K      LDR      r3,[pc,#540] ; [0x10001134] = 0x10000e1b
        0x10000f18:    2200        ."      MOVS     r2,#0
        0x10000f1a:    2040        @       MOVS     r0,#0x40
        0x10000f1c:    f7ffff92    ....    BL       TimerStart ; 0x10000e44
        0x10000f20:    bdf8        ..      POP      {r3-r7,pc}
    smart_update_latency_updatersp
        0x10000f22:    b51c        ..      PUSH     {r2-r4,lr}
        0x10000f24:    4980        .I      LDR      r1,[pc,#512] ; [0x10001128] = 0x20003187
        0x10000f26:    7a4a        Jz      LDRB     r2,[r1,#9]
        0x10000f28:    2a00        .*      CMP      r2,#0
        0x10000f2a:    d040        @.      BEQ      0x10000fae ; smart_update_latency_updatersp + 140
        0x10000f2c:    784a        Jx      LDRB     r2,[r1,#1]
        0x10000f2e:    780b        .x      LDRB     r3,[r1,#0]
        0x10000f30:    0212        ..      LSLS     r2,r2,#8
        0x10000f32:    431a        .C      ORRS     r2,r2,r3
        0x10000f34:    06d3        ..      LSLS     r3,r2,#27
        0x10000f36:    d43a        :.      BMI      0x10000fae ; smart_update_latency_updatersp + 140
        0x10000f38:    7843        Cx      LDRB     r3,[r0,#1]
        0x10000f3a:    7804        .x      LDRB     r4,[r0,#0]
        0x10000f3c:    0218        ..      LSLS     r0,r3,#8
        0x10000f3e:    4320         C      ORRS     r0,r0,r4
        0x10000f40:    2801        .(      CMP      r0,#1
        0x10000f42:    d134        4.      BNE      0x10000fae ; smart_update_latency_updatersp + 140
        0x10000f44:    78c8        .x      LDRB     r0,[r1,#3]
        0x10000f46:    1e40        @.      SUBS     r0,r0,#1
        0x10000f48:    0600        ..      LSLS     r0,r0,#24
        0x10000f4a:    0e00        ..      LSRS     r0,r0,#24
        0x10000f4c:    70c8        .p      STRB     r0,[r1,#3]
        0x10000f4e:    d02f        /.      BEQ      0x10000fb0 ; smart_update_latency_updatersp + 142
        0x10000f50:    788b        .x      LDRB     r3,[r1,#2]
        0x10000f52:    4608        .F      MOV      r0,r1
        0x10000f54:    7b01        .{      LDRB     r1,[r0,#0xc]
        0x10000f56:    7ac4        .z      LDRB     r4,[r0,#0xb]
        0x10000f58:    020a        ..      LSLS     r2,r1,#8
        0x10000f5a:    4322        "C      ORRS     r2,r2,r4
        0x10000f5c:    7a01        .z      LDRB     r1,[r0,#8]
        0x10000f5e:    79c4        .y      LDRB     r4,[r0,#7]
        0x10000f60:    0209        ..      LSLS     r1,r1,#8
        0x10000f62:    4321        !C      ORRS     r1,r1,r4
        0x10000f64:    1cc0        ..      ADDS     r0,r0,#3
        0x10000f66:    2b01        .+      CMP      r3,#1
        0x10000f68:    d02a        *.      BEQ      0x10000fc0 ; smart_update_latency_updatersp + 158
        0x10000f6a:    1a52        R.      SUBS     r2,r2,r1
        0x10000f6c:    7202        .r      STRB     r2,[r0,#8]
        0x10000f6e:    0a12        ..      LSRS     r2,r2,#8
        0x10000f70:    7242        Br      STRB     r2,[r0,#9]
        0x10000f72:    0612        ..      LSLS     r2,r2,#24
        0x10000f74:    7a03        .z      LDRB     r3,[r0,#8]
        0x10000f76:    0c12        ..      LSRS     r2,r2,#16
        0x10000f78:    431a        .C      ORRS     r2,r2,r3
        0x10000f7a:    1a52        R.      SUBS     r2,r2,r1
        0x10000f7c:    4669        iF      MOV      r1,sp
        0x10000f7e:    800a        ..      STRH     r2,[r1,#0]
        0x10000f80:    7a42        Bz      LDRB     r2,[r0,#9]
        0x10000f82:    7a01        .z      LDRB     r1,[r0,#8]
        0x10000f84:    0612        ..      LSLS     r2,r2,#24
        0x10000f86:    1412        ..      ASRS     r2,r2,#16
        0x10000f88:    430a        .C      ORRS     r2,r2,r1
        0x10000f8a:    4669        iF      MOV      r1,sp
        0x10000f8c:    804a        J.      STRH     r2,[r1,#2]
        0x10000f8e:    4966        fI      LDR      r1,[pc,#408] ; [0x10001128] = 0x20003187
        0x10000f90:    7b8a        .{      LDRB     r2,[r1,#0xe]
        0x10000f92:    7b49        I{      LDRB     r1,[r1,#0xd]
        0x10000f94:    0212        ..      LSLS     r2,r2,#8
        0x10000f96:    430a        .C      ORRS     r2,r2,r1
        0x10000f98:    4669        iF      MOV      r1,sp
        0x10000f9a:    808a        ..      STRH     r2,[r1,#4]
        0x10000f9c:    7b41        A{      LDRB     r1,[r0,#0xd]
        0x10000f9e:    7b02        .{      LDRB     r2,[r0,#0xc]
        0x10000fa0:    0208        ..      LSLS     r0,r1,#8
        0x10000fa2:    4310        .C      ORRS     r0,r0,r2
        0x10000fa4:    4669        iF      MOV      r1,sp
        0x10000fa6:    80c8        ..      STRH     r0,[r1,#6]
        0x10000fa8:    4963        cI      LDR      r1,[pc,#396] ; [0x10001138] = 0x4233
        0x10000faa:    4668        hF      MOV      r0,sp
        0x10000fac:    4788        .G      BLX      r1
        0x10000fae:    bd1c        ..      POP      {r2-r4,pc}
        0x10000fb0:    7a88        .z      LDRB     r0,[r1,#0xa]
        0x10000fb2:    70c8        .p      STRB     r0,[r1,#3]
        0x10000fb4:    2040        @       MOVS     r0,#0x40
        0x10000fb6:    4302        .C      ORRS     r2,r2,r0
        0x10000fb8:    700a        .p      STRB     r2,[r1,#0]
        0x10000fba:    0a10        ..      LSRS     r0,r2,#8
        0x10000fbc:    7048        Hp      STRB     r0,[r1,#1]
        0x10000fbe:    bd1c        ..      POP      {r2-r4,pc}
        0x10000fc0:    1852        R.      ADDS     r2,r2,r1
        0x10000fc2:    e7d3        ..      B        0x10000f6c ; smart_update_latency_updatersp + 74
    BBRFRead
        0x10000fc4:    4a5d        ]J      LDR      r2,[pc,#372] ; [0x1000113c] = 0x61c5
        0x10000fc6:    4710        .G      BX       r2
    BBRFWrite
        0x10000fc8:    4a5c        \J      LDR      r2,[pc,#368] ; [0x1000113c] = 0x61c5
        0x10000fca:    3220         2      ADDS     r2,r2,#0x20
        0x10000fcc:    4710        .G      BX       r2
    RCOSCCalibration
        0x10000fce:    b538        8.      PUSH     {r3-r5,lr}
        0x10000fd0:    2400        .$      MOVS     r4,#0
        0x10000fd2:    4669        iF      MOV      r1,sp
        0x10000fd4:    700c        .p      STRB     r4,[r1,#0]
        0x10000fd6:    4621        !F      MOV      r1,r4
        0x10000fd8:    207f        .       MOVS     r0,#0x7f
        0x10000fda:    f7fffff5    ....    BL       BBRFWrite ; 0x10000fc8
        0x10000fde:    2100        .!      MOVS     r1,#0
        0x10000fe0:    203b        ;       MOVS     r0,#0x3b
        0x10000fe2:    f7fffff1    ....    BL       BBRFWrite ; 0x10000fc8
        0x10000fe6:    2129        )!      MOVS     r1,#0x29
        0x10000fe8:    203b        ;       MOVS     r0,#0x3b
        0x10000fea:    f7ffffed    ....    BL       BBRFWrite ; 0x10000fc8
        0x10000fee:    4669        iF      MOV      r1,sp
        0x10000ff0:    203b        ;       MOVS     r0,#0x3b
        0x10000ff2:    f7ffffe7    ....    BL       BBRFRead ; 0x10000fc4
        0x10000ff6:    4668        hF      MOV      r0,sp
        0x10000ff8:    7800        .x      LDRB     r0,[r0,#0]
        0x10000ffa:    0780        ..      LSLS     r0,r0,#30
        0x10000ffc:    d501        ..      BPL      0x10001002 ; RCOSCCalibration + 52
        0x10000ffe:    2001        .       MOVS     r0,#1
        0x10001000:    bd38        8.      POP      {r3-r5,pc}
        0x10001002:    1c64        d.      ADDS     r4,r4,#1
        0x10001004:    b2a4        ..      UXTH     r4,r4
        0x10001006:    2cff        .,      CMP      r4,#0xff
        0x10001008:    d9f1        ..      BLS      0x10000fee ; RCOSCCalibration + 32
        0x1000100a:    2000        .       MOVS     r0,#0
        0x1000100c:    bd38        8.      POP      {r3-r5,pc}
    RFSleep
        0x1000100e:    b510        ..      PUSH     {r4,lr}
        0x10001010:    484b        KH      LDR      r0,[pc,#300] ; [0x10001140] = 0x4707
        0x10001012:    4780        .G      BLX      r0
        0x10001014:    2001        .       MOVS     r0,#1
        0x10001016:    bd10        ..      POP      {r4,pc}
    UartEn
        0x10001018:    b510        ..      PUSH     {r4,lr}
        0x1000101a:    4941        AI      LDR      r1,[pc,#260] ; [0x10001120] = 0x20003068
        0x1000101c:    4a49        IJ      LDR      r2,[pc,#292] ; [0x10001144] = 0x65a7
        0x1000101e:    7088        .p      STRB     r0,[r1,#2]
        0x10001020:    2800        .(      CMP      r0,#0
        0x10001022:    d107        ..      BNE      0x10001034 ; UartEn + 28
        0x10001024:    68c8        .h      LDR      r0,[r1,#0xc]
        0x10001026:    7880        .x      LDRB     r0,[r0,#2]
        0x10001028:    2802        .(      CMP      r0,#2
        0x1000102a:    d003        ..      BEQ      0x10001034 ; UartEn + 28
        0x1000102c:    2000        .       MOVS     r0,#0
        0x1000102e:    4790        .G      BLX      r2
        0x10001030:    2001        .       MOVS     r0,#1
        0x10001032:    bd10        ..      POP      {r4,pc}
        0x10001034:    2001        .       MOVS     r0,#1
        0x10001036:    e7fa        ..      B        0x1000102e ; UartEn + 22
    _SYS32kClockSwitch
        0x10001038:    b510        ..      PUSH     {r4,lr}
        0x1000103a:    4c39        9L      LDR      r4,[pc,#228] ; [0x10001120] = 0x20003068
        0x1000103c:    2801        .(      CMP      r0,#1
        0x1000103e:    68e1        .h      LDR      r1,[r4,#0xc]
        0x10001040:    7088        .p      STRB     r0,[r1,#2]
        0x10001042:    d004        ..      BEQ      0x1000104e ; _SYS32kClockSwitch + 22
        0x10001044:    2800        .(      CMP      r0,#0
        0x10001046:    d031        1.      BEQ      0x100010ac ; _SYS32kClockSwitch + 116
        0x10001048:    2802        .(      CMP      r0,#2
        0x1000104a:    d046        F.      BEQ      0x100010da ; _SYS32kClockSwitch + 162
        0x1000104c:    e059        Y.      B        0x10001102 ; _SYS32kClockSwitch + 202
        0x1000104e:    6b20         k      LDR      r0,[r4,#0x30]
        0x10001050:    4601        .F      MOV      r1,r0
        0x10001052:    3020         0      ADDS     r0,r0,#0x20
        0x10001054:    7802        .x      LDRB     r2,[r0,#0]
        0x10001056:    0852        R.      LSRS     r2,r2,#1
        0x10001058:    0052        R.      LSLS     r2,r2,#1
        0x1000105a:    7002        .p      STRB     r2,[r0,#0]
        0x1000105c:    7802        .x      LDRB     r2,[r0,#0]
        0x1000105e:    23fd        .#      MOVS     r3,#0xfd
        0x10001060:    401a        .@      ANDS     r2,r2,r3
        0x10001062:    7002        .p      STRB     r2,[r0,#0]
        0x10001064:    7808        .x      LDRB     r0,[r1,#0]
        0x10001066:    0980        ..      LSRS     r0,r0,#6
        0x10001068:    0180        ..      LSLS     r0,r0,#6
        0x1000106a:    301c        .0      ADDS     r0,r0,#0x1c
        0x1000106c:    7008        .p      STRB     r0,[r1,#0]
        0x1000106e:    7848        Hx      LDRB     r0,[r1,#1]
        0x10001070:    0980        ..      LSRS     r0,r0,#6
        0x10001072:    0180        ..      LSLS     r0,r0,#6
        0x10001074:    301c        .0      ADDS     r0,r0,#0x1c
        0x10001076:    7048        Hp      STRB     r0,[r1,#1]
        0x10001078:    2100        .!      MOVS     r1,#0
        0x1000107a:    207f        .       MOVS     r0,#0x7f
        0x1000107c:    f7ffffa4    ....    BL       BBRFWrite ; 0x10000fc8
        0x10001080:    2103        .!      MOVS     r1,#3
        0x10001082:    2021        !       MOVS     r0,#0x21
        0x10001084:    f7ffffa0    ....    BL       BBRFWrite ; 0x10000fc8
        0x10001088:    211f        .!      MOVS     r1,#0x1f
        0x1000108a:    2003        .       MOVS     r0,#3
        0x1000108c:    f7ffff9c    ....    BL       BBRFWrite ; 0x10000fc8
        0x10001090:    2102        .!      MOVS     r1,#2
        0x10001092:    207f        .       MOVS     r0,#0x7f
        0x10001094:    f7ffff98    ....    BL       BBRFWrite ; 0x10000fc8
        0x10001098:    2101        .!      MOVS     r1,#1
        0x1000109a:    2000        .       MOVS     r0,#0
        0x1000109c:    f7ffff94    ....    BL       BBRFWrite ; 0x10000fc8
        0x100010a0:    2100        .!      MOVS     r1,#0
        0x100010a2:    207f        .       MOVS     r0,#0x7f
        0x100010a4:    f7ffff90    ....    BL       BBRFWrite ; 0x10000fc8
        0x100010a8:    210f        .!      MOVS     r1,#0xf
        0x100010aa:    e027        '.      B        0x100010fc ; _SYS32kClockSwitch + 196
        0x100010ac:    2100        .!      MOVS     r1,#0
        0x100010ae:    207f        .       MOVS     r0,#0x7f
        0x100010b0:    f7ffff8a    ....    BL       BBRFWrite ; 0x10000fc8
        0x100010b4:    2100        .!      MOVS     r1,#0
        0x100010b6:    2004        .       MOVS     r0,#4
        0x100010b8:    f7ffff86    ....    BL       BBRFWrite ; 0x10000fc8
        0x100010bc:    2102        .!      MOVS     r1,#2
        0x100010be:    207f        .       MOVS     r0,#0x7f
        0x100010c0:    f7ffff82    ....    BL       BBRFWrite ; 0x10000fc8
        0x100010c4:    2100        .!      MOVS     r1,#0
        0x100010c6:    4608        .F      MOV      r0,r1
        0x100010c8:    f7ffff7e    ..~.    BL       BBRFWrite ; 0x10000fc8
        0x100010cc:    2100        .!      MOVS     r1,#0
        0x100010ce:    207f        .       MOVS     r0,#0x7f
        0x100010d0:    f7ffff7a    ..z.    BL       BBRFWrite ; 0x10000fc8
        0x100010d4:    2100        .!      MOVS     r1,#0
        0x100010d6:    2003        .       MOVS     r0,#3
        0x100010d8:    e011        ..      B        0x100010fe ; _SYS32kClockSwitch + 198
        0x100010da:    2102        .!      MOVS     r1,#2
        0x100010dc:    207f        .       MOVS     r0,#0x7f
        0x100010de:    f7ffff73    ..s.    BL       BBRFWrite ; 0x10000fc8
        0x100010e2:    2103        .!      MOVS     r1,#3
        0x100010e4:    2000        .       MOVS     r0,#0
        0x100010e6:    f7ffff6f    ..o.    BL       BBRFWrite ; 0x10000fc8
        0x100010ea:    2100        .!      MOVS     r1,#0
        0x100010ec:    207f        .       MOVS     r0,#0x7f
        0x100010ee:    f7ffff6b    ..k.    BL       BBRFWrite ; 0x10000fc8
        0x100010f2:    2100        .!      MOVS     r1,#0
        0x100010f4:    2003        .       MOVS     r0,#3
        0x100010f6:    f7ffff67    ..g.    BL       BBRFWrite ; 0x10000fc8
        0x100010fa:    2100        .!      MOVS     r1,#0
        0x100010fc:    2004        .       MOVS     r0,#4
        0x100010fe:    f7ffff63    ..c.    BL       BBRFWrite ; 0x10000fc8
        0x10001102:    78a0        .x      LDRB     r0,[r4,#2]
        0x10001104:    f7ffff88    ....    BL       UartEn ; 0x10001018
        0x10001108:    2001        .       MOVS     r0,#1
        0x1000110a:    bd10        ..      POP      {r4,pc}
    ClockSwitch
        0x1000110c:    b510        ..      PUSH     {r4,lr}
        0x1000110e:    f7ffff93    ....    BL       _SYS32kClockSwitch ; 0x10001038
        0x10001112:    2001        .       MOVS     r0,#1
        0x10001114:    bd10        ..      POP      {r4,pc}
    $d
        0x10001116:    0000        ..      DCW    0
        0x10001118:    000016cd    ....    DCD    5837
        0x1000111c:    00001527    '...    DCD    5415
        0x10001120:    20003068    h0.     DCD    536883304
        0x10001124:    40020020     ..@    DCD    1073872928
        0x10001128:    20003187    .1.     DCD    536883591
        0x1000112c:    000044ab    .D..    DCD    17579
        0x10001130:    3ff40000    ...?    DCD    1072955392
        0x10001134:    10000e1b    ....    DCD    268439067
        0x10001138:    00004233    3B..    DCD    16947
        0x1000113c:    000061c5    .a..    DCD    25029
        0x10001140:    00004707    .G..    DCD    18183
        0x10001144:    000065a7    .e..    DCD    26023
    $t
    RFWakeup
        0x10001148:    b510        ..      PUSH     {r4,lr}
        0x1000114a:    48fe        .H      LDR      r0,[pc,#1016] ; [0x10001544] = 0x4713
        0x1000114c:    4780        .G      BLX      r0
        0x1000114e:    48fe        .H      LDR      r0,[pc,#1016] ; [0x10001548] = 0x20003068
        0x10001150:    6ac0        .j      LDR      r0,[r0,#0x2c]
        0x10001152:    7a01        .z      LDRB     r1,[r0,#8]
        0x10001154:    22df        ."      MOVS     r2,#0xdf
        0x10001156:    4011        .@      ANDS     r1,r1,r2
        0x10001158:    7201        .r      STRB     r1,[r0,#8]
        0x1000115a:    2001        .       MOVS     r0,#1
        0x1000115c:    e7da        ..      B        0x10001114 ; ClockSwitch + 8
    LPOCalibration
        0x1000115e:    b5fe        ..      PUSH     {r1-r7,lr}
        0x10001160:    48fa        .H      LDR      r0,[pc,#1000] ; [0x1000154c] = 0x65bf
        0x10001162:    4780        .G      BLX      r0
        0x10001164:    4cf8        .L      LDR      r4,[pc,#992] ; [0x10001548] = 0x20003068
        0x10001166:    9001        ..      STR      r0,[sp,#4]
        0x10001168:    6ae0        .j      LDR      r0,[r4,#0x2c]
        0x1000116a:    7a81        .z      LDRB     r1,[r0,#0xa]
        0x1000116c:    7a00        .z      LDRB     r0,[r0,#8]
        0x1000116e:    07cf        ..      LSLS     r7,r1,#31
        0x10001170:    0fff        ..      LSRS     r7,r7,#31
        0x10001172:    2600        .&      MOVS     r6,#0
        0x10001174:    0780        ..      LSLS     r0,r0,#30
        0x10001176:    d002        ..      BEQ      0x1000117e ; LPOCalibration + 32
        0x10001178:    2601        .&      MOVS     r6,#1
        0x1000117a:    f7ffffe5    ....    BL       RFWakeup ; 0x10001148
        0x1000117e:    48f2        .H      LDR      r0,[pc,#968] ; [0x10001548] = 0x20003068
        0x10001180:    6ac0        .j      LDR      r0,[r0,#0x2c]
        0x10001182:    7a81        .z      LDRB     r1,[r0,#0xa]
        0x10001184:    0849        I.      LSRS     r1,r1,#1
        0x10001186:    0049        I.      LSLS     r1,r1,#1
        0x10001188:    7281        .r      STRB     r1,[r0,#0xa]
        0x1000118a:    49f0        .I      LDR      r1,[pc,#960] ; [0x1000154c] = 0x65bf
        0x1000118c:    2001        .       MOVS     r0,#1
        0x1000118e:    3918        .9      SUBS     r1,r1,#0x18
        0x10001190:    4788        .G      BLX      r1
        0x10001192:    2002        .       MOVS     r0,#2
        0x10001194:    f7ffff50    ..P.    BL       _SYS32kClockSwitch ; 0x10001038
        0x10001198:    49ed        .I      LDR      r1,[pc,#948] ; [0x10001550] = 0x622b
        0x1000119a:    2064        d       MOVS     r0,#0x64
        0x1000119c:    4788        .G      BLX      r1
        0x1000119e:    2400        .$      MOVS     r4,#0
        0x100011a0:    4669        iF      MOV      r1,sp
        0x100011a2:    700c        .p      STRB     r4,[r1,#0]
        0x100011a4:    4625        %F      MOV      r5,r4
        0x100011a6:    2101        .!      MOVS     r1,#1
        0x100011a8:    207f        .       MOVS     r0,#0x7f
        0x100011aa:    f7ffff0d    ....    BL       BBRFWrite ; 0x10000fc8
        0x100011ae:    2100        .!      MOVS     r1,#0
        0x100011b0:    200a        .       MOVS     r0,#0xa
        0x100011b2:    f7ffff09    ....    BL       BBRFWrite ; 0x10000fc8
        0x100011b6:    2122        "!      MOVS     r1,#0x22
        0x100011b8:    200a        .       MOVS     r0,#0xa
        0x100011ba:    f7ffff05    ....    BL       BBRFWrite ; 0x10000fc8
        0x100011be:    4669        iF      MOV      r1,sp
        0x100011c0:    200a        .       MOVS     r0,#0xa
        0x100011c2:    f7fffeff    ....    BL       BBRFRead ; 0x10000fc4
        0x100011c6:    4668        hF      MOV      r0,sp
        0x100011c8:    7800        .x      LDRB     r0,[r0,#0]
        0x100011ca:    0740        @.      LSLS     r0,r0,#29
        0x100011cc:    d4ef        ..      BMI      0x100011ae ; LPOCalibration + 80
        0x100011ce:    4669        iF      MOV      r1,sp
        0x100011d0:    200a        .       MOVS     r0,#0xa
        0x100011d2:    f7fffef7    ....    BL       BBRFRead ; 0x10000fc4
        0x100011d6:    4668        hF      MOV      r0,sp
        0x100011d8:    7800        .x      LDRB     r0,[r0,#0]
        0x100011da:    0740        @.      LSLS     r0,r0,#29
        0x100011dc:    d505        ..      BPL      0x100011ea ; LPOCalibration + 140
        0x100011de:    4668        hF      MOV      r0,sp
        0x100011e0:    7800        .x      LDRB     r0,[r0,#0]
        0x100011e2:    0700        ..      LSLS     r0,r0,#28
        0x100011e4:    d406        ..      BMI      0x100011f4 ; LPOCalibration + 150
        0x100011e6:    2501        .%      MOVS     r5,#1
        0x100011e8:    e004        ..      B        0x100011f4 ; LPOCalibration + 150
        0x100011ea:    1c64        d.      ADDS     r4,r4,#1
        0x100011ec:    48d9        .H      LDR      r0,[pc,#868] ; [0x10001554] = 0xffff
        0x100011ee:    b2a4        ..      UXTH     r4,r4
        0x100011f0:    4284        .B      CMP      r4,r0
        0x100011f2:    d3ec        ..      BCC      0x100011ce ; LPOCalibration + 112
        0x100011f4:    49d6        .I      LDR      r1,[pc,#856] ; [0x10001550] = 0x622b
        0x100011f6:    2064        d       MOVS     r0,#0x64
        0x100011f8:    4788        .G      BLX      r1
        0x100011fa:    2000        .       MOVS     r0,#0
        0x100011fc:    f7ffff1c    ....    BL       _SYS32kClockSwitch ; 0x10001038
        0x10001200:    49d2        .I      LDR      r1,[pc,#840] ; [0x1000154c] = 0x65bf
        0x10001202:    9801        ..      LDR      r0,[sp,#4]
        0x10001204:    3918        .9      SUBS     r1,r1,#0x18
        0x10001206:    4788        .G      BLX      r1
        0x10001208:    48cf        .H      LDR      r0,[pc,#828] ; [0x10001548] = 0x20003068
        0x1000120a:    6ac0        .j      LDR      r0,[r0,#0x2c]
        0x1000120c:    7a81        .z      LDRB     r1,[r0,#0xa]
        0x1000120e:    0849        I.      LSRS     r1,r1,#1
        0x10001210:    0049        I.      LSLS     r1,r1,#1
        0x10001212:    4339        9C      ORRS     r1,r1,r7
        0x10001214:    7281        .r      STRB     r1,[r0,#0xa]
        0x10001216:    2e00        ..      CMP      r6,#0
        0x10001218:    d002        ..      BEQ      0x10001220 ; LPOCalibration + 194
        0x1000121a:    48ca        .H      LDR      r0,[pc,#808] ; [0x10001544] = 0x4713
        0x1000121c:    380c        .8      SUBS     r0,r0,#0xc
        0x1000121e:    4780        .G      BLX      r0
        0x10001220:    2d00        .-      CMP      r5,#0
        0x10001222:    d001        ..      BEQ      0x10001228 ; LPOCalibration + 202
        0x10001224:    2001        .       MOVS     r0,#1
        0x10001226:    bdfe        ..      POP      {r1-r7,pc}
        0x10001228:    2000        .       MOVS     r0,#0
        0x1000122a:    bdfe        ..      POP      {r1-r7,pc}
    smart_latency_clear
        0x1000122c:    b510        ..      PUSH     {r4,lr}
        0x1000122e:    2111        .!      MOVS     r1,#0x11
        0x10001230:    48c9        .H      LDR      r0,[pc,#804] ; [0x10001558] = 0x20003187
        0x10001232:    f001fdd2    ....    BL       __aeabi_memclr ; 0x10002dda
        0x10001236:    e76d        m.      B        0x10001114 ; ClockSwitch + 8
    Lib_EvtCallback
        0x10001238:    b570        p.      PUSH     {r4-r6,lr}
        0x1000123a:    4604        .F      MOV      r4,r0
        0x1000123c:    1c40        @.      ADDS     r0,r0,#1
        0x1000123e:    f001fde4    ....    BL       __aeabi_uread4 ; 0x10002e0a
        0x10001242:    2802        .(      CMP      r0,#2
        0x10001244:    d018        ..      BEQ      0x10001278 ; Lib_EvtCallback + 64
        0x10001246:    2804        .(      CMP      r0,#4
        0x10001248:    d019        ..      BEQ      0x1000127e ; Lib_EvtCallback + 70
        0x1000124a:    2101        .!      MOVS     r1,#1
        0x1000124c:    0449        I.      LSLS     r1,r1,#17
        0x1000124e:    4288        .B      CMP      r0,r1
        0x10001250:    d147        G.      BNE      0x100012e2 ; Lib_EvtCallback + 170
        0x10001252:    4625        %F      MOV      r5,r4
        0x10001254:    3520         5      ADDS     r5,r5,#0x20
        0x10001256:    7b68        h{      LDRB     r0,[r5,#0xd]
        0x10001258:    2309        .#      MOVS     r3,#9
        0x1000125a:    0701        ..      LSLS     r1,r0,#28
        0x1000125c:    0902        ..      LSRS     r2,r0,#4
        0x1000125e:    0f09        ..      LSRS     r1,r1,#28
        0x10001260:    2000        .       MOVS     r0,#0
        0x10001262:    2a07        .*      CMP      r2,#7
        0x10001264:    d01c        ..      BEQ      0x100012a0 ; Lib_EvtCallback + 104
        0x10001266:    2a03        .*      CMP      r2,#3
        0x10001268:    d020         .      BEQ      0x100012ac ; Lib_EvtCallback + 116
        0x1000126a:    2a02        .*      CMP      r2,#2
        0x1000126c:    d025        %.      BEQ      0x100012ba ; Lib_EvtCallback + 130
        0x1000126e:    2a01        .*      CMP      r2,#1
        0x10001270:    d029        ).      BEQ      0x100012c6 ; Lib_EvtCallback + 142
        0x10001272:    2a00        .*      CMP      r2,#0
        0x10001274:    d02d        -.      BEQ      0x100012d2 ; Lib_EvtCallback + 154
        0x10001276:    e032        2.      B        0x100012de ; Lib_EvtCallback + 166
        0x10001278:    f7ffffd8    ....    BL       smart_latency_clear ; 0x1000122c
        0x1000127c:    e03a        :.      B        0x100012f4 ; Lib_EvtCallback + 188
        0x1000127e:    4db2        .M      LDR      r5,[pc,#712] ; [0x10001548] = 0x20003068
        0x10001280:    2101        .!      MOVS     r1,#1
        0x10001282:    68e8        .h      LDR      r0,[r5,#0xc]
        0x10001284:    30ff        .0      ADDS     r0,r0,#0xff
        0x10001286:    3021        !0      ADDS     r0,r0,#0x21
        0x10001288:    7501        .u      STRB     r1,[r0,#0x14]
        0x1000128a:    f001fcfe    ....    BL       STKSetRand ; 0x10002c8a
        0x1000128e:    68e8        .h      LDR      r0,[r5,#0xc]
        0x10001290:    7880        .x      LDRB     r0,[r0,#2]
        0x10001292:    2800        .(      CMP      r0,#0
        0x10001294:    d101        ..      BNE      0x1000129a ; Lib_EvtCallback + 98
        0x10001296:    f7ffff62    ..b.    BL       LPOCalibration ; 0x1000115e
        0x1000129a:    f7fffe98    ....    BL       RCOSCCalibration ; 0x10000fce
        0x1000129e:    e029        ).      B        0x100012f4 ; Lib_EvtCallback + 188
        0x100012a0:    1a58        X.      SUBS     r0,r3,r1
        0x100012a2:    2106        .!      MOVS     r1,#6
        0x100012a4:    4348        HC      MULS     r0,r1,r0
        0x100012a6:    2141        A!      MOVS     r1,#0x41
        0x100012a8:    43c9        .C      MVNS     r1,r1
        0x100012aa:    e004        ..      B        0x100012b6 ; Lib_EvtCallback + 126
        0x100012ac:    1a58        X.      SUBS     r0,r3,r1
        0x100012ae:    2106        .!      MOVS     r1,#6
        0x100012b0:    4348        HC      MULS     r0,r1,r0
        0x100012b2:    2135        5!      MOVS     r1,#0x35
        0x100012b4:    43c9        .C      MVNS     r1,r1
        0x100012b6:    1a08        ..      SUBS     r0,r1,r0
        0x100012b8:    e010        ..      B        0x100012dc ; Lib_EvtCallback + 164
        0x100012ba:    1a58        X.      SUBS     r0,r3,r1
        0x100012bc:    2106        .!      MOVS     r1,#6
        0x100012be:    4348        HC      MULS     r0,r1,r0
        0x100012c0:    2123        #!      MOVS     r1,#0x23
        0x100012c2:    43c9        .C      MVNS     r1,r1
        0x100012c4:    e7f7        ..      B        0x100012b6 ; Lib_EvtCallback + 126
        0x100012c6:    1a58        X.      SUBS     r0,r3,r1
        0x100012c8:    2106        .!      MOVS     r1,#6
        0x100012ca:    4348        HC      MULS     r0,r1,r0
        0x100012cc:    2117        .!      MOVS     r1,#0x17
        0x100012ce:    43c9        .C      MVNS     r1,r1
        0x100012d0:    e7f1        ..      B        0x100012b6 ; Lib_EvtCallback + 126
        0x100012d2:    1a58        X.      SUBS     r0,r3,r1
        0x100012d4:    2106        .!      MOVS     r1,#6
        0x100012d6:    4348        HC      MULS     r0,r1,r0
        0x100012d8:    1d80        ..      ADDS     r0,r0,#6
        0x100012da:    4240        @B      RSBS     r0,r0,#0
        0x100012dc:    b240        @.      SXTB     r0,r0
        0x100012de:    7368        hs      STRB     r0,[r5,#0xd]
        0x100012e0:    e008        ..      B        0x100012f4 ; Lib_EvtCallback + 188
        0x100012e2:    2840        @(      CMP      r0,#0x40
        0x100012e4:    d01d        ..      BEQ      0x10001322 ; Lib_EvtCallback + 234
        0x100012e6:    2101        .!      MOVS     r1,#1
        0x100012e8:    03c9        ..      LSLS     r1,r1,#15
        0x100012ea:    4288        .B      CMP      r0,r1
        0x100012ec:    d102        ..      BNE      0x100012f4 ; Lib_EvtCallback + 188
        0x100012ee:    1d60        `.      ADDS     r0,r4,#5
        0x100012f0:    f7fffe17    ....    BL       smart_update_latency_updatersp ; 0x10000f22
        0x100012f4:    4998        .I      LDR      r1,[pc,#608] ; [0x10001558] = 0x20003187
        0x100012f6:    7848        Hx      LDRB     r0,[r1,#1]
        0x100012f8:    7809        .x      LDRB     r1,[r1,#0]
        0x100012fa:    0200        ..      LSLS     r0,r0,#8
        0x100012fc:    4308        .C      ORRS     r0,r0,r1
        0x100012fe:    0680        ..      LSLS     r0,r0,#26
        0x10001300:    d507        ..      BPL      0x10001312 ; Lib_EvtCallback + 218
        0x10001302:    1c60        `.      ADDS     r0,r4,#1
        0x10001304:    f001fd81    ....    BL       __aeabi_uread4 ; 0x10002e0a
        0x10001308:    0500        ..      LSLS     r0,r0,#20
        0x1000130a:    0f00        ..      LSRS     r0,r0,#28
        0x1000130c:    d001        ..      BEQ      0x10001312 ; Lib_EvtCallback + 218
        0x1000130e:    f7fffd9e    ....    BL       smart_latency_start ; 0x10000e4e
        0x10001312:    488d        .H      LDR      r0,[pc,#564] ; [0x10001548] = 0x20003068
        0x10001314:    3038        80      ADDS     r0,r0,#0x38
        0x10001316:    f001fd78    ..x.    BL       __aeabi_uread4 ; 0x10002e0a
        0x1000131a:    4601        .F      MOV      r1,r0
        0x1000131c:    4620         F      MOV      r0,r4
        0x1000131e:    4788        .G      BLX      r1
        0x10001320:    bd70        p.      POP      {r4-r6,pc}
        0x10001322:    4889        .H      LDR      r0,[pc,#548] ; [0x10001548] = 0x20003068
        0x10001324:    3034        40      ADDS     r0,r0,#0x34
        0x10001326:    f001fd70    ..p.    BL       __aeabi_uread4 ; 0x10002e0a
        0x1000132a:    0640        @.      LSLS     r0,r0,#25
        0x1000132c:    d5e2        ..      BPL      0x100012f4 ; Lib_EvtCallback + 188
        0x1000132e:    bd70        p.      POP      {r4-r6,pc}
    _BMGetNextBondDevice
        0x10001330:    b5f0        ..      PUSH     {r4-r7,lr}
        0x10001332:    4c85        .L      LDR      r4,[pc,#532] ; [0x10001548] = 0x20003068
        0x10001334:    4606        .F      MOV      r6,r0
        0x10001336:    68e0        .h      LDR      r0,[r4,#0xc]
        0x10001338:    b08d        ..      SUB      sp,sp,#0x34
        0x1000133a:    30ff        .0      ADDS     r0,r0,#0xff
        0x1000133c:    3021        !0      ADDS     r0,r0,#0x21
        0x1000133e:    7c40        @|      LDRB     r0,[r0,#0x11]
        0x10001340:    460d        .F      MOV      r5,r1
        0x10001342:    2800        .(      CMP      r0,#0
        0x10001344:    d029        ).      BEQ      0x1000139a ; _BMGetNextBondDevice + 106
        0x10001346:    2d00        .-      CMP      r5,#0
        0x10001348:    d026        &.      BEQ      0x10001398 ; _BMGetNextBondDevice + 104
        0x1000134a:    b672        r.      CPSID    i
        0x1000134c:    68a0        .h      LDR      r0,[r4,#8]
        0x1000134e:    3018        .0      ADDS     r0,r0,#0x18
        0x10001350:    f001fd5b    ..[.    BL       __aeabi_uread4 ; 0x10002e0a
        0x10001354:    68e1        .h      LDR      r1,[r4,#0xc]
        0x10001356:    2232        2"      MOVS     r2,#0x32
        0x10001358:    31ff        .1      ADDS     r1,r1,#0xff
        0x1000135a:    3121        !1      ADDS     r1,r1,#0x21
        0x1000135c:    7c89        .|      LDRB     r1,[r1,#0x12]
        0x1000135e:    4b7f        .K      LDR      r3,[pc,#508] ; [0x1000155c] = 0x5359
        0x10001360:    4351        QC      MULS     r1,r2,r1
        0x10001362:    1840        @.      ADDS     r0,r0,r1
        0x10001364:    466a        jF      MOV      r2,sp
        0x10001366:    2132        2!      MOVS     r1,#0x32
        0x10001368:    4798        .G      BLX      r3
        0x1000136a:    b662        b.      CPSIE    i
        0x1000136c:    2e00        ..      CMP      r6,#0
        0x1000136e:    d004        ..      BEQ      0x1000137a ; _BMGetNextBondDevice + 74
        0x10001370:    68e0        .h      LDR      r0,[r4,#0xc]
        0x10001372:    30ff        .0      ADDS     r0,r0,#0xff
        0x10001374:    3021        !0      ADDS     r0,r0,#0x21
        0x10001376:    7c80        .|      LDRB     r0,[r0,#0x12]
        0x10001378:    7030        0p      STRB     r0,[r6,#0]
        0x1000137a:    68e7        .h      LDR      r7,[r4,#0xc]
        0x1000137c:    210a        .!      MOVS     r1,#0xa
        0x1000137e:    37ff        .7      ADDS     r7,r7,#0xff
        0x10001380:    3721        !7      ADDS     r7,r7,#0x21
        0x10001382:    7cb8        .|      LDRB     r0,[r7,#0x12]
        0x10001384:    1c40        @.      ADDS     r0,r0,#1
        0x10001386:    f001fce5    ....    BL       __aeabi_uidiv ; 0x10002d54
        0x1000138a:    74b9        .t      STRB     r1,[r7,#0x12]
        0x1000138c:    78e0        .x      LDRB     r0,[r4,#3]
        0x1000138e:    1c40        @.      ADDS     r0,r0,#1
        0x10001390:    b2c0        ..      UXTB     r0,r0
        0x10001392:    70e0        .p      STRB     r0,[r4,#3]
        0x10001394:    280a        .(      CMP      r0,#0xa
        0x10001396:    d902        ..      BLS      0x1000139e ; _BMGetNextBondDevice + 110
        0x10001398:    2000        .       MOVS     r0,#0
        0x1000139a:    b00d        ..      ADD      sp,sp,#0x34
        0x1000139c:    bdf0        ..      POP      {r4-r7,pc}
        0x1000139e:    4668        hF      MOV      r0,sp
        0x100013a0:    7800        .x      LDRB     r0,[r0,#0]
        0x100013a2:    2801        .(      CMP      r0,#1
        0x100013a4:    d1d1        ..      BNE      0x1000134a ; _BMGetNextBondDevice + 26
        0x100013a6:    a900        ..      ADD      r1,sp,#0
        0x100013a8:    2207        ."      MOVS     r2,#7
        0x100013aa:    4628        (F      MOV      r0,r5
        0x100013ac:    3101        .1      ADDS     r1,#1
        0x100013ae:    f001fcfb    ....    BL       __aeabi_memcpy ; 0x10002da8
        0x100013b2:    222a        *"      MOVS     r2,#0x2a
        0x100013b4:    1de8        ..      ADDS     r0,r5,#7
        0x100013b6:    a902        ..      ADD      r1,sp,#8
        0x100013b8:    f001fcf6    ....    BL       __aeabi_memcpy ; 0x10002da8
        0x100013bc:    2001        .       MOVS     r0,#1
        0x100013be:    e7ec        ..      B        0x1000139a ; _BMGetNextBondDevice + 106
    _LLENCReq
        0x100013c0:    b5f0        ..      PUSH     {r4-r7,lr}
        0x100013c2:    4605        .F      MOV      r5,r0
        0x100013c4:    4966        fI      LDR      r1,[pc,#408] ; [0x10001560] = 0xb05
        0x100013c6:    b08d        ..      SUB      sp,sp,#0x34
        0x100013c8:    2020                MOVS     r0,#0x20
        0x100013ca:    4788        .G      BLX      r1
        0x100013cc:    4c5e        ^L      LDR      r4,[pc,#376] ; [0x10001548] = 0x20003068
        0x100013ce:    2604        .&      MOVS     r6,#4
        0x100013d0:    68e1        .h      LDR      r1,[r4,#0xc]
        0x100013d2:    6920         i      LDR      r0,[r4,#0x10]
        0x100013d4:    460f        .F      MOV      r7,r1
        0x100013d6:    7086        .p      STRB     r6,[r0,#2]
        0x100013d8:    2208        ."      MOVS     r2,#8
        0x100013da:    1cc0        ..      ADDS     r0,r0,#3
        0x100013dc:    31c9        .1      ADDS     r1,r1,#0xc9
        0x100013de:    37bd        .7      ADDS     r7,r7,#0xbd
        0x100013e0:    f001fce2    ....    BL       __aeabi_memcpy ; 0x10002da8
        0x100013e4:    6920         i      LDR      r0,[r4,#0x10]
        0x100013e6:    2204        ."      MOVS     r2,#4
        0x100013e8:    4639        9F      MOV      r1,r7
        0x100013ea:    300b        .0      ADDS     r0,r0,#0xb
        0x100013ec:    f001fcdc    ....    BL       __aeabi_memcpy ; 0x10002da8
        0x100013f0:    210d        .!      MOVS     r1,#0xd
        0x100013f2:    4a5c        \J      LDR      r2,[pc,#368] ; [0x10001564] = 0x114d
        0x100013f4:    2003        .       MOVS     r0,#3
        0x100013f6:    4790        .G      BLX      r2
        0x100013f8:    68e0        .h      LDR      r0,[r4,#0xc]
        0x100013fa:    4629        )F      MOV      r1,r5
        0x100013fc:    2208        ."      MOVS     r2,#8
        0x100013fe:    310a        .1      ADDS     r1,r1,#0xa
        0x10001400:    30c1        .0      ADDS     r0,r0,#0xc1
        0x10001402:    f001fcd1    ....    BL       __aeabi_memcpy ; 0x10002da8
        0x10001406:    68e0        .h      LDR      r0,[r4,#0xc]
        0x10001408:    4629        )F      MOV      r1,r5
        0x1000140a:    2204        ."      MOVS     r2,#4
        0x1000140c:    3112        .1      ADDS     r1,r1,#0x12
        0x1000140e:    30b9        .0      ADDS     r0,r0,#0xb9
        0x10001410:    f001fcca    ....    BL       __aeabi_memcpy ; 0x10002da8
        0x10001414:    7a28        (z      LDRB     r0,[r5,#8]
        0x10001416:    4f54        TO      LDR      r7,[pc,#336] ; [0x10001568] = 0x2219
        0x10001418:    2800        .(      CMP      r0,#0
        0x1000141a:    d102        ..      BNE      0x10001422 ; _LLENCReq + 98
        0x1000141c:    7a68        hz      LDRB     r0,[r5,#9]
        0x1000141e:    2800        .(      CMP      r0,#0
        0x10001420:    d01f        ..      BEQ      0x10001462 ; _LLENCReq + 162
        0x10001422:    2000        .       MOVS     r0,#0
        0x10001424:    70e0        .p      STRB     r0,[r4,#3]
        0x10001426:    68e0        .h      LDR      r0,[r4,#0xc]
        0x10001428:    7a2a        *z      LDRB     r2,[r5,#8]
        0x1000142a:    4601        .F      MOV      r1,r0
        0x1000142c:    3080        .0      ADDS     r0,r0,#0x80
        0x1000142e:    7b83        .{      LDRB     r3,[r0,#0xe]
        0x10001430:    429a        .B      CMP      r2,r3
        0x10001432:    d10a        ..      BNE      0x1000144a ; _LLENCReq + 138
        0x10001434:    7a6a        jz      LDRB     r2,[r5,#9]
        0x10001436:    7bc0        .{      LDRB     r0,[r0,#0xf]
        0x10001438:    4282        .B      CMP      r2,r0
        0x1000143a:    d106        ..      BNE      0x1000144a ; _LLENCReq + 138
        0x1000143c:    2208        ."      MOVS     r2,#8
        0x1000143e:    4628        (F      MOV      r0,r5
        0x10001440:    3190        .1      ADDS     r1,r1,#0x90
        0x10001442:    f001fcd5    ....    BL       memcmp ; 0x10002df0
        0x10001446:    2800        .(      CMP      r0,#0
        0x10001448:    d017        ..      BEQ      0x1000147a ; _LLENCReq + 186
        0x1000144a:    4669        iF      MOV      r1,sp
        0x1000144c:    2000        .       MOVS     r0,#0
        0x1000144e:    f7ffff6f    ..o.    BL       _BMGetNextBondDevice ; 0x10001330
        0x10001452:    2801        .(      CMP      r0,#1
        0x10001454:    d026        &.      BEQ      0x100014a4 ; _LLENCReq + 228
        0x10001456:    2206        ."      MOVS     r2,#6
        0x10001458:    2100        .!      MOVS     r1,#0
        0x1000145a:    4b44        DK      LDR      r3,[pc,#272] ; [0x1000156c] = 0x19d9
        0x1000145c:    2001        .       MOVS     r0,#1
        0x1000145e:    4798        .G      BLX      r3
        0x10001460:    e79b        ..      B        0x1000139a ; _BMGetNextBondDevice + 106
        0x10001462:    68e0        .h      LDR      r0,[r4,#0xc]
        0x10001464:    2202        ."      MOVS     r2,#2
        0x10001466:    7981        .y      LDRB     r1,[r0,#6]
        0x10001468:    4311        .C      ORRS     r1,r1,r2
        0x1000146a:    4602        .F      MOV      r2,r0
        0x1000146c:    7181        .q      STRB     r1,[r0,#6]
        0x1000146e:    32c1        .2      ADDS     r2,r2,#0xc1
        0x10001470:    30ff        .0      ADDS     r0,r0,#0xff
        0x10001472:    4611        .F      MOV      r1,r2
        0x10001474:    3010        .0      ADDS     r0,r0,#0x10
        0x10001476:    47b8        .G      BLX      r7
        0x10001478:    e010        ..      B        0x1000149c ; _LLENCReq + 220
        0x1000147a:    68e0        .h      LDR      r0,[r4,#0xc]
        0x1000147c:    7981        .y      LDRB     r1,[r0,#6]
        0x1000147e:    4602        .F      MOV      r2,r0
        0x10001480:    4331        1C      ORRS     r1,r1,r6
        0x10001482:    7181        .q      STRB     r1,[r0,#6]
        0x10001484:    32c1        .2      ADDS     r2,r2,#0xc1
        0x10001486:    4611        .F      MOV      r1,r2
        0x10001488:    3098        .0      ADDS     r0,r0,#0x98
        0x1000148a:    47b8        .G      BLX      r7
        0x1000148c:    68e0        .h      LDR      r0,[r4,#0xc]
        0x1000148e:    3080        .0      ADDS     r0,r0,#0x80
        0x10001490:    7980        .y      LDRB     r0,[r0,#6]
        0x10001492:    2801        .(      CMP      r0,#1
        0x10001494:    d102        ..      BNE      0x1000149c ; _LLENCReq + 220
        0x10001496:    4932        2I      LDR      r1,[pc,#200] ; [0x10001560] = 0xb05
        0x10001498:    2002        .       MOVS     r0,#2
        0x1000149a:    4788        .G      BLX      r1
        0x1000149c:    4833        3H      LDR      r0,[pc,#204] ; [0x1000156c] = 0x19d9
        0x1000149e:    30a0        .0      ADDS     r0,r0,#0xa0
        0x100014a0:    4780        .G      BLX      r0
        0x100014a2:    e77a        z.      B        0x1000139a ; _BMGetNextBondDevice + 106
        0x100014a4:    68e0        .h      LDR      r0,[r4,#0xc]
        0x100014a6:    a901        ..      ADD      r1,sp,#4
        0x100014a8:    222a        *"      MOVS     r2,#0x2a
        0x100014aa:    308e        .0      ADDS     r0,r0,#0x8e
        0x100014ac:    3103        .1      ADDS     r1,#3
        0x100014ae:    f001fc7b    ..{.    BL       __aeabi_memcpy ; 0x10002da8
        0x100014b2:    e7b8        ..      B        0x10001426 ; _LLENCReq + 102
    __LLVersionIndRxHandler
        0x100014b4:    b57c        |.      PUSH     {r2-r6,lr}
        0x100014b6:    1c45        E.      ADDS     r5,r0,#1
        0x100014b8:    7880        .x      LDRB     r0,[r0,#2]
        0x100014ba:    7829        )x      LDRB     r1,[r5,#0]
        0x100014bc:    0200        ..      LSLS     r0,r0,#8
        0x100014be:    4308        .C      ORRS     r0,r0,r1
        0x100014c0:    4c21        !L      LDR      r4,[pc,#132] ; [0x10001548] = 0x20003068
        0x100014c2:    2802        .(      CMP      r0,#2
        0x100014c4:    d010        ..      BEQ      0x100014e8 ; __LLVersionIndRxHandler + 52
        0x100014c6:    280f        .(      CMP      r0,#0xf
        0x100014c8:    d010        ..      BEQ      0x100014ec ; __LLVersionIndRxHandler + 56
        0x100014ca:    2101        .!      MOVS     r1,#1
        0x100014cc:    281d        .(      CMP      r0,#0x1d
        0x100014ce:    d010        ..      BEQ      0x100014f2 ; __LLVersionIndRxHandler + 62
        0x100014d0:    38ff        .8      SUBS     r0,r0,#0xff
        0x100014d2:    2810        .(      CMP      r0,#0x10
        0x100014d4:    d00d        ..      BEQ      0x100014f2 ; __LLVersionIndRxHandler + 62
        0x100014d6:    4a26        &J      LDR      r2,[pc,#152] ; [0x10001570] = 0x1d1f
        0x100014d8:    4669        iF      MOV      r1,sp
        0x100014da:    2001        .       MOVS     r0,#1
        0x100014dc:    4790        .G      BLX      r2
        0x100014de:    7868        hx      LDRB     r0,[r5,#1]
        0x100014e0:    7829        )x      LDRB     r1,[r5,#0]
        0x100014e2:    0200        ..      LSLS     r0,r0,#8
        0x100014e4:    4308        .C      ORRS     r0,r0,r1
        0x100014e6:    e002        ..      B        0x100014ee ; __LLVersionIndRxHandler + 58
        0x100014e8:    2003        .       MOVS     r0,#3
        0x100014ea:    e000        ..      B        0x100014ee ; __LLVersionIndRxHandler + 58
        0x100014ec:    2002        .       MOVS     r0,#2
        0x100014ee:    7160        `q      STRB     r0,[r4,#5]
        0x100014f0:    bd7c        |.      POP      {r2-r6,pc}
        0x100014f2:    7161        aq      STRB     r1,[r4,#5]
        0x100014f4:    bd7c        |.      POP      {r2-r6,pc}
    GetMasterSystem
        0x100014f6:    4814        .H      LDR      r0,[pc,#80] ; [0x10001548] = 0x20003068
        0x100014f8:    7940        @y      LDRB     r0,[r0,#5]
        0x100014fa:    4770        pG      BX       lr
    TimerStop
        0x100014fc:    491d        .I      LDR      r1,[pc,#116] ; [0x10001574] = 0x44b3
        0x100014fe:    4708        .G      BX       r1
    smart_update_retry
        0x10001500:    b51c        ..      PUSH     {r2-r4,lr}
        0x10001502:    4815        .H      LDR      r0,[pc,#84] ; [0x10001558] = 0x20003187
        0x10001504:    2108        .!      MOVS     r1,#8
        0x10001506:    7001        .p      STRB     r1,[r0,#0]
        0x10001508:    2100        .!      MOVS     r1,#0
        0x1000150a:    7041        Ap      STRB     r1,[r0,#1]
        0x1000150c:    7b01        .{      LDRB     r1,[r0,#0xc]
        0x1000150e:    7ac2        .z      LDRB     r2,[r0,#0xb]
        0x10001510:    0209        ..      LSLS     r1,r1,#8
        0x10001512:    1cc0        ..      ADDS     r0,r0,#3
        0x10001514:    4311        .C      ORRS     r1,r1,r2
        0x10001516:    d05c        \.      BEQ      0x100015d2 ; smart_update_retry + 210
        0x10001518:    7942        By      LDRB     r2,[r0,#5]
        0x1000151a:    7903        .y      LDRB     r3,[r0,#4]
        0x1000151c:    0212        ..      LSLS     r2,r2,#8
        0x1000151e:    431a        .C      ORRS     r2,r2,r3
        0x10001520:    1a89        ..      SUBS     r1,r1,r2
        0x10001522:    b20b        ..      SXTH     r3,r1
        0x10001524:    466a        jF      MOV      r2,sp
        0x10001526:    8013        ..      STRH     r3,[r2,#0]
        0x10001528:    7a41        Az      LDRB     r1,[r0,#9]
        0x1000152a:    7a02        .z      LDRB     r2,[r0,#8]
        0x1000152c:    0609        ..      LSLS     r1,r1,#24
        0x1000152e:    1409        ..      ASRS     r1,r1,#16
        0x10001530:    4311        .C      ORRS     r1,r1,r2
        0x10001532:    466a        jF      MOV      r2,sp
        0x10001534:    8051        Q.      STRH     r1,[r2,#2]
        0x10001536:    2219        ."      MOVS     r2,#0x19
        0x10001538:    2406        .$      MOVS     r4,#6
        0x1000153a:    01d2        ..      LSLS     r2,r2,#7
        0x1000153c:    2b06        .+      CMP      r3,#6
        0x1000153e:    da1d        ..      BGE      0x1000157c ; smart_update_retry + 124
        0x10001540:    466b        kF      MOV      r3,sp
        0x10001542:    e019        ..      B        0x10001578 ; smart_update_retry + 120
    $d
        0x10001544:    00004713    .G..    DCD    18195
        0x10001548:    20003068    h0.     DCD    536883304
        0x1000154c:    000065bf    .e..    DCD    26047
        0x10001550:    0000622b    +b..    DCD    25131
        0x10001554:    0000ffff    ....    DCD    65535
        0x10001558:    20003187    .1.     DCD    536883591
        0x1000155c:    00005359    YS..    DCD    21337
        0x10001560:    00000b05    ....    DCD    2821
        0x10001564:    0000114d    M...    DCD    4429
        0x10001568:    00002219    ."..    DCD    8729
        0x1000156c:    000019d9    ....    DCD    6617
        0x10001570:    00001d1f    ....    DCD    7455
        0x10001574:    000044b3    .D..    DCD    17587
    $t
        0x10001578:    801c        ..      STRH     r4,[r3,#0]
        0x1000157a:    e003        ..      B        0x10001584 ; smart_update_retry + 132
        0x1000157c:    4293        .B      CMP      r3,r2
        0x1000157e:    dd01        ..      BLE      0x10001584 ; smart_update_retry + 132
        0x10001580:    466b        kF      MOV      r3,sp
        0x10001582:    801a        ..      STRH     r2,[r3,#0]
        0x10001584:    2906        .)      CMP      r1,#6
        0x10001586:    da02        ..      BGE      0x1000158e ; smart_update_retry + 142
        0x10001588:    4669        iF      MOV      r1,sp
        0x1000158a:    804c        L.      STRH     r4,[r1,#2]
        0x1000158c:    e003        ..      B        0x10001596 ; smart_update_retry + 150
        0x1000158e:    4291        .B      CMP      r1,r2
        0x10001590:    dd01        ..      BLE      0x10001596 ; smart_update_retry + 150
        0x10001592:    4669        iF      MOV      r1,sp
        0x10001594:    804a        J.      STRH     r2,[r1,#2]
        0x10001596:    7b41        A{      LDRB     r1,[r0,#0xd]
        0x10001598:    7b02        .{      LDRB     r2,[r0,#0xc]
        0x1000159a:    0208        ..      LSLS     r0,r1,#8
        0x1000159c:    4310        .C      ORRS     r0,r0,r2
        0x1000159e:    4669        iF      MOV      r1,sp
        0x100015a0:    80c8        ..      STRH     r0,[r1,#6]
        0x100015a2:    48f8        .H      LDR      r0,[pc,#992] ; [0x10001984] = 0x20003187
        0x100015a4:    7b81        .{      LDRB     r1,[r0,#0xe]
        0x100015a6:    7b42        B{      LDRB     r2,[r0,#0xd]
        0x100015a8:    0208        ..      LSLS     r0,r1,#8
        0x100015aa:    4310        .C      ORRS     r0,r0,r2
        0x100015ac:    4669        iF      MOV      r1,sp
        0x100015ae:    8088        ..      STRH     r0,[r1,#4]
        0x100015b0:    48f5        .H      LDR      r0,[pc,#980] ; [0x10001988] = 0x20003068
        0x100015b2:    68c0        .h      LDR      r0,[r0,#0xc]
        0x100015b4:    3023        #0      ADDS     r0,r0,#0x23
        0x100015b6:    7c41        A|      LDRB     r1,[r0,#0x11]
        0x100015b8:    7c02        .|      LDRB     r2,[r0,#0x10]
        0x100015ba:    0208        ..      LSLS     r0,r1,#8
        0x100015bc:    4310        .C      ORRS     r0,r0,r2
        0x100015be:    d002        ..      BEQ      0x100015c6 ; smart_update_retry + 198
        0x100015c0:    2000        .       MOVS     r0,#0
        0x100015c2:    f7fffbf2    ....    BL       ConnectionLatencyMode ; 0x10000daa
        0x100015c6:    49f1        .I      LDR      r1,[pc,#964] ; [0x1000198c] = 0x4233
        0x100015c8:    4668        hF      MOV      r0,sp
        0x100015ca:    4788        .G      BLX      r1
        0x100015cc:    49f0        .I      LDR      r1,[pc,#960] ; [0x10001990] = 0x44b3
        0x100015ce:    2040        @       MOVS     r0,#0x40
        0x100015d0:    4788        .G      BLX      r1
        0x100015d2:    bd1c        ..      POP      {r2-r4,pc}
    sw_timer_update_callback
        0x100015d4:    49eb        .I      LDR      r1,[pc,#940] ; [0x10001984] = 0x20003187
        0x100015d6:    7848        Hx      LDRB     r0,[r1,#1]
        0x100015d8:    780a        .x      LDRB     r2,[r1,#0]
        0x100015da:    0200        ..      LSLS     r0,r0,#8
        0x100015dc:    4310        .C      ORRS     r0,r0,r2
        0x100015de:    05c2        ..      LSLS     r2,r0,#23
        0x100015e0:    d50c        ..      BPL      0x100015fc ; sw_timer_update_callback + 40
        0x100015e2:    22ff        ."      MOVS     r2,#0xff
        0x100015e4:    3201        .2      ADDS     r2,#1
        0x100015e6:    4390        .C      BICS     r0,r0,r2
        0x100015e8:    7008        .p      STRB     r0,[r1,#0]
        0x100015ea:    0a00        ..      LSRS     r0,r0,#8
        0x100015ec:    7048        Hp      STRB     r0,[r1,#1]
        0x100015ee:    7908        .y      LDRB     r0,[r1,#4]
        0x100015f0:    1e40        @.      SUBS     r0,r0,#1
        0x100015f2:    0600        ..      LSLS     r0,r0,#24
        0x100015f4:    0e00        ..      LSRS     r0,r0,#24
        0x100015f6:    7108        .q      STRB     r0,[r1,#4]
        0x100015f8:    d009        ..      BEQ      0x1000160e ; sw_timer_update_callback + 58
        0x100015fa:    e781        ..      B        smart_update_retry ; 0x10001500
        0x100015fc:    2220         "      MOVS     r2,#0x20
        0x100015fe:    4310        .C      ORRS     r0,r0,r2
        0x10001600:    2210        ."      MOVS     r2,#0x10
        0x10001602:    4390        .C      BICS     r0,r0,r2
        0x10001604:    2204        ."      MOVS     r2,#4
        0x10001606:    4310        .C      ORRS     r0,r0,r2
        0x10001608:    7008        .p      STRB     r0,[r1,#0]
        0x1000160a:    0a00        ..      LSRS     r0,r0,#8
        0x1000160c:    7048        Hp      STRB     r0,[r1,#1]
        0x1000160e:    4770        pG      BX       lr
    smart_update_latency_updatareq
        0x10001610:    b5fe        ..      PUSH     {r1-r7,lr}
        0x10001612:    4ddc        .M      LDR      r5,[pc,#880] ; [0x10001984] = 0x20003187
        0x10001614:    4604        .F      MOV      r4,r0
        0x10001616:    7868        hx      LDRB     r0,[r5,#1]
        0x10001618:    7829        )x      LDRB     r1,[r5,#0]
        0x1000161a:    0200        ..      LSLS     r0,r0,#8
        0x1000161c:    4308        .C      ORRS     r0,r0,r1
        0x1000161e:    0700        ..      LSLS     r0,r0,#28
        0x10001620:    d57e        ~.      BPL      0x10001720 ; smart_update_latency_updatareq + 272
        0x10001622:    48dc        .H      LDR      r0,[pc,#880] ; [0x10001994] = 0x55bf
        0x10001624:    4780        .G      BLX      r0
        0x10001626:    7869        ix      LDRB     r1,[r5,#1]
        0x10001628:    782a        *x      LDRB     r2,[r5,#0]
        0x1000162a:    0209        ..      LSLS     r1,r1,#8
        0x1000162c:    4311        .C      ORRS     r1,r1,r2
        0x1000162e:    2208        ."      MOVS     r2,#8
        0x10001630:    4391        .C      BICS     r1,r1,r2
        0x10001632:    7029        )p      STRB     r1,[r5,#0]
        0x10001634:    0a0a        ..      LSRS     r2,r1,#8
        0x10001636:    706a        jp      STRB     r2,[r5,#1]
        0x10001638:    7a6b        kz      LDRB     r3,[r5,#9]
        0x1000163a:    4606        .F      MOV      r6,r0
        0x1000163c:    4628        (F      MOV      r0,r5
        0x1000163e:    061a        ..      LSLS     r2,r3,#24
        0x10001640:    d56f        o.      BPL      0x10001722 ; smart_update_latency_updatareq + 274
        0x10001642:    79a2        .y      LDRB     r2,[r4,#6]
        0x10001644:    7967        gy      LDRB     r7,[r4,#5]
        0x10001646:    0212        ..      LSLS     r2,r2,#8
        0x10001648:    1c65        e.      ADDS     r5,r4,#1
        0x1000164a:    433a        :C      ORRS     r2,r2,r7
        0x1000164c:    4fce        .O      LDR      r7,[pc,#824] ; [0x10001988] = 0x20003068
        0x1000164e:    1ce4        ..      ADDS     r4,r4,#3
        0x10001650:    2a00        .*      CMP      r2,#0
        0x10001652:    d077        w.      BEQ      0x10001744 ; smart_update_latency_updatareq + 308
        0x10001654:    2210        ."      MOVS     r2,#0x10
        0x10001656:    4311        .C      ORRS     r1,r1,r2
        0x10001658:    7001        .p      STRB     r1,[r0,#0]
        0x1000165a:    0a0a        ..      LSRS     r2,r1,#8
        0x1000165c:    7042        Bp      STRB     r2,[r0,#1]
        0x1000165e:    0688        ..      LSLS     r0,r1,#26
        0x10001660:    d45f        _.      BMI      0x10001722 ; smart_update_latency_updatareq + 274
        0x10001662:    7968        hy      LDRB     r0,[r5,#5]
        0x10001664:    7929        )y      LDRB     r1,[r5,#4]
        0x10001666:    0200        ..      LSLS     r0,r0,#8
        0x10001668:    4308        .C      ORRS     r0,r0,r1
        0x1000166a:    d032        2.      BEQ      0x100016d2 ; smart_update_latency_updatareq + 194
        0x1000166c:    f001fde8    ....    BL       __aeabi_ui2d ; 0x10003240
        0x10001670:    9101        ..      STR      r1,[sp,#4]
        0x10001672:    9000        ..      STR      r0,[sp,#0]
        0x10001674:    7860        `x      LDRB     r0,[r4,#1]
        0x10001676:    7821        !x      LDRB     r1,[r4,#0]
        0x10001678:    0200        ..      LSLS     r0,r0,#8
        0x1000167a:    4308        .C      ORRS     r0,r0,r1
        0x1000167c:    f001fde0    ....    BL       __aeabi_ui2d ; 0x10003240
        0x10001680:    4cc5        .L      LDR      r4,[pc,#788] ; [0x10001998] = 0x3ff40000
        0x10001682:    2200        ."      MOVS     r2,#0
        0x10001684:    4623        #F      MOV      r3,r4
        0x10001686:    f001fcdf    ....    BL       __aeabi_dmul ; 0x10003048
        0x1000168a:    9b01        ..      LDR      r3,[sp,#4]
        0x1000168c:    9a00        ..      LDR      r2,[sp,#0]
        0x1000168e:    f001fcdb    ....    BL       __aeabi_dmul ; 0x10003048
        0x10001692:    9101        ..      STR      r1,[sp,#4]
        0x10001694:    9000        ..      STR      r0,[sp,#0]
        0x10001696:    68f8        .h      LDR      r0,[r7,#0xc]
        0x10001698:    3021        !0      ADDS     r0,r0,#0x21
        0x1000169a:    7c41        A|      LDRB     r1,[r0,#0x11]
        0x1000169c:    7c02        .|      LDRB     r2,[r0,#0x10]
        0x1000169e:    0208        ..      LSLS     r0,r1,#8
        0x100016a0:    4310        .C      ORRS     r0,r0,r2
        0x100016a2:    f001fdcd    ....    BL       __aeabi_ui2d ; 0x10003240
        0x100016a6:    2200        ."      MOVS     r2,#0
        0x100016a8:    4623        #F      MOV      r3,r4
        0x100016aa:    f001fccd    ....    BL       __aeabi_dmul ; 0x10003048
        0x100016ae:    4607        .F      MOV      r7,r0
        0x100016b0:    460c        .F      MOV      r4,r1
        0x100016b2:    7a68        hz      LDRB     r0,[r5,#9]
        0x100016b4:    7a29        )z      LDRB     r1,[r5,#8]
        0x100016b6:    0200        ..      LSLS     r0,r0,#8
        0x100016b8:    4308        .C      ORRS     r0,r0,r1
        0x100016ba:    1b80        ..      SUBS     r0,r0,r6
        0x100016bc:    f001fdac    ....    BL       __aeabi_i2d ; 0x10003218
        0x100016c0:    463a        :F      MOV      r2,r7
        0x100016c2:    4623        #F      MOV      r3,r4
        0x100016c4:    f001fcc0    ....    BL       __aeabi_dmul ; 0x10003048
        0x100016c8:    9b01        ..      LDR      r3,[sp,#4]
        0x100016ca:    9a00        ..      LDR      r2,[sp,#0]
        0x100016cc:    f001fc0a    ....    BL       __aeabi_dadd ; 0x10002ee4
        0x100016d0:    e024        $.      B        0x1000171c ; smart_update_latency_updatareq + 268
        0x100016d2:    7860        `x      LDRB     r0,[r4,#1]
        0x100016d4:    7821        !x      LDRB     r1,[r4,#0]
        0x100016d6:    0200        ..      LSLS     r0,r0,#8
        0x100016d8:    4308        .C      ORRS     r0,r0,r1
        0x100016da:    f001fd95    ....    BL       __aeabi_ui2f ; 0x10003208
        0x100016de:    4604        .F      MOV      r4,r0
        0x100016e0:    68f8        .h      LDR      r0,[r7,#0xc]
        0x100016e2:    3021        !0      ADDS     r0,r0,#0x21
        0x100016e4:    7c41        A|      LDRB     r1,[r0,#0x11]
        0x100016e6:    7c02        .|      LDRB     r2,[r0,#0x10]
        0x100016e8:    0208        ..      LSLS     r0,r1,#8
        0x100016ea:    4310        .C      ORRS     r0,r0,r2
        0x100016ec:    f001fd8c    ....    BL       __aeabi_ui2f ; 0x10003208
        0x100016f0:    4621        !F      MOV      r1,r4
        0x100016f2:    f001fb9d    ....    BL       __aeabi_fadd ; 0x10002e30
        0x100016f6:    f001fdcf    ....    BL       __aeabi_f2d ; 0x10003298
        0x100016fa:    2200        ."      MOVS     r2,#0
        0x100016fc:    4ba6        .K      LDR      r3,[pc,#664] ; [0x10001998] = 0x3ff40000
        0x100016fe:    f001fca3    ....    BL       __aeabi_dmul ; 0x10003048
        0x10001702:    4607        .F      MOV      r7,r0
        0x10001704:    460c        .F      MOV      r4,r1
        0x10001706:    7a68        hz      LDRB     r0,[r5,#9]
        0x10001708:    7a29        )z      LDRB     r1,[r5,#8]
        0x1000170a:    0200        ..      LSLS     r0,r0,#8
        0x1000170c:    4308        .C      ORRS     r0,r0,r1
        0x1000170e:    1b80        ..      SUBS     r0,r0,r6
        0x10001710:    f001fd82    ....    BL       __aeabi_i2d ; 0x10003218
        0x10001714:    463a        :F      MOV      r2,r7
        0x10001716:    4623        #F      MOV      r3,r4
        0x10001718:    f001fc96    ....    BL       __aeabi_dmul ; 0x10003048
        0x1000171c:    2200        ."      MOVS     r2,#0
        0x1000171e:    e002        ..      B        0x10001726 ; smart_update_latency_updatareq + 278
        0x10001720:    e06d        m.      B        0x100017fe ; smart_update_latency_updatareq + 494
        0x10001722:    e063        c.      B        0x100017ec ; smart_update_latency_updatareq + 476
        0x10001724:    e00e        ..      B        0x10001744 ; smart_update_latency_updatareq + 308
        0x10001726:    4b9d        .K      LDR      r3,[pc,#628] ; [0x1000199c] = 0x40590000
        0x10001728:    f001fcf6    ....    BL       __aeabi_ddiv ; 0x10003118
        0x1000172c:    f001fd96    ....    BL       __aeabi_d2uiz ; 0x1000325c
        0x10001730:    0401        ..      LSLS     r1,r0,#16
        0x10001732:    0c09        ..      LSRS     r1,r1,#16
        0x10001734:    d100        ..      BNE      0x10001738 ; smart_update_latency_updatareq + 296
        0x10001736:    2101        .!      MOVS     r1,#1
        0x10001738:    4b99        .K      LDR      r3,[pc,#612] ; [0x100019a0] = 0x100015d5
        0x1000173a:    2200        ."      MOVS     r2,#0
        0x1000173c:    2080        .       MOVS     r0,#0x80
        0x1000173e:    f7fffb81    ....    BL       TimerStart ; 0x10000e44
        0x10001742:    e053        S.      B        0x100017ec ; smart_update_latency_updatareq + 476
        0x10001744:    069a        ..      LSLS     r2,r3,#26
        0x10001746:    d551        Q.      BPL      0x100017ec ; smart_update_latency_updatareq + 476
        0x10001748:    7882        .x      LDRB     r2,[r0,#2]
        0x1000174a:    2a01        .*      CMP      r2,#1
        0x1000174c:    d14e        N.      BNE      0x100017ec ; smart_update_latency_updatareq + 476
        0x1000174e:    068a        ..      LSLS     r2,r1,#26
        0x10001750:    d44c        L.      BMI      0x100017ec ; smart_update_latency_updatareq + 476
        0x10001752:    22ff        ."      MOVS     r2,#0xff
        0x10001754:    488b        .H      LDR      r0,[pc,#556] ; [0x10001984] = 0x20003187
        0x10001756:    3201        .2      ADDS     r2,#1
        0x10001758:    4311        .C      ORRS     r1,r1,r2
        0x1000175a:    7001        .p      STRB     r1,[r0,#0]
        0x1000175c:    0a09        ..      LSRS     r1,r1,#8
        0x1000175e:    7041        Ap      STRB     r1,[r0,#1]
        0x10001760:    7860        `x      LDRB     r0,[r4,#1]
        0x10001762:    7821        !x      LDRB     r1,[r4,#0]
        0x10001764:    0200        ..      LSLS     r0,r0,#8
        0x10001766:    4308        .C      ORRS     r0,r0,r1
        0x10001768:    4986        .I      LDR      r1,[pc,#536] ; [0x10001984] = 0x20003187
        0x1000176a:    7b0a        .{      LDRB     r2,[r1,#0xc]
        0x1000176c:    7acb        .z      LDRB     r3,[r1,#0xb]
        0x1000176e:    0211        ..      LSLS     r1,r2,#8
        0x10001770:    4319        .C      ORRS     r1,r1,r3
        0x10001772:    4288        .B      CMP      r0,r1
        0x10001774:    d93a        :.      BLS      0x100017ec ; smart_update_latency_updatareq + 476
        0x10001776:    f001fd47    ..G.    BL       __aeabi_ui2f ; 0x10003208
        0x1000177a:    4604        .F      MOV      r4,r0
        0x1000177c:    68f8        .h      LDR      r0,[r7,#0xc]
        0x1000177e:    3021        !0      ADDS     r0,r0,#0x21
        0x10001780:    7c41        A|      LDRB     r1,[r0,#0x11]
        0x10001782:    7c02        .|      LDRB     r2,[r0,#0x10]
        0x10001784:    0208        ..      LSLS     r0,r1,#8
        0x10001786:    4310        .C      ORRS     r0,r0,r2
        0x10001788:    f001fd3e    ..>.    BL       __aeabi_ui2f ; 0x10003208
        0x1000178c:    4621        !F      MOV      r1,r4
        0x1000178e:    f001fb4f    ..O.    BL       __aeabi_fadd ; 0x10002e30
        0x10001792:    f001fd81    ....    BL       __aeabi_f2d ; 0x10003298
        0x10001796:    2200        ."      MOVS     r2,#0
        0x10001798:    4b7f        .K      LDR      r3,[pc,#508] ; [0x10001998] = 0x3ff40000
        0x1000179a:    f001fc55    ..U.    BL       __aeabi_dmul ; 0x10003048
        0x1000179e:    4607        .F      MOV      r7,r0
        0x100017a0:    460c        .F      MOV      r4,r1
        0x100017a2:    7a68        hz      LDRB     r0,[r5,#9]
        0x100017a4:    7a29        )z      LDRB     r1,[r5,#8]
        0x100017a6:    0200        ..      LSLS     r0,r0,#8
        0x100017a8:    4308        .C      ORRS     r0,r0,r1
        0x100017aa:    1b80        ..      SUBS     r0,r0,r6
        0x100017ac:    f001fd34    ..4.    BL       __aeabi_i2d ; 0x10003218
        0x100017b0:    463a        :F      MOV      r2,r7
        0x100017b2:    4623        #F      MOV      r3,r4
        0x100017b4:    f001fc48    ..H.    BL       __aeabi_dmul ; 0x10003048
        0x100017b8:    2200        ."      MOVS     r2,#0
        0x100017ba:    4b78        xK      LDR      r3,[pc,#480] ; [0x1000199c] = 0x40590000
        0x100017bc:    f001fcac    ....    BL       __aeabi_ddiv ; 0x10003118
        0x100017c0:    f001fd4c    ..L.    BL       __aeabi_d2uiz ; 0x1000325c
        0x100017c4:    0401        ..      LSLS     r1,r0,#16
        0x100017c6:    0c09        ..      LSRS     r1,r1,#16
        0x100017c8:    d100        ..      BNE      0x100017cc ; smart_update_latency_updatareq + 444
        0x100017ca:    2101        .!      MOVS     r1,#1
        0x100017cc:    4b74        tK      LDR      r3,[pc,#464] ; [0x100019a0] = 0x100015d5
        0x100017ce:    2200        ."      MOVS     r2,#0
        0x100017d0:    2080        .       MOVS     r0,#0x80
        0x100017d2:    f7fffb37    ..7.    BL       TimerStart ; 0x10000e44
        0x100017d6:    486b        kH      LDR      r0,[pc,#428] ; [0x10001984] = 0x20003187
        0x100017d8:    7841        Ax      LDRB     r1,[r0,#1]
        0x100017da:    7802        .x      LDRB     r2,[r0,#0]
        0x100017dc:    0209        ..      LSLS     r1,r1,#8
        0x100017de:    4311        .C      ORRS     r1,r1,r2
        0x100017e0:    22ff        ."      MOVS     r2,#0xff
        0x100017e2:    3201        .2      ADDS     r2,#1
        0x100017e4:    4311        .C      ORRS     r1,r1,r2
        0x100017e6:    7001        .p      STRB     r1,[r0,#0]
        0x100017e8:    0a09        ..      LSRS     r1,r1,#8
        0x100017ea:    7041        Ap      STRB     r1,[r0,#1]
        0x100017ec:    2003        .       MOVS     r0,#3
        0x100017ee:    4669        iF      MOV      r1,sp
        0x100017f0:    8108        ..      STRH     r0,[r1,#8]
        0x100017f2:    2202        ."      MOVS     r2,#2
        0x100017f4:    0391        ..      LSLS     r1,r2,#14
        0x100017f6:    4c6b        kL      LDR      r4,[pc,#428] ; [0x100019a4] = 0x3ea1
        0x100017f8:    ab02        ..      ADD      r3,sp,#8
        0x100017fa:    2000        .       MOVS     r0,#0
        0x100017fc:    47a0        .G      BLX      r4
        0x100017fe:    bdfe        ..      POP      {r1-r7,pc}
    Lib_ProtocolHookCallback
        0x10001800:    b510        ..      PUSH     {r4,lr}
        0x10001802:    4604        .F      MOV      r4,r0
        0x10001804:    7800        .x      LDRB     r0,[r0,#0]
        0x10001806:    2800        .(      CMP      r0,#0
        0x10001808:    d10d        ..      BNE      0x10001826 ; Lib_ProtocolHookCallback + 38
        0x1000180a:    78a1        .x      LDRB     r1,[r4,#2]
        0x1000180c:    7862        bx      LDRB     r2,[r4,#1]
        0x1000180e:    0208        ..      LSLS     r0,r1,#8
        0x10001810:    4310        .C      ORRS     r0,r0,r2
        0x10001812:    d009        ..      BEQ      0x10001828 ; Lib_ProtocolHookCallback + 40
        0x10001814:    2801        .(      CMP      r0,#1
        0x10001816:    d01e        ..      BEQ      0x10001856 ; Lib_ProtocolHookCallback + 86
        0x10001818:    2803        .(      CMP      r0,#3
        0x1000181a:    d027        '.      BEQ      0x1000186c ; Lib_ProtocolHookCallback + 108
        0x1000181c:    280c        .(      CMP      r0,#0xc
        0x1000181e:    d102        ..      BNE      0x10001826 ; Lib_ProtocolHookCallback + 38
        0x10001820:    1d20         .      ADDS     r0,r4,#4
        0x10001822:    f7fffe47    ..G.    BL       __LLVersionIndRxHandler ; 0x100014b4
        0x10001826:    e475        u.      B        0x10001114 ; ClockSwitch + 8
        0x10001828:    f001f98c    ....    BL       WaitLLCOverSlpth ; 0x10002b44
        0x1000182c:    495e        ^I      LDR      r1,[pc,#376] ; [0x100019a8] = 0x5b5d
        0x1000182e:    1d20         .      ADDS     r0,r4,#4
        0x10001830:    4788        .G      BLX      r1
        0x10001832:    2800        .(      CMP      r0,#0
        0x10001834:    d102        ..      BNE      0x1000183c ; Lib_ProtocolHookCallback + 60
        0x10001836:    2028        (       MOVS     r0,#0x28
        0x10001838:    f7fff860    ..`.    BL       _LCDisConnect ; 0x100008fc
        0x1000183c:    1d20         .      ADDS     r0,r4,#4
        0x1000183e:    f7fffee7    ....    BL       smart_update_latency_updatareq ; 0x10001610
        0x10001842:    4851        QH      LDR      r0,[pc,#324] ; [0x10001988] = 0x20003068
        0x10001844:    2101        .!      MOVS     r1,#1
        0x10001846:    68c3        .h      LDR      r3,[r0,#0xc]
        0x10001848:    2206        ."      MOVS     r2,#6
        0x1000184a:    0409        ..      LSLS     r1,r1,#16
        0x1000184c:    2000        .       MOVS     r0,#0
        0x1000184e:    4c55        UL      LDR      r4,[pc,#340] ; [0x100019a4] = 0x3ea1
        0x10001850:    3331        13      ADDS     r3,r3,#0x31
        0x10001852:    47a0        .G      BLX      r4
        0x10001854:    e45e        ^.      B        0x10001114 ; ClockSwitch + 8
        0x10001856:    f001f975    ..u.    BL       WaitLLCOverSlpth ; 0x10002b44
        0x1000185a:    4954        TI      LDR      r1,[pc,#336] ; [0x100019ac] = 0x5f47
        0x1000185c:    1d20         .      ADDS     r0,r4,#4
        0x1000185e:    4788        .G      BLX      r1
        0x10001860:    2800        .(      CMP      r0,#0
        0x10001862:    d1e0        ..      BNE      0x10001826 ; Lib_ProtocolHookCallback + 38
        0x10001864:    2028        (       MOVS     r0,#0x28
        0x10001866:    f7fff849    ..I.    BL       _LCDisConnect ; 0x100008fc
        0x1000186a:    e453        S.      B        0x10001114 ; ClockSwitch + 8
        0x1000186c:    1d20         .      ADDS     r0,r4,#4
        0x1000186e:    f7fffda7    ....    BL       _LLENCReq ; 0x100013c0
        0x10001872:    e44f        O.      B        0x10001114 ; ClockSwitch + 8
    Lib_MiscCallback
        0x10001874:    b510        ..      PUSH     {r4,lr}
        0x10001876:    7800        .x      LDRB     r0,[r0,#0]
        0x10001878:    2801        .(      CMP      r0,#1
        0x1000187a:    d101        ..      BNE      0x10001880 ; Lib_MiscCallback + 12
        0x1000187c:    f7fff855    ..U.    BL       _LCTimer_Handler ; 0x1000092a
        0x10001880:    e448        H.      B        0x10001114 ; ClockSwitch + 8
    BleInit
        0x10001882:    b5f0        ..      PUSH     {r4-r7,lr}
        0x10001884:    484a        JH      LDR      r0,[pc,#296] ; [0x100019b0] = 0x3d79
        0x10001886:    b085        ..      SUB      sp,sp,#0x14
        0x10001888:    4780        .G      BLX      r0
        0x1000188a:    2101        .!      MOVS     r1,#1
        0x1000188c:    207f        .       MOVS     r0,#0x7f
        0x1000188e:    f7fffb9b    ....    BL       BBRFWrite ; 0x10000fc8
        0x10001892:    4669        iF      MOV      r1,sp
        0x10001894:    2050        P       MOVS     r0,#0x50
        0x10001896:    f7fffb95    ....    BL       BBRFRead ; 0x10000fc4
        0x1000189a:    4668        hF      MOV      r0,sp
        0x1000189c:    7800        .x      LDRB     r0,[r0,#0]
        0x1000189e:    2804        .(      CMP      r0,#4
        0x100018a0:    d001        ..      BEQ      0x100018a6 ; BleInit + 36
        0x100018a2:    4844        DH      LDR      r0,[pc,#272] ; [0x100019b4] = 0x46f7
        0x100018a4:    4780        .G      BLX      r0
        0x100018a6:    f7fffb92    ....    BL       RCOSCCalibration ; 0x10000fce
        0x100018aa:    4c37        7L      LDR      r4,[pc,#220] ; [0x10001988] = 0x20003068
        0x100018ac:    68e0        .h      LDR      r0,[r4,#0xc]
        0x100018ae:    7880        .x      LDRB     r0,[r0,#2]
        0x100018b0:    2801        .(      CMP      r0,#1
        0x100018b2:    d045        E.      BEQ      0x10001940 ; BleInit + 190
        0x100018b4:    2802        .(      CMP      r0,#2
        0x100018b6:    d064        d.      BEQ      0x10001982 ; BleInit + 256
        0x100018b8:    f7fffc51    ..Q.    BL       LPOCalibration ; 0x1000115e
        0x100018bc:    2501        .%      MOVS     r5,#1
        0x100018be:    4668        hF      MOV      r0,sp
        0x100018c0:    8045        E.      STRH     r5,[r0,#2]
        0x100018c2:    8005        ..      STRH     r5,[r0,#0]
        0x100018c4:    483c        <H      LDR      r0,[pc,#240] ; [0x100019b8] = 0x10001875
        0x100018c6:    4932        2I      LDR      r1,[pc,#200] ; [0x10001990] = 0x44b3
        0x100018c8:    9001        ..      STR      r0,[sp,#4]
        0x100018ca:    4668        hF      MOV      r0,sp
        0x100018cc:    3984        .9      SUBS     r1,r1,#0x84
        0x100018ce:    4788        .G      BLX      r1
        0x100018d0:    4668        hF      MOV      r0,sp
        0x100018d2:    7005        .p      STRB     r5,[r0,#0]
        0x100018d4:    7045        Ep      STRB     r5,[r0,#1]
        0x100018d6:    2500        .%      MOVS     r5,#0
        0x100018d8:    8045        E.      STRH     r5,[r0,#2]
        0x100018da:    4838        8H      LDR      r0,[pc,#224] ; [0x100019bc] = 0x10000caf
        0x100018dc:    9001        ..      STR      r0,[sp,#4]
        0x100018de:    4b38        8K      LDR      r3,[pc,#224] ; [0x100019c0] = 0x2ce
        0x100018e0:    68e0        .h      LDR      r0,[r4,#0xc]
        0x100018e2:    2208        ."      MOVS     r2,#8
        0x100018e4:    4669        iF      MOV      r1,sp
        0x100018e6:    18c0        ..      ADDS     r0,r0,r3
        0x100018e8:    f001fa5e    ..^.    BL       __aeabi_memcpy ; 0x10002da8
        0x100018ec:    4e29        )N      LDR      r6,[pc,#164] ; [0x10001994] = 0x55bf
        0x100018ee:    2101        .!      MOVS     r1,#1
        0x100018f0:    2040        @       MOVS     r0,#0x40
        0x100018f2:    3e5e        ^>      SUBS     r6,r6,#0x5e
        0x100018f4:    47b0        .G      BLX      r6
        0x100018f6:    2101        .!      MOVS     r1,#1
        0x100018f8:    2080        .       MOVS     r0,#0x80
        0x100018fa:    47b0        .G      BLX      r6
        0x100018fc:    2101        .!      MOVS     r1,#1
        0x100018fe:    2020                MOVS     r0,#0x20
        0x10001900:    47b0        .G      BLX      r6
        0x10001902:    21ff        .!      MOVS     r1,#0xff
        0x10001904:    310c        .1      ADDS     r1,r1,#0xc
        0x10001906:    4668        hF      MOV      r0,sp
        0x10001908:    8001        ..      STRH     r1,[r0,#0]
        0x1000190a:    210b        .!      MOVS     r1,#0xb
        0x1000190c:    8041        A.      STRH     r1,[r0,#2]
        0x1000190e:    8085        ..      STRH     r5,[r0,#4]
        0x10001910:    80c5        ..      STRH     r5,[r0,#6]
        0x10001912:    8105        ..      STRH     r5,[r0,#8]
        0x10001914:    8145        E.      STRH     r5,[r0,#0xa]
        0x10001916:    8185        ..      STRH     r5,[r0,#0xc]
        0x10001918:    81c5        ..      STRH     r5,[r0,#0xe]
        0x1000191a:    482a        *H      LDR      r0,[pc,#168] ; [0x100019c4] = 0x10001801
        0x1000191c:    9004        ..      STR      r0,[sp,#0x10]
        0x1000191e:    492a        *I      LDR      r1,[pc,#168] ; [0x100019c8] = 0x438d
        0x10001920:    4668        hF      MOV      r0,sp
        0x10001922:    4788        .G      BLX      r1
        0x10001924:    68a0        .h      LDR      r0,[r4,#8]
        0x10001926:    300a        .0      ADDS     r0,r0,#0xa
        0x10001928:    f001fa6f    ..o.    BL       __aeabi_uread4 ; 0x10002e0a
        0x1000192c:    4a15        .J      LDR      r2,[pc,#84] ; [0x10001984] = 0x20003187
        0x1000192e:    4b27        'K      LDR      r3,[pc,#156] ; [0x100019cc] = 0x5359
        0x10001930:    3a57        W:      SUBS     r2,r2,#0x57
        0x10001932:    2157        W!      MOVS     r1,#0x57
        0x10001934:    4798        .G      BLX      r3
        0x10001936:    f001f9a8    ....    BL       STKSetRand ; 0x10002c8a
        0x1000193a:    2001        .       MOVS     r0,#1
        0x1000193c:    b005        ..      ADD      sp,sp,#0x14
        0x1000193e:    bdf0        ..      POP      {r4-r7,pc}
        0x10001940:    4823        #H      LDR      r0,[pc,#140] ; [0x100019d0] = 0x65bf
        0x10001942:    4780        .G      BLX      r0
        0x10001944:    4607        .F      MOV      r7,r0
        0x10001946:    6ae0        .j      LDR      r0,[r4,#0x2c]
        0x10001948:    7a81        .z      LDRB     r1,[r0,#0xa]
        0x1000194a:    07cd        ..      LSLS     r5,r1,#31
        0x1000194c:    7a81        .z      LDRB     r1,[r0,#0xa]
        0x1000194e:    0fed        ..      LSRS     r5,r5,#31
        0x10001950:    0849        I.      LSRS     r1,r1,#1
        0x10001952:    0049        I.      LSLS     r1,r1,#1
        0x10001954:    7281        .r      STRB     r1,[r0,#0xa]
        0x10001956:    4e1e        .N      LDR      r6,[pc,#120] ; [0x100019d0] = 0x65bf
        0x10001958:    2001        .       MOVS     r0,#1
        0x1000195a:    3e18        .>      SUBS     r6,r6,#0x18
        0x1000195c:    47b0        .G      BLX      r6
        0x1000195e:    2002        .       MOVS     r0,#2
        0x10001960:    f7fffb6a    ..j.    BL       _SYS32kClockSwitch ; 0x10001038
        0x10001964:    491b        .I      LDR      r1,[pc,#108] ; [0x100019d4] = 0x622b
        0x10001966:    2064        d       MOVS     r0,#0x64
        0x10001968:    4788        .G      BLX      r1
        0x1000196a:    2001        .       MOVS     r0,#1
        0x1000196c:    f7fffb64    ..d.    BL       _SYS32kClockSwitch ; 0x10001038
        0x10001970:    4638        8F      MOV      r0,r7
        0x10001972:    47b0        .G      BLX      r6
        0x10001974:    6ae0        .j      LDR      r0,[r4,#0x2c]
        0x10001976:    7a81        .z      LDRB     r1,[r0,#0xa]
        0x10001978:    0849        I.      LSRS     r1,r1,#1
        0x1000197a:    0049        I.      LSLS     r1,r1,#1
        0x1000197c:    4329        )C      ORRS     r1,r1,r5
        0x1000197e:    7281        .r      STRB     r1,[r0,#0xa]
        0x10001980:    e79c        ..      B        0x100018bc ; BleInit + 58
        0x10001982:    e029        ).      B        0x100019d8 ; BleInit + 342
    $d
        0x10001984:    20003187    .1.     DCD    536883591
        0x10001988:    20003068    h0.     DCD    536883304
        0x1000198c:    00004233    3B..    DCD    16947
        0x10001990:    000044b3    .D..    DCD    17587
        0x10001994:    000055bf    .U..    DCD    21951
        0x10001998:    3ff40000    ...?    DCD    1072955392
        0x1000199c:    40590000    ..Y@    DCD    1079574528
        0x100019a0:    100015d5    ....    DCD    268441045
        0x100019a4:    00003ea1    .>..    DCD    16033
        0x100019a8:    00005b5d    ][..    DCD    23389
        0x100019ac:    00005f47    G_..    DCD    24391
        0x100019b0:    00003d79    y=..    DCD    15737
        0x100019b4:    000046f7    .F..    DCD    18167
        0x100019b8:    10001875    u...    DCD    268441717
        0x100019bc:    10000caf    ....    DCD    268438703
        0x100019c0:    000002ce    ....    DCD    718
        0x100019c4:    10001801    ....    DCD    268441601
        0x100019c8:    0000438d    .C..    DCD    17293
        0x100019cc:    00005359    YS..    DCD    21337
        0x100019d0:    000065bf    .e..    DCD    26047
        0x100019d4:    0000622b    +b..    DCD    25131
    $t
        0x100019d8:    2002        .       MOVS     r0,#2
        0x100019da:    f7fffb2d    ..-.    BL       _SYS32kClockSwitch ; 0x10001038
        0x100019de:    e76d        m.      B        0x100018bc ; BleInit + 58
    DisConnect
        0x100019e0:    b510        ..      PUSH     {r4,lr}
        0x100019e2:    48f8        .H      LDR      r0,[pc,#992] ; [0x10001dc4] = 0x3d83
        0x100019e4:    4780        .G      BLX      r0
        0x100019e6:    2001        .       MOVS     r0,#1
        0x100019e8:    e425        %.      B        0x10001236 ; smart_latency_clear + 10
    SetDevAddr
        0x100019ea:    49f6        .I      LDR      r1,[pc,#984] ; [0x10001dc4] = 0x3d83
        0x100019ec:    b510        ..      PUSH     {r4,lr}
        0x100019ee:    311e        .1      ADDS     r1,r1,#0x1e
        0x100019f0:    4788        .G      BLX      r1
        0x100019f2:    2001        .       MOVS     r0,#1
        0x100019f4:    e41f        ..      B        0x10001236 ; smart_latency_clear + 10
    GetDevAddr
        0x100019f6:    49f3        .I      LDR      r1,[pc,#972] ; [0x10001dc4] = 0x3d83
        0x100019f8:    b510        ..      PUSH     {r4,lr}
        0x100019fa:    3154        T1      ADDS     r1,r1,#0x54
        0x100019fc:    4788        .G      BLX      r1
        0x100019fe:    2001        .       MOVS     r0,#1
        0x10001a00:    e419        ..      B        0x10001236 ; smart_latency_clear + 10
    SetLEFeature
        0x10001a02:    49f0        .I      LDR      r1,[pc,#960] ; [0x10001dc4] = 0x3d83
        0x10001a04:    b510        ..      PUSH     {r4,lr}
        0x10001a06:    3160        `1      ADDS     r1,r1,#0x60
        0x10001a08:    4788        .G      BLX      r1
        0x10001a0a:    2001        .       MOVS     r0,#1
        0x10001a0c:    e413        ..      B        0x10001236 ; smart_latency_clear + 10
    SetAdvAccCode
        0x10001a0e:    49ed        .I      LDR      r1,[pc,#948] ; [0x10001dc4] = 0x3d83
        0x10001a10:    b510        ..      PUSH     {r4,lr}
        0x10001a12:    316e        n1      ADDS     r1,r1,#0x6e
        0x10001a14:    4788        .G      BLX      r1
        0x10001a16:    2001        .       MOVS     r0,#1
        0x10001a18:    e40d        ..      B        0x10001236 ; smart_latency_clear + 10
    SetAdvParams
        0x10001a1a:    49ea        .I      LDR      r1,[pc,#936] ; [0x10001dc4] = 0x3d83
        0x10001a1c:    b510        ..      PUSH     {r4,lr}
        0x10001a1e:    317e        ~1      ADDS     r1,r1,#0x7e
        0x10001a20:    4788        .G      BLX      r1
        0x10001a22:    2001        .       MOVS     r0,#1
        0x10001a24:    e407        ..      B        0x10001236 ; smart_latency_clear + 10
    SetAdvData
        0x10001a26:    b510        ..      PUSH     {r4,lr}
        0x10001a28:    4ce6        .L      LDR      r4,[pc,#920] ; [0x10001dc4] = 0x3d83
        0x10001a2a:    34e6        .4      ADDS     r4,r4,#0xe6
        0x10001a2c:    47a0        .G      BLX      r4
        0x10001a2e:    2001        .       MOVS     r0,#1
        0x10001a30:    e6f9        ..      B        0x10001826 ; Lib_ProtocolHookCallback + 38
    _GAPStartAdv
        0x10001a32:    b5f8        ..      PUSH     {r3-r7,lr}
        0x10001a34:    4ce4        .L      LDR      r4,[pc,#912] ; [0x10001dc8] = 0x20003068
        0x10001a36:    49e5        .I      LDR      r1,[pc,#916] ; [0x10001dcc] = 0x57b1
        0x10001a38:    68e0        .h      LDR      r0,[r4,#0xc]
        0x10001a3a:    3037        70      ADDS     r0,r0,#0x37
        0x10001a3c:    4788        .G      BLX      r1
        0x10001a3e:    6920         i      LDR      r0,[r4,#0x10]
        0x10001a40:    233b        ;#      MOVS     r3,#0x3b
        0x10001a42:    7801        .x      LDRB     r1,[r0,#0]
        0x10001a44:    25bf        .%      MOVS     r5,#0xbf
        0x10001a46:    090a        ..      LSRS     r2,r1,#4
        0x10001a48:    68e1        .h      LDR      r1,[r4,#0xc]
        0x10001a4a:    0112        ..      LSLS     r2,r2,#4
        0x10001a4c:    5c5b        [\      LDRB     r3,[r3,r1]
        0x10001a4e:    071b        ..      LSLS     r3,r3,#28
        0x10001a50:    0f1b        ..      LSRS     r3,r3,#28
        0x10001a52:    431a        .C      ORRS     r2,r2,r3
        0x10001a54:    7002        .p      STRB     r2,[r0,#0]
        0x10001a56:    0712        ..      LSLS     r2,r2,#28
        0x10001a58:    0f12        ..      LSRS     r2,r2,#28
        0x10001a5a:    2a01        .*      CMP      r2,#1
        0x10001a5c:    d079        y.      BEQ      0x10001b52 ; _GAPStartAdv + 288
        0x10001a5e:    460b        .F      MOV      r3,r1
        0x10001a60:    3340        @3      ADDS     r3,r3,#0x40
        0x10001a62:    785a        Zx      LDRB     r2,[r3,#1]
        0x10001a64:    781b        .x      LDRB     r3,[r3,#0]
        0x10001a66:    0212        ..      LSLS     r2,r2,#8
        0x10001a68:    431a        .C      ORRS     r2,r2,r3
        0x10001a6a:    460b        .F      MOV      r3,r1
        0x10001a6c:    3342        B3      ADDS     r3,r3,#0x42
        0x10001a6e:    701a        .p      STRB     r2,[r3,#0]
        0x10001a70:    0a12        ..      LSRS     r2,r2,#8
        0x10001a72:    705a        Zp      STRB     r2,[r3,#1]
        0x10001a74:    7802        .x      LDRB     r2,[r0,#0]
        0x10001a76:    7a8b        .z      LDRB     r3,[r1,#0xa]
        0x10001a78:    402a        *@      ANDS     r2,r2,r5
        0x10001a7a:    019b        ..      LSLS     r3,r3,#6
        0x10001a7c:    431a        .C      ORRS     r2,r2,r3
        0x10001a7e:    0652        R.      LSLS     r2,r2,#25
        0x10001a80:    0e52        R.      LSRS     r2,r2,#25
        0x10001a82:    7002        .p      STRB     r2,[r0,#0]
        0x10001a84:    2366        f#      MOVS     r3,#0x66
        0x10001a86:    5c5b        [\      LDRB     r3,[r3,r1]
        0x10001a88:    7842        Bx      LDRB     r2,[r0,#1]
        0x10001a8a:    1d9b        ..      ADDS     r3,r3,#6
        0x10001a8c:    0992        ..      LSRS     r2,r2,#6
        0x10001a8e:    069b        ..      LSLS     r3,r3,#26
        0x10001a90:    0192        ..      LSLS     r2,r2,#6
        0x10001a92:    0e9b        ..      LSRS     r3,r3,#26
        0x10001a94:    431a        .C      ORRS     r2,r2,r3
        0x10001a96:    7042        Bp      STRB     r2,[r0,#1]
        0x10001a98:    2206        ."      MOVS     r2,#6
        0x10001a9a:    1c80        ..      ADDS     r0,r0,#2
        0x10001a9c:    310b        .1      ADDS     r1,r1,#0xb
        0x10001a9e:    f001f983    ....    BL       __aeabi_memcpy ; 0x10002da8
        0x10001aa2:    68e1        .h      LDR      r1,[r4,#0xc]
        0x10001aa4:    2066        f       MOVS     r0,#0x66
        0x10001aa6:    5c42        B\      LDRB     r2,[r0,r1]
        0x10001aa8:    2a00        .*      CMP      r2,#0
        0x10001aaa:    d004        ..      BEQ      0x10001ab6 ; _GAPStartAdv + 132
        0x10001aac:    6920         i      LDR      r0,[r4,#0x10]
        0x10001aae:    3167        g1      ADDS     r1,r1,#0x67
        0x10001ab0:    3008        .0      ADDS     r0,r0,#8
        0x10001ab2:    f001f979    ..y.    BL       __aeabi_memcpy ; 0x10002da8
        0x10001ab6:    68e0        .h      LDR      r0,[r4,#0xc]
        0x10001ab8:    2100        .!      MOVS     r1,#0
        0x10001aba:    3020         0      ADDS     r0,r0,#0x20
        0x10001abc:    7741        Aw      STRB     r1,[r0,#0x1d]
        0x10001abe:    6920         i      LDR      r0,[r4,#0x10]
        0x10001ac0:    4ac3        .J      LDR      r2,[pc,#780] ; [0x10001dd0] = 0x60d9
        0x10001ac2:    7841        Ax      LDRB     r1,[r0,#1]
        0x10001ac4:    0689        ..      LSLS     r1,r1,#26
        0x10001ac6:    0e89        ..      LSRS     r1,r1,#26
        0x10001ac8:    1c89        ..      ADDS     r1,r1,#2
        0x10001aca:    4790        .G      BLX      r2
        0x10001acc:    6920         i      LDR      r0,[r4,#0x10]
        0x10001ace:    7801        .x      LDRB     r1,[r0,#0]
        0x10001ad0:    090a        ..      LSRS     r2,r1,#4
        0x10001ad2:    0112        ..      LSLS     r2,r2,#4
        0x10001ad4:    1d12        ..      ADDS     r2,r2,#4
        0x10001ad6:    7002        .p      STRB     r2,[r0,#0]
        0x10001ad8:    68e1        .h      LDR      r1,[r4,#0xc]
        0x10001ada:    402a        *@      ANDS     r2,r2,r5
        0x10001adc:    7a8b        .z      LDRB     r3,[r1,#0xa]
        0x10001ade:    07db        ..      LSLS     r3,r3,#31
        0x10001ae0:    0e5b        [.      LSRS     r3,r3,#25
        0x10001ae2:    431a        .C      ORRS     r2,r2,r3
        0x10001ae4:    7002        .p      STRB     r2,[r0,#0]
        0x10001ae6:    2346        F#      MOVS     r3,#0x46
        0x10001ae8:    5c5b        [\      LDRB     r3,[r3,r1]
        0x10001aea:    7842        Bx      LDRB     r2,[r0,#1]
        0x10001aec:    1d9b        ..      ADDS     r3,r3,#6
        0x10001aee:    0992        ..      LSRS     r2,r2,#6
        0x10001af0:    069b        ..      LSLS     r3,r3,#26
        0x10001af2:    0192        ..      LSLS     r2,r2,#6
        0x10001af4:    0e9b        ..      LSRS     r3,r3,#26
        0x10001af6:    431a        .C      ORRS     r2,r2,r3
        0x10001af8:    7042        Bp      STRB     r2,[r0,#1]
        0x10001afa:    2206        ."      MOVS     r2,#6
        0x10001afc:    1c80        ..      ADDS     r0,r0,#2
        0x10001afe:    310b        .1      ADDS     r1,r1,#0xb
        0x10001b00:    f001f952    ..R.    BL       __aeabi_memcpy ; 0x10002da8
        0x10001b04:    68e1        .h      LDR      r1,[r4,#0xc]
        0x10001b06:    2046        F       MOVS     r0,#0x46
        0x10001b08:    5c42        B\      LDRB     r2,[r0,r1]
        0x10001b0a:    2a00        .*      CMP      r2,#0
        0x10001b0c:    d004        ..      BEQ      0x10001b18 ; _GAPStartAdv + 230
        0x10001b0e:    6920         i      LDR      r0,[r4,#0x10]
        0x10001b10:    3147        G1      ADDS     r1,r1,#0x47
        0x10001b12:    3008        .0      ADDS     r0,r0,#8
        0x10001b14:    f001f948    ..H.    BL       __aeabi_memcpy ; 0x10002da8
        0x10001b18:    6920         i      LDR      r0,[r4,#0x10]
        0x10001b1a:    4aad        .J      LDR      r2,[pc,#692] ; [0x10001dd0] = 0x60d9
        0x10001b1c:    7841        Ax      LDRB     r1,[r0,#1]
        0x10001b1e:    322c        ,2      ADDS     r2,r2,#0x2c
        0x10001b20:    0689        ..      LSLS     r1,r1,#26
        0x10001b22:    0e89        ..      LSRS     r1,r1,#26
        0x10001b24:    1c89        ..      ADDS     r1,r1,#2
        0x10001b26:    4790        .G      BLX      r2
        0x10001b28:    68e5        .h      LDR      r5,[r4,#0xc]
        0x10001b2a:    2701        .'      MOVS     r7,#1
        0x10001b2c:    462e        .F      MOV      r6,r5
        0x10001b2e:    3620         6      ADDS     r6,r6,#0x20
        0x10001b30:    7ef0        .~      LDRB     r0,[r6,#0x1b]
        0x10001b32:    2801        .(      CMP      r0,#1
        0x10001b34:    d03b        ;.      BEQ      0x10001bae ; _GAPStartAdv + 380
        0x10001b36:    2800        .(      CMP      r0,#0
        0x10001b38:    d04c        L.      BEQ      0x10001bd4 ; _GAPStartAdv + 418
        0x10001b3a:    2802        .(      CMP      r0,#2
        0x10001b3c:    d04a        J.      BEQ      0x10001bd4 ; _GAPStartAdv + 418
        0x10001b3e:    2806        .(      CMP      r0,#6
        0x10001b40:    d048        H.      BEQ      0x10001bd4 ; _GAPStartAdv + 418
        0x10001b42:    2300        .#      MOVS     r3,#0
        0x10001b44:    4ca3        .L      LDR      r4,[pc,#652] ; [0x10001dd4] = 0x3ea1
        0x10001b46:    461a        .F      MOV      r2,r3
        0x10001b48:    2101        .!      MOVS     r1,#1
        0x10001b4a:    4618        .F      MOV      r0,r3
        0x10001b4c:    47a0        .G      BLX      r4
        0x10001b4e:    bdf8        ..      POP      {r3-r7,pc}
        0x10001b50:    e7ff        ..      B        0x10001b52 ; _GAPStartAdv + 288
        0x10001b52:    460a        .F      MOV      r2,r1
        0x10001b54:    3240        @2      ADDS     r2,r2,#0x40
        0x10001b56:    7913        .y      LDRB     r3,[r2,#4]
        0x10001b58:    7153        Sq      STRB     r3,[r2,#5]
        0x10001b5a:    7a8b        .z      LDRB     r3,[r1,#0xa]
        0x10001b5c:    7802        .x      LDRB     r2,[r0,#0]
        0x10001b5e:    07db        ..      LSLS     r3,r3,#31
        0x10001b60:    402a        *@      ANDS     r2,r2,r5
        0x10001b62:    0e5b        [.      LSRS     r3,r3,#25
        0x10001b64:    431a        .C      ORRS     r2,r2,r3
        0x10001b66:    7002        .p      STRB     r2,[r0,#0]
        0x10001b68:    2387        .#      MOVS     r3,#0x87
        0x10001b6a:    5c5b        [\      LDRB     r3,[r3,r1]
        0x10001b6c:    0652        R.      LSLS     r2,r2,#25
        0x10001b6e:    0e52        R.      LSRS     r2,r2,#25
        0x10001b70:    01db        ..      LSLS     r3,r3,#7
        0x10001b72:    431a        .C      ORRS     r2,r2,r3
        0x10001b74:    7002        .p      STRB     r2,[r0,#0]
        0x10001b76:    7842        Bx      LDRB     r2,[r0,#1]
        0x10001b78:    310b        .1      ADDS     r1,r1,#0xb
        0x10001b7a:    0992        ..      LSRS     r2,r2,#6
        0x10001b7c:    0192        ..      LSLS     r2,r2,#6
        0x10001b7e:    320c        .2      ADDS     r2,r2,#0xc
        0x10001b80:    7042        Bp      STRB     r2,[r0,#1]
        0x10001b82:    2206        ."      MOVS     r2,#6
        0x10001b84:    1c80        ..      ADDS     r0,r0,#2
        0x10001b86:    f001f90f    ....    BL       __aeabi_memcpy ; 0x10002da8
        0x10001b8a:    6920         i      LDR      r0,[r4,#0x10]
        0x10001b8c:    68e1        .h      LDR      r1,[r4,#0xc]
        0x10001b8e:    2206        ."      MOVS     r2,#6
        0x10001b90:    3008        .0      ADDS     r0,r0,#8
        0x10001b92:    3188        .1      ADDS     r1,r1,#0x88
        0x10001b94:    f001f908    ....    BL       __aeabi_memcpy ; 0x10002da8
        0x10001b98:    68e1        .h      LDR      r1,[r4,#0xc]
        0x10001b9a:    2203        ."      MOVS     r2,#3
        0x10001b9c:    203d        =       MOVS     r0,#0x3d
        0x10001b9e:    5442        BT      STRB     r2,[r0,r1]
        0x10001ba0:    4a8a        .J      LDR      r2,[pc,#552] ; [0x10001dcc] = 0x57b1
        0x10001ba2:    2087        .       MOVS     r0,#0x87
        0x10001ba4:    5c40        @\      LDRB     r0,[r0,r1]
        0x10001ba6:    3a32        2:      SUBS     r2,r2,#0x32
        0x10001ba8:    3188        .1      ADDS     r1,r1,#0x88
        0x10001baa:    4790        .G      BLX      r2
        0x10001bac:    e787        ..      B        0x10001abe ; _GAPStartAdv + 140
        0x10001bae:    3540        @5      ADDS     r5,r5,#0x40
        0x10001bb0:    7968        hy      LDRB     r0,[r5,#5]
        0x10001bb2:    2800        .(      CMP      r0,#0
        0x10001bb4:    d00a        ..      BEQ      0x10001bcc ; _GAPStartAdv + 410
        0x10001bb6:    2028        (       MOVS     r0,#0x28
        0x10001bb8:    2106        .!      MOVS     r1,#6
        0x10001bba:    6aa2        .j      LDR      r2,[r4,#0x28]
        0x10001bbc:    7e93        .~      LDRB     r3,[r2,#0x1a]
        0x10001bbe:    24fd        .$      MOVS     r4,#0xfd
        0x10001bc0:    4023        #@      ANDS     r3,r3,r4
        0x10001bc2:    7693        .v      STRB     r3,[r2,#0x1a]
        0x10001bc4:    7517        .u      STRB     r7,[r2,#0x14]
        0x10001bc6:    7f73        s.      LDRB     r3,[r6,#0x1d]
        0x10001bc8:    7f32        2.      LDRB     r2,[r6,#0x1c]
        0x10001bca:    e03a        :.      B        0x10001c42 ; _GAPStartAdv + 528
        0x10001bcc:    2001        .       MOVS     r0,#1
        0x10001bce:    716f        oq      STRB     r7,[r5,#5]
        0x10001bd0:    4601        .F      MOV      r1,r0
        0x10001bd2:    e7f2        ..      B        0x10001bba ; _GAPStartAdv + 392
        0x10001bd4:    462c        ,F      MOV      r4,r5
        0x10001bd6:    3442        B4      ADDS     r4,r4,#0x42
        0x10001bd8:    7860        `x      LDRB     r0,[r4,#1]
        0x10001bda:    7821        !x      LDRB     r1,[r4,#0]
        0x10001bdc:    0202        ..      LSLS     r2,r0,#8
        0x10001bde:    430a        .C      ORRS     r2,r2,r1
        0x10001be0:    d016        ..      BEQ      0x10001c10 ; _GAPStartAdv + 478
        0x10001be2:    3522        "5      ADDS     r5,r5,#0x22
        0x10001be4:    7f69        i.      LDRB     r1,[r5,#0x1d]
        0x10001be6:    2019        .       MOVS     r0,#0x19
        0x10001be8:    7f2b        +.      LDRB     r3,[r5,#0x1c]
        0x10001bea:    0180        ..      LSLS     r0,r0,#6
        0x10001bec:    0209        ..      LSLS     r1,r1,#8
        0x10001bee:    4342        BC      MULS     r2,r0,r2
        0x10001bf0:    4319        .C      ORRS     r1,r1,r3
        0x10001bf2:    2001        .       MOVS     r0,#1
        0x10001bf4:    0489        ..      LSLS     r1,r1,#18
        0x10001bf6:    0c89        ..      LSRS     r1,r1,#18
        0x10001bf8:    9100        ..      STR      r1,[sp,#0]
        0x10001bfa:    d005        ..      BEQ      0x10001c08 ; _GAPStartAdv + 470
        0x10001bfc:    4610        .F      MOV      r0,r2
        0x10001bfe:    f001f8a9    ....    BL       __aeabi_uidiv ; 0x10002d54
        0x10001c02:    1c40        @.      ADDS     r0,r0,#1
        0x10001c04:    287f        .(      CMP      r0,#0x7f
        0x10001c06:    d809        ..      BHI      0x10001c1c ; _GAPStartAdv + 490
        0x10001c08:    b2c5        ..      UXTB     r5,r0
        0x10001c0a:    7027        'p      STRB     r7,[r4,#0]
        0x10001c0c:    0a38        8.      LSRS     r0,r7,#8
        0x10001c0e:    e00c        ..      B        0x10001c2a ; _GAPStartAdv + 504
        0x10001c10:    0a38        8.      LSRS     r0,r7,#8
        0x10001c12:    7027        'p      STRB     r7,[r4,#0]
        0x10001c14:    7060        `p      STRB     r0,[r4,#1]
        0x10001c16:    2501        .%      MOVS     r5,#1
        0x10001c18:    9500        ..      STR      r5,[sp,#0]
        0x10001c1a:    e007        ..      B        0x10001c2c ; _GAPStartAdv + 506
        0x10001c1c:    257f        .%      MOVS     r5,#0x7f
        0x10001c1e:    4629        )F      MOV      r1,r5
        0x10001c20:    307e        ~0      ADDS     r0,r0,#0x7e
        0x10001c22:    f001f897    ....    BL       __aeabi_uidiv ; 0x10002d54
        0x10001c26:    7020         p      STRB     r0,[r4,#0]
        0x10001c28:    0a00        ..      LSRS     r0,r0,#8
        0x10001c2a:    7060        `p      STRB     r0,[r4,#1]
        0x10001c2c:    4866        fH      LDR      r0,[pc,#408] ; [0x10001dc8] = 0x20003068
        0x10001c2e:    6a80        .j      LDR      r0,[r0,#0x28]
        0x10001c30:    7e81        .~      LDRB     r1,[r0,#0x1a]
        0x10001c32:    2202        ."      MOVS     r2,#2
        0x10001c34:    4311        .C      ORRS     r1,r1,r2
        0x10001c36:    7681        .v      STRB     r1,[r0,#0x1a]
        0x10001c38:    7507        .u      STRB     r7,[r0,#0x14]
        0x10001c3a:    7f73        s.      LDRB     r3,[r6,#0x1d]
        0x10001c3c:    7f32        2.      LDRB     r2,[r6,#0x1c]
        0x10001c3e:    9900        ..      LDR      r1,[sp,#0]
        0x10001c40:    4628        (F      MOV      r0,r5
        0x10001c42:    4c65        eL      LDR      r4,[pc,#404] ; [0x10001dd8] = 0x565f
        0x10001c44:    47a0        .G      BLX      r4
        0x10001c46:    4864        dH      LDR      r0,[pc,#400] ; [0x10001dd8] = 0x565f
        0x10001c48:    303e        >0      ADDS     r0,r0,#0x3e
        0x10001c4a:    4780        .G      BLX      r0
        0x10001c4c:    e77f        ..      B        0x10001b4e ; _GAPStartAdv + 284
    StartAdv
        0x10001c4e:    b510        ..      PUSH     {r4,lr}
        0x10001c50:    f7fffeef    ....    BL       _GAPStartAdv ; 0x10001a32
        0x10001c54:    2001        .       MOVS     r0,#1
        0x10001c56:    e5e6        ..      B        0x10001826 ; Lib_ProtocolHookCallback + 38
    StopAdv
        0x10001c58:    b510        ..      PUSH     {r4,lr}
        0x10001c5a:    4960        `I      LDR      r1,[pc,#384] ; [0x10001ddc] = 0x40020000
        0x10001c5c:    2003        .       MOVS     r0,#3
        0x10001c5e:    7008        .p      STRB     r0,[r1,#0]
        0x10001c60:    495f        _I      LDR      r1,[pc,#380] ; [0x10001de0] = 0x6245
        0x10001c62:    2064        d       MOVS     r0,#0x64
        0x10001c64:    4788        .G      BLX      r1
        0x10001c66:    485f        _H      LDR      r0,[pc,#380] ; [0x10001de4] = 0x4707
        0x10001c68:    4780        .G      BLX      r0
        0x10001c6a:    2001        .       MOVS     r0,#1
        0x10001c6c:    e5db        ..      B        0x10001826 ; Lib_ProtocolHookCallback + 38
    StopAdv_Noreset
        0x10001c6e:    b672        r.      CPSID    i
        0x10001c70:    2100        .!      MOVS     r1,#0
        0x10001c72:    4a55        UJ      LDR      r2,[pc,#340] ; [0x10001dc8] = 0x20003068
        0x10001c74:    6a90        .j      LDR      r0,[r2,#0x28]
        0x10001c76:    7541        Au      STRB     r1,[r0,#0x15]
        0x10001c78:    7c03        .|      LDRB     r3,[r0,#0x10]
        0x10001c7a:    2101        .!      MOVS     r1,#1
        0x10001c7c:    430b        .C      ORRS     r3,r3,r1
        0x10001c7e:    7403        .t      STRB     r3,[r0,#0x10]
        0x10001c80:    68d0        .h      LDR      r0,[r2,#0xc]
        0x10001c82:    2245        E"      MOVS     r2,#0x45
        0x10001c84:    5411        .T      STRB     r1,[r2,r0]
        0x10001c86:    3042        B0      ADDS     r0,r0,#0x42
        0x10001c88:    7001        .p      STRB     r1,[r0,#0]
        0x10001c8a:    2100        .!      MOVS     r1,#0
        0x10001c8c:    7041        Ap      STRB     r1,[r0,#1]
        0x10001c8e:    b662        b.      CPSIE    i
        0x10001c90:    2001        .       MOVS     r0,#1
        0x10001c92:    4770        pG      BX       lr
    SetScanParams
        0x10001c94:    b510        ..      PUSH     {r4,lr}
        0x10001c96:    4954        TI      LDR      r1,[pc,#336] ; [0x10001de8] = 0x4101
        0x10001c98:    4788        .G      BLX      r1
        0x10001c9a:    2001        .       MOVS     r0,#1
        0x10001c9c:    e5c3        ..      B        0x10001826 ; Lib_ProtocolHookCallback + 38
    StartScan
        0x10001c9e:    4852        RH      LDR      r0,[pc,#328] ; [0x10001de8] = 0x4101
        0x10001ca0:    b510        ..      PUSH     {r4,lr}
        0x10001ca2:    305c        \0      ADDS     r0,r0,#0x5c
        0x10001ca4:    4780        .G      BLX      r0
        0x10001ca6:    2001        .       MOVS     r0,#1
        0x10001ca8:    e5bd        ..      B        0x10001826 ; Lib_ProtocolHookCallback + 38
    StopScan
        0x10001caa:    b510        ..      PUSH     {r4,lr}
        0x10001cac:    484f        OH      LDR      r0,[pc,#316] ; [0x10001dec] = 0x421d
        0x10001cae:    4780        .G      BLX      r0
        0x10001cb0:    2001        .       MOVS     r0,#1
        0x10001cb2:    e5b8        ..      B        0x10001826 ; Lib_ProtocolHookCallback + 38
    SetSecParams
        0x10001cb4:    494d        MI      LDR      r1,[pc,#308] ; [0x10001dec] = 0x421d
        0x10001cb6:    b510        ..      PUSH     {r4,lr}
        0x10001cb8:    3108        .1      ADDS     r1,r1,#8
        0x10001cba:    4788        .G      BLX      r1
        0x10001cbc:    2001        .       MOVS     r0,#1
        0x10001cbe:    e5b2        ..      B        0x10001826 ; Lib_ProtocolHookCallback + 38
    SetConnectionUpdate
        0x10001cc0:    494a        JI      LDR      r1,[pc,#296] ; [0x10001dec] = 0x421d
        0x10001cc2:    b510        ..      PUSH     {r4,lr}
        0x10001cc4:    3116        .1      ADDS     r1,r1,#0x16
        0x10001cc6:    4788        .G      BLX      r1
        0x10001cc8:    2001        .       MOVS     r0,#1
        0x10001cca:    e5ac        ..      B        0x10001826 ; Lib_ProtocolHookCallback + 38
    GetLinkParameters
        0x10001ccc:    4947        GI      LDR      r1,[pc,#284] ; [0x10001dec] = 0x421d
        0x10001cce:    b510        ..      PUSH     {r4,lr}
        0x10001cd0:    3178        x1      ADDS     r1,r1,#0x78
        0x10001cd2:    4788        .G      BLX      r1
        0x10001cd4:    2001        .       MOVS     r0,#1
        0x10001cd6:    e5a6        ..      B        0x10001826 ; Lib_ProtocolHookCallback + 38
    SetWinWideMinusCnt
        0x10001cd8:    493b        ;I      LDR      r1,[pc,#236] ; [0x10001dc8] = 0x20003068
        0x10001cda:    7048        Hp      STRB     r0,[r1,#1]
        0x10001cdc:    2001        .       MOVS     r0,#1
        0x10001cde:    4770        pG      BX       lr
    SetPasskey
        0x10001ce0:    4942        BI      LDR      r1,[pc,#264] ; [0x10001dec] = 0x421d
        0x10001ce2:    b510        ..      PUSH     {r4,lr}
        0x10001ce4:    3186        .1      ADDS     r1,r1,#0x86
        0x10001ce6:    4788        .G      BLX      r1
        0x10001ce8:    2001        .       MOVS     r0,#1
        0x10001cea:    e59c        ..      B        0x10001826 ; Lib_ProtocolHookCallback + 38
    SecurityReq
        0x10001cec:    4a3f        ?J      LDR      r2,[pc,#252] ; [0x10001dec] = 0x421d
        0x10001cee:    b510        ..      PUSH     {r4,lr}
        0x10001cf0:    328e        .2      ADDS     r2,r2,#0x8e
        0x10001cf2:    4790        .G      BLX      r2
        0x10001cf4:    2001        .       MOVS     r0,#1
        0x10001cf6:    e596        ..      B        0x10001826 ; Lib_ProtocolHookCallback + 38
    SetEvtCallback
        0x10001cf8:    b57c        |.      PUSH     {r2-r6,lr}
        0x10001cfa:    4605        .F      MOV      r5,r0
        0x10001cfc:    f001f885    ....    BL       __aeabi_uread4 ; 0x10002e0a
        0x10001d00:    4931        1I      LDR      r1,[pc,#196] ; [0x10001dc8] = 0x20003068
        0x10001d02:    4604        .F      MOV      r4,r0
        0x10001d04:    3134        41      ADDS     r1,r1,#0x34
        0x10001d06:    f001f88a    ....    BL       __aeabi_uwrite4 ; 0x10002e1e
        0x10001d0a:    1d28        (.      ADDS     r0,r5,#4
        0x10001d0c:    f001f87d    ..}.    BL       __aeabi_uread4 ; 0x10002e0a
        0x10001d10:    492d        -I      LDR      r1,[pc,#180] ; [0x10001dc8] = 0x20003068
        0x10001d12:    3138        81      ADDS     r1,r1,#0x38
        0x10001d14:    f001f883    ....    BL       __aeabi_uwrite4 ; 0x10002e1e
        0x10001d18:    2040        @       MOVS     r0,#0x40
        0x10001d1a:    4384        .C      BICS     r4,r4,r0
        0x10001d1c:    4834        4H      LDR      r0,[pc,#208] ; [0x10001df0] = 0x10001239
        0x10001d1e:    4933        3I      LDR      r1,[pc,#204] ; [0x10001dec] = 0x421d
        0x10001d20:    9001        ..      STR      r0,[sp,#4]
        0x10001d22:    9400        ..      STR      r4,[sp,#0]
        0x10001d24:    4668        hF      MOV      r0,sp
        0x10001d26:    3196        .1      ADDS     r1,r1,#0x96
        0x10001d28:    4788        .G      BLX      r1
        0x10001d2a:    2001        .       MOVS     r0,#1
        0x10001d2c:    bd7c        |.      POP      {r2-r6,pc}
    GetGATTReportHandle
        0x10001d2e:    b510        ..      PUSH     {r4,lr}
        0x10001d30:    4930        0I      LDR      r1,[pc,#192] ; [0x10001df4] = 0x432d
        0x10001d32:    4788        .G      BLX      r1
        0x10001d34:    2001        .       MOVS     r0,#1
        0x10001d36:    e576        v.      B        0x10001826 ; Lib_ProtocolHookCallback + 38
    SetGATTReadRsp
        0x10001d38:    4a2e        .J      LDR      r2,[pc,#184] ; [0x10001df4] = 0x432d
        0x10001d3a:    b510        ..      PUSH     {r4,lr}
        0x10001d3c:    3208        .2      ADDS     r2,r2,#8
        0x10001d3e:    4790        .G      BLX      r2
        0x10001d40:    2001        .       MOVS     r0,#1
        0x10001d42:    e570        p.      B        0x10001826 ; Lib_ProtocolHookCallback + 38
    CheckFIFOFull
        0x10001d44:    b510        ..      PUSH     {r4,lr}
        0x10001d46:    482c        ,H      LDR      r0,[pc,#176] ; [0x10001df8] = 0x4e2b
        0x10001d48:    4780        .G      BLX      r0
        0x10001d4a:    2802        .(      CMP      r0,#2
        0x10001d4c:    d901        ..      BLS      0x10001d52 ; CheckFIFOFull + 14
        0x10001d4e:    2000        .       MOVS     r0,#0
        0x10001d50:    e569        i.      B        0x10001826 ; Lib_ProtocolHookCallback + 38
        0x10001d52:    2001        .       MOVS     r0,#1
        0x10001d54:    e567        g.      B        0x10001826 ; Lib_ProtocolHookCallback + 38
    GATTDataSend
        0x10001d56:    b5f8        ..      PUSH     {r3-r7,lr}
        0x10001d58:    460e        .F      MOV      r6,r1
        0x10001d5a:    4928        (I      LDR      r1,[pc,#160] ; [0x10001dfc] = 0x20003187
        0x10001d5c:    4607        .F      MOV      r7,r0
        0x10001d5e:    7848        Hx      LDRB     r0,[r1,#1]
        0x10001d60:    7809        .x      LDRB     r1,[r1,#0]
        0x10001d62:    0200        ..      LSLS     r0,r0,#8
        0x10001d64:    4308        .C      ORRS     r0,r0,r1
        0x10001d66:    461c        .F      MOV      r4,r3
        0x10001d68:    4615        .F      MOV      r5,r2
        0x10001d6a:    0680        ..      LSLS     r0,r0,#26
        0x10001d6c:    d509        ..      BPL      0x10001d82 ; GATTDataSend + 44
        0x10001d6e:    4816        .H      LDR      r0,[pc,#88] ; [0x10001dc8] = 0x20003068
        0x10001d70:    6a80        .j      LDR      r0,[r0,#0x28]
        0x10001d72:    3020         0      ADDS     r0,r0,#0x20
        0x10001d74:    7b41        A{      LDRB     r1,[r0,#0xd]
        0x10001d76:    7b02        .{      LDRB     r2,[r0,#0xc]
        0x10001d78:    0208        ..      LSLS     r0,r1,#8
        0x10001d7a:    4310        .C      ORRS     r0,r0,r2
        0x10001d7c:    d001        ..      BEQ      0x10001d82 ; GATTDataSend + 44
        0x10001d7e:    f7fff866    ..f.    BL       smart_latency_start ; 0x10000e4e
        0x10001d82:    491f        .I      LDR      r1,[pc,#124] ; [0x10001e00] = 0xaf5
        0x10001d84:    2001        .       MOVS     r0,#1
        0x10001d86:    4788        .G      BLX      r1
        0x10001d88:    2800        .(      CMP      r0,#0
        0x10001d8a:    d00a        ..      BEQ      0x10001da2 ; GATTDataSend + 76
        0x10001d8c:    481a        .H      LDR      r0,[pc,#104] ; [0x10001df8] = 0x4e2b
        0x10001d8e:    4780        .G      BLX      r0
        0x10001d90:    2802        .(      CMP      r0,#2
        0x10001d92:    d907        ..      BLS      0x10001da4 ; GATTDataSend + 78
        0x10001d94:    4623        #F      MOV      r3,r4
        0x10001d96:    4c17        .L      LDR      r4,[pc,#92] ; [0x10001df4] = 0x432d
        0x10001d98:    462a        *F      MOV      r2,r5
        0x10001d9a:    4631        1F      MOV      r1,r6
        0x10001d9c:    4638        8F      MOV      r0,r7
        0x10001d9e:    3418        .4      ADDS     r4,r4,#0x18
        0x10001da0:    47a0        .G      BLX      r4
        0x10001da2:    e6d4        ..      B        0x10001b4e ; _GAPStartAdv + 284
        0x10001da4:    2000        .       MOVS     r0,#0
        0x10001da6:    e6d2        ..      B        0x10001b4e ; _GAPStartAdv + 284
    ATTCSetCallback
        0x10001da8:    4916        .I      LDR      r1,[pc,#88] ; [0x10001e04] = 0x3ab7
        0x10001daa:    4708        .G      BX       r1
    ATTCMTUReq
        0x10001dac:    b510        ..      PUSH     {r4,lr}
        0x10001dae:    4604        .F      MOV      r4,r0
        0x10001db0:    4913        .I      LDR      r1,[pc,#76] ; [0x10001e00] = 0xaf5
        0x10001db2:    2001        .       MOVS     r0,#1
        0x10001db4:    4788        .G      BLX      r1
        0x10001db6:    2800        .(      CMP      r0,#0
        0x10001db8:    d003        ..      BEQ      0x10001dc2 ; ATTCMTUReq + 22
        0x10001dba:    4912        .I      LDR      r1,[pc,#72] ; [0x10001e04] = 0x3ab7
        0x10001dbc:    4620         F      MOV      r0,r4
        0x10001dbe:    3108        .1      ADDS     r1,r1,#8
        0x10001dc0:    4788        .G      BLX      r1
        0x10001dc2:    e530        0.      B        0x10001826 ; Lib_ProtocolHookCallback + 38
    $d
        0x10001dc4:    00003d83    .=..    DCD    15747
        0x10001dc8:    20003068    h0.     DCD    536883304
        0x10001dcc:    000057b1    .W..    DCD    22449
        0x10001dd0:    000060d9    .`..    DCD    24793
        0x10001dd4:    00003ea1    .>..    DCD    16033
        0x10001dd8:    0000565f    _V..    DCD    22111
        0x10001ddc:    40020000    ...@    DCD    1073872896
        0x10001de0:    00006245    Eb..    DCD    25157
        0x10001de4:    00004707    .G..    DCD    18183
        0x10001de8:    00004101    .A..    DCD    16641
        0x10001dec:    0000421d    .B..    DCD    16925
        0x10001df0:    10001239    9...    DCD    268440121
        0x10001df4:    0000432d    -C..    DCD    17197
        0x10001df8:    00004e2b    +N..    DCD    20011
        0x10001dfc:    20003187    .1.     DCD    536883591
        0x10001e00:    00000af5    ....    DCD    2805
        0x10001e04:    00003ab7    .:..    DCD    15031
    $t
    ATTCFindInfoReq
        0x10001e08:    b570        p.      PUSH     {r4-r6,lr}
        0x10001e0a:    4605        .F      MOV      r5,r0
        0x10001e0c:    4afb        .J      LDR      r2,[pc,#1004] ; [0x100021fc] = 0xaf5
        0x10001e0e:    460c        .F      MOV      r4,r1
        0x10001e10:    2001        .       MOVS     r0,#1
        0x10001e12:    4790        .G      BLX      r2
        0x10001e14:    2800        .(      CMP      r0,#0
        0x10001e16:    d003        ..      BEQ      0x10001e20 ; ATTCFindInfoReq + 24
        0x10001e18:    4af9        .J      LDR      r2,[pc,#996] ; [0x10002200] = 0x3ad9
        0x10001e1a:    4621        !F      MOV      r1,r4
        0x10001e1c:    4628        (F      MOV      r0,r5
        0x10001e1e:    4790        .G      BLX      r2
        0x10001e20:    bd70        p.      POP      {r4-r6,pc}
    ATTCFindByTypeValueReq
        0x10001e22:    b5ff        ..      PUSH     {r0-r7,lr}
        0x10001e24:    460f        .F      MOV      r7,r1
        0x10001e26:    b081        ..      SUB      sp,sp,#4
        0x10001e28:    49f4        .I      LDR      r1,[pc,#976] ; [0x100021fc] = 0xaf5
        0x10001e2a:    461d        .F      MOV      r5,r3
        0x10001e2c:    4616        .F      MOV      r6,r2
        0x10001e2e:    2001        .       MOVS     r0,#1
        0x10001e30:    9c0a        ..      LDR      r4,[sp,#0x28]
        0x10001e32:    4788        .G      BLX      r1
        0x10001e34:    2800        .(      CMP      r0,#0
        0x10001e36:    d007        ..      BEQ      0x10001e48 ; ATTCFindByTypeValueReq + 38
        0x10001e38:    9400        ..      STR      r4,[sp,#0]
        0x10001e3a:    4cf1        .L      LDR      r4,[pc,#964] ; [0x10002200] = 0x3ad9
        0x10001e3c:    462b        +F      MOV      r3,r5
        0x10001e3e:    4632        2F      MOV      r2,r6
        0x10001e40:    4639        9F      MOV      r1,r7
        0x10001e42:    3422        "4      ADDS     r4,r4,#0x22
        0x10001e44:    9801        ..      LDR      r0,[sp,#4]
        0x10001e46:    47a0        .G      BLX      r4
        0x10001e48:    e578        x.      B        0x1000193c ; BleInit + 186
    ATTCReadByTypeReq
        0x10001e4a:    b5f8        ..      PUSH     {r3-r7,lr}
        0x10001e4c:    460e        .F      MOV      r6,r1
        0x10001e4e:    4607        .F      MOV      r7,r0
        0x10001e50:    49ea        .I      LDR      r1,[pc,#936] ; [0x100021fc] = 0xaf5
        0x10001e52:    461c        .F      MOV      r4,r3
        0x10001e54:    4615        .F      MOV      r5,r2
        0x10001e56:    2001        .       MOVS     r0,#1
        0x10001e58:    4788        .G      BLX      r1
        0x10001e5a:    2800        .(      CMP      r0,#0
        0x10001e5c:    d006        ..      BEQ      0x10001e6c ; ATTCReadByTypeReq + 34
        0x10001e5e:    4623        #F      MOV      r3,r4
        0x10001e60:    4ce7        .L      LDR      r4,[pc,#924] ; [0x10002200] = 0x3ad9
        0x10001e62:    462a        *F      MOV      r2,r5
        0x10001e64:    4631        1F      MOV      r1,r6
        0x10001e66:    4638        8F      MOV      r0,r7
        0x10001e68:    345a        Z4      ADDS     r4,r4,#0x5a
        0x10001e6a:    47a0        .G      BLX      r4
        0x10001e6c:    e66f        o.      B        0x10001b4e ; _GAPStartAdv + 284
    ATTCReadReq
        0x10001e6e:    b510        ..      PUSH     {r4,lr}
        0x10001e70:    4604        .F      MOV      r4,r0
        0x10001e72:    49e2        .I      LDR      r1,[pc,#904] ; [0x100021fc] = 0xaf5
        0x10001e74:    2001        .       MOVS     r0,#1
        0x10001e76:    4788        .G      BLX      r1
        0x10001e78:    2800        .(      CMP      r0,#0
        0x10001e7a:    d003        ..      BEQ      0x10001e84 ; ATTCReadReq + 22
        0x10001e7c:    49e0        .I      LDR      r1,[pc,#896] ; [0x10002200] = 0x3ad9
        0x10001e7e:    4620         F      MOV      r0,r4
        0x10001e80:    318a        .1      ADDS     r1,r1,#0x8a
        0x10001e82:    4788        .G      BLX      r1
        0x10001e84:    e4cf        ..      B        0x10001826 ; Lib_ProtocolHookCallback + 38
    ATTCReadBlobReq
        0x10001e86:    b570        p.      PUSH     {r4-r6,lr}
        0x10001e88:    4605        .F      MOV      r5,r0
        0x10001e8a:    4adc        .J      LDR      r2,[pc,#880] ; [0x100021fc] = 0xaf5
        0x10001e8c:    460c        .F      MOV      r4,r1
        0x10001e8e:    2001        .       MOVS     r0,#1
        0x10001e90:    4790        .G      BLX      r2
        0x10001e92:    2800        .(      CMP      r0,#0
        0x10001e94:    d004        ..      BEQ      0x10001ea0 ; ATTCReadBlobReq + 26
        0x10001e96:    4ada        .J      LDR      r2,[pc,#872] ; [0x10002200] = 0x3ad9
        0x10001e98:    4621        !F      MOV      r1,r4
        0x10001e9a:    4628        (F      MOV      r0,r5
        0x10001e9c:    32a4        .2      ADDS     r2,r2,#0xa4
        0x10001e9e:    4790        .G      BLX      r2
        0x10001ea0:    bd70        p.      POP      {r4-r6,pc}
    ATTCReadMultipleReq
        0x10001ea2:    b570        p.      PUSH     {r4-r6,lr}
        0x10001ea4:    4605        .F      MOV      r5,r0
        0x10001ea6:    4ad5        .J      LDR      r2,[pc,#852] ; [0x100021fc] = 0xaf5
        0x10001ea8:    460c        .F      MOV      r4,r1
        0x10001eaa:    2001        .       MOVS     r0,#1
        0x10001eac:    4790        .G      BLX      r2
        0x10001eae:    2800        .(      CMP      r0,#0
        0x10001eb0:    d004        ..      BEQ      0x10001ebc ; ATTCReadMultipleReq + 26
        0x10001eb2:    4ad3        .J      LDR      r2,[pc,#844] ; [0x10002200] = 0x3ad9
        0x10001eb4:    4621        !F      MOV      r1,r4
        0x10001eb6:    4628        (F      MOV      r0,r5
        0x10001eb8:    32c6        .2      ADDS     r2,r2,#0xc6
        0x10001eba:    4790        .G      BLX      r2
        0x10001ebc:    bd70        p.      POP      {r4-r6,pc}
    ATTCReadByGroupTypeReq
        0x10001ebe:    b5f8        ..      PUSH     {r3-r7,lr}
        0x10001ec0:    460e        .F      MOV      r6,r1
        0x10001ec2:    4607        .F      MOV      r7,r0
        0x10001ec4:    49cd        .I      LDR      r1,[pc,#820] ; [0x100021fc] = 0xaf5
        0x10001ec6:    461c        .F      MOV      r4,r3
        0x10001ec8:    4615        .F      MOV      r5,r2
        0x10001eca:    2001        .       MOVS     r0,#1
        0x10001ecc:    4788        .G      BLX      r1
        0x10001ece:    2800        .(      CMP      r0,#0
        0x10001ed0:    d006        ..      BEQ      0x10001ee0 ; ATTCReadByGroupTypeReq + 34
        0x10001ed2:    4623        #F      MOV      r3,r4
        0x10001ed4:    4cca        .L      LDR      r4,[pc,#808] ; [0x10002200] = 0x3ad9
        0x10001ed6:    462a        *F      MOV      r2,r5
        0x10001ed8:    4631        1F      MOV      r1,r6
        0x10001eda:    4638        8F      MOV      r0,r7
        0x10001edc:    34e2        .4      ADDS     r4,r4,#0xe2
        0x10001ede:    47a0        .G      BLX      r4
        0x10001ee0:    e635        5.      B        0x10001b4e ; _GAPStartAdv + 284
    ATTCWriteReq
        0x10001ee2:    b570        p.      PUSH     {r4-r6,lr}
        0x10001ee4:    460d        .F      MOV      r5,r1
        0x10001ee6:    4606        .F      MOV      r6,r0
        0x10001ee8:    49c4        .I      LDR      r1,[pc,#784] ; [0x100021fc] = 0xaf5
        0x10001eea:    4614        .F      MOV      r4,r2
        0x10001eec:    2001        .       MOVS     r0,#1
        0x10001eee:    4788        .G      BLX      r1
        0x10001ef0:    2800        .(      CMP      r0,#0
        0x10001ef2:    d004        ..      BEQ      0x10001efe ; ATTCWriteReq + 28
        0x10001ef4:    4bc3        .K      LDR      r3,[pc,#780] ; [0x10002204] = 0x3beb
        0x10001ef6:    4622        "F      MOV      r2,r4
        0x10001ef8:    4629        )F      MOV      r1,r5
        0x10001efa:    4630        0F      MOV      r0,r6
        0x10001efc:    4798        .G      BLX      r3
        0x10001efe:    bd70        p.      POP      {r4-r6,pc}
    ATTCWriteCmdReq
        0x10001f00:    b570        p.      PUSH     {r4-r6,lr}
        0x10001f02:    460d        .F      MOV      r5,r1
        0x10001f04:    4606        .F      MOV      r6,r0
        0x10001f06:    49bd        .I      LDR      r1,[pc,#756] ; [0x100021fc] = 0xaf5
        0x10001f08:    4614        .F      MOV      r4,r2
        0x10001f0a:    2001        .       MOVS     r0,#1
        0x10001f0c:    4788        .G      BLX      r1
        0x10001f0e:    2800        .(      CMP      r0,#0
        0x10001f10:    d005        ..      BEQ      0x10001f1e ; ATTCWriteCmdReq + 30
        0x10001f12:    4bbc        .K      LDR      r3,[pc,#752] ; [0x10002204] = 0x3beb
        0x10001f14:    4622        "F      MOV      r2,r4
        0x10001f16:    4629        )F      MOV      r1,r5
        0x10001f18:    4630        0F      MOV      r0,r6
        0x10001f1a:    332c        ,3      ADDS     r3,r3,#0x2c
        0x10001f1c:    4798        .G      BLX      r3
        0x10001f1e:    bd70        p.      POP      {r4-r6,pc}
    ATTCPrepareWriteReq
        0x10001f20:    b5f8        ..      PUSH     {r3-r7,lr}
        0x10001f22:    460e        .F      MOV      r6,r1
        0x10001f24:    4607        .F      MOV      r7,r0
        0x10001f26:    49b5        .I      LDR      r1,[pc,#724] ; [0x100021fc] = 0xaf5
        0x10001f28:    461c        .F      MOV      r4,r3
        0x10001f2a:    4615        .F      MOV      r5,r2
        0x10001f2c:    2001        .       MOVS     r0,#1
        0x10001f2e:    4788        .G      BLX      r1
        0x10001f30:    2800        .(      CMP      r0,#0
        0x10001f32:    d006        ..      BEQ      0x10001f42 ; ATTCPrepareWriteReq + 34
        0x10001f34:    4623        #F      MOV      r3,r4
        0x10001f36:    4cb3        .L      LDR      r4,[pc,#716] ; [0x10002204] = 0x3beb
        0x10001f38:    462a        *F      MOV      r2,r5
        0x10001f3a:    4631        1F      MOV      r1,r6
        0x10001f3c:    4638        8F      MOV      r0,r7
        0x10001f3e:    3458        X4      ADDS     r4,r4,#0x58
        0x10001f40:    47a0        .G      BLX      r4
        0x10001f42:    e604        ..      B        0x10001b4e ; _GAPStartAdv + 284
    ATTCExecuteWriteReq
        0x10001f44:    b510        ..      PUSH     {r4,lr}
        0x10001f46:    4604        .F      MOV      r4,r0
        0x10001f48:    49ac        .I      LDR      r1,[pc,#688] ; [0x100021fc] = 0xaf5
        0x10001f4a:    2001        .       MOVS     r0,#1
        0x10001f4c:    4788        .G      BLX      r1
        0x10001f4e:    2800        .(      CMP      r0,#0
        0x10001f50:    d003        ..      BEQ      0x10001f5a ; ATTCExecuteWriteReq + 22
        0x10001f52:    49ac        .I      LDR      r1,[pc,#688] ; [0x10002204] = 0x3beb
        0x10001f54:    4620         F      MOV      r0,r4
        0x10001f56:    3188        .1      ADDS     r1,r1,#0x88
        0x10001f58:    4788        .G      BLX      r1
        0x10001f5a:    e464        d.      B        0x10001826 ; Lib_ProtocolHookCallback + 38
    ATTCConfirmation
        0x10001f5c:    b510        ..      PUSH     {r4,lr}
        0x10001f5e:    49a7        .I      LDR      r1,[pc,#668] ; [0x100021fc] = 0xaf5
        0x10001f60:    2001        .       MOVS     r0,#1
        0x10001f62:    4788        .G      BLX      r1
        0x10001f64:    2800        .(      CMP      r0,#0
        0x10001f66:    d002        ..      BEQ      0x10001f6e ; ATTCConfirmation + 18
        0x10001f68:    48a6        .H      LDR      r0,[pc,#664] ; [0x10002204] = 0x3beb
        0x10001f6a:    309c        .0      ADDS     r0,r0,#0x9c
        0x10001f6c:    4780        .G      BLX      r0
        0x10001f6e:    e45a        Z.      B        0x10001826 ; Lib_ProtocolHookCallback + 38
    _SYSClockSwitch
        0x10001f70:    b570        p.      PUSH     {r4-r6,lr}
        0x10001f72:    4da5        .M      LDR      r5,[pc,#660] ; [0x10002208] = 0x20003068
        0x10001f74:    4604        .F      MOV      r4,r0
        0x10001f76:    2808        .(      CMP      r0,#8
        0x10001f78:    d004        ..      BEQ      0x10001f84 ; _SYSClockSwitch + 20
        0x10001f7a:    68e8        .h      LDR      r0,[r5,#0xc]
        0x10001f7c:    7840        @x      LDRB     r0,[r0,#1]
        0x10001f7e:    2808        .(      CMP      r0,#8
        0x10001f80:    d00d        ..      BEQ      0x10001f9e ; _SYSClockSwitch + 46
        0x10001f82:    e014        ..      B        0x10001fae ; _SYSClockSwitch + 62
        0x10001f84:    2100        .!      MOVS     r1,#0
        0x10001f86:    207f        .       MOVS     r0,#0x7f
        0x10001f88:    f7fff81e    ....    BL       BBRFWrite ; 0x10000fc8
        0x10001f8c:    2101        .!      MOVS     r1,#1
        0x10001f8e:    2040        @       MOVS     r0,#0x40
        0x10001f90:    f7fff81a    ....    BL       BBRFWrite ; 0x10000fc8
        0x10001f94:    6ae8        .j      LDR      r0,[r5,#0x2c]
        0x10001f96:    7801        .x      LDRB     r1,[r0,#0]
        0x10001f98:    08c9        ..      LSRS     r1,r1,#3
        0x10001f9a:    00c9        ..      LSLS     r1,r1,#3
        0x10001f9c:    e00e        ..      B        0x10001fbc ; _SYSClockSwitch + 76
        0x10001f9e:    2100        .!      MOVS     r1,#0
        0x10001fa0:    207f        .       MOVS     r0,#0x7f
        0x10001fa2:    f7fff811    ....    BL       BBRFWrite ; 0x10000fc8
        0x10001fa6:    2100        .!      MOVS     r1,#0
        0x10001fa8:    2040        @       MOVS     r0,#0x40
        0x10001faa:    f7fff80d    ....    BL       BBRFWrite ; 0x10000fc8
        0x10001fae:    6ae8        .j      LDR      r0,[r5,#0x2c]
        0x10001fb0:    7801        .x      LDRB     r1,[r0,#0]
        0x10001fb2:    0762        b.      LSLS     r2,r4,#29
        0x10001fb4:    08c9        ..      LSRS     r1,r1,#3
        0x10001fb6:    00c9        ..      LSLS     r1,r1,#3
        0x10001fb8:    0f52        R.      LSRS     r2,r2,#29
        0x10001fba:    4311        .C      ORRS     r1,r1,r2
        0x10001fbc:    7001        .p      STRB     r1,[r0,#0]
        0x10001fbe:    68e8        .h      LDR      r0,[r5,#0xc]
        0x10001fc0:    7044        Dp      STRB     r4,[r0,#1]
        0x10001fc2:    2001        .       MOVS     r0,#1
        0x10001fc4:    bd70        p.      POP      {r4-r6,pc}
    MCUClockSwitch
        0x10001fc6:    e7d3        ..      B        _SYSClockSwitch ; 0x10001f70
    GetMCUClock
        0x10001fc8:    b510        ..      PUSH     {r4,lr}
        0x10001fca:    4604        .F      MOV      r4,r0
        0x10001fcc:    488f        .H      LDR      r0,[pc,#572] ; [0x1000220c] = 0x449f
        0x10001fce:    4780        .G      BLX      r0
        0x10001fd0:    7020         p      STRB     r0,[r4,#0]
        0x10001fd2:    2001        .       MOVS     r0,#1
        0x10001fd4:    e427        '.      B        0x10001826 ; Lib_ProtocolHookCallback + 38
    GetClock
        0x10001fd6:    b510        ..      PUSH     {r4,lr}
        0x10001fd8:    4604        .F      MOV      r4,r0
        0x10001fda:    488c        .H      LDR      r0,[pc,#560] ; [0x1000220c] = 0x449f
        0x10001fdc:    1d80        ..      ADDS     r0,r0,#6
        0x10001fde:    4780        .G      BLX      r0
        0x10001fe0:    7020         p      STRB     r0,[r4,#0]
        0x10001fe2:    2001        .       MOVS     r0,#1
        0x10001fe4:    e41f        ..      B        0x10001826 ; Lib_ProtocolHookCallback + 38
    WakeupConfig
        0x10001fe6:    4989        .I      LDR      r1,[pc,#548] ; [0x1000220c] = 0x449f
        0x10001fe8:    b510        ..      PUSH     {r4,lr}
        0x10001fea:    311c        .1      ADDS     r1,r1,#0x1c
        0x10001fec:    4788        .G      BLX      r1
        0x10001fee:    2001        .       MOVS     r0,#1
        0x10001ff0:    e419        ..      B        0x10001826 ; Lib_ProtocolHookCallback + 38
    LLSleep
        0x10001ff2:    4886        .H      LDR      r0,[pc,#536] ; [0x1000220c] = 0x449f
        0x10001ff4:    b510        ..      PUSH     {r4,lr}
        0x10001ff6:    3072        r0      ADDS     r0,r0,#0x72
        0x10001ff8:    4780        .G      BLX      r0
        0x10001ffa:    2001        .       MOVS     r0,#1
        0x10001ffc:    e413        ..      B        0x10001826 ; Lib_ProtocolHookCallback + 38
    Rand
        0x10001ffe:    4884        .H      LDR      r0,[pc,#528] ; [0x10002210] = 0x5ffb
        0x10002000:    4700        .G      BX       r0
    DelayUS
        0x10002002:    4984        .I      LDR      r1,[pc,#528] ; [0x10002214] = 0x622b
        0x10002004:    4708        .G      BX       r1
    DelayMS
        0x10002006:    4983        .I      LDR      r1,[pc,#524] ; [0x10002214] = 0x622b
        0x10002008:    311a        .1      ADDS     r1,r1,#0x1a
        0x1000200a:    4708        .G      BX       r1
    GetCompanyID
        0x1000200c:    b508        ..      PUSH     {r3,lr}
        0x1000200e:    4982        .I      LDR      r1,[pc,#520] ; [0x10002218] = 0x654d
        0x10002010:    4668        hF      MOV      r0,sp
        0x10002012:    4788        .G      BLX      r1
        0x10002014:    4668        hF      MOV      r0,sp
        0x10002016:    78c0        .x      LDRB     r0,[r0,#3]
        0x10002018:    0780        ..      LSLS     r0,r0,#30
        0x1000201a:    0fc0        ..      LSRS     r0,r0,#31
        0x1000201c:    bd08        ..      POP      {r3,pc}
    GetQFNType
        0x1000201e:    b508        ..      PUSH     {r3,lr}
        0x10002020:    497d        }I      LDR      r1,[pc,#500] ; [0x10002218] = 0x654d
        0x10002022:    4668        hF      MOV      r0,sp
        0x10002024:    4788        .G      BLX      r1
        0x10002026:    4668        hF      MOV      r0,sp
        0x10002028:    78c0        .x      LDRB     r0,[r0,#3]
        0x1000202a:    09c0        ..      LSRS     r0,r0,#7
        0x1000202c:    d000        ..      BEQ      0x10002030 ; GetQFNType + 18
        0x1000202e:    2001        .       MOVS     r0,#1
        0x10002030:    bd08        ..      POP      {r3,pc}
    RFRead
        0x10002032:    b510        ..      PUSH     {r4,lr}
        0x10002034:    f7feffc6    ....    BL       BBRFRead ; 0x10000fc4
        0x10002038:    e40c        ..      B        0x10001854 ; Lib_ProtocolHookCallback + 84
    RFWrite
        0x1000203a:    b510        ..      PUSH     {r4,lr}
        0x1000203c:    f7feffc4    ....    BL       BBRFWrite ; 0x10000fc8
        0x10002040:    e408        ..      B        0x10001854 ; Lib_ProtocolHookCallback + 84
    lib_check_ble_fsm_state
        0x10002042:    4871        qH      LDR      r0,[pc,#452] ; [0x10002208] = 0x20003068
        0x10002044:    6a80        .j      LDR      r0,[r0,#0x28]
        0x10002046:    7bc0        .{      LDRB     r0,[r0,#0xf]
        0x10002048:    2805        .(      CMP      r0,#5
        0x1000204a:    d005        ..      BEQ      0x10002058 ; lib_check_ble_fsm_state + 22
        0x1000204c:    2806        .(      CMP      r0,#6
        0x1000204e:    d003        ..      BEQ      0x10002058 ; lib_check_ble_fsm_state + 22
        0x10002050:    280f        .(      CMP      r0,#0xf
        0x10002052:    d001        ..      BEQ      0x10002058 ; lib_check_ble_fsm_state + 22
        0x10002054:    2000        .       MOVS     r0,#0
        0x10002056:    4770        pG      BX       lr
        0x10002058:    2001        .       MOVS     r0,#1
        0x1000205a:    4770        pG      BX       lr
    SystemSleep
        0x1000205c:    b510        ..      PUSH     {r4,lr}
        0x1000205e:    f7fffff0    ....    BL       lib_check_ble_fsm_state ; 0x10002042
        0x10002062:    2800        .(      CMP      r0,#0
        0x10002064:    d102        ..      BNE      0x1000206c ; SystemSleep + 16
        0x10002066:    4869        iH      LDR      r0,[pc,#420] ; [0x1000220c] = 0x449f
        0x10002068:    3052        R0      ADDS     r0,r0,#0x52
        0x1000206a:    4780        .G      BLX      r0
        0x1000206c:    2001        .       MOVS     r0,#1
        0x1000206e:    e407        ..      B        0x10001880 ; Lib_MiscCallback + 12
    SystemPowerDown
        0x10002070:    b510        ..      PUSH     {r4,lr}
        0x10002072:    4965        eI      LDR      r1,[pc,#404] ; [0x10002208] = 0x20003068
        0x10002074:    2201        ."      MOVS     r2,#1
        0x10002076:    6a88        .j      LDR      r0,[r1,#0x28]
        0x10002078:    7542        Bu      STRB     r2,[r0,#0x15]
        0x1000207a:    7c43        C|      LDRB     r3,[r0,#0x11]
        0x1000207c:    09db        ..      LSRS     r3,r3,#7
        0x1000207e:    01db        ..      LSLS     r3,r3,#7
        0x10002080:    1c9b        ..      ADDS     r3,r3,#2
        0x10002082:    7443        Ct      STRB     r3,[r0,#0x11]
        0x10002084:    1e93        ..      SUBS     r3,r2,#2
        0x10002086:    7483        .t      STRB     r3,[r0,#0x12]
        0x10002088:    0a1b        ..      LSRS     r3,r3,#8
        0x1000208a:    74c3        .t      STRB     r3,[r0,#0x13]
        0x1000208c:    6ac9        .j      LDR      r1,[r1,#0x2c]
        0x1000208e:    7acb        .z      LDRB     r3,[r1,#0xb]
        0x10002090:    24ef        .$      MOVS     r4,#0xef
        0x10002092:    4023        #@      ANDS     r3,r3,r4
        0x10002094:    72cb        .r      STRB     r3,[r1,#0xb]
        0x10002096:    7b4b        K{      LDRB     r3,[r1,#0xd]
        0x10002098:    4393        .C      BICS     r3,r3,r2
        0x1000209a:    734b        Ks      STRB     r3,[r1,#0xd]
        0x1000209c:    7a8b        .z      LDRB     r3,[r1,#0xa]
        0x1000209e:    4313        .C      ORRS     r3,r3,r2
        0x100020a0:    728b        .r      STRB     r3,[r1,#0xa]
        0x100020a2:    7e81        .~      LDRB     r1,[r0,#0x1a]
        0x100020a4:    2302        .#      MOVS     r3,#2
        0x100020a6:    4319        .C      ORRS     r1,r1,r3
        0x100020a8:    7681        .v      STRB     r1,[r0,#0x1a]
        0x100020aa:    7c01        .|      LDRB     r1,[r0,#0x10]
        0x100020ac:    4311        .C      ORRS     r1,r1,r2
        0x100020ae:    7401        .t      STRB     r1,[r0,#0x10]
        0x100020b0:    4958        XI      LDR      r1,[pc,#352] ; [0x10002214] = 0x622b
        0x100020b2:    2005        .       MOVS     r0,#5
        0x100020b4:    311a        .1      ADDS     r1,r1,#0x1a
        0x100020b6:    4788        .G      BLX      r1
        0x100020b8:    4858        XH      LDR      r0,[pc,#352] ; [0x1000221c] = 0x46e5
        0x100020ba:    4780        .G      BLX      r0
        0x100020bc:    2001        .       MOVS     r0,#1
        0x100020be:    e493        ..      B        0x100019e8 ; DisConnect + 8
    SystemReset
        0x100020c0:    4856        VH      LDR      r0,[pc,#344] ; [0x1000221c] = 0x46e5
        0x100020c2:    b510        ..      PUSH     {r4,lr}
        0x100020c4:    3012        .0      ADDS     r0,r0,#0x12
        0x100020c6:    4780        .G      BLX      r0
        0x100020c8:    2001        .       MOVS     r0,#1
        0x100020ca:    e48d        ..      B        0x100019e8 ; DisConnect + 8
    CapdetEn
        0x100020cc:    4952        RI      LDR      r1,[pc,#328] ; [0x10002218] = 0x654d
        0x100020ce:    b510        ..      PUSH     {r4,lr}
        0x100020d0:    317e        ~1      ADDS     r1,r1,#0x7e
        0x100020d2:    4788        .G      BLX      r1
        0x100020d4:    2001        .       MOVS     r0,#1
        0x100020d6:    e487        ..      B        0x100019e8 ; DisConnect + 8
    PowerDownLPOEn
        0x100020d8:    494f        OI      LDR      r1,[pc,#316] ; [0x10002218] = 0x654d
        0x100020da:    b510        ..      PUSH     {r4,lr}
        0x100020dc:    3196        .1      ADDS     r1,r1,#0x96
        0x100020de:    4788        .G      BLX      r1
        0x100020e0:    2001        .       MOVS     r0,#1
        0x100020e2:    e481        ..      B        0x100019e8 ; DisConnect + 8
    SetBondManagerIndex
        0x100020e4:    494d        MI      LDR      r1,[pc,#308] ; [0x1000221c] = 0x46e5
        0x100020e6:    b510        ..      PUSH     {r4,lr}
        0x100020e8:    3158        X1      ADDS     r1,r1,#0x58
        0x100020ea:    4788        .G      BLX      r1
        0x100020ec:    2001        .       MOVS     r0,#1
        0x100020ee:    e47b        {.      B        0x100019e8 ; DisConnect + 8
    GetBondDevice
        0x100020f0:    494a        JI      LDR      r1,[pc,#296] ; [0x1000221c] = 0x46e5
        0x100020f2:    31ac        .1      ADDS     r1,r1,#0xac
        0x100020f4:    4708        .G      BX       r1
    AddBondDevice
        0x100020f6:    4949        II      LDR      r1,[pc,#292] ; [0x1000221c] = 0x46e5
        0x100020f8:    b510        ..      PUSH     {r4,lr}
        0x100020fa:    31fa        .1      ADDS     r1,r1,#0xfa
        0x100020fc:    4788        .G      BLX      r1
        0x100020fe:    2001        .       MOVS     r0,#1
        0x10002100:    e472        r.      B        0x100019e8 ; DisConnect + 8
    DelAllBondDevice
        0x10002102:    b510        ..      PUSH     {r4,lr}
        0x10002104:    4846        FH      LDR      r0,[pc,#280] ; [0x10002220] = 0x4803
        0x10002106:    4780        .G      BLX      r0
        0x10002108:    2001        .       MOVS     r0,#1
        0x1000210a:    e46d        m.      B        0x100019e8 ; DisConnect + 8
    DelBondDevice
        0x1000210c:    4844        DH      LDR      r0,[pc,#272] ; [0x10002220] = 0x4803
        0x1000210e:    b510        ..      PUSH     {r4,lr}
        0x10002110:    3018        .0      ADDS     r0,r0,#0x18
        0x10002112:    4780        .G      BLX      r0
        0x10002114:    2001        .       MOVS     r0,#1
        0x10002116:    e467        g.      B        0x100019e8 ; DisConnect + 8
    ReadProfileData
        0x10002118:    4b41        AK      LDR      r3,[pc,#260] ; [0x10002220] = 0x4803
        0x1000211a:    33a2        .3      ADDS     r3,r3,#0xa2
        0x1000211c:    4718        .G      BX       r3
    WriteProfileData
        0x1000211e:    4b40        @K      LDR      r3,[pc,#256] ; [0x10002220] = 0x4803
        0x10002120:    33d8        .3      ADDS     r3,r3,#0xd8
        0x10002122:    4718        .G      BX       r3
    EraseFlashData
        0x10002124:    b5f8        ..      PUSH     {r3-r7,lr}
        0x10002126:    4607        .F      MOV      r7,r0
        0x10002128:    4837        7H      LDR      r0,[pc,#220] ; [0x10002208] = 0x20003068
        0x1000212a:    2600        .&      MOVS     r6,#0
        0x1000212c:    6880        .h      LDR      r0,[r0,#8]
        0x1000212e:    460d        .F      MOV      r5,r1
        0x10002130:    4634        4F      MOV      r4,r6
        0x10002132:    3028        (0      ADDS     r0,r0,#0x28
        0x10002134:    f000fe69    ..i.    BL       __aeabi_uread4 ; 0x10002e0a
        0x10002138:    0329        ).      LSLS     r1,r5,#12
        0x1000213a:    19c9        ..      ADDS     r1,r1,r7
        0x1000213c:    1840        @.      ADDS     r0,r0,r1
        0x1000213e:    2101        .!      MOVS     r1,#1
        0x10002140:    04c9        ..      LSLS     r1,r1,#19
        0x10002142:    4288        .B      CMP      r0,r1
        0x10002144:    d911        ..      BLS      0x1000216a ; EraseFlashData + 70
        0x10002146:    2000        .       MOVS     r0,#0
        0x10002148:    e501        ..      B        0x10001b4e ; _GAPStartAdv + 284
        0x1000214a:    b672        r.      CPSID    i
        0x1000214c:    482e        .H      LDR      r0,[pc,#184] ; [0x10002208] = 0x20003068
        0x1000214e:    6880        .h      LDR      r0,[r0,#8]
        0x10002150:    3028        (0      ADDS     r0,r0,#0x28
        0x10002152:    f000fe5a    ..Z.    BL       __aeabi_uread4 ; 0x10002e0a
        0x10002156:    0321        !.      LSLS     r1,r4,#12
        0x10002158:    19c9        ..      ADDS     r1,r1,r7
        0x1000215a:    1840        @.      ADDS     r0,r0,r1
        0x1000215c:    4a31        1J      LDR      r2,[pc,#196] ; [0x10002224] = 0x5443
        0x1000215e:    2101        .!      MOVS     r1,#1
        0x10002160:    4790        .G      BLX      r2
        0x10002162:    4606        .F      MOV      r6,r0
        0x10002164:    b662        b.      CPSIE    i
        0x10002166:    1c64        d.      ADDS     r4,r4,#1
        0x10002168:    b2e4        ..      UXTB     r4,r4
        0x1000216a:    42ac        .B      CMP      r4,r5
        0x1000216c:    d3ed        ..      BCC      0x1000214a ; EraseFlashData + 38
        0x1000216e:    4630        0F      MOV      r0,r6
        0x10002170:    e4ed        ..      B        0x10001b4e ; _GAPStartAdv + 284
    ReadFlashData
        0x10002172:    b570        p.      PUSH     {r4-r6,lr}
        0x10002174:    4604        .F      MOV      r4,r0
        0x10002176:    4824        $H      LDR      r0,[pc,#144] ; [0x10002208] = 0x20003068
        0x10002178:    4616        .F      MOV      r6,r2
        0x1000217a:    6880        .h      LDR      r0,[r0,#8]
        0x1000217c:    460d        .F      MOV      r5,r1
        0x1000217e:    3028        (0      ADDS     r0,r0,#0x28
        0x10002180:    f000fe43    ..C.    BL       __aeabi_uread4 ; 0x10002e0a
        0x10002184:    4603        .F      MOV      r3,r0
        0x10002186:    1961        a.      ADDS     r1,r4,r5
        0x10002188:    1840        @.      ADDS     r0,r0,r1
        0x1000218a:    2101        .!      MOVS     r1,#1
        0x1000218c:    04c9        ..      LSLS     r1,r1,#19
        0x1000218e:    4288        .B      CMP      r0,r1
        0x10002190:    d80a        ..      BHI      0x100021a8 ; ReadFlashData + 54
        0x10002192:    2b00        .+      CMP      r3,#0
        0x10002194:    d008        ..      BEQ      0x100021a8 ; ReadFlashData + 54
        0x10002196:    b672        r.      CPSID    i
        0x10002198:    1918        ..      ADDS     r0,r3,r4
        0x1000219a:    4b22        "K      LDR      r3,[pc,#136] ; [0x10002224] = 0x5443
        0x1000219c:    4632        2F      MOV      r2,r6
        0x1000219e:    4629        )F      MOV      r1,r5
        0x100021a0:    3bea        .;      SUBS     r3,r3,#0xea
        0x100021a2:    4798        .G      BLX      r3
        0x100021a4:    b662        b.      CPSIE    i
        0x100021a6:    bd70        p.      POP      {r4-r6,pc}
        0x100021a8:    2000        .       MOVS     r0,#0
        0x100021aa:    bd70        p.      POP      {r4-r6,pc}
    WriteFlashData
        0x100021ac:    b570        p.      PUSH     {r4-r6,lr}
        0x100021ae:    4604        .F      MOV      r4,r0
        0x100021b0:    4815        .H      LDR      r0,[pc,#84] ; [0x10002208] = 0x20003068
        0x100021b2:    4616        .F      MOV      r6,r2
        0x100021b4:    6880        .h      LDR      r0,[r0,#8]
        0x100021b6:    460d        .F      MOV      r5,r1
        0x100021b8:    3028        (0      ADDS     r0,r0,#0x28
        0x100021ba:    f000fe26    ..&.    BL       __aeabi_uread4 ; 0x10002e0a
        0x100021be:    4603        .F      MOV      r3,r0
        0x100021c0:    1961        a.      ADDS     r1,r4,r5
        0x100021c2:    1840        @.      ADDS     r0,r0,r1
        0x100021c4:    2101        .!      MOVS     r1,#1
        0x100021c6:    04c9        ..      LSLS     r1,r1,#19
        0x100021c8:    4288        .B      CMP      r0,r1
        0x100021ca:    d80a        ..      BHI      0x100021e2 ; WriteFlashData + 54
        0x100021cc:    2b00        .+      CMP      r3,#0
        0x100021ce:    d008        ..      BEQ      0x100021e2 ; WriteFlashData + 54
        0x100021d0:    b672        r.      CPSID    i
        0x100021d2:    1918        ..      ADDS     r0,r3,r4
        0x100021d4:    4b13        .K      LDR      r3,[pc,#76] ; [0x10002224] = 0x5443
        0x100021d6:    4632        2F      MOV      r2,r6
        0x100021d8:    4629        )F      MOV      r1,r5
        0x100021da:    3b82        .;      SUBS     r3,r3,#0x82
        0x100021dc:    4798        .G      BLX      r3
        0x100021de:    b662        b.      CPSIE    i
        0x100021e0:    bd70        p.      POP      {r4-r6,pc}
        0x100021e2:    2000        .       MOVS     r0,#0
        0x100021e4:    bd70        p.      POP      {r4-r6,pc}
    CodeErase
        0x100021e6:    b570        p.      PUSH     {r4-r6,lr}
        0x100021e8:    480f        .H      LDR      r0,[pc,#60] ; [0x10002228] = 0x20003130
        0x100021ea:    2400        .$      MOVS     r4,#0
        0x100021ec:    7800        .x      LDRB     r0,[r0,#0]
        0x100021ee:    4e0d        .N      LDR      r6,[pc,#52] ; [0x10002224] = 0x5443
        0x100021f0:    4d05        .M      LDR      r5,[pc,#20] ; [0x10002208] = 0x20003068
        0x100021f2:    2800        .(      CMP      r0,#0
        0x100021f4:    d025        %.      BEQ      0x10002242 ; CodeErase + 92
        0x100021f6:    2801        .(      CMP      r0,#1
        0x100021f8:    d036        6.      BEQ      0x10002268 ; CodeErase + 130
        0x100021fa:    e03c        <.      B        0x10002276 ; CodeErase + 144
    $d
        0x100021fc:    00000af5    ....    DCD    2805
        0x10002200:    00003ad9    .:..    DCD    15065
        0x10002204:    00003beb    .;..    DCD    15339
        0x10002208:    20003068    h0.     DCD    536883304
        0x1000220c:    0000449f    .D..    DCD    17567
        0x10002210:    00005ffb    ._..    DCD    24571
        0x10002214:    0000622b    +b..    DCD    25131
        0x10002218:    0000654d    Me..    DCD    25933
        0x1000221c:    000046e5    .F..    DCD    18149
        0x10002220:    00004803    .H..    DCD    18435
        0x10002224:    00005443    CT..    DCD    21571
        0x10002228:    20003130    01.     DCD    536883504
    $t
        0x1000222c:    b672        r.      CPSID    i
        0x1000222e:    3014        .0      ADDS     r0,r0,#0x14
        0x10002230:    f000fdeb    ....    BL       __aeabi_uread4 ; 0x10002e0a
        0x10002234:    0321        !.      LSLS     r1,r4,#12
        0x10002236:    1840        @.      ADDS     r0,r0,r1
        0x10002238:    2101        .!      MOVS     r1,#1
        0x1000223a:    47b0        .G      BLX      r6
        0x1000223c:    b662        b.      CPSIE    i
        0x1000223e:    1c64        d.      ADDS     r4,r4,#1
        0x10002240:    b2e4        ..      UXTB     r4,r4
        0x10002242:    68a8        .h      LDR      r0,[r5,#8]
        0x10002244:    7bc1        .{      LDRB     r1,[r0,#0xf]
        0x10002246:    7b82        .{      LDRB     r2,[r0,#0xe]
        0x10002248:    0209        ..      LSLS     r1,r1,#8
        0x1000224a:    4311        .C      ORRS     r1,r1,r2
        0x1000224c:    42a1        .B      CMP      r1,r4
        0x1000224e:    d8ed        ..      BHI      0x1000222c ; CodeErase + 70
        0x10002250:    e011        ..      B        0x10002276 ; CodeErase + 144
        0x10002252:    b672        r.      CPSID    i
        0x10002254:    3010        .0      ADDS     r0,r0,#0x10
        0x10002256:    f000fdd8    ....    BL       __aeabi_uread4 ; 0x10002e0a
        0x1000225a:    0321        !.      LSLS     r1,r4,#12
        0x1000225c:    1840        @.      ADDS     r0,r0,r1
        0x1000225e:    2101        .!      MOVS     r1,#1
        0x10002260:    47b0        .G      BLX      r6
        0x10002262:    b662        b.      CPSIE    i
        0x10002264:    1c64        d.      ADDS     r4,r4,#1
        0x10002266:    b2e4        ..      UXTB     r4,r4
        0x10002268:    68a8        .h      LDR      r0,[r5,#8]
        0x1000226a:    7bc1        .{      LDRB     r1,[r0,#0xf]
        0x1000226c:    7b82        .{      LDRB     r2,[r0,#0xe]
        0x1000226e:    0209        ..      LSLS     r1,r1,#8
        0x10002270:    4311        .C      ORRS     r1,r1,r2
        0x10002272:    42a1        .B      CMP      r1,r4
        0x10002274:    d8ed        ..      BHI      0x10002252 ; CodeErase + 108
        0x10002276:    2001        .       MOVS     r0,#1
        0x10002278:    bd70        p.      POP      {r4-r6,pc}
    CodeErase_sector
        0x1000227a:    b570        p.      PUSH     {r4-r6,lr}
        0x1000227c:    4604        .F      MOV      r4,r0
        0x1000227e:    460d        .F      MOV      r5,r1
        0x10002280:    0b00        ..      LSRS     r0,r0,#12
        0x10002282:    1942        B.      ADDS     r2,r0,r5
        0x10002284:    48fe        .H      LDR      r0,[pc,#1016] ; [0x10002680] = 0x20003068
        0x10002286:    6880        .h      LDR      r0,[r0,#8]
        0x10002288:    7bc1        .{      LDRB     r1,[r0,#0xf]
        0x1000228a:    7b83        .{      LDRB     r3,[r0,#0xe]
        0x1000228c:    0209        ..      LSLS     r1,r1,#8
        0x1000228e:    4319        .C      ORRS     r1,r1,r3
        0x10002290:    428a        .B      CMP      r2,r1
        0x10002292:    d901        ..      BLS      0x10002298 ; CodeErase_sector + 30
        0x10002294:    2000        .       MOVS     r0,#0
        0x10002296:    bd70        p.      POP      {r4-r6,pc}
        0x10002298:    49fa        .I      LDR      r1,[pc,#1000] ; [0x10002684] = 0x20003130
        0x1000229a:    4efb        .N      LDR      r6,[pc,#1004] ; [0x10002688] = 0x5443
        0x1000229c:    7809        .x      LDRB     r1,[r1,#0]
        0x1000229e:    2900        .)      CMP      r1,#0
        0x100022a0:    d002        ..      BEQ      0x100022a8 ; CodeErase_sector + 46
        0x100022a2:    2901        .)      CMP      r1,#1
        0x100022a4:    d003        ..      BEQ      0x100022ae ; CodeErase_sector + 52
        0x100022a6:    e00a        ..      B        0x100022be ; CodeErase_sector + 68
        0x100022a8:    b672        r.      CPSID    i
        0x100022aa:    3014        .0      ADDS     r0,r0,#0x14
        0x100022ac:    e001        ..      B        0x100022b2 ; CodeErase_sector + 56
        0x100022ae:    b672        r.      CPSID    i
        0x100022b0:    3010        .0      ADDS     r0,r0,#0x10
        0x100022b2:    f000fdaa    ....    BL       __aeabi_uread4 ; 0x10002e0a
        0x100022b6:    1900        ..      ADDS     r0,r0,r4
        0x100022b8:    4629        )F      MOV      r1,r5
        0x100022ba:    47b0        .G      BLX      r6
        0x100022bc:    b662        b.      CPSIE    i
        0x100022be:    2001        .       MOVS     r0,#1
        0x100022c0:    bd70        p.      POP      {r4-r6,pc}
    _FMCodeWrite
        0x100022c2:    b5f8        ..      PUSH     {r3-r7,lr}
        0x100022c4:    4604        .F      MOV      r4,r0
        0x100022c6:    48ef        .H      LDR      r0,[pc,#956] ; [0x10002684] = 0x20003130
        0x100022c8:    460f        .F      MOV      r7,r1
        0x100022ca:    7801        .x      LDRB     r1,[r0,#0]
        0x100022cc:    48ec        .H      LDR      r0,[pc,#944] ; [0x10002680] = 0x20003068
        0x100022ce:    4dee        .M      LDR      r5,[pc,#952] ; [0x10002688] = 0x5443
        0x100022d0:    6880        .h      LDR      r0,[r0,#8]
        0x100022d2:    3d82        .=      SUBS     r5,r5,#0x82
        0x100022d4:    4616        .F      MOV      r6,r2
        0x100022d6:    2900        .)      CMP      r1,#0
        0x100022d8:    d002        ..      BEQ      0x100022e0 ; _FMCodeWrite + 30
        0x100022da:    2901        .)      CMP      r1,#1
        0x100022dc:    d003        ..      BEQ      0x100022e6 ; _FMCodeWrite + 36
        0x100022de:    e00b        ..      B        0x100022f8 ; _FMCodeWrite + 54
        0x100022e0:    b672        r.      CPSID    i
        0x100022e2:    3014        .0      ADDS     r0,r0,#0x14
        0x100022e4:    e001        ..      B        0x100022ea ; _FMCodeWrite + 40
        0x100022e6:    b672        r.      CPSID    i
        0x100022e8:    3010        .0      ADDS     r0,r0,#0x10
        0x100022ea:    f000fd8e    ....    BL       __aeabi_uread4 ; 0x10002e0a
        0x100022ee:    1900        ..      ADDS     r0,r0,r4
        0x100022f0:    4632        2F      MOV      r2,r6
        0x100022f2:    4639        9F      MOV      r1,r7
        0x100022f4:    47a8        .G      BLX      r5
        0x100022f6:    b662        b.      CPSIE    i
        0x100022f8:    2001        .       MOVS     r0,#1
        0x100022fa:    e428        (.      B        0x10001b4e ; _GAPStartAdv + 284
    CodeWrite
        0x100022fc:    b430        0.      PUSH     {r4,r5}
        0x100022fe:    4be0        .K      LDR      r3,[pc,#896] ; [0x10002680] = 0x20003068
        0x10002300:    689c        .h      LDR      r4,[r3,#8]
        0x10002302:    7be3        .{      LDRB     r3,[r4,#0xf]
        0x10002304:    7ba4        .{      LDRB     r4,[r4,#0xe]
        0x10002306:    021b        ..      LSLS     r3,r3,#8
        0x10002308:    4323        #C      ORRS     r3,r3,r4
        0x1000230a:    031b        ..      LSLS     r3,r3,#12
        0x1000230c:    4283        .B      CMP      r3,r0
        0x1000230e:    d202        ..      BCS      0x10002316 ; CodeWrite + 26
        0x10002310:    bc30        0.      POP      {r4,r5}
        0x10002312:    2000        .       MOVS     r0,#0
        0x10002314:    4770        pG      BX       lr
        0x10002316:    bc30        0.      POP      {r4,r5}
        0x10002318:    b2c9        ..      UXTB     r1,r1
        0x1000231a:    e7d2        ..      B        _FMCodeWrite ; 0x100022c2
    CodeUpdate
        0x1000231c:    b430        0.      PUSH     {r4,r5}
        0x1000231e:    4cdb        .L      LDR      r4,[pc,#876] ; [0x1000268c] = 0x4a7b
        0x10002320:    46a4        .F      MOV      r12,r4
        0x10002322:    bc30        0.      POP      {r4,r5}
        0x10002324:    4760        `G      BX       r12
    FlashDataUpdate
        0x10002326:    b5f3        ..      PUSH     {r0,r1,r4-r7,lr}
        0x10002328:    48d5        .H      LDR      r0,[pc,#852] ; [0x10002680] = 0x20003068
        0x1000232a:    b089        ..      SUB      sp,sp,#0x24
        0x1000232c:    6880        .h      LDR      r0,[r0,#8]
        0x1000232e:    2400        .$      MOVS     r4,#0
        0x10002330:    3028        (0      ADDS     r0,r0,#0x28
        0x10002332:    f000fd6a    ..j.    BL       __aeabi_uread4 ; 0x10002e0a
        0x10002336:    4607        .F      MOV      r7,r0
        0x10002338:    9809        ..      LDR      r0,[sp,#0x24]
        0x1000233a:    0946        F.      LSRS     r6,r0,#5
        0x1000233c:    2500        .%      MOVS     r5,#0
        0x1000233e:    e011        ..      B        0x10002364 ; FlashDataUpdate + 62
        0x10002340:    b672        r.      CPSID    i
        0x10002342:    0168        h.      LSLS     r0,r5,#5
        0x10002344:    4bd0        .K      LDR      r3,[pc,#832] ; [0x10002688] = 0x5443
        0x10002346:    19c0        ..      ADDS     r0,r0,r7
        0x10002348:    2120         !      MOVS     r1,#0x20
        0x1000234a:    466a        jF      MOV      r2,sp
        0x1000234c:    3bea        .;      SUBS     r3,r3,#0xea
        0x1000234e:    4798        .G      BLX      r3
        0x10002350:    b662        b.      CPSIE    i
        0x10002352:    2000        .       MOVS     r0,#0
        0x10002354:    4669        iF      MOV      r1,sp
        0x10002356:    5c0a        .\      LDRB     r2,[r1,r0]
        0x10002358:    1c40        @.      ADDS     r0,r0,#1
        0x1000235a:    1912        ..      ADDS     r2,r2,r4
        0x1000235c:    b294        ..      UXTH     r4,r2
        0x1000235e:    2820         (      CMP      r0,#0x20
        0x10002360:    d3f9        ..      BCC      0x10002356 ; FlashDataUpdate + 48
        0x10002362:    1c6d        m.      ADDS     r5,r5,#1
        0x10002364:    42b5        .B      CMP      r5,r6
        0x10002366:    d3eb        ..      BCC      0x10002340 ; FlashDataUpdate + 26
        0x10002368:    9809        ..      LDR      r0,[sp,#0x24]
        0x1000236a:    06c6        ..      LSLS     r6,r0,#27
        0x1000236c:    0ef6        ..      LSRS     r6,r6,#27
        0x1000236e:    b672        r.      CPSID    i
        0x10002370:    4631        1F      MOV      r1,r6
        0x10002372:    0168        h.      LSLS     r0,r5,#5
        0x10002374:    4bc4        .K      LDR      r3,[pc,#784] ; [0x10002688] = 0x5443
        0x10002376:    19c0        ..      ADDS     r0,r0,r7
        0x10002378:    466a        jF      MOV      r2,sp
        0x1000237a:    3bea        .;      SUBS     r3,r3,#0xea
        0x1000237c:    4798        .G      BLX      r3
        0x1000237e:    b662        b.      CPSIE    i
        0x10002380:    2000        .       MOVS     r0,#0
        0x10002382:    4669        iF      MOV      r1,sp
        0x10002384:    e003        ..      B        0x1000238e ; FlashDataUpdate + 104
        0x10002386:    5c0a        .\      LDRB     r2,[r1,r0]
        0x10002388:    1912        ..      ADDS     r2,r2,r4
        0x1000238a:    b294        ..      UXTH     r4,r2
        0x1000238c:    1c40        @.      ADDS     r0,r0,#1
        0x1000238e:    42b0        .B      CMP      r0,r6
        0x10002390:    d3f9        ..      BCC      0x10002386 ; FlashDataUpdate + 96
        0x10002392:    980a        ..      LDR      r0,[sp,#0x28]
        0x10002394:    4284        .B      CMP      r4,r0
        0x10002396:    d102        ..      BNE      0x1000239e ; FlashDataUpdate + 120
        0x10002398:    2001        .       MOVS     r0,#1
        0x1000239a:    b00b        ..      ADD      sp,sp,#0x2c
        0x1000239c:    bdf0        ..      POP      {r4-r7,pc}
        0x1000239e:    2000        .       MOVS     r0,#0
        0x100023a0:    e7fb        ..      B        0x1000239a ; FlashDataUpdate + 116
    ble_sched_execute
        0x100023a2:    b5f8        ..      PUSH     {r3-r7,lr}
        0x100023a4:    48ba        .H      LDR      r0,[pc,#744] ; [0x10002690] = 0x465b
        0x100023a6:    4780        .G      BLX      r0
        0x100023a8:    4cb6        .L      LDR      r4,[pc,#728] ; [0x10002684] = 0x20003130
        0x100023aa:    3457        W4      ADDS     r4,r4,#0x57
        0x100023ac:    7a60        `z      LDRB     r0,[r4,#9]
        0x100023ae:    2800        .(      CMP      r0,#0
        0x100023b0:    d040        @.      BEQ      0x10002434 ; ble_sched_execute + 146
        0x100023b2:    0600        ..      LSLS     r0,r0,#24
        0x100023b4:    2504        .%      MOVS     r5,#4
        0x100023b6:    2800        .(      CMP      r0,#0
        0x100023b8:    da0f        ..      BGE      0x100023da ; ble_sched_execute + 56
        0x100023ba:    7860        `x      LDRB     r0,[r4,#1]
        0x100023bc:    7821        !x      LDRB     r1,[r4,#0]
        0x100023be:    0200        ..      LSLS     r0,r0,#8
        0x100023c0:    4308        .C      ORRS     r0,r0,r1
        0x100023c2:    0740        @.      LSLS     r0,r0,#29
        0x100023c4:    d509        ..      BPL      0x100023da ; ble_sched_execute + 56
        0x100023c6:    f7fefd42    ..B.    BL       smart_latency_start ; 0x10000e4e
        0x100023ca:    7860        `x      LDRB     r0,[r4,#1]
        0x100023cc:    7821        !x      LDRB     r1,[r4,#0]
        0x100023ce:    0200        ..      LSLS     r0,r0,#8
        0x100023d0:    4308        .C      ORRS     r0,r0,r1
        0x100023d2:    43a8        .C      BICS     r0,r0,r5
        0x100023d4:    7020         p      STRB     r0,[r4,#0]
        0x100023d6:    0a00        ..      LSRS     r0,r0,#8
        0x100023d8:    7060        `p      STRB     r0,[r4,#1]
        0x100023da:    7860        `x      LDRB     r0,[r4,#1]
        0x100023dc:    7821        !x      LDRB     r1,[r4,#0]
        0x100023de:    0200        ..      LSLS     r0,r0,#8
        0x100023e0:    4308        .C      ORRS     r0,r0,r1
        0x100023e2:    4fac        .O      LDR      r7,[pc,#688] ; [0x10002694] = 0x8000
        0x100023e4:    4eac        .N      LDR      r6,[pc,#688] ; [0x10002698] = 0x3ea1
        0x100023e6:    0641        A.      LSLS     r1,r0,#25
        0x100023e8:    d50c        ..      BPL      0x10002404 ; ble_sched_execute + 98
        0x100023ea:    2140        @!      MOVS     r1,#0x40
        0x100023ec:    4388        .C      BICS     r0,r0,r1
        0x100023ee:    7020         p      STRB     r0,[r4,#0]
        0x100023f0:    0a00        ..      LSRS     r0,r0,#8
        0x100023f2:    7060        `p      STRB     r0,[r4,#1]
        0x100023f4:    2002        .       MOVS     r0,#2
        0x100023f6:    4669        iF      MOV      r1,sp
        0x100023f8:    8008        ..      STRH     r0,[r1,#0]
        0x100023fa:    4602        .F      MOV      r2,r0
        0x100023fc:    466b        kF      MOV      r3,sp
        0x100023fe:    4639        9F      MOV      r1,r7
        0x10002400:    2000        .       MOVS     r0,#0
        0x10002402:    47b0        .G      BLX      r6
        0x10002404:    7860        `x      LDRB     r0,[r4,#1]
        0x10002406:    7821        !x      LDRB     r1,[r4,#0]
        0x10002408:    0200        ..      LSLS     r0,r0,#8
        0x1000240a:    4308        .C      ORRS     r0,r0,r1
        0x1000240c:    07c1        ..      LSLS     r1,r0,#31
        0x1000240e:    d011        ..      BEQ      0x10002434 ; ble_sched_execute + 146
        0x10002410:    0840        @.      LSRS     r0,r0,#1
        0x10002412:    0040        @.      LSLS     r0,r0,#1
        0x10002414:    7020         p      STRB     r0,[r4,#0]
        0x10002416:    0a01        ..      LSRS     r1,r0,#8
        0x10002418:    7061        ap      STRB     r1,[r4,#1]
        0x1000241a:    0780        ..      LSLS     r0,r0,#30
        0x1000241c:    d502        ..      BPL      0x10002424 ; ble_sched_execute + 130
        0x1000241e:    4668        hF      MOV      r0,sp
        0x10002420:    8005        ..      STRH     r5,[r0,#0]
        0x10002422:    e002        ..      B        0x1000242a ; ble_sched_execute + 136
        0x10002424:    2005        .       MOVS     r0,#5
        0x10002426:    4669        iF      MOV      r1,sp
        0x10002428:    8008        ..      STRH     r0,[r1,#0]
        0x1000242a:    2202        ."      MOVS     r2,#2
        0x1000242c:    466b        kF      MOV      r3,sp
        0x1000242e:    4639        9F      MOV      r1,r7
        0x10002430:    2000        .       MOVS     r0,#0
        0x10002432:    47b0        .G      BLX      r6
        0x10002434:    e40a        ..      B        0x10001c4c ; _GAPStartAdv + 538
    ble_sched_finish
        0x10002436:    4899        .H      LDR      r0,[pc,#612] ; [0x1000269c] = 0x4bf9
        0x10002438:    4700        .G      BX       r0
    syd52832_chip_confirm
        0x1000243a:    b538        8.      PUSH     {r3-r5,lr}
        0x1000243c:    4c90        .L      LDR      r4,[pc,#576] ; [0x10002680] = 0x20003068
        0x1000243e:    7820         x      LDRB     r0,[r4,#0]
        0x10002440:    2800        .(      CMP      r0,#0
        0x10002442:    d104        ..      BNE      0x1000244e ; syd52832_chip_confirm + 20
        0x10002444:    4996        .I      LDR      r1,[pc,#600] ; [0x100026a0] = 0x654d
        0x10002446:    4668        hF      MOV      r0,sp
        0x10002448:    4788        .G      BLX      r1
        0x1000244a:    2001        .       MOVS     r0,#1
        0x1000244c:    7020         p      STRB     r0,[r4,#0]
        0x1000244e:    2001        .       MOVS     r0,#1
        0x10002450:    bd38        8.      POP      {r3-r5,pc}
    gap_s_smart_update_latency
        0x10002452:    b570        p.      PUSH     {r4-r6,lr}
        0x10002454:    7802        .x      LDRB     r2,[r0,#0]
        0x10002456:    2a00        .*      CMP      r2,#0
        0x10002458:    d04d        M.      BEQ      0x100024f6 ; gap_s_smart_update_latency + 164
        0x1000245a:    498a        .I      LDR      r1,[pc,#552] ; [0x10002684] = 0x20003130
        0x1000245c:    3157        W1      ADDS     r1,r1,#0x57
        0x1000245e:    724a        Jr      STRB     r2,[r1,#9]
        0x10002460:    7842        Bx      LDRB     r2,[r0,#1]
        0x10002462:    728a        .r      STRB     r2,[r1,#0xa]
        0x10002464:    2a00        .*      CMP      r2,#0
        0x10002466:    d001        ..      BEQ      0x1000246c ; gap_s_smart_update_latency + 26
        0x10002468:    2a04        .*      CMP      r2,#4
        0x1000246a:    d901        ..      BLS      0x10002470 ; gap_s_smart_update_latency + 30
        0x1000246c:    2204        ."      MOVS     r2,#4
        0x1000246e:    728a        .r      STRB     r2,[r1,#0xa]
        0x10002470:    78c2        .x      LDRB     r2,[r0,#3]
        0x10002472:    7883        .x      LDRB     r3,[r0,#2]
        0x10002474:    0214        ..      LSLS     r4,r2,#8
        0x10002476:    4a83        .J      LDR      r2,[pc,#524] ; [0x10002684] = 0x20003130
        0x10002478:    431c        .C      ORRS     r4,r4,r3
        0x1000247a:    3257        W2      ADDS     r2,r2,#0x57
        0x1000247c:    72d4        .r      STRB     r4,[r2,#0xb]
        0x1000247e:    0a23        #.      LSRS     r3,r4,#8
        0x10002480:    7313        .s      STRB     r3,[r2,#0xc]
        0x10002482:    7943        Cy      LDRB     r3,[r0,#5]
        0x10002484:    7905        .y      LDRB     r5,[r0,#4]
        0x10002486:    021b        ..      LSLS     r3,r3,#8
        0x10002488:    432b        +C      ORRS     r3,r3,r5
        0x1000248a:    4615        .F      MOV      r5,r2
        0x1000248c:    736b        ks      STRB     r3,[r5,#0xd]
        0x1000248e:    0a1b        ..      LSRS     r3,r3,#8
        0x10002490:    73ab        .s      STRB     r3,[r5,#0xe]
        0x10002492:    79c3        .y      LDRB     r3,[r0,#7]
        0x10002494:    7985        .y      LDRB     r5,[r0,#6]
        0x10002496:    0218        ..      LSLS     r0,r3,#8
        0x10002498:    4328        (C      ORRS     r0,r0,r5
        0x1000249a:    73d0        .s      STRB     r0,[r2,#0xf]
        0x1000249c:    0a00        ..      LSRS     r0,r0,#8
        0x1000249e:    7410        .t      STRB     r0,[r2,#0x10]
        0x100024a0:    4877        wH      LDR      r0,[pc,#476] ; [0x10002680] = 0x20003068
        0x100024a2:    1cd2        ..      ADDS     r2,r2,#3
        0x100024a4:    68c0        .h      LDR      r0,[r0,#0xc]
        0x100024a6:    3021        !0      ADDS     r0,r0,#0x21
        0x100024a8:    7c43        C|      LDRB     r3,[r0,#0x11]
        0x100024aa:    7c05        .|      LDRB     r5,[r0,#0x10]
        0x100024ac:    0218        ..      LSLS     r0,r3,#8
        0x100024ae:    4328        (C      ORRS     r0,r0,r5
        0x100024b0:    2508        .%      MOVS     r5,#8
        0x100024b2:    2301        .#      MOVS     r3,#1
        0x100024b4:    4284        .B      CMP      r4,r0
        0x100024b6:    d90a        ..      BLS      0x100024ce ; gap_s_smart_update_latency + 124
        0x100024b8:    2600        .&      MOVS     r6,#0
        0x100024ba:    708e        .p      STRB     r6,[r1,#2]
        0x100024bc:    1a20         .      SUBS     r0,r4,r0
        0x100024be:    e008        ..      B        0x100024d2 ; gap_s_smart_update_latency + 128
        0x100024c0:    7113        .q      STRB     r3,[r2,#4]
        0x100024c2:    0a18        ..      LSRS     r0,r3,#8
        0x100024c4:    e001        ..      B        0x100024ca ; gap_s_smart_update_latency + 120
        0x100024c6:    7115        .q      STRB     r5,[r2,#4]
        0x100024c8:    0a28        (.      LSRS     r0,r5,#8
        0x100024ca:    7150        Pq      STRB     r0,[r2,#5]
        0x100024cc:    e008        ..      B        0x100024e0 ; gap_s_smart_update_latency + 142
        0x100024ce:    708b        .p      STRB     r3,[r1,#2]
        0x100024d0:    1b00        ..      SUBS     r0,r0,r4
        0x100024d2:    7a8c        .z      LDRB     r4,[r1,#0xa]
        0x100024d4:    42a0        .B      CMP      r0,r4
        0x100024d6:    da0a        ..      BGE      0x100024ee ; gap_s_smart_update_latency + 156
        0x100024d8:    7113        .q      STRB     r3,[r2,#4]
        0x100024da:    0a1b        ..      LSRS     r3,r3,#8
        0x100024dc:    7153        Sq      STRB     r3,[r2,#5]
        0x100024de:    7288        .r      STRB     r0,[r1,#0xa]
        0x100024e0:    7a88        .z      LDRB     r0,[r1,#0xa]
        0x100024e2:    70c8        .p      STRB     r0,[r1,#3]
        0x100024e4:    7108        .q      STRB     r0,[r1,#4]
        0x100024e6:    f7fff80b    ....    BL       smart_update_retry ; 0x10001500
        0x100024ea:    2001        .       MOVS     r0,#1
        0x100024ec:    bd70        p.      POP      {r4-r6,pc}
        0x100024ee:    00e4        ..      LSLS     r4,r4,#3
        0x100024f0:    42a0        .B      CMP      r0,r4
        0x100024f2:    dae8        ..      BGE      0x100024c6 ; gap_s_smart_update_latency + 116
        0x100024f4:    e7e4        ..      B        0x100024c0 ; gap_s_smart_update_latency + 110
        0x100024f6:    2000        .       MOVS     r0,#0
        0x100024f8:    bd70        p.      POP      {r4-r6,pc}
    eFuseManual
        0x100024fa:    4961        aI      LDR      r1,[pc,#388] ; [0x10002680] = 0x20003068
        0x100024fc:    6a49        Ij      LDR      r1,[r1,#0x24]
        0x100024fe:    7008        .p      STRB     r0,[r1,#0]
        0x10002500:    0a02        ..      LSRS     r2,r0,#8
        0x10002502:    704a        Jp      STRB     r2,[r1,#1]
        0x10002504:    0c02        ..      LSRS     r2,r0,#16
        0x10002506:    708a        .p      STRB     r2,[r1,#2]
        0x10002508:    0e00        ..      LSRS     r0,r0,#24
        0x1000250a:    70c8        .p      STRB     r0,[r1,#3]
        0x1000250c:    7a48        Hz      LDRB     r0,[r1,#9]
        0x1000250e:    2202        ."      MOVS     r2,#2
        0x10002510:    4310        .C      ORRS     r0,r0,r2
        0x10002512:    7248        Hr      STRB     r0,[r1,#9]
        0x10002514:    4770        pG      BX       lr
    GPADC_Manual_Calibration
        0x10002516:    b538        8.      PUSH     {r3-r5,lr}
        0x10002518:    4604        .F      MOV      r4,r0
        0x1000251a:    2000        .       MOVS     r0,#0
        0x1000251c:    9000        ..      STR      r0,[sp,#0]
        0x1000251e:    4960        `I      LDR      r1,[pc,#384] ; [0x100026a0] = 0x654d
        0x10002520:    4668        hF      MOV      r0,sp
        0x10002522:    4788        .G      BLX      r1
        0x10002524:    9900        ..      LDR      r1,[sp,#0]
        0x10002526:    20f8        .       MOVS     r0,#0xf8
        0x10002528:    4381        .C      BICS     r1,r1,r0
        0x1000252a:    06e0        ..      LSLS     r0,r4,#27
        0x1000252c:    0e00        ..      LSRS     r0,r0,#24
        0x1000252e:    4308        .C      ORRS     r0,r0,r1
        0x10002530:    9000        ..      STR      r0,[sp,#0]
        0x10002532:    f7ffffe2    ....    BL       eFuseManual ; 0x100024fa
        0x10002536:    bd38        8.      POP      {r3-r5,pc}
    GPADC_Get_Calibration
        0x10002538:    b508        ..      PUSH     {r3,lr}
        0x1000253a:    2000        .       MOVS     r0,#0
        0x1000253c:    9000        ..      STR      r0,[sp,#0]
        0x1000253e:    4958        XI      LDR      r1,[pc,#352] ; [0x100026a0] = 0x654d
        0x10002540:    4668        hF      MOV      r0,sp
        0x10002542:    4788        .G      BLX      r1
        0x10002544:    9800        ..      LDR      r0,[sp,#0]
        0x10002546:    0600        ..      LSLS     r0,r0,#24
        0x10002548:    0ec0        ..      LSRS     r0,r0,#27
        0x1000254a:    9000        ..      STR      r0,[sp,#0]
        0x1000254c:    bd08        ..      POP      {r3,pc}
    GAPGetUartEn
        0x1000254e:    4854        TH      LDR      r0,[pc,#336] ; [0x100026a0] = 0x654d
        0x10002550:    3072        r0      ADDS     r0,r0,#0x72
        0x10002552:    4700        .G      BX       r0
    GAPUartEn
        0x10002554:    4952        RI      LDR      r1,[pc,#328] ; [0x100026a0] = 0x654d
        0x10002556:    315a        Z1      ADDS     r1,r1,#0x5a
        0x10002558:    4708        .G      BX       r1
    GAPBBDelayUS
        0x1000255a:    4952        RI      LDR      r1,[pc,#328] ; [0x100026a4] = 0x622b
        0x1000255c:    4708        .G      BX       r1
    GAPBBDelayMS
        0x1000255e:    4951        QI      LDR      r1,[pc,#324] ; [0x100026a4] = 0x622b
        0x10002560:    311a        .1      ADDS     r1,r1,#0x1a
        0x10002562:    4708        .G      BX       r1
    GAPGetRFAutoSleep
        0x10002564:    4850        PH      LDR      r0,[pc,#320] ; [0x100026a8] = 0x6a77
        0x10002566:    4700        .G      BX       r0
    GAPSetRFAutoSleep
        0x10002568:    494f        OI      LDR      r1,[pc,#316] ; [0x100026a8] = 0x6a77
        0x1000256a:    310c        .1      ADDS     r1,r1,#0xc
        0x1000256c:    4708        .G      BX       r1
    Setting4kUpdate
        0x1000256e:    b5f8        ..      PUSH     {r3-r7,lr}
        0x10002570:    2600        .&      MOVS     r6,#0
        0x10002572:    460b        .F      MOV      r3,r1
        0x10002574:    4604        .F      MOV      r4,r0
        0x10002576:    2501        .%      MOVS     r5,#1
        0x10002578:    4630        0F      MOV      r0,r6
        0x1000257a:    4631        1F      MOV      r1,r6
        0x1000257c:    032d        -.      LSLS     r5,r5,#12
        0x1000257e:    5c67        g\      LDRB     r7,[r4,r1]
        0x10002580:    1c49        I.      ADDS     r1,r1,#1
        0x10002582:    19be        ..      ADDS     r6,r7,r6
        0x10002584:    42a9        .B      CMP      r1,r5
        0x10002586:    d3fa        ..      BCC      0x1000257e ; Setting4kUpdate + 16
        0x10002588:    2100        .!      MOVS     r1,#0
        0x1000258a:    5c67        g\      LDRB     r7,[r4,r1]
        0x1000258c:    1c49        I.      ADDS     r1,r1,#1
        0x1000258e:    4078        x@      EORS     r0,r0,r7
        0x10002590:    42a9        .B      CMP      r1,r5
        0x10002592:    d3fa        ..      BCC      0x1000258a ; Setting4kUpdate + 28
        0x10002594:    429e        .B      CMP      r6,r3
        0x10002596:    d121        !.      BNE      0x100025dc ; Setting4kUpdate + 110
        0x10002598:    4290        .B      CMP      r0,r2
        0x1000259a:    d11f        ..      BNE      0x100025dc ; Setting4kUpdate + 110
        0x1000259c:    4e38        8N      LDR      r6,[pc,#224] ; [0x10002680] = 0x20003068
        0x1000259e:    68b0        .h      LDR      r0,[r6,#8]
        0x100025a0:    300a        .0      ADDS     r0,r0,#0xa
        0x100025a2:    f000fc32    ..2.    BL       __aeabi_uread4 ; 0x10002e0a
        0x100025a6:    1900        ..      ADDS     r0,r0,r4
        0x100025a8:    2257        W"      MOVS     r2,#0x57
        0x100025aa:    4936        6I      LDR      r1,[pc,#216] ; [0x10002684] = 0x20003130
        0x100025ac:    f000fbfc    ....    BL       __aeabi_memcpy ; 0x10002da8
        0x100025b0:    68b0        .h      LDR      r0,[r6,#8]
        0x100025b2:    301c        .0      ADDS     r0,r0,#0x1c
        0x100025b4:    f000fc29    ..).    BL       __aeabi_uread4 ; 0x10002e0a
        0x100025b8:    68f1        .h      LDR      r1,[r6,#0xc]
        0x100025ba:    1900        ..      ADDS     r0,r0,r4
        0x100025bc:    2207        ."      MOVS     r2,#7
        0x100025be:    310a        .1      ADDS     r1,r1,#0xa
        0x100025c0:    f000fbf2    ....    BL       __aeabi_memcpy ; 0x10002da8
        0x100025c4:    2101        .!      MOVS     r1,#1
        0x100025c6:    4a30        0J      LDR      r2,[pc,#192] ; [0x10002688] = 0x5443
        0x100025c8:    2000        .       MOVS     r0,#0
        0x100025ca:    4790        .G      BLX      r2
        0x100025cc:    4b2e        .K      LDR      r3,[pc,#184] ; [0x10002688] = 0x5443
        0x100025ce:    2000        .       MOVS     r0,#0
        0x100025d0:    4622        "F      MOV      r2,r4
        0x100025d2:    4629        )F      MOV      r1,r5
        0x100025d4:    3b82        .;      SUBS     r3,r3,#0x82
        0x100025d6:    4798        .G      BLX      r3
        0x100025d8:    2001        .       MOVS     r0,#1
        0x100025da:    e447        G.      B        0x10001e6c ; ATTCReadByTypeReq + 34
        0x100025dc:    2000        .       MOVS     r0,#0
        0x100025de:    e445        E.      B        0x10001e6c ; ATTCReadByTypeReq + 34
    SetDevAddr_toflash
        0x100025e0:    b570        p.      PUSH     {r4-r6,lr}
        0x100025e2:    2601        .&      MOVS     r6,#1
        0x100025e4:    4605        .F      MOV      r5,r0
        0x100025e6:    4c26        &L      LDR      r4,[pc,#152] ; [0x10002680] = 0x20003068
        0x100025e8:    0336        6.      LSLS     r6,r6,#12
        0x100025ea:    4b27        'K      LDR      r3,[pc,#156] ; [0x10002688] = 0x5443
        0x100025ec:    2000        .       MOVS     r0,#0
        0x100025ee:    4631        1F      MOV      r1,r6
        0x100025f0:    3bea        .;      SUBS     r3,r3,#0xea
        0x100025f2:    69a2        .i      LDR      r2,[r4,#0x18]
        0x100025f4:    4798        .G      BLX      r3
        0x100025f6:    492d        -I      LDR      r1,[pc,#180] ; [0x100026ac] = 0x3da1
        0x100025f8:    4628        (F      MOV      r0,r5
        0x100025fa:    4788        .G      BLX      r1
        0x100025fc:    68a0        .h      LDR      r0,[r4,#8]
        0x100025fe:    301c        .0      ADDS     r0,r0,#0x1c
        0x10002600:    f000fc03    ....    BL       __aeabi_uread4 ; 0x10002e0a
        0x10002604:    69a1        .i      LDR      r1,[r4,#0x18]
        0x10002606:    2207        ."      MOVS     r2,#7
        0x10002608:    1840        @.      ADDS     r0,r0,r1
        0x1000260a:    68e1        .h      LDR      r1,[r4,#0xc]
        0x1000260c:    310a        .1      ADDS     r1,r1,#0xa
        0x1000260e:    f000fbcb    ....    BL       __aeabi_memcpy ; 0x10002da8
        0x10002612:    2101        .!      MOVS     r1,#1
        0x10002614:    4a1c        .J      LDR      r2,[pc,#112] ; [0x10002688] = 0x5443
        0x10002616:    2000        .       MOVS     r0,#0
        0x10002618:    4790        .G      BLX      r2
        0x1000261a:    4b1b        .K      LDR      r3,[pc,#108] ; [0x10002688] = 0x5443
        0x1000261c:    2000        .       MOVS     r0,#0
        0x1000261e:    4631        1F      MOV      r1,r6
        0x10002620:    3b82        .;      SUBS     r3,r3,#0x82
        0x10002622:    69a2        .i      LDR      r2,[r4,#0x18]
        0x10002624:    4798        .G      BLX      r3
        0x10002626:    bd70        p.      POP      {r4-r6,pc}
    gap_s_verdor_datas_get
        0x10002628:    b510        ..      PUSH     {r4,lr}
        0x1000262a:    4604        .F      MOV      r4,r0
        0x1000262c:    4814        .H      LDR      r0,[pc,#80] ; [0x10002680] = 0x20003068
        0x1000262e:    6880        .h      LDR      r0,[r0,#8]
        0x10002630:    300a        .0      ADDS     r0,r0,#0xa
        0x10002632:    f000fbea    ....    BL       __aeabi_uread4 ; 0x10002e0a
        0x10002636:    4b14        .K      LDR      r3,[pc,#80] ; [0x10002688] = 0x5443
        0x10002638:    2110        .!      MOVS     r1,#0x10
        0x1000263a:    3bea        .;      SUBS     r3,r3,#0xea
        0x1000263c:    4622        "F      MOV      r2,r4
        0x1000263e:    3057        W0      ADDS     r0,r0,#0x57
        0x10002640:    4798        .G      BLX      r3
        0x10002642:    e41f        ..      B        0x10001e84 ; ATTCReadReq + 22
    gap_s_verdor_datas_set
        0x10002644:    b570        p.      PUSH     {r4-r6,lr}
        0x10002646:    2601        .&      MOVS     r6,#1
        0x10002648:    4605        .F      MOV      r5,r0
        0x1000264a:    4c0d        .L      LDR      r4,[pc,#52] ; [0x10002680] = 0x20003068
        0x1000264c:    0336        6.      LSLS     r6,r6,#12
        0x1000264e:    4b0e        .K      LDR      r3,[pc,#56] ; [0x10002688] = 0x5443
        0x10002650:    2000        .       MOVS     r0,#0
        0x10002652:    4631        1F      MOV      r1,r6
        0x10002654:    3bea        .;      SUBS     r3,r3,#0xea
        0x10002656:    69a2        .i      LDR      r2,[r4,#0x18]
        0x10002658:    4798        .G      BLX      r3
        0x1000265a:    2101        .!      MOVS     r1,#1
        0x1000265c:    4a0a        .J      LDR      r2,[pc,#40] ; [0x10002688] = 0x5443
        0x1000265e:    2000        .       MOVS     r0,#0
        0x10002660:    4790        .G      BLX      r2
        0x10002662:    68a0        .h      LDR      r0,[r4,#8]
        0x10002664:    300a        .0      ADDS     r0,r0,#0xa
        0x10002666:    f000fbd0    ....    BL       __aeabi_uread4 ; 0x10002e0a
        0x1000266a:    69a1        .i      LDR      r1,[r4,#0x18]
        0x1000266c:    2210        ."      MOVS     r2,#0x10
        0x1000266e:    3157        W1      ADDS     r1,r1,#0x57
        0x10002670:    1840        @.      ADDS     r0,r0,r1
        0x10002672:    4629        )F      MOV      r1,r5
        0x10002674:    f000fb98    ....    BL       __aeabi_memcpy ; 0x10002da8
        0x10002678:    4631        1F      MOV      r1,r6
        0x1000267a:    2000        .       MOVS     r0,#0
        0x1000267c:    4b02        .K      LDR      r3,[pc,#8] ; [0x10002688] = 0x5443
        0x1000267e:    e017        ..      B        0x100026b0 ; gap_s_verdor_datas_set + 108
    $d
        0x10002680:    20003068    h0.     DCD    536883304
        0x10002684:    20003130    01.     DCD    536883504
        0x10002688:    00005443    CT..    DCD    21571
        0x1000268c:    00004a7b    {J..    DCD    19067
        0x10002690:    0000465b    [F..    DCD    18011
        0x10002694:    00008000    ....    DCD    32768
        0x10002698:    00003ea1    .>..    DCD    16033
        0x1000269c:    00004bf9    .K..    DCD    19449
        0x100026a0:    0000654d    Me..    DCD    25933
        0x100026a4:    0000622b    +b..    DCD    25131
        0x100026a8:    00006a77    wj..    DCD    27255
        0x100026ac:    00003da1    .=..    DCD    15777
    $t
        0x100026b0:    3b82        .;      SUBS     r3,r3,#0x82
        0x100026b2:    69a2        .i      LDR      r2,[r4,#0x18]
        0x100026b4:    4798        .G      BLX      r3
        0x100026b6:    bd70        p.      POP      {r4-r6,pc}
    gap_s_is_ll_start_enc
        0x100026b8:    48fe        .H      LDR      r0,[pc,#1016] ; [0x10002ab4] = 0x20003068
        0x100026ba:    6940        @i      LDR      r0,[r0,#0x14]
        0x100026bc:    7801        .x      LDRB     r1,[r0,#0]
        0x100026be:    43c9        .C      MVNS     r1,r1
        0x100026c0:    0789        ..      LSLS     r1,r1,#30
        0x100026c2:    d102        ..      BNE      0x100026ca ; gap_s_is_ll_start_enc + 18
        0x100026c4:    7880        .x      LDRB     r0,[r0,#2]
        0x100026c6:    2806        .(      CMP      r0,#6
        0x100026c8:    d001        ..      BEQ      0x100026ce ; gap_s_is_ll_start_enc + 22
        0x100026ca:    2000        .       MOVS     r0,#0
        0x100026cc:    4770        pG      BX       lr
        0x100026ce:    2001        .       MOVS     r0,#1
        0x100026d0:    4770        pG      BX       lr
    GAPBBTXFIFO0Write
        0x100026d2:    4af9        .J      LDR      r2,[pc,#996] ; [0x10002ab8] = 0x60d9
        0x100026d4:    4710        .G      BX       r2
    flash_peotect_key_confirm
        0x100026d6:    b5f3        ..      PUSH     {r0,r1,r4-r7,lr}
        0x100026d8:    b081        ..      SUB      sp,sp,#4
        0x100026da:    0006        ..      MOVS     r6,r0
        0x100026dc:    d024        $.      BEQ      0x10002728 ; flash_peotect_key_confirm + 82
        0x100026de:    4ff5        .O      LDR      r7,[pc,#980] ; [0x10002ab4] = 0x20003068
        0x100026e0:    6a38        8j      LDR      r0,[r7,#0x20]
        0x100026e2:    4604        .F      MOV      r4,r0
        0x100026e4:    79c1        .y      LDRB     r1,[r0,#7]
        0x100026e6:    7980        .y      LDRB     r0,[r0,#6]
        0x100026e8:    020d        ..      LSLS     r5,r1,#8
        0x100026ea:    4305        .C      ORRS     r5,r5,r0
        0x100026ec:    1ce0        ..      ADDS     r0,r4,#3
        0x100026ee:    f000fb8c    ....    BL       __aeabi_uread4 ; 0x10002e0a
        0x100026f2:    0201        ..      LSLS     r1,r0,#8
        0x100026f4:    78a0        .x      LDRB     r0,[r4,#2]
        0x100026f6:    4301        .C      ORRS     r1,r1,r0
        0x100026f8:    460c        .F      MOV      r4,r1
        0x100026fa:    2d00        .-      CMP      r5,#0
        0x100026fc:    d016        ..      BEQ      0x1000272c ; flash_peotect_key_confirm + 86
        0x100026fe:    2c00        .,      CMP      r4,#0
        0x10002700:    d014        ..      BEQ      0x1000272c ; flash_peotect_key_confirm + 86
        0x10002702:    2101        .!      MOVS     r1,#1
        0x10002704:    0309        ..      LSLS     r1,r1,#12
        0x10002706:    4bed        .K      LDR      r3,[pc,#948] ; [0x10002abc] = 0x5359
        0x10002708:    2000        .       MOVS     r0,#0
        0x1000270a:    69ba        .i      LDR      r2,[r7,#0x18]
        0x1000270c:    4798        .G      BLX      r3
        0x1000270e:    68b8        .h      LDR      r0,[r7,#8]
        0x10002710:    300a        .0      ADDS     r0,r0,#0xa
        0x10002712:    f000fb7a    ..z.    BL       __aeabi_uread4 ; 0x10002e0a
        0x10002716:    69b9        .i      LDR      r1,[r7,#0x18]
        0x10002718:    3167        g1      ADDS     r1,r1,#0x67
        0x1000271a:    5c40        @\      LDRB     r0,[r0,r1]
        0x1000271c:    1c40        @.      ADDS     r0,r0,#1
        0x1000271e:    b2c7        ..      UXTB     r7,r0
        0x10002720:    2f03        ./      CMP      r7,#3
        0x10002722:    d905        ..      BLS      0x10002730 ; flash_peotect_key_confirm + 90
        0x10002724:    2002        .       MOVS     r0,#2
        0x10002726:    bdfe        ..      POP      {r1-r7,pc}
        0x10002728:    2001        .       MOVS     r0,#1
        0x1000272a:    bdfe        ..      POP      {r1-r7,pc}
        0x1000272c:    2004        .       MOVS     r0,#4
        0x1000272e:    bdfe        ..      POP      {r1-r7,pc}
        0x10002730:    42b5        .B      CMP      r5,r6
        0x10002732:    d104        ..      BNE      0x1000273e ; flash_peotect_key_confirm + 104
        0x10002734:    9802        ..      LDR      r0,[sp,#8]
        0x10002736:    4284        .B      CMP      r4,r0
        0x10002738:    d101        ..      BNE      0x1000273e ; flash_peotect_key_confirm + 104
        0x1000273a:    2000        .       MOVS     r0,#0
        0x1000273c:    bdfe        ..      POP      {r1-r7,pc}
        0x1000273e:    4adf        .J      LDR      r2,[pc,#892] ; [0x10002abc] = 0x5359
        0x10002740:    2101        .!      MOVS     r1,#1
        0x10002742:    2000        .       MOVS     r0,#0
        0x10002744:    32ea        .2      ADDS     r2,r2,#0xea
        0x10002746:    4790        .G      BLX      r2
        0x10002748:    4cda        .L      LDR      r4,[pc,#872] ; [0x10002ab4] = 0x20003068
        0x1000274a:    68a0        .h      LDR      r0,[r4,#8]
        0x1000274c:    300a        .0      ADDS     r0,r0,#0xa
        0x1000274e:    f000fb5c    ..\.    BL       __aeabi_uread4 ; 0x10002e0a
        0x10002752:    69a2        .i      LDR      r2,[r4,#0x18]
        0x10002754:    4bd9        .K      LDR      r3,[pc,#868] ; [0x10002abc] = 0x5359
        0x10002756:    4611        .F      MOV      r1,r2
        0x10002758:    3167        g1      ADDS     r1,r1,#0x67
        0x1000275a:    5447        GT      STRB     r7,[r0,r1]
        0x1000275c:    2101        .!      MOVS     r1,#1
        0x1000275e:    0309        ..      LSLS     r1,r1,#12
        0x10002760:    2000        .       MOVS     r0,#0
        0x10002762:    3368        h3      ADDS     r3,r3,#0x68
        0x10002764:    4798        .G      BLX      r3
        0x10002766:    2003        .       MOVS     r0,#3
        0x10002768:    bdfe        ..      POP      {r1-r7,pc}
    flash_data_offect_get
        0x1000276a:    48d5        .H      LDR      r0,[pc,#852] ; [0x10002ac0] = 0x20003130
        0x1000276c:    2101        .!      MOVS     r1,#1
        0x1000276e:    7802        .x      LDRB     r2,[r0,#0]
        0x10002770:    48d0        .H      LDR      r0,[pc,#832] ; [0x10002ab4] = 0x20003068
        0x10002772:    0709        ..      LSLS     r1,r1,#28
        0x10002774:    6880        .h      LDR      r0,[r0,#8]
        0x10002776:    2a00        .*      CMP      r2,#0
        0x10002778:    d003        ..      BEQ      0x10002782 ; flash_data_offect_get + 24
        0x1000277a:    2a01        .*      CMP      r2,#1
        0x1000277c:    d007        ..      BEQ      0x1000278e ; flash_data_offect_get + 36
        0x1000277e:    2000        .       MOVS     r0,#0
        0x10002780:    4770        pG      BX       lr
        0x10002782:    7bc2        .{      LDRB     r2,[r0,#0xf]
        0x10002784:    7b83        .{      LDRB     r3,[r0,#0xe]
        0x10002786:    0210        ..      LSLS     r0,r2,#8
        0x10002788:    4318        .C      ORRS     r0,r0,r3
        0x1000278a:    0340        @.      LSLS     r0,r0,#13
        0x1000278c:    e004        ..      B        0x10002798 ; flash_data_offect_get + 46
        0x1000278e:    7bc2        .{      LDRB     r2,[r0,#0xf]
        0x10002790:    7b83        .{      LDRB     r3,[r0,#0xe]
        0x10002792:    0210        ..      LSLS     r0,r2,#8
        0x10002794:    4318        .C      ORRS     r0,r0,r3
        0x10002796:    0300        ..      LSLS     r0,r0,#12
        0x10002798:    1840        @.      ADDS     r0,r0,r1
        0x1000279a:    4770        pG      BX       lr
    EraseCodeB
        0x1000279c:    b570        p.      PUSH     {r4-r6,lr}
        0x1000279e:    4604        .F      MOV      r4,r0
        0x100027a0:    48c7        .H      LDR      r0,[pc,#796] ; [0x10002ac0] = 0x20003130
        0x100027a2:    460d        .F      MOV      r5,r1
        0x100027a4:    7801        .x      LDRB     r1,[r0,#0]
        0x100027a6:    48c3        .H      LDR      r0,[pc,#780] ; [0x10002ab4] = 0x20003068
        0x100027a8:    2601        .&      MOVS     r6,#1
        0x100027aa:    03b6        ..      LSLS     r6,r6,#14
        0x100027ac:    6880        .h      LDR      r0,[r0,#8]
        0x100027ae:    2900        .)      CMP      r1,#0
        0x100027b0:    d003        ..      BEQ      0x100027ba ; EraseCodeB + 30
        0x100027b2:    2901        .)      CMP      r1,#1
        0x100027b4:    d003        ..      BEQ      0x100027be ; EraseCodeB + 34
        0x100027b6:    2000        .       MOVS     r0,#0
        0x100027b8:    bd70        p.      POP      {r4-r6,pc}
        0x100027ba:    3014        .0      ADDS     r0,r0,#0x14
        0x100027bc:    e000        ..      B        0x100027c0 ; EraseCodeB + 36
        0x100027be:    3010        .0      ADDS     r0,r0,#0x10
        0x100027c0:    f000fb23    ..#.    BL       __aeabi_uread4 ; 0x10002e0a
        0x100027c4:    1980        ..      ADDS     r0,r0,r6
        0x100027c6:    b672        r.      CPSID    i
        0x100027c8:    1900        ..      ADDS     r0,r0,r4
        0x100027ca:    4abc        .J      LDR      r2,[pc,#752] ; [0x10002abc] = 0x5359
        0x100027cc:    4629        )F      MOV      r1,r5
        0x100027ce:    32ea        .2      ADDS     r2,r2,#0xea
        0x100027d0:    4790        .G      BLX      r2
        0x100027d2:    b662        b.      CPSIE    i
        0x100027d4:    bd70        p.      POP      {r4-r6,pc}
    ReadCodeB
        0x100027d6:    b5f8        ..      PUSH     {r3-r7,lr}
        0x100027d8:    4605        .F      MOV      r5,r0
        0x100027da:    48b9        .H      LDR      r0,[pc,#740] ; [0x10002ac0] = 0x20003130
        0x100027dc:    460f        .F      MOV      r7,r1
        0x100027de:    7801        .x      LDRB     r1,[r0,#0]
        0x100027e0:    48b4        .H      LDR      r0,[pc,#720] ; [0x10002ab4] = 0x20003068
        0x100027e2:    2401        .$      MOVS     r4,#1
        0x100027e4:    03a4        ..      LSLS     r4,r4,#14
        0x100027e6:    6880        .h      LDR      r0,[r0,#8]
        0x100027e8:    4616        .F      MOV      r6,r2
        0x100027ea:    2900        .)      CMP      r1,#0
        0x100027ec:    d003        ..      BEQ      0x100027f6 ; ReadCodeB + 32
        0x100027ee:    2901        .)      CMP      r1,#1
        0x100027f0:    d003        ..      BEQ      0x100027fa ; ReadCodeB + 36
        0x100027f2:    2000        .       MOVS     r0,#0
        0x100027f4:    e4a8        ..      B        0x10002148 ; EraseFlashData + 36
        0x100027f6:    3014        .0      ADDS     r0,r0,#0x14
        0x100027f8:    e000        ..      B        0x100027fc ; ReadCodeB + 38
        0x100027fa:    3010        .0      ADDS     r0,r0,#0x10
        0x100027fc:    f000fb05    ....    BL       __aeabi_uread4 ; 0x10002e0a
        0x10002800:    1900        ..      ADDS     r0,r0,r4
        0x10002802:    b672        r.      CPSID    i
        0x10002804:    1940        @.      ADDS     r0,r0,r5
        0x10002806:    4bad        .K      LDR      r3,[pc,#692] ; [0x10002abc] = 0x5359
        0x10002808:    4632        2F      MOV      r2,r6
        0x1000280a:    4639        9F      MOV      r1,r7
        0x1000280c:    4798        .G      BLX      r3
        0x1000280e:    b662        b.      CPSIE    i
        0x10002810:    e49a        ..      B        0x10002148 ; EraseFlashData + 36
    WriteCodeB
        0x10002812:    b5f8        ..      PUSH     {r3-r7,lr}
        0x10002814:    4605        .F      MOV      r5,r0
        0x10002816:    48aa        .H      LDR      r0,[pc,#680] ; [0x10002ac0] = 0x20003130
        0x10002818:    460f        .F      MOV      r7,r1
        0x1000281a:    7801        .x      LDRB     r1,[r0,#0]
        0x1000281c:    48a5        .H      LDR      r0,[pc,#660] ; [0x10002ab4] = 0x20003068
        0x1000281e:    2401        .$      MOVS     r4,#1
        0x10002820:    03a4        ..      LSLS     r4,r4,#14
        0x10002822:    6880        .h      LDR      r0,[r0,#8]
        0x10002824:    4616        .F      MOV      r6,r2
        0x10002826:    2900        .)      CMP      r1,#0
        0x10002828:    d003        ..      BEQ      0x10002832 ; WriteCodeB + 32
        0x1000282a:    2901        .)      CMP      r1,#1
        0x1000282c:    d003        ..      BEQ      0x10002836 ; WriteCodeB + 36
        0x1000282e:    2000        .       MOVS     r0,#0
        0x10002830:    e48a        ..      B        0x10002148 ; EraseFlashData + 36
        0x10002832:    3014        .0      ADDS     r0,r0,#0x14
        0x10002834:    e000        ..      B        0x10002838 ; WriteCodeB + 38
        0x10002836:    3010        .0      ADDS     r0,r0,#0x10
        0x10002838:    f000fae7    ....    BL       __aeabi_uread4 ; 0x10002e0a
        0x1000283c:    1900        ..      ADDS     r0,r0,r4
        0x1000283e:    b672        r.      CPSID    i
        0x10002840:    1940        @.      ADDS     r0,r0,r5
        0x10002842:    4b9e        .K      LDR      r3,[pc,#632] ; [0x10002abc] = 0x5359
        0x10002844:    4632        2F      MOV      r2,r6
        0x10002846:    4639        9F      MOV      r1,r7
        0x10002848:    3368        h3      ADDS     r3,r3,#0x68
        0x1000284a:    4798        .G      BLX      r3
        0x1000284c:    b662        b.      CPSIE    i
        0x1000284e:    e47b        {.      B        0x10002148 ; EraseFlashData + 36
    ble_SetTxPower
        0x10002850:    b510        ..      PUSH     {r4,lr}
        0x10002852:    0003        ..      MOVS     r3,r0
        0x10002854:    f000fea7    ....    BL       __ARM_common_switch8 ; 0x100035a6
    $d
        0x10002858:    160c0609    ....    DCD    369886729
        0x1000285c:    3e342a20     *4>    DCD    1043606048
        0x10002860:    00775b41    A[w.    DCD    7822145
    $t
        0x10002864:    2101        .!      MOVS     r1,#1
        0x10002866:    207f        .       MOVS     r0,#0x7f
        0x10002868:    f7fefbae    ....    BL       BBRFWrite ; 0x10000fc8
        0x1000286c:    2188        .!      MOVS     r1,#0x88
        0x1000286e:    e004        ..      B        0x1000287a ; ble_SetTxPower + 42
        0x10002870:    2101        .!      MOVS     r1,#1
        0x10002872:    207f        .       MOVS     r0,#0x7f
        0x10002874:    f7fefba8    ....    BL       BBRFWrite ; 0x10000fc8
        0x10002878:    218a        .!      MOVS     r1,#0x8a
        0x1000287a:    2061        a       MOVS     r0,#0x61
        0x1000287c:    f7fefba4    ....    BL       BBRFWrite ; 0x10000fc8
        0x10002880:    2181        .!      MOVS     r1,#0x81
        0x10002882:    e05d        ].      B        0x10002940 ; ble_SetTxPower + 240
        0x10002884:    2101        .!      MOVS     r1,#1
        0x10002886:    207f        .       MOVS     r0,#0x7f
        0x10002888:    f7fefb9e    ....    BL       BBRFWrite ; 0x10000fc8
        0x1000288c:    218a        .!      MOVS     r1,#0x8a
        0x1000288e:    2061        a       MOVS     r0,#0x61
        0x10002890:    f7fefb9a    ....    BL       BBRFWrite ; 0x10000fc8
        0x10002894:    2183        .!      MOVS     r1,#0x83
        0x10002896:    e053        S.      B        0x10002940 ; ble_SetTxPower + 240
        0x10002898:    2101        .!      MOVS     r1,#1
        0x1000289a:    207f        .       MOVS     r0,#0x7f
        0x1000289c:    f7fefb94    ....    BL       BBRFWrite ; 0x10000fc8
        0x100028a0:    218a        .!      MOVS     r1,#0x8a
        0x100028a2:    2061        a       MOVS     r0,#0x61
        0x100028a4:    f7fefb90    ....    BL       BBRFWrite ; 0x10000fc8
        0x100028a8:    2187        .!      MOVS     r1,#0x87
        0x100028aa:    e049        I.      B        0x10002940 ; ble_SetTxPower + 240
        0x100028ac:    2101        .!      MOVS     r1,#1
        0x100028ae:    207f        .       MOVS     r0,#0x7f
        0x100028b0:    f7fefb8a    ....    BL       BBRFWrite ; 0x10000fc8
        0x100028b4:    218a        .!      MOVS     r1,#0x8a
        0x100028b6:    2061        a       MOVS     r0,#0x61
        0x100028b8:    f7fefb86    ....    BL       BBRFWrite ; 0x10000fc8
        0x100028bc:    218f        .!      MOVS     r1,#0x8f
        0x100028be:    e03f        ?.      B        0x10002940 ; ble_SetTxPower + 240
        0x100028c0:    2101        .!      MOVS     r1,#1
        0x100028c2:    207f        .       MOVS     r0,#0x7f
        0x100028c4:    f7fefb80    ....    BL       BBRFWrite ; 0x10000fc8
        0x100028c8:    218a        .!      MOVS     r1,#0x8a
        0x100028ca:    2061        a       MOVS     r0,#0x61
        0x100028cc:    f7fefb7c    ..|.    BL       BBRFWrite ; 0x10000fc8
        0x100028d0:    219f        .!      MOVS     r1,#0x9f
        0x100028d2:    e035        5.      B        0x10002940 ; ble_SetTxPower + 240
        0x100028d4:    2101        .!      MOVS     r1,#1
        0x100028d6:    207f        .       MOVS     r0,#0x7f
        0x100028d8:    e02b        +.      B        0x10002932 ; ble_SetTxPower + 226
        0x100028da:    2100        .!      MOVS     r1,#0
        0x100028dc:    207f        .       MOVS     r0,#0x7f
        0x100028de:    f7fefb73    ..s.    BL       BBRFWrite ; 0x10000fc8
        0x100028e2:    2102        .!      MOVS     r1,#2
        0x100028e4:    2030        0       MOVS     r0,#0x30
        0x100028e6:    f7fefb6f    ..o.    BL       BBRFWrite ; 0x10000fc8
        0x100028ea:    2101        .!      MOVS     r1,#1
        0x100028ec:    207f        .       MOVS     r0,#0x7f
        0x100028ee:    f7fefb6b    ..k.    BL       BBRFWrite ; 0x10000fc8
        0x100028f2:    211f        .!      MOVS     r1,#0x1f
        0x100028f4:    2063        c       MOVS     r0,#0x63
        0x100028f6:    f7fefb67    ..g.    BL       BBRFWrite ; 0x10000fc8
        0x100028fa:    2103        .!      MOVS     r1,#3
        0x100028fc:    206d        m       MOVS     r0,#0x6d
        0x100028fe:    f7fefb63    ..c.    BL       BBRFWrite ; 0x10000fc8
        0x10002902:    218a        .!      MOVS     r1,#0x8a
        0x10002904:    2061        a       MOVS     r0,#0x61
        0x10002906:    f7fefb5f    .._.    BL       BBRFWrite ; 0x10000fc8
        0x1000290a:    21b0        .!      MOVS     r1,#0xb0
        0x1000290c:    e018        ..      B        0x10002940 ; ble_SetTxPower + 240
        0x1000290e:    2100        .!      MOVS     r1,#0
        0x10002910:    207f        .       MOVS     r0,#0x7f
        0x10002912:    f7fefb59    ..Y.    BL       BBRFWrite ; 0x10000fc8
        0x10002916:    2102        .!      MOVS     r1,#2
        0x10002918:    2030        0       MOVS     r0,#0x30
        0x1000291a:    f7fefb55    ..U.    BL       BBRFWrite ; 0x10000fc8
        0x1000291e:    2101        .!      MOVS     r1,#1
        0x10002920:    207f        .       MOVS     r0,#0x7f
        0x10002922:    f7fefb51    ..Q.    BL       BBRFWrite ; 0x10000fc8
        0x10002926:    211f        .!      MOVS     r1,#0x1f
        0x10002928:    2063        c       MOVS     r0,#0x63
        0x1000292a:    f7fefb4d    ..M.    BL       BBRFWrite ; 0x10000fc8
        0x1000292e:    2107        .!      MOVS     r1,#7
        0x10002930:    206d        m       MOVS     r0,#0x6d
        0x10002932:    f7fefb49    ..I.    BL       BBRFWrite ; 0x10000fc8
        0x10002936:    218a        .!      MOVS     r1,#0x8a
        0x10002938:    2061        a       MOVS     r0,#0x61
        0x1000293a:    f7fefb45    ..E.    BL       BBRFWrite ; 0x10000fc8
        0x1000293e:    21bf        .!      MOVS     r1,#0xbf
        0x10002940:    2065        e       MOVS     r0,#0x65
        0x10002942:    f7fefb41    ..A.    BL       BBRFWrite ; 0x10000fc8
        0x10002946:    e67c        |.      B        0x10002642 ; gap_s_verdor_datas_get + 26
    flash_data_size_get
        0x10002948:    b510        ..      PUSH     {r4,lr}
        0x1000294a:    485a        ZH      LDR      r0,[pc,#360] ; [0x10002ab4] = 0x20003068
        0x1000294c:    6880        .h      LDR      r0,[r0,#8]
        0x1000294e:    3028        (0      ADDS     r0,r0,#0x28
        0x10002950:    f000fa5b    ..[.    BL       __aeabi_uread4 ; 0x10002e0a
        0x10002954:    2101        .!      MOVS     r1,#1
        0x10002956:    04c9        ..      LSLS     r1,r1,#19
        0x10002958:    1a08        ..      SUBS     r0,r1,r0
        0x1000295a:    e672        r.      B        0x10002642 ; gap_s_verdor_datas_get + 26
    code_idx_get
        0x1000295c:    4858        XH      LDR      r0,[pc,#352] ; [0x10002ac0] = 0x20003130
        0x1000295e:    7800        .x      LDRB     r0,[r0,#0]
        0x10002960:    4770        pG      BX       lr
    flash_data_size_set
        0x10002962:    b5f8        ..      PUSH     {r3-r7,lr}
        0x10002964:    4605        .F      MOV      r5,r0
        0x10002966:    4e53        SN      LDR      r6,[pc,#332] ; [0x10002ab4] = 0x20003068
        0x10002968:    4855        UH      LDR      r0,[pc,#340] ; [0x10002ac0] = 0x20003130
        0x1000296a:    69b2        .i      LDR      r2,[r6,#0x18]
        0x1000296c:    7800        .x      LDRB     r0,[r0,#0]
        0x1000296e:    4614        .F      MOV      r4,r2
        0x10002970:    2800        .(      CMP      r0,#0
        0x10002972:    d001        ..      BEQ      0x10002978 ; flash_data_size_set + 22
        0x10002974:    2000        .       MOVS     r0,#0
        0x10002976:    e4c0        ..      B        0x100022fa ; _FMCodeWrite + 56
        0x10002978:    0528        (.      LSLS     r0,r5,#20
        0x1000297a:    d002        ..      BEQ      0x10002982 ; flash_data_size_set + 32
        0x1000297c:    0528        (.      LSLS     r0,r5,#20
        0x1000297e:    0d00        ..      LSRS     r0,r0,#20
        0x10002980:    1a2d        -.      SUBS     r5,r5,r0
        0x10002982:    b672        r.      CPSID    i
        0x10002984:    2101        .!      MOVS     r1,#1
        0x10002986:    0309        ..      LSLS     r1,r1,#12
        0x10002988:    4f4c        LO      LDR      r7,[pc,#304] ; [0x10002abc] = 0x5359
        0x1000298a:    2000        .       MOVS     r0,#0
        0x1000298c:    47b8        .G      BLX      r7
        0x1000298e:    b662        b.      CPSIE    i
        0x10002990:    2001        .       MOVS     r0,#1
        0x10002992:    04c0        ..      LSLS     r0,r0,#19
        0x10002994:    4621        !F      MOV      r1,r4
        0x10002996:    1b40        @.      SUBS     r0,r0,r5
        0x10002998:    3128        (1      ADDS     r1,r1,#0x28
        0x1000299a:    f000fa40    ..@.    BL       __aeabi_uwrite4 ; 0x10002e1e
        0x1000299e:    4605        .F      MOV      r5,r0
        0x100029a0:    4620         F      MOV      r0,r4
        0x100029a2:    3010        .0      ADDS     r0,r0,#0x10
        0x100029a4:    f000fa31    ..1.    BL       __aeabi_uread4 ; 0x10002e0a
        0x100029a8:    9000        ..      STR      r0,[sp,#0]
        0x100029aa:    1a28        (.      SUBS     r0,r5,r0
        0x100029ac:    0841        A.      LSRS     r1,r0,#1
        0x100029ae:    9800        ..      LDR      r0,[sp,#0]
        0x100029b0:    1808        ..      ADDS     r0,r1,r0
        0x100029b2:    4621        !F      MOV      r1,r4
        0x100029b4:    3114        .1      ADDS     r1,r1,#0x14
        0x100029b6:    f000fa32    ..2.    BL       __aeabi_uwrite4 ; 0x10002e1e
        0x100029ba:    4601        .F      MOV      r1,r0
        0x100029bc:    9800        ..      LDR      r0,[sp,#0]
        0x100029be:    1a08        ..      SUBS     r0,r1,r0
        0x100029c0:    0100        ..      LSLS     r0,r0,#4
        0x100029c2:    0c00        ..      LSRS     r0,r0,#16
        0x100029c4:    73a0        .s      STRB     r0,[r4,#0xe]
        0x100029c6:    0a00        ..      LSRS     r0,r0,#8
        0x100029c8:    73e0        .s      STRB     r0,[r4,#0xf]
        0x100029ca:    b672        r.      CPSID    i
        0x100029cc:    2101        .!      MOVS     r1,#1
        0x100029ce:    4a3b        ;J      LDR      r2,[pc,#236] ; [0x10002abc] = 0x5359
        0x100029d0:    2000        .       MOVS     r0,#0
        0x100029d2:    32ea        .2      ADDS     r2,r2,#0xea
        0x100029d4:    4790        .G      BLX      r2
        0x100029d6:    b662        b.      CPSIE    i
        0x100029d8:    b672        r.      CPSID    i
        0x100029da:    2101        .!      MOVS     r1,#1
        0x100029dc:    4b37        7K      LDR      r3,[pc,#220] ; [0x10002abc] = 0x5359
        0x100029de:    0309        ..      LSLS     r1,r1,#12
        0x100029e0:    2000        .       MOVS     r0,#0
        0x100029e2:    3368        h3      ADDS     r3,r3,#0x68
        0x100029e4:    69b2        .i      LDR      r2,[r6,#0x18]
        0x100029e6:    4798        .G      BLX      r3
        0x100029e8:    2131        1!      MOVS     r1,#0x31
        0x100029ea:    2000        .       MOVS     r0,#0
        0x100029ec:    68b2        .h      LDR      r2,[r6,#8]
        0x100029ee:    47b8        .G      BLX      r7
        0x100029f0:    b662        b.      CPSIE    i
        0x100029f2:    2001        .       MOVS     r0,#1
        0x100029f4:    e481        ..      B        0x100022fa ; _FMCodeWrite + 56
    Get_RSSI_Last_RX
        0x100029f6:    482f        /H      LDR      r0,[pc,#188] ; [0x10002ab4] = 0x20003068
        0x100029f8:    4b2e        .K      LDR      r3,[pc,#184] ; [0x10002ab4] = 0x20003068
        0x100029fa:    7980        .y      LDRB     r0,[r0,#6]
        0x100029fc:    799b        .y      LDRB     r3,[r3,#6]
        0x100029fe:    0902        ..      LSRS     r2,r0,#4
        0x10002a00:    071b        ..      LSLS     r3,r3,#28
        0x10002a02:    2009        .       MOVS     r0,#9
        0x10002a04:    0f1b        ..      LSRS     r3,r3,#28
        0x10002a06:    1ac0        ..      SUBS     r0,r0,r3
        0x10002a08:    2306        .#      MOVS     r3,#6
        0x10002a0a:    2100        .!      MOVS     r1,#0
        0x10002a0c:    4358        XC      MULS     r0,r3,r0
        0x10002a0e:    2a07        .*      CMP      r2,#7
        0x10002a10:    d008        ..      BEQ      0x10002a24 ; Get_RSSI_Last_RX + 46
        0x10002a12:    2a03        .*      CMP      r2,#3
        0x10002a14:    d009        ..      BEQ      0x10002a2a ; Get_RSSI_Last_RX + 52
        0x10002a16:    2a02        .*      CMP      r2,#2
        0x10002a18:    d00b        ..      BEQ      0x10002a32 ; Get_RSSI_Last_RX + 60
        0x10002a1a:    2a01        .*      CMP      r2,#1
        0x10002a1c:    d00c        ..      BEQ      0x10002a38 ; Get_RSSI_Last_RX + 66
        0x10002a1e:    2a00        .*      CMP      r2,#0
        0x10002a20:    d00d        ..      BEQ      0x10002a3e ; Get_RSSI_Last_RX + 72
        0x10002a22:    e00f        ..      B        0x10002a44 ; Get_RSSI_Last_RX + 78
        0x10002a24:    2141        A!      MOVS     r1,#0x41
        0x10002a26:    43c9        .C      MVNS     r1,r1
        0x10002a28:    e001        ..      B        0x10002a2e ; Get_RSSI_Last_RX + 56
        0x10002a2a:    2135        5!      MOVS     r1,#0x35
        0x10002a2c:    43c9        .C      MVNS     r1,r1
        0x10002a2e:    1a08        ..      SUBS     r0,r1,r0
        0x10002a30:    e007        ..      B        0x10002a42 ; Get_RSSI_Last_RX + 76
        0x10002a32:    2123        #!      MOVS     r1,#0x23
        0x10002a34:    43c9        .C      MVNS     r1,r1
        0x10002a36:    e7fa        ..      B        0x10002a2e ; Get_RSSI_Last_RX + 56
        0x10002a38:    2117        .!      MOVS     r1,#0x17
        0x10002a3a:    43c9        .C      MVNS     r1,r1
        0x10002a3c:    e7f7        ..      B        0x10002a2e ; Get_RSSI_Last_RX + 56
        0x10002a3e:    1d80        ..      ADDS     r0,r0,#6
        0x10002a40:    4240        @B      RSBS     r0,r0,#0
        0x10002a42:    b241        A.      SXTB     r1,r0
        0x10002a44:    b2c8        ..      UXTB     r0,r1
        0x10002a46:    4770        pG      BX       lr
    APP_Read_Attribute_Encrypt
        0x10002a48:    b5f3        ..      PUSH     {r0,r1,r4-r7,lr}
        0x10002a4a:    4e1e        .N      LDR      r6,[pc,#120] ; [0x10002ac4] = 0x28c9
        0x10002a4c:    4f1e        .O      LDR      r7,[pc,#120] ; [0x10002ac8] = 0xffff
        0x10002a4e:    b08d        ..      SUB      sp,sp,#0x34
        0x10002a50:    4605        .F      MOV      r5,r0
        0x10002a52:    2400        .$      MOVS     r4,#0
        0x10002a54:    2232        2"      MOVS     r2,#0x32
        0x10002a56:    466b        kF      MOV      r3,sp
        0x10002a58:    4621        !F      MOV      r1,r4
        0x10002a5a:    2003        .       MOVS     r0,#3
        0x10002a5c:    47b0        .G      BLX      r6
        0x10002a5e:    4668        hF      MOV      r0,sp
        0x10002a60:    8840        @.      LDRH     r0,[r0,#2]
        0x10002a62:    42a8        .B      CMP      r0,r5
        0x10002a64:    d106        ..      BNE      0x10002a74 ; APP_Read_Attribute_Encrypt + 44
        0x10002a66:    4668        hF      MOV      r0,sp
        0x10002a68:    7901        .y      LDRB     r1,[r0,#4]
        0x10002a6a:    980e        ..      LDR      r0,[sp,#0x38]
        0x10002a6c:    7001        .p      STRB     r1,[r0,#0]
        0x10002a6e:    2001        .       MOVS     r0,#1
        0x10002a70:    b00f        ..      ADD      sp,sp,#0x3c
        0x10002a72:    bdf0        ..      POP      {r4-r7,pc}
        0x10002a74:    42b8        .B      CMP      r0,r7
        0x10002a76:    d004        ..      BEQ      0x10002a82 ; APP_Read_Attribute_Encrypt + 58
        0x10002a78:    4668        hF      MOV      r0,sp
        0x10002a7a:    8800        ..      LDRH     r0,[r0,#0]
        0x10002a7c:    1900        ..      ADDS     r0,r0,r4
        0x10002a7e:    b284        ..      UXTH     r4,r0
        0x10002a80:    e7e8        ..      B        0x10002a54 ; APP_Read_Attribute_Encrypt + 12
        0x10002a82:    2000        .       MOVS     r0,#0
        0x10002a84:    e7f4        ..      B        0x10002a70 ; APP_Read_Attribute_Encrypt + 40
    APP_Write_Attribute_Encrypt
        0x10002a86:    b5f3        ..      PUSH     {r0,r1,r4-r7,lr}
        0x10002a88:    4e0e        .N      LDR      r6,[pc,#56] ; [0x10002ac4] = 0x28c9
        0x10002a8a:    4f0f        .O      LDR      r7,[pc,#60] ; [0x10002ac8] = 0xffff
        0x10002a8c:    b08d        ..      SUB      sp,sp,#0x34
        0x10002a8e:    4605        .F      MOV      r5,r0
        0x10002a90:    2400        .$      MOVS     r4,#0
        0x10002a92:    2232        2"      MOVS     r2,#0x32
        0x10002a94:    466b        kF      MOV      r3,sp
        0x10002a96:    4621        !F      MOV      r1,r4
        0x10002a98:    2003        .       MOVS     r0,#3
        0x10002a9a:    47b0        .G      BLX      r6
        0x10002a9c:    4668        hF      MOV      r0,sp
        0x10002a9e:    8840        @.      LDRH     r0,[r0,#2]
        0x10002aa0:    42a8        .B      CMP      r0,r5
        0x10002aa2:    d115        ..      BNE      0x10002ad0 ; APP_Write_Attribute_Encrypt + 74
        0x10002aa4:    1d24        $.      ADDS     r4,r4,#4
        0x10002aa6:    b2a1        ..      UXTH     r1,r4
        0x10002aa8:    2201        ."      MOVS     r2,#1
        0x10002aaa:    2003        .       MOVS     r0,#3
        0x10002aac:    9b0e        ..      LDR      r3,[sp,#0x38]
        0x10002aae:    f000f8fb    ....    BL       AttWriteFlash ; 0x10002ca8
        0x10002ab2:    e00b        ..      B        0x10002acc ; APP_Write_Attribute_Encrypt + 70
    $d
        0x10002ab4:    20003068    h0.     DCD    536883304
        0x10002ab8:    000060d9    .`..    DCD    24793
        0x10002abc:    00005359    YS..    DCD    21337
        0x10002ac0:    20003130    01.     DCD    536883504
        0x10002ac4:    000028c9    .(..    DCD    10441
        0x10002ac8:    0000ffff    ....    DCD    65535
    $t
        0x10002acc:    2001        .       MOVS     r0,#1
        0x10002ace:    e7cf        ..      B        0x10002a70 ; APP_Read_Attribute_Encrypt + 40
        0x10002ad0:    42b8        .B      CMP      r0,r7
        0x10002ad2:    d004        ..      BEQ      0x10002ade ; APP_Write_Attribute_Encrypt + 88
        0x10002ad4:    4668        hF      MOV      r0,sp
        0x10002ad6:    8800        ..      LDRH     r0,[r0,#0]
        0x10002ad8:    1900        ..      ADDS     r0,r0,r4
        0x10002ada:    b284        ..      UXTH     r4,r0
        0x10002adc:    e7d9        ..      B        0x10002a92 ; APP_Write_Attribute_Encrypt + 12
        0x10002ade:    2000        .       MOVS     r0,#0
        0x10002ae0:    e7c6        ..      B        0x10002a70 ; APP_Read_Attribute_Encrypt + 40
    APP_Read_Charact_Permission
        0x10002ae2:    b5f3        ..      PUSH     {r0,r1,r4-r7,lr}
        0x10002ae4:    4e93        .N      LDR      r6,[pc,#588] ; [0x10002d34] = 0x28c9
        0x10002ae6:    4f94        .O      LDR      r7,[pc,#592] ; [0x10002d38] = 0xffff
        0x10002ae8:    b08d        ..      SUB      sp,sp,#0x34
        0x10002aea:    4605        .F      MOV      r5,r0
        0x10002aec:    2400        .$      MOVS     r4,#0
        0x10002aee:    2232        2"      MOVS     r2,#0x32
        0x10002af0:    466b        kF      MOV      r3,sp
        0x10002af2:    4621        !F      MOV      r1,r4
        0x10002af4:    2002        .       MOVS     r0,#2
        0x10002af6:    47b0        .G      BLX      r6
        0x10002af8:    4668        hF      MOV      r0,sp
        0x10002afa:    7881        .x      LDRB     r1,[r0,#2]
        0x10002afc:    7842        Bx      LDRB     r2,[r0,#1]
        0x10002afe:    0208        ..      LSLS     r0,r1,#8
        0x10002b00:    4310        .C      ORRS     r0,r0,r2
        0x10002b02:    42a8        .B      CMP      r0,r5
        0x10002b04:    d105        ..      BNE      0x10002b12 ; APP_Read_Charact_Permission + 48
        0x10002b06:    4668        hF      MOV      r0,sp
        0x10002b08:    7941        Ay      LDRB     r1,[r0,#5]
        0x10002b0a:    980e        ..      LDR      r0,[sp,#0x38]
        0x10002b0c:    7001        .p      STRB     r1,[r0,#0]
        0x10002b0e:    2001        .       MOVS     r0,#1
        0x10002b10:    e7ae        ..      B        0x10002a70 ; APP_Read_Attribute_Encrypt + 40
        0x10002b12:    42b8        .B      CMP      r0,r7
        0x10002b14:    d004        ..      BEQ      0x10002b20 ; APP_Read_Charact_Permission + 62
        0x10002b16:    4668        hF      MOV      r0,sp
        0x10002b18:    7800        .x      LDRB     r0,[r0,#0]
        0x10002b1a:    1900        ..      ADDS     r0,r0,r4
        0x10002b1c:    b284        ..      UXTH     r4,r0
        0x10002b1e:    e7e6        ..      B        0x10002aee ; APP_Read_Charact_Permission + 12
        0x10002b20:    2000        .       MOVS     r0,#0
        0x10002b22:    e7a5        ..      B        0x10002a70 ; APP_Read_Attribute_Encrypt + 40
    smart_latency_target
        0x10002b24:    b510        ..      PUSH     {r4,lr}
        0x10002b26:    4985        .I      LDR      r1,[pc,#532] ; [0x10002d3c] = 0x20003187
        0x10002b28:    7848        Hx      LDRB     r0,[r1,#1]
        0x10002b2a:    7809        .x      LDRB     r1,[r1,#0]
        0x10002b2c:    0200        ..      LSLS     r0,r0,#8
        0x10002b2e:    4308        .C      ORRS     r0,r0,r1
        0x10002b30:    0680        ..      LSLS     r0,r0,#26
        0x10002b32:    d503        ..      BPL      0x10002b3c ; smart_latency_target + 24
        0x10002b34:    f7fef98b    ....    BL       smart_latency_start ; 0x10000e4e
        0x10002b38:    2001        .       MOVS     r0,#1
        0x10002b3a:    e582        ..      B        0x10002642 ; gap_s_verdor_datas_get + 26
        0x10002b3c:    2000        .       MOVS     r0,#0
        0x10002b3e:    e580        ..      B        0x10002642 ; gap_s_verdor_datas_get + 26
    smp_aes_encrypt
        0x10002b40:    4b7f        .K      LDR      r3,[pc,#508] ; [0x10002d40] = 0x2219
        0x10002b42:    4718        .G      BX       r3
    WaitLLCOverSlpth
        0x10002b44:    b510        ..      PUSH     {r4,lr}
        0x10002b46:    f000f8e7    ....    BL       GetOverSlpth ; 0x10002d18
        0x10002b4a:    2800        .(      CMP      r0,#0
        0x10002b4c:    d004        ..      BEQ      0x10002b58 ; WaitLLCOverSlpth + 20
        0x10002b4e:    f000f8e3    ....    BL       GetOverSlpth ; 0x10002d18
        0x10002b52:    2801        .(      CMP      r0,#1
        0x10002b54:    d0fb        ..      BEQ      0x10002b4e ; WaitLLCOverSlpth + 10
        0x10002b56:    e574        t.      B        0x10002642 ; gap_s_verdor_datas_get + 26
        0x10002b58:    f000f8de    ....    BL       GetOverSlpth ; 0x10002d18
        0x10002b5c:    2800        .(      CMP      r0,#0
        0x10002b5e:    d0fb        ..      BEQ      0x10002b58 ; WaitLLCOverSlpth + 20
        0x10002b60:    f000f8da    ....    BL       GetOverSlpth ; 0x10002d18
        0x10002b64:    2801        .(      CMP      r0,#1
        0x10002b66:    d0fb        ..      BEQ      0x10002b60 ; WaitLLCOverSlpth + 28
        0x10002b68:    e56b        k.      B        0x10002642 ; gap_s_verdor_datas_get + 26
    _BBRXFIFORead
        0x10002b6a:    b5f0        ..      PUSH     {r4-r7,lr}
        0x10002b6c:    4c75        uL      LDR      r4,[pc,#468] ; [0x10002d44] = 0x20003068
        0x10002b6e:    2500        .%      MOVS     r5,#0
        0x10002b70:    6aa4        .j      LDR      r4,[r4,#0x28]
        0x10002b72:    78e6        .x      LDRB     r6,[r4,#3]
        0x10002b74:    0736        6.      LSLS     r6,r6,#28
        0x10002b76:    d501        ..      BPL      0x10002b7c ; _BBRXFIFORead + 18
        0x10002b78:    2000        .       MOVS     r0,#0
        0x10002b7a:    bdf0        ..      POP      {r4-r7,pc}
        0x10002b7c:    bf00        ..      NOP      
        0x10002b7e:    1c6d        m.      ADDS     r5,r5,#1
        0x10002b80:    b2ed        ..      UXTB     r5,r5
        0x10002b82:    2d64        d-      CMP      r5,#0x64
        0x10002b84:    d3fa        ..      BCC      0x10002b7c ; _BBRXFIFORead + 18
        0x10002b86:    4625        %F      MOV      r5,r4
        0x10002b88:    3540        @5      ADDS     r5,r5,#0x40
        0x10002b8a:    7c6e        n|      LDRB     r6,[r5,#0x11]
        0x10002b8c:    07b6        ..      LSLS     r6,r6,#30
        0x10002b8e:    d4fc        ..      BMI      0x10002b8a ; _BBRXFIFORead + 32
        0x10002b90:    2500        .%      MOVS     r5,#0
        0x10002b92:    4626        &F      MOV      r6,r4
        0x10002b94:    36c0        .6      ADDS     r6,r6,#0xc0
        0x10002b96:    7937        7y      LDRB     r7,[r6,#4]
        0x10002b98:    5547        GU      STRB     r7,[r0,r5]
        0x10002b9a:    1c6d        m.      ADDS     r5,r5,#1
        0x10002b9c:    b2ed        ..      UXTB     r5,r5
        0x10002b9e:    2d02        .-      CMP      r5,#2
        0x10002ba0:    d3f9        ..      BCC      0x10002b96 ; _BBRXFIFORead + 44
        0x10002ba2:    7846        Fx      LDRB     r6,[r0,#1]
        0x10002ba4:    2501        .%      MOVS     r5,#1
        0x10002ba6:    09f7        ..      LSRS     r7,r6,#7
        0x10002ba8:    2f00        ./      CMP      r7,#0
        0x10002baa:    d008        ..      BEQ      0x10002bbe ; _BBRXFIFORead + 84
        0x10002bac:    06f6        ..      LSLS     r6,r6,#27
        0x10002bae:    0ef6        ..      LSRS     r6,r6,#27
        0x10002bb0:    700e        .p      STRB     r6,[r1,#0]
        0x10002bb2:    7015        .p      STRB     r5,[r2,#0]
        0x10002bb4:    7842        Bx      LDRB     r2,[r0,#1]
        0x10002bb6:    0652        R.      LSLS     r2,r2,#25
        0x10002bb8:    0fd2        ..      LSRS     r2,r2,#31
        0x10002bba:    701a        .p      STRB     r2,[r3,#0]
        0x10002bbc:    e004        ..      B        0x10002bc8 ; _BBRXFIFORead + 94
        0x10002bbe:    06b3        ..      LSLS     r3,r6,#26
        0x10002bc0:    0e9b        ..      LSRS     r3,r3,#26
        0x10002bc2:    700b        .p      STRB     r3,[r1,#0]
        0x10002bc4:    2300        .#      MOVS     r3,#0
        0x10002bc6:    7013        .p      STRB     r3,[r2,#0]
        0x10002bc8:    4b5e        ^K      LDR      r3,[pc,#376] ; [0x10002d44] = 0x20003068
        0x10002bca:    780a        .x      LDRB     r2,[r1,#0]
        0x10002bcc:    6a9b        .j      LDR      r3,[r3,#0x28]
        0x10002bce:    1c80        ..      ADDS     r0,r0,#2
        0x10002bd0:    33c0        .3      ADDS     r3,r3,#0xc0
        0x10002bd2:    2a27        '*      CMP      r2,#0x27
        0x10002bd4:    d20c        ..      BCS      0x10002bf0 ; _BBRXFIFORead + 134
        0x10002bd6:    2200        ."      MOVS     r2,#0
        0x10002bd8:    34c0        .4      ADDS     r4,r4,#0xc0
        0x10002bda:    e003        ..      B        0x10002be4 ; _BBRXFIFORead + 122
        0x10002bdc:    7926        &y      LDRB     r6,[r4,#4]
        0x10002bde:    5486        .T      STRB     r6,[r0,r2]
        0x10002be0:    1c52        R.      ADDS     r2,r2,#1
        0x10002be2:    b2d2        ..      UXTB     r2,r2
        0x10002be4:    780e        .x      LDRB     r6,[r1,#0]
        0x10002be6:    4296        .B      CMP      r6,r2
        0x10002be8:    d8f8        ..      BHI      0x10002bdc ; _BBRXFIFORead + 114
        0x10002bea:    725d        ]r      STRB     r5,[r3,#9]
        0x10002bec:    2001        .       MOVS     r0,#1
        0x10002bee:    bdf0        ..      POP      {r4-r7,pc}
        0x10002bf0:    725d        ]r      STRB     r5,[r3,#9]
        0x10002bf2:    e7c1        ..      B        0x10002b78 ; _BBRXFIFORead + 14
    _rom_rx_sweyntooth_protect
        0x10002bf4:    b510        ..      PUSH     {r4,lr}
        0x10002bf6:    7802        .x      LDRB     r2,[r0,#0]
        0x10002bf8:    2100        .!      MOVS     r1,#0
        0x10002bfa:    0792        ..      LSLS     r2,r2,#30
        0x10002bfc:    0f92        ..      LSRS     r2,r2,#30
        0x10002bfe:    4b51        QK      LDR      r3,[pc,#324] ; [0x10002d44] = 0x20003068
        0x10002c00:    2a01        .*      CMP      r2,#1
        0x10002c02:    d039        9.      BEQ      0x10002c78 ; _rom_rx_sweyntooth_protect + 132
        0x10002c04:    2a02        .*      CMP      r2,#2
        0x10002c06:    d00c        ..      BEQ      0x10002c22 ; _rom_rx_sweyntooth_protect + 46
        0x10002c08:    2a03        .*      CMP      r2,#3
        0x10002c0a:    d133        3.      BNE      0x10002c74 ; _rom_rx_sweyntooth_protect + 128
        0x10002c0c:    7882        .x      LDRB     r2,[r0,#2]
        0x10002c0e:    2a0e        .*      CMP      r2,#0xe
        0x10002c10:    d82f        /.      BHI      0x10002c72 ; _rom_rx_sweyntooth_protect + 126
        0x10002c12:    7840        @x      LDRB     r0,[r0,#1]
        0x10002c14:    4b4c        LK      LDR      r3,[pc,#304] ; [0x10002d48] = 0x10003e96
        0x10002c16:    06c0        ..      LSLS     r0,r0,#27
        0x10002c18:    5c9a        .\      LDRB     r2,[r3,r2]
        0x10002c1a:    0ec0        ..      LSRS     r0,r0,#27
        0x10002c1c:    4290        .B      CMP      r0,r2
        0x10002c1e:    d028        (.      BEQ      0x10002c72 ; _rom_rx_sweyntooth_protect + 126
        0x10002c20:    e028        (.      B        0x10002c74 ; _rom_rx_sweyntooth_protect + 128
        0x10002c22:    7842        Bx      LDRB     r2,[r0,#1]
        0x10002c24:    06d2        ..      LSLS     r2,r2,#27
        0x10002c26:    0ed2        ..      LSRS     r2,r2,#27
        0x10002c28:    2a04        .*      CMP      r2,#4
        0x10002c2a:    d907        ..      BLS      0x10002c3c ; _rom_rx_sweyntooth_protect + 72
        0x10002c2c:    78c2        .x      LDRB     r2,[r0,#3]
        0x10002c2e:    7884        .x      LDRB     r4,[r0,#2]
        0x10002c30:    0212        ..      LSLS     r2,r2,#8
        0x10002c32:    4322        "C      ORRS     r2,r2,r4
        0x10002c34:    2a17        .*      CMP      r2,#0x17
        0x10002c36:    d801        ..      BHI      0x10002c3c ; _rom_rx_sweyntooth_protect + 72
        0x10002c38:    2201        ."      MOVS     r2,#1
        0x10002c3a:    e000        ..      B        0x10002c3e ; _rom_rx_sweyntooth_protect + 74
        0x10002c3c:    2200        ."      MOVS     r2,#0
        0x10002c3e:    711a        .q      STRB     r2,[r3,#4]
        0x10002c40:    2a00        .*      CMP      r2,#0
        0x10002c42:    d017        ..      BEQ      0x10002c74 ; _rom_rx_sweyntooth_protect + 128
        0x10002c44:    7941        Ay      LDRB     r1,[r0,#5]
        0x10002c46:    7902        .y      LDRB     r2,[r0,#4]
        0x10002c48:    0209        ..      LSLS     r1,r1,#8
        0x10002c4a:    4311        .C      ORRS     r1,r1,r2
        0x10002c4c:    2905        .)      CMP      r1,#5
        0x10002c4e:    d010        ..      BEQ      0x10002c72 ; _rom_rx_sweyntooth_protect + 126
        0x10002c50:    2906        .)      CMP      r1,#6
        0x10002c52:    d10e        ..      BNE      0x10002c72 ; _rom_rx_sweyntooth_protect + 126
        0x10002c54:    78c1        .x      LDRB     r1,[r0,#3]
        0x10002c56:    7882        .x      LDRB     r2,[r0,#2]
        0x10002c58:    0209        ..      LSLS     r1,r1,#8
        0x10002c5a:    4311        .C      ORRS     r1,r1,r2
        0x10002c5c:    7980        .y      LDRB     r0,[r0,#6]
        0x10002c5e:    4a3a        :J      LDR      r2,[pc,#232] ; [0x10002d48] = 0x10003e96
        0x10002c60:    0040        @.      LSLS     r0,r0,#1
        0x10002c62:    3210        .2      ADDS     r2,r2,#0x10
        0x10002c64:    1880        ..      ADDS     r0,r0,r2
        0x10002c66:    3840        @8      SUBS     r0,r0,#0x40
        0x10002c68:    8fc0        ..      LDRH     r0,[r0,#0x3e]
        0x10002c6a:    4281        .B      CMP      r1,r0
        0x10002c6c:    d001        ..      BEQ      0x10002c72 ; _rom_rx_sweyntooth_protect + 126
        0x10002c6e:    2100        .!      MOVS     r1,#0
        0x10002c70:    e000        ..      B        0x10002c74 ; _rom_rx_sweyntooth_protect + 128
        0x10002c72:    2101        .!      MOVS     r1,#1
        0x10002c74:    4608        .F      MOV      r0,r1
        0x10002c76:    e4e4        ..      B        0x10002642 ; gap_s_verdor_datas_get + 26
        0x10002c78:    7919        .y      LDRB     r1,[r3,#4]
        0x10002c7a:    2900        .)      CMP      r1,#0
        0x10002c7c:    d0f7        ..      BEQ      0x10002c6e ; _rom_rx_sweyntooth_protect + 122
        0x10002c7e:    7840        @x      LDRB     r0,[r0,#1]
        0x10002c80:    06c0        ..      LSLS     r0,r0,#27
        0x10002c82:    0ec0        ..      LSRS     r0,r0,#27
        0x10002c84:    2817        .(      CMP      r0,#0x17
        0x10002c86:    d9f4        ..      BLS      0x10002c72 ; _rom_rx_sweyntooth_protect + 126
        0x10002c88:    e7f1        ..      B        0x10002c6e ; _rom_rx_sweyntooth_protect + 122
    STKSetRand
        0x10002c8a:    b570        p.      PUSH     {r4-r6,lr}
        0x10002c8c:    4d2f        /M      LDR      r5,[pc,#188] ; [0x10002d4c] = 0x5ffb
        0x10002c8e:    2400        .$      MOVS     r4,#0
        0x10002c90:    4e2c        ,N      LDR      r6,[pc,#176] ; [0x10002d44] = 0x20003068
        0x10002c92:    47a8        .G      BLX      r5
        0x10002c94:    68f1        .h      LDR      r1,[r6,#0xc]
        0x10002c96:    1909        ..      ADDS     r1,r1,r4
        0x10002c98:    31ff        .1      ADDS     r1,r1,#0xff
        0x10002c9a:    3101        .1      ADDS     r1,#1
        0x10002c9c:    1c64        d.      ADDS     r4,r4,#1
        0x10002c9e:    b2e4        ..      UXTB     r4,r4
        0x10002ca0:    73c8        .s      STRB     r0,[r1,#0xf]
        0x10002ca2:    2c10        .,      CMP      r4,#0x10
        0x10002ca4:    d3f5        ..      BCC      0x10002c92 ; STKSetRand + 8
        0x10002ca6:    bd70        p.      POP      {r4-r6,pc}
    AttWriteFlash
        0x10002ca8:    b5ff        ..      PUSH     {r0-r7,lr}
        0x10002caa:    4c26        &L      LDR      r4,[pc,#152] ; [0x10002d44] = 0x20003068
        0x10002cac:    0002        ..      MOVS     r2,r0
        0x10002cae:    69e0        .i      LDR      r0,[r4,#0x1c]
        0x10002cb0:    b081        ..      SUB      sp,sp,#4
        0x10002cb2:    461e        .F      MOV      r6,r3
        0x10002cb4:    460d        .F      MOV      r5,r1
        0x10002cb6:    d006        ..      BEQ      0x10002cc6 ; AttWriteFlash + 30
        0x10002cb8:    2a01        .*      CMP      r2,#1
        0x10002cba:    d006        ..      BEQ      0x10002cca ; AttWriteFlash + 34
        0x10002cbc:    2a02        .*      CMP      r2,#2
        0x10002cbe:    d006        ..      BEQ      0x10002cce ; AttWriteFlash + 38
        0x10002cc0:    2a03        .*      CMP      r2,#3
        0x10002cc2:    d006        ..      BEQ      0x10002cd2 ; AttWriteFlash + 42
        0x10002cc4:    e009        ..      B        0x10002cda ; AttWriteFlash + 50
        0x10002cc6:    1d00        ..      ADDS     r0,r0,#4
        0x10002cc8:    e004        ..      B        0x10002cd4 ; AttWriteFlash + 44
        0x10002cca:    3008        .0      ADDS     r0,r0,#8
        0x10002ccc:    e002        ..      B        0x10002cd4 ; AttWriteFlash + 44
        0x10002cce:    300c        .0      ADDS     r0,r0,#0xc
        0x10002cd0:    e000        ..      B        0x10002cd4 ; AttWriteFlash + 44
        0x10002cd2:    3010        .0      ADDS     r0,r0,#0x10
        0x10002cd4:    f000f899    ....    BL       __aeabi_uread4 ; 0x10002e0a
        0x10002cd8:    4601        .F      MOV      r1,r0
        0x10002cda:    194d        M.      ADDS     r5,r1,r5
        0x10002cdc:    b672        r.      CPSID    i
        0x10002cde:    2701        .'      MOVS     r7,#1
        0x10002ce0:    033f        ?.      LSLS     r7,r7,#12
        0x10002ce2:    4b1b        .K      LDR      r3,[pc,#108] ; [0x10002d50] = 0x5359
        0x10002ce4:    4639        9F      MOV      r1,r7
        0x10002ce6:    2000        .       MOVS     r0,#0
        0x10002ce8:    69a2        .i      LDR      r2,[r4,#0x18]
        0x10002cea:    4798        .G      BLX      r3
        0x10002cec:    b662        b.      CPSIE    i
        0x10002cee:    69a0        .i      LDR      r0,[r4,#0x18]
        0x10002cf0:    4631        1F      MOV      r1,r6
        0x10002cf2:    1940        @.      ADDS     r0,r0,r5
        0x10002cf4:    9a03        ..      LDR      r2,[sp,#0xc]
        0x10002cf6:    f000f857    ..W.    BL       __aeabi_memcpy ; 0x10002da8
        0x10002cfa:    b672        r.      CPSID    i
        0x10002cfc:    2101        .!      MOVS     r1,#1
        0x10002cfe:    4a14        .J      LDR      r2,[pc,#80] ; [0x10002d50] = 0x5359
        0x10002d00:    2000        .       MOVS     r0,#0
        0x10002d02:    32ea        .2      ADDS     r2,r2,#0xea
        0x10002d04:    4790        .G      BLX      r2
        0x10002d06:    4b12        .K      LDR      r3,[pc,#72] ; [0x10002d50] = 0x5359
        0x10002d08:    2000        .       MOVS     r0,#0
        0x10002d0a:    4639        9F      MOV      r1,r7
        0x10002d0c:    3368        h3      ADDS     r3,r3,#0x68
        0x10002d0e:    69a2        .i      LDR      r2,[r4,#0x18]
        0x10002d10:    4798        .G      BLX      r3
        0x10002d12:    b662        b.      CPSIE    i
        0x10002d14:    b005        ..      ADD      sp,sp,#0x14
        0x10002d16:    bdf0        ..      POP      {r4-r7,pc}
    GetOverSlpth
        0x10002d18:    480a        .H      LDR      r0,[pc,#40] ; [0x10002d44] = 0x20003068
        0x10002d1a:    6a81        .j      LDR      r1,[r0,#0x28]
        0x10002d1c:    460a        .F      MOV      r2,r1
        0x10002d1e:    3260        `2      ADDS     r2,r2,#0x60
        0x10002d20:    7c90        .|      LDRB     r0,[r2,#0x12]
        0x10002d22:    7c92        .|      LDRB     r2,[r2,#0x12]
        0x10002d24:    3160        `1      ADDS     r1,r1,#0x60
        0x10002d26:    e001        ..      B        0x10002d2c ; GetOverSlpth + 20
        0x10002d28:    7c88        .|      LDRB     r0,[r1,#0x12]
        0x10002d2a:    7c8a        .|      LDRB     r2,[r1,#0x12]
        0x10002d2c:    4290        .B      CMP      r0,r2
        0x10002d2e:    d1fb        ..      BNE      0x10002d28 ; GetOverSlpth + 16
        0x10002d30:    4770        pG      BX       lr
    $d
        0x10002d32:    0000        ..      DCW    0
        0x10002d34:    000028c9    .(..    DCD    10441
        0x10002d38:    0000ffff    ....    DCD    65535
        0x10002d3c:    20003187    .1.     DCD    536883591
        0x10002d40:    00002219    ."..    DCD    8729
        0x10002d44:    20003068    h0.     DCD    536883304
        0x10002d48:    10003e96    .>..    DCD    268451478
        0x10002d4c:    00005ffb    ._..    DCD    24571
        0x10002d50:    00005359    YS..    DCD    21337
    $t
    .text
    __aeabi_uidiv
    __aeabi_uidivmod
        0x10002d54:    b530        0.      PUSH     {r4,r5,lr}
        0x10002d56:    460b        .F      MOV      r3,r1
        0x10002d58:    4601        .F      MOV      r1,r0
        0x10002d5a:    2000        .       MOVS     r0,#0
        0x10002d5c:    2220         "      MOVS     r2,#0x20
        0x10002d5e:    2401        .$      MOVS     r4,#1
        0x10002d60:    e009        ..      B        0x10002d76 ; __aeabi_uidiv + 34
        0x10002d62:    460d        .F      MOV      r5,r1
        0x10002d64:    40d5        .@      LSRS     r5,r5,r2
        0x10002d66:    429d        .B      CMP      r5,r3
        0x10002d68:    d305        ..      BCC      0x10002d76 ; __aeabi_uidiv + 34
        0x10002d6a:    461d        .F      MOV      r5,r3
        0x10002d6c:    4095        .@      LSLS     r5,r5,r2
        0x10002d6e:    1b49        I.      SUBS     r1,r1,r5
        0x10002d70:    4625        %F      MOV      r5,r4
        0x10002d72:    4095        .@      LSLS     r5,r5,r2
        0x10002d74:    1940        @.      ADDS     r0,r0,r5
        0x10002d76:    4615        .F      MOV      r5,r2
        0x10002d78:    1e52        R.      SUBS     r2,r2,#1
        0x10002d7a:    2d00        .-      CMP      r5,#0
        0x10002d7c:    dcf1        ..      BGT      0x10002d62 ; __aeabi_uidiv + 14
        0x10002d7e:    bd30        0.      POP      {r4,r5,pc}
    .text
    __aeabi_idiv
    __aeabi_idivmod
        0x10002d80:    b570        p.      PUSH     {r4-r6,lr}
        0x10002d82:    2400        .$      MOVS     r4,#0
        0x10002d84:    4625        %F      MOV      r5,r4
        0x10002d86:    2800        .(      CMP      r0,#0
        0x10002d88:    da01        ..      BGE      0x10002d8e ; __aeabi_idiv + 14
        0x10002d8a:    2401        .$      MOVS     r4,#1
        0x10002d8c:    4240        @B      RSBS     r0,r0,#0
        0x10002d8e:    2900        .)      CMP      r1,#0
        0x10002d90:    da01        ..      BGE      0x10002d96 ; __aeabi_idiv + 22
        0x10002d92:    2501        .%      MOVS     r5,#1
        0x10002d94:    4249        IB      RSBS     r1,r1,#0
        0x10002d96:    f7ffffdd    ....    BL       __aeabi_uidiv ; 0x10002d54
        0x10002d9a:    42ac        .B      CMP      r4,r5
        0x10002d9c:    d000        ..      BEQ      0x10002da0 ; __aeabi_idiv + 32
        0x10002d9e:    4240        @B      RSBS     r0,r0,#0
        0x10002da0:    2c00        .,      CMP      r4,#0
        0x10002da2:    d000        ..      BEQ      0x10002da6 ; __aeabi_idiv + 38
        0x10002da4:    4249        IB      RSBS     r1,r1,#0
        0x10002da6:    bd70        p.      POP      {r4-r6,pc}
    .text
    __aeabi_memcpy
    __aeabi_memcpy4
    __aeabi_memcpy8
        0x10002da8:    4603        .F      MOV      r3,r0
        0x10002daa:    430b        .C      ORRS     r3,r3,r1
        0x10002dac:    079b        ..      LSLS     r3,r3,#30
        0x10002dae:    d003        ..      BEQ      0x10002db8 ; __aeabi_memcpy + 16
        0x10002db0:    e009        ..      B        0x10002dc6 ; __aeabi_memcpy + 30
        0x10002db2:    c908        ..      LDM      r1!,{r3}
        0x10002db4:    1f12        ..      SUBS     r2,r2,#4
        0x10002db6:    c008        ..      STM      r0!,{r3}
        0x10002db8:    2a04        .*      CMP      r2,#4
        0x10002dba:    d2fa        ..      BCS      0x10002db2 ; __aeabi_memcpy + 10
        0x10002dbc:    e003        ..      B        0x10002dc6 ; __aeabi_memcpy + 30
        0x10002dbe:    780b        .x      LDRB     r3,[r1,#0]
        0x10002dc0:    7003        .p      STRB     r3,[r0,#0]
        0x10002dc2:    1c40        @.      ADDS     r0,r0,#1
        0x10002dc4:    1c49        I.      ADDS     r1,r1,#1
        0x10002dc6:    1e52        R.      SUBS     r2,r2,#1
        0x10002dc8:    d2f9        ..      BCS      0x10002dbe ; __aeabi_memcpy + 22
        0x10002dca:    4770        pG      BX       lr
    .text
    __aeabi_memset
    __aeabi_memset4
    __aeabi_memset8
        0x10002dcc:    b2d2        ..      UXTB     r2,r2
        0x10002dce:    e001        ..      B        0x10002dd4 ; __aeabi_memset + 8
        0x10002dd0:    7002        .p      STRB     r2,[r0,#0]
        0x10002dd2:    1c40        @.      ADDS     r0,r0,#1
        0x10002dd4:    1e49        I.      SUBS     r1,r1,#1
        0x10002dd6:    d2fb        ..      BCS      0x10002dd0 ; __aeabi_memset + 4
        0x10002dd8:    4770        pG      BX       lr
    __aeabi_memclr
    __aeabi_memclr4
    __aeabi_memclr8
        0x10002dda:    2200        ."      MOVS     r2,#0
        0x10002ddc:    e7f6        ..      B        __aeabi_memset ; 0x10002dcc
    _memset$wrapper
        0x10002dde:    b510        ..      PUSH     {r4,lr}
        0x10002de0:    4613        .F      MOV      r3,r2
        0x10002de2:    460a        .F      MOV      r2,r1
        0x10002de4:    4604        .F      MOV      r4,r0
        0x10002de6:    4619        .F      MOV      r1,r3
        0x10002de8:    f7fffff0    ....    BL       __aeabi_memset ; 0x10002dcc
        0x10002dec:    4620         F      MOV      r0,r4
        0x10002dee:    bd10        ..      POP      {r4,pc}
    .text
    memcmp
        0x10002df0:    b530        0.      PUSH     {r4,r5,lr}
        0x10002df2:    4604        .F      MOV      r4,r0
        0x10002df4:    2000        .       MOVS     r0,#0
        0x10002df6:    4603        .F      MOV      r3,r0
        0x10002df8:    e000        ..      B        0x10002dfc ; memcmp + 12
        0x10002dfa:    1c5b        [.      ADDS     r3,r3,#1
        0x10002dfc:    4293        .B      CMP      r3,r2
        0x10002dfe:    d203        ..      BCS      0x10002e08 ; memcmp + 24
        0x10002e00:    5ce0        .\      LDRB     r0,[r4,r3]
        0x10002e02:    5ccd        .\      LDRB     r5,[r1,r3]
        0x10002e04:    1b40        @.      SUBS     r0,r0,r5
        0x10002e06:    d0f8        ..      BEQ      0x10002dfa ; memcmp + 10
        0x10002e08:    bd30        0.      POP      {r4,r5,pc}
    .text
    __aeabi_uread4
    __rt_uread4
    _uread4
        0x10002e0a:    2103        .!      MOVS     r1,#3
        0x10002e0c:    1d00        ..      ADDS     r0,r0,#4
        0x10002e0e:    1e40        @.      SUBS     r0,r0,#1
        0x10002e10:    7803        .x      LDRB     r3,[r0,#0]
        0x10002e12:    0212        ..      LSLS     r2,r2,#8
        0x10002e14:    431a        .C      ORRS     r2,r2,r3
        0x10002e16:    1e49        I.      SUBS     r1,r1,#1
        0x10002e18:    d5f9        ..      BPL      0x10002e0e ; __aeabi_uread4 + 4
        0x10002e1a:    4610        .F      MOV      r0,r2
        0x10002e1c:    4770        pG      BX       lr
    .text
    __aeabi_uwrite4
    __rt_uwrite4
    _uwrite4
        0x10002e1e:    4603        .F      MOV      r3,r0
        0x10002e20:    2203        ."      MOVS     r2,#3
        0x10002e22:    7008        .p      STRB     r0,[r1,#0]
        0x10002e24:    0a00        ..      LSRS     r0,r0,#8
        0x10002e26:    1c49        I.      ADDS     r1,r1,#1
        0x10002e28:    1e52        R.      SUBS     r2,r2,#1
        0x10002e2a:    d5fa        ..      BPL      0x10002e22 ; __aeabi_uwrite4 + 4
        0x10002e2c:    4618        .F      MOV      r0,r3
        0x10002e2e:    4770        pG      BX       lr
    .text
    __aeabi_fadd
        0x10002e30:    b5f8        ..      PUSH     {r3-r7,lr}
        0x10002e32:    4602        .F      MOV      r2,r0
        0x10002e34:    404a        J@      EORS     r2,r2,r1
        0x10002e36:    0fd4        ..      LSRS     r4,r2,#31
        0x10002e38:    0042        B.      LSLS     r2,r0,#1
        0x10002e3a:    004b        K.      LSLS     r3,r1,#1
        0x10002e3c:    0852        R.      LSRS     r2,r2,#1
        0x10002e3e:    085b        [.      LSRS     r3,r3,#1
        0x10002e40:    429a        .B      CMP      r2,r3
        0x10002e42:    d202        ..      BCS      0x10002e4a ; __aeabi_fadd + 26
        0x10002e44:    4602        .F      MOV      r2,r0
        0x10002e46:    4608        .F      MOV      r0,r1
        0x10002e48:    4611        .F      MOV      r1,r2
        0x10002e4a:    004a        J.      LSLS     r2,r1,#1
        0x10002e4c:    d023        #.      BEQ      0x10002e96 ; __aeabi_fadd + 102
        0x10002e4e:    0dc3        ..      LSRS     r3,r0,#23
        0x10002e50:    004a        J.      LSLS     r2,r1,#1
        0x10002e52:    b2dd        ..      UXTB     r5,r3
        0x10002e54:    0e12        ..      LSRS     r2,r2,#24
        0x10002e56:    1aad        ..      SUBS     r5,r5,r2
        0x10002e58:    2d20         -      CMP      r5,#0x20
        0x10002e5a:    da35        5.      BGE      0x10002ec8 ; __aeabi_fadd + 152
        0x10002e5c:    0249        I.      LSLS     r1,r1,#9
        0x10002e5e:    2601        .&      MOVS     r6,#1
        0x10002e60:    0a49        I.      LSRS     r1,r1,#9
        0x10002e62:    05f6        ..      LSLS     r6,r6,#23
        0x10002e64:    198a        ..      ADDS     r2,r1,r6
        0x10002e66:    2c00        .,      CMP      r4,#0
        0x10002e68:    d000        ..      BEQ      0x10002e6c ; __aeabi_fadd + 60
        0x10002e6a:    4252        RB      RSBS     r2,r2,#0
        0x10002e6c:    2120         !      MOVS     r1,#0x20
        0x10002e6e:    1b4f        O.      SUBS     r7,r1,r5
        0x10002e70:    4611        .F      MOV      r1,r2
        0x10002e72:    40b9        .@      LSLS     r1,r1,r7
        0x10002e74:    412a        *A      ASRS     r2,r2,r5
        0x10002e76:    1810        ..      ADDS     r0,r2,r0
        0x10002e78:    0dc2        ..      LSRS     r2,r0,#23
        0x10002e7a:    429a        .B      CMP      r2,r3
        0x10002e7c:    d021        !.      BEQ      0x10002ec2 ; __aeabi_fadd + 146
        0x10002e7e:    2c00        .,      CMP      r4,#0
        0x10002e80:    d017        ..      BEQ      0x10002eb2 ; __aeabi_fadd + 130
        0x10002e82:    2d01        .-      CMP      r5,#1
        0x10002e84:    dc08        ..      BGT      0x10002e98 ; __aeabi_fadd + 104
        0x10002e86:    05da        ..      LSLS     r2,r3,#23
        0x10002e88:    1a80        ..      SUBS     r0,r0,r2
        0x10002e8a:    0fd2        ..      LSRS     r2,r2,#31
        0x10002e8c:    1980        ..      ADDS     r0,r0,r6
        0x10002e8e:    07d2        ..      LSLS     r2,r2,#31
        0x10002e90:    b2db        ..      UXTB     r3,r3
        0x10002e92:    f000fa81    ....    BL       _float_epilogue ; 0x10003398
        0x10002e96:    bdf8        ..      POP      {r3-r7,pc}
        0x10002e98:    05da        ..      LSLS     r2,r3,#23
        0x10002e9a:    1a80        ..      SUBS     r0,r0,r2
        0x10002e9c:    2301        .#      MOVS     r3,#1
        0x10002e9e:    0040        @.      LSLS     r0,r0,#1
        0x10002ea0:    061b        ..      LSLS     r3,r3,#24
        0x10002ea2:    18c0        ..      ADDS     r0,r0,r3
        0x10002ea4:    1880        ..      ADDS     r0,r0,r2
        0x10002ea6:    425a        ZB      RSBS     r2,r3,#0
        0x10002ea8:    1880        ..      ADDS     r0,r0,r2
        0x10002eaa:    0fca        ..      LSRS     r2,r1,#31
        0x10002eac:    4310        .C      ORRS     r0,r0,r2
        0x10002eae:    0049        I.      LSLS     r1,r1,#1
        0x10002eb0:    e007        ..      B        0x10002ec2 ; __aeabi_fadd + 146
        0x10002eb2:    0849        I.      LSRS     r1,r1,#1
        0x10002eb4:    07c2        ..      LSLS     r2,r0,#31
        0x10002eb6:    4311        .C      ORRS     r1,r1,r2
        0x10002eb8:    05da        ..      LSLS     r2,r3,#23
        0x10002eba:    1a80        ..      SUBS     r0,r0,r2
        0x10002ebc:    1980        ..      ADDS     r0,r0,r6
        0x10002ebe:    0840        @.      LSRS     r0,r0,#1
        0x10002ec0:    1880        ..      ADDS     r0,r0,r2
        0x10002ec2:    f000fa61    ..a.    BL       __I$use$fp ; 0x10003388
        0x10002ec6:    bdf8        ..      POP      {r3-r7,pc}
        0x10002ec8:    0061        a.      LSLS     r1,r4,#1
        0x10002eca:    2201        ."      MOVS     r2,#1
        0x10002ecc:    1a51        Q.      SUBS     r1,r2,r1
        0x10002ece:    1b00        ..      SUBS     r0,r0,r4
        0x10002ed0:    e7f7        ..      B        0x10002ec2 ; __aeabi_fadd + 146
    __aeabi_fsub
        0x10002ed2:    2201        ."      MOVS     r2,#1
        0x10002ed4:    07d2        ..      LSLS     r2,r2,#31
        0x10002ed6:    4051        Q@      EORS     r1,r1,r2
        0x10002ed8:    e7aa        ..      B        __aeabi_fadd ; 0x10002e30
    __aeabi_frsub
        0x10002eda:    2201        ."      MOVS     r2,#1
        0x10002edc:    07d2        ..      LSLS     r2,r2,#31
        0x10002ede:    4050        P@      EORS     r0,r0,r2
        0x10002ee0:    e7a6        ..      B        __aeabi_fadd ; 0x10002e30
        0x10002ee2:    0000        ..      MOVS     r0,r0
    .text
    __aeabi_dadd
        0x10002ee4:    b5f0        ..      PUSH     {r4-r7,lr}
        0x10002ee6:    4607        .F      MOV      r7,r0
        0x10002ee8:    4608        .F      MOV      r0,r1
        0x10002eea:    4058        X@      EORS     r0,r0,r3
        0x10002eec:    b087        ..      SUB      sp,sp,#0x1c
        0x10002eee:    0fc0        ..      LSRS     r0,r0,#31
        0x10002ef0:    9004        ..      STR      r0,[sp,#0x10]
        0x10002ef2:    0048        H.      LSLS     r0,r1,#1
        0x10002ef4:    460e        .F      MOV      r6,r1
        0x10002ef6:    0059        Y.      LSLS     r1,r3,#1
        0x10002ef8:    0840        @.      LSRS     r0,r0,#1
        0x10002efa:    0849        I.      LSRS     r1,r1,#1
        0x10002efc:    1abc        ..      SUBS     r4,r7,r2
        0x10002efe:    4188        .A      SBCS     r0,r0,r1
        0x10002f00:    d205        ..      BCS      0x10002f0e ; __aeabi_dadd + 42
        0x10002f02:    4638        8F      MOV      r0,r7
        0x10002f04:    4631        1F      MOV      r1,r6
        0x10002f06:    461e        .F      MOV      r6,r3
        0x10002f08:    4617        .F      MOV      r7,r2
        0x10002f0a:    460b        .F      MOV      r3,r1
        0x10002f0c:    4602        .F      MOV      r2,r0
        0x10002f0e:    0058        X.      LSLS     r0,r3,#1
        0x10002f10:    0840        @.      LSRS     r0,r0,#1
        0x10002f12:    4310        .C      ORRS     r0,r0,r2
        0x10002f14:    d04c        L.      BEQ      0x10002fb0 ; __aeabi_dadd + 204
        0x10002f16:    0d30        0.      LSRS     r0,r6,#20
        0x10002f18:    9003        ..      STR      r0,[sp,#0xc]
        0x10002f1a:    0540        @.      LSLS     r0,r0,#21
        0x10002f1c:    0059        Y.      LSLS     r1,r3,#1
        0x10002f1e:    0d40        @.      LSRS     r0,r0,#21
        0x10002f20:    0d49        I.      LSRS     r1,r1,#21
        0x10002f22:    9005        ..      STR      r0,[sp,#0x14]
        0x10002f24:    1a40        @.      SUBS     r0,r0,r1
        0x10002f26:    9002        ..      STR      r0,[sp,#8]
        0x10002f28:    2840        @(      CMP      r0,#0x40
        0x10002f2a:    da72        r.      BGE      0x10003012 ; __aeabi_dadd + 302
        0x10002f2c:    0318        ..      LSLS     r0,r3,#12
        0x10002f2e:    2101        .!      MOVS     r1,#1
        0x10002f30:    0b00        ..      LSRS     r0,r0,#12
        0x10002f32:    0509        ..      LSLS     r1,r1,#20
        0x10002f34:    4308        .C      ORRS     r0,r0,r1
        0x10002f36:    9001        ..      STR      r0,[sp,#4]
        0x10002f38:    9804        ..      LDR      r0,[sp,#0x10]
        0x10002f3a:    9200        ..      STR      r2,[sp,#0]
        0x10002f3c:    2800        .(      CMP      r0,#0
        0x10002f3e:    d005        ..      BEQ      0x10002f4c ; __aeabi_dadd + 104
        0x10002f40:    9901        ..      LDR      r1,[sp,#4]
        0x10002f42:    4252        RB      RSBS     r2,r2,#0
        0x10002f44:    2000        .       MOVS     r0,#0
        0x10002f46:    4188        .A      SBCS     r0,r0,r1
        0x10002f48:    9200        ..      STR      r2,[sp,#0]
        0x10002f4a:    9001        ..      STR      r0,[sp,#4]
        0x10002f4c:    9802        ..      LDR      r0,[sp,#8]
        0x10002f4e:    2140        @!      MOVS     r1,#0x40
        0x10002f50:    1a0a        ..      SUBS     r2,r1,r0
        0x10002f52:    9901        ..      LDR      r1,[sp,#4]
        0x10002f54:    9800        ..      LDR      r0,[sp,#0]
        0x10002f56:    f000f9e3    ....    BL       __aeabi_llsl ; 0x10003320
        0x10002f5a:    4605        .F      MOV      r5,r0
        0x10002f5c:    460c        .F      MOV      r4,r1
        0x10002f5e:    466b        kF      MOV      r3,sp
        0x10002f60:    cb07        ..      LDM      r3!,{r0-r2}
        0x10002f62:    f000f9fe    ....    BL       __aeabi_lasr ; 0x10003362
        0x10002f66:    19c0        ..      ADDS     r0,r0,r7
        0x10002f68:    4171        qA      ADCS     r1,r1,r6
        0x10002f6a:    9a03        ..      LDR      r2,[sp,#0xc]
        0x10002f6c:    0d0e        ..      LSRS     r6,r1,#20
        0x10002f6e:    2300        .#      MOVS     r3,#0
        0x10002f70:    17d7        ..      ASRS     r7,r2,#31
        0x10002f72:    4056        V@      EORS     r6,r6,r2
        0x10002f74:    461a        .F      MOV      r2,r3
        0x10002f76:    407a        z@      EORS     r2,r2,r7
        0x10002f78:    4316        .C      ORRS     r6,r6,r2
        0x10002f7a:    d044        D.      BEQ      0x10003006 ; __aeabi_dadd + 290
        0x10002f7c:    9a04        ..      LDR      r2,[sp,#0x10]
        0x10002f7e:    2a00        .*      CMP      r2,#0
        0x10002f80:    d02d        -.      BEQ      0x10002fde ; __aeabi_dadd + 250
        0x10002f82:    9a02        ..      LDR      r2,[sp,#8]
        0x10002f84:    2a01        .*      CMP      r2,#1
        0x10002f86:    9a03        ..      LDR      r2,[sp,#0xc]
        0x10002f88:    dc15        ..      BGT      0x10002fb6 ; __aeabi_dadd + 210
        0x10002f8a:    0512        ..      LSLS     r2,r2,#20
        0x10002f8c:    1ac0        ..      SUBS     r0,r0,r3
        0x10002f8e:    4191        .A      SBCS     r1,r1,r2
        0x10002f90:    2601        .&      MOVS     r6,#1
        0x10002f92:    0536        6.      LSLS     r6,r6,#20
        0x10002f94:    1c00        ..      ADDS     r0,r0,#0
        0x10002f96:    4171        qA      ADCS     r1,r1,r6
        0x10002f98:    0fd2        ..      LSRS     r2,r2,#31
        0x10002f9a:    9e05        ..      LDR      r6,[sp,#0x14]
        0x10002f9c:    07d2        ..      LSLS     r2,r2,#31
        0x10002f9e:    9300        ..      STR      r3,[sp,#0]
        0x10002fa0:    9201        ..      STR      r2,[sp,#4]
        0x10002fa2:    9602        ..      STR      r6,[sp,#8]
        0x10002fa4:    462a        *F      MOV      r2,r5
        0x10002fa6:    4623        #F      MOV      r3,r4
        0x10002fa8:    f000fa3c    ..<.    BL       _double_epilogue ; 0x10003424
        0x10002fac:    b007        ..      ADD      sp,sp,#0x1c
        0x10002fae:    bdf0        ..      POP      {r4-r7,pc}
        0x10002fb0:    4638        8F      MOV      r0,r7
        0x10002fb2:    4631        1F      MOV      r1,r6
        0x10002fb4:    e7fa        ..      B        0x10002fac ; __aeabi_dadd + 200
        0x10002fb6:    0516        ..      LSLS     r6,r2,#20
        0x10002fb8:    4a22        "J      LDR      r2,[pc,#136] ; [0x10003044] = 0xffe00000
        0x10002fba:    460f        .F      MOV      r7,r1
        0x10002fbc:    18b2        ..      ADDS     r2,r6,r2
        0x10002fbe:    1ac0        ..      SUBS     r0,r0,r3
        0x10002fc0:    41b7        .A      SBCS     r7,r7,r6
        0x10002fc2:    2101        .!      MOVS     r1,#1
        0x10002fc4:    0509        ..      LSLS     r1,r1,#20
        0x10002fc6:    1c00        ..      ADDS     r0,r0,#0
        0x10002fc8:    414f        OA      ADCS     r7,r7,r1
        0x10002fca:    1800        ..      ADDS     r0,r0,r0
        0x10002fcc:    417f        .A      ADCS     r7,r7,r7
        0x10002fce:    4611        .F      MOV      r1,r2
        0x10002fd0:    1818        ..      ADDS     r0,r3,r0
        0x10002fd2:    4179        yA      ADCS     r1,r1,r7
        0x10002fd4:    0fe2        ..      LSRS     r2,r4,#31
        0x10002fd6:    4310        .C      ORRS     r0,r0,r2
        0x10002fd8:    196d        m.      ADDS     r5,r5,r5
        0x10002fda:    4164        dA      ADCS     r4,r4,r4
        0x10002fdc:    e013        ..      B        0x10003006 ; __aeabi_dadd + 290
        0x10002fde:    07e2        ..      LSLS     r2,r4,#31
        0x10002fe0:    086d        m.      LSRS     r5,r5,#1
        0x10002fe2:    4315        .C      ORRS     r5,r5,r2
        0x10002fe4:    0864        d.      LSRS     r4,r4,#1
        0x10002fe6:    07c2        ..      LSLS     r2,r0,#31
        0x10002fe8:    4314        .C      ORRS     r4,r4,r2
        0x10002fea:    9a03        ..      LDR      r2,[sp,#0xc]
        0x10002fec:    2601        .&      MOVS     r6,#1
        0x10002fee:    0512        ..      LSLS     r2,r2,#20
        0x10002ff0:    1ac0        ..      SUBS     r0,r0,r3
        0x10002ff2:    4191        .A      SBCS     r1,r1,r2
        0x10002ff4:    0536        6.      LSLS     r6,r6,#20
        0x10002ff6:    1c00        ..      ADDS     r0,r0,#0
        0x10002ff8:    4171        qA      ADCS     r1,r1,r6
        0x10002ffa:    07ce        ..      LSLS     r6,r1,#31
        0x10002ffc:    0840        @.      LSRS     r0,r0,#1
        0x10002ffe:    4330        0C      ORRS     r0,r0,r6
        0x10003000:    0849        I.      LSRS     r1,r1,#1
        0x10003002:    18c0        ..      ADDS     r0,r0,r3
        0x10003004:    4151        QA      ADCS     r1,r1,r2
        0x10003006:    462a        *F      MOV      r2,r5
        0x10003008:    4623        #F      MOV      r3,r4
        0x1000300a:    f000f9fe    ....    BL       _double_round ; 0x1000340a
        0x1000300e:    e7cd        ..      B        0x10002fac ; __aeabi_dadd + 200
        0x10003010:    e7ff        ..      B        0x10003012 ; __aeabi_dadd + 302
        0x10003012:    9804        ..      LDR      r0,[sp,#0x10]
        0x10003014:    2201        ."      MOVS     r2,#1
        0x10003016:    0040        @.      LSLS     r0,r0,#1
        0x10003018:    17c1        ..      ASRS     r1,r0,#31
        0x1000301a:    1a12        ..      SUBS     r2,r2,r0
        0x1000301c:    2300        .#      MOVS     r3,#0
        0x1000301e:    418b        .A      SBCS     r3,r3,r1
        0x10003020:    9804        ..      LDR      r0,[sp,#0x10]
        0x10003022:    4631        1F      MOV      r1,r6
        0x10003024:    17c4        ..      ASRS     r4,r0,#31
        0x10003026:    1a38        8.      SUBS     r0,r7,r0
        0x10003028:    41a1        .A      SBCS     r1,r1,r4
        0x1000302a:    e7ee        ..      B        0x1000300a ; __aeabi_dadd + 294
    __aeabi_dsub
        0x1000302c:    b430        0.      PUSH     {r4,r5}
        0x1000302e:    2401        .$      MOVS     r4,#1
        0x10003030:    07e4        ..      LSLS     r4,r4,#31
        0x10003032:    4063        c@      EORS     r3,r3,r4
        0x10003034:    bc30        0.      POP      {r4,r5}
        0x10003036:    e755        U.      B        __aeabi_dadd ; 0x10002ee4
    __aeabi_drsub
        0x10003038:    b430        0.      PUSH     {r4,r5}
        0x1000303a:    2401        .$      MOVS     r4,#1
        0x1000303c:    07e4        ..      LSLS     r4,r4,#31
        0x1000303e:    4061        a@      EORS     r1,r1,r4
        0x10003040:    bc30        0.      POP      {r4,r5}
        0x10003042:    e74f        O.      B        __aeabi_dadd ; 0x10002ee4
    $d
        0x10003044:    ffe00000    ....    DCD    4292870144
    $t
    .text
    __aeabi_dmul
        0x10003048:    b5f0        ..      PUSH     {r4-r7,lr}
        0x1000304a:    b41f        ..      PUSH     {r0-r4}
        0x1000304c:    b088        ..      SUB      sp,sp,#0x20
        0x1000304e:    990b        ..      LDR      r1,[sp,#0x2c]
        0x10003050:    9809        ..      LDR      r0,[sp,#0x24]
        0x10003052:    2400        .$      MOVS     r4,#0
        0x10003054:    4048        H@      EORS     r0,r0,r1
        0x10003056:    9909        ..      LDR      r1,[sp,#0x24]
        0x10003058:    0fc0        ..      LSRS     r0,r0,#31
        0x1000305a:    0049        I.      LSLS     r1,r1,#1
        0x1000305c:    0849        I.      LSRS     r1,r1,#1
        0x1000305e:    9109        ..      STR      r1,[sp,#0x24]
        0x10003060:    07c0        ..      LSLS     r0,r0,#31
        0x10003062:    990b        ..      LDR      r1,[sp,#0x2c]
        0x10003064:    9000        ..      STR      r0,[sp,#0]
        0x10003066:    0049        I.      LSLS     r1,r1,#1
        0x10003068:    0849        I.      LSRS     r1,r1,#1
        0x1000306a:    910b        ..      STR      r1,[sp,#0x2c]
        0x1000306c:    9909        ..      LDR      r1,[sp,#0x24]
        0x1000306e:    9808        ..      LDR      r0,[sp,#0x20]
        0x10003070:    46a6        .F      MOV      lr,r4
        0x10003072:    4308        .C      ORRS     r0,r0,r1
        0x10003074:    d01c        ..      BEQ      0x100030b0 ; __aeabi_dmul + 104
        0x10003076:    990b        ..      LDR      r1,[sp,#0x2c]
        0x10003078:    980a        ..      LDR      r0,[sp,#0x28]
        0x1000307a:    4308        .C      ORRS     r0,r0,r1
        0x1000307c:    d018        ..      BEQ      0x100030b0 ; __aeabi_dmul + 104
        0x1000307e:    9809        ..      LDR      r0,[sp,#0x24]
        0x10003080:    2401        .$      MOVS     r4,#1
        0x10003082:    0040        @.      LSLS     r0,r0,#1
        0x10003084:    0d42        B.      LSRS     r2,r0,#21
        0x10003086:    0048        H.      LSLS     r0,r1,#1
        0x10003088:    0d41        A.      LSRS     r1,r0,#21
        0x1000308a:    9809        ..      LDR      r0,[sp,#0x24]
        0x1000308c:    0524        $.      LSLS     r4,r4,#20
        0x1000308e:    0300        ..      LSLS     r0,r0,#12
        0x10003090:    0b00        ..      LSRS     r0,r0,#12
        0x10003092:    4320         C      ORRS     r0,r0,r4
        0x10003094:    9009        ..      STR      r0,[sp,#0x24]
        0x10003096:    980b        ..      LDR      r0,[sp,#0x2c]
        0x10003098:    0300        ..      LSLS     r0,r0,#12
        0x1000309a:    0b00        ..      LSRS     r0,r0,#12
        0x1000309c:    4320         C      ORRS     r0,r0,r4
        0x1000309e:    900b        ..      STR      r0,[sp,#0x2c]
        0x100030a0:    1850        P.      ADDS     r0,r2,r1
        0x100030a2:    491c        .I      LDR      r1,[pc,#112] ; [0x10003114] = 0xfffffc0d
        0x100030a4:    1840        @.      ADDS     r0,r0,r1
        0x100030a6:    2200        ."      MOVS     r2,#0
        0x100030a8:    9001        ..      STR      r0,[sp,#4]
        0x100030aa:    4614        .F      MOV      r4,r2
        0x100030ac:    4610        .F      MOV      r0,r2
        0x100030ae:    e005        ..      B        0x100030bc ; __aeabi_dmul + 116
        0x100030b0:    2000        .       MOVS     r0,#0
        0x100030b2:    4601        .F      MOV      r1,r0
        0x100030b4:    b00d        ..      ADD      sp,sp,#0x34
        0x100030b6:    bdf0        ..      POP      {r4-r7,pc}
        0x100030b8:    2803        .(      CMP      r0,#3
        0x100030ba:    da01        ..      BGE      0x100030c0 ; __aeabi_dmul + 120
        0x100030bc:    4603        .F      MOV      r3,r0
        0x100030be:    e000        ..      B        0x100030c2 ; __aeabi_dmul + 122
        0x100030c0:    2303        .#      MOVS     r3,#3
        0x100030c2:    469c        .F      MOV      r12,r3
        0x100030c4:    1ac1        ..      SUBS     r1,r0,r3
        0x100030c6:    ae0a        ..      ADD      r6,sp,#0x28
        0x100030c8:    e00a        ..      B        0x100030e0 ; __aeabi_dmul + 152
        0x100030ca:    005f        _.      LSLS     r7,r3,#1
        0x100030cc:    ad08        ..      ADD      r5,sp,#0x20
        0x100030ce:    5bed        .[      LDRH     r5,[r5,r7]
        0x100030d0:    004f        O.      LSLS     r7,r1,#1
        0x100030d2:    5bf7        .[      LDRH     r7,[r6,r7]
        0x100030d4:    437d        }C      MULS     r5,r7,r5
        0x100030d6:    2700        .'      MOVS     r7,#0
        0x100030d8:    18aa        ..      ADDS     r2,r5,r2
        0x100030da:    417c        |A      ADCS     r4,r4,r7
        0x100030dc:    1c49        I.      ADDS     r1,r1,#1
        0x100030de:    1e5b        [.      SUBS     r3,r3,#1
        0x100030e0:    4561        aE      CMP      r1,r12
        0x100030e2:    ddf2        ..      BLE      0x100030ca ; __aeabi_dmul + 130
        0x100030e4:    0041        A.      LSLS     r1,r0,#1
        0x100030e6:    ab04        ..      ADD      r3,sp,#0x10
        0x100030e8:    525a        ZR      STRH     r2,[r3,r1]
        0x100030ea:    0421        !.      LSLS     r1,r4,#16
        0x100030ec:    0c12        ..      LSRS     r2,r2,#16
        0x100030ee:    430a        .C      ORRS     r2,r2,r1
        0x100030f0:    0c24        $.      LSRS     r4,r4,#16
        0x100030f2:    1c40        @.      ADDS     r0,r0,#1
        0x100030f4:    2808        .(      CMP      r0,#8
        0x100030f6:    dbdf        ..      BLT      0x100030b8 ; __aeabi_dmul + 112
        0x100030f8:    9801        ..      LDR      r0,[sp,#4]
        0x100030fa:    9002        ..      STR      r0,[sp,#8]
        0x100030fc:    9900        ..      LDR      r1,[sp,#0]
        0x100030fe:    4670        pF      MOV      r0,lr
        0x10003100:    9101        ..      STR      r1,[sp,#4]
        0x10003102:    9000        ..      STR      r0,[sp,#0]
        0x10003104:    9b05        ..      LDR      r3,[sp,#0x14]
        0x10003106:    9a04        ..      LDR      r2,[sp,#0x10]
        0x10003108:    9907        ..      LDR      r1,[sp,#0x1c]
        0x1000310a:    9806        ..      LDR      r0,[sp,#0x18]
        0x1000310c:    f000f98a    ....    BL       _double_epilogue ; 0x10003424
        0x10003110:    e7d0        ..      B        0x100030b4 ; __aeabi_dmul + 108
    $d
        0x10003112:    0000        ..      DCW    0
        0x10003114:    fffffc0d    ....    DCD    4294966285
    $t
    .text
    __aeabi_ddiv
        0x10003118:    b5f0        ..      PUSH     {r4-r7,lr}
        0x1000311a:    460c        .F      MOV      r4,r1
        0x1000311c:    405c        \@      EORS     r4,r4,r3
        0x1000311e:    b085        ..      SUB      sp,sp,#0x14
        0x10003120:    0fe4        ..      LSRS     r4,r4,#31
        0x10003122:    07e4        ..      LSLS     r4,r4,#31
        0x10003124:    9403        ..      STR      r4,[sp,#0xc]
        0x10003126:    004c        L.      LSLS     r4,r1,#1
        0x10003128:    2600        .&      MOVS     r6,#0
        0x1000312a:    0864        d.      LSRS     r4,r4,#1
        0x1000312c:    0059        Y.      LSLS     r1,r3,#1
        0x1000312e:    4694        .F      MOV      r12,r2
        0x10003130:    0849        I.      LSRS     r1,r1,#1
        0x10003132:    4602        .F      MOV      r2,r0
        0x10003134:    9602        ..      STR      r6,[sp,#8]
        0x10003136:    4322        "C      ORRS     r2,r2,r4
        0x10003138:    d021        !.      BEQ      0x1000317e ; __aeabi_ddiv + 102
        0x1000313a:    4662        bF      MOV      r2,r12
        0x1000313c:    430a        .C      ORRS     r2,r2,r1
        0x1000313e:    d01e        ..      BEQ      0x1000317e ; __aeabi_ddiv + 102
        0x10003140:    0062        b.      LSLS     r2,r4,#1
        0x10003142:    0d57        W.      LSRS     r7,r2,#21
        0x10003144:    004a        J.      LSLS     r2,r1,#1
        0x10003146:    030e        ..      LSLS     r6,r1,#12
        0x10003148:    0323        #.      LSLS     r3,r4,#12
        0x1000314a:    0d55        U.      LSRS     r5,r2,#21
        0x1000314c:    2401        .$      MOVS     r4,#1
        0x1000314e:    4602        .F      MOV      r2,r0
        0x10003150:    492c        ,I      LDR      r1,[pc,#176] ; [0x10003204] = 0x3fd
        0x10003152:    0524        $.      LSLS     r4,r4,#20
        0x10003154:    1b78        x.      SUBS     r0,r7,r5
        0x10003156:    0b1b        ..      LSRS     r3,r3,#12
        0x10003158:    0b36        6.      LSRS     r6,r6,#12
        0x1000315a:    1840        @.      ADDS     r0,r0,r1
        0x1000315c:    4323        #C      ORRS     r3,r3,r4
        0x1000315e:    4326        &C      ORRS     r6,r6,r4
        0x10003160:    4661        aF      MOV      r1,r12
        0x10003162:    9000        ..      STR      r0,[sp,#0]
        0x10003164:    461c        .F      MOV      r4,r3
        0x10003166:    1a50        P.      SUBS     r0,r2,r1
        0x10003168:    41b4        .A      SBCS     r4,r4,r6
        0x1000316a:    d303        ..      BCC      0x10003174 ; __aeabi_ddiv + 92
        0x1000316c:    9800        ..      LDR      r0,[sp,#0]
        0x1000316e:    1c40        @.      ADDS     r0,r0,#1
        0x10003170:    9000        ..      STR      r0,[sp,#0]
        0x10003172:    e002        ..      B        0x1000317a ; __aeabi_ddiv + 98
        0x10003174:    1892        ..      ADDS     r2,r2,r2
        0x10003176:    9800        ..      LDR      r0,[sp,#0]
        0x10003178:    415b        [A      ADCS     r3,r3,r3
        0x1000317a:    2800        .(      CMP      r0,#0
        0x1000317c:    da03        ..      BGE      0x10003186 ; __aeabi_ddiv + 110
        0x1000317e:    2000        .       MOVS     r0,#0
        0x10003180:    4601        .F      MOV      r1,r0
        0x10003182:    b005        ..      ADD      sp,sp,#0x14
        0x10003184:    bdf0        ..      POP      {r4-r7,pc}
        0x10003186:    2000        .       MOVS     r0,#0
        0x10003188:    2101        .!      MOVS     r1,#1
        0x1000318a:    0509        ..      LSLS     r1,r1,#20
        0x1000318c:    4607        .F      MOV      r7,r0
        0x1000318e:    4686        .F      MOV      lr,r0
        0x10003190:    e011        ..      B        0x100031b6 ; __aeabi_ddiv + 158
        0x10003192:    4664        dF      MOV      r4,r12
        0x10003194:    461d        .F      MOV      r5,r3
        0x10003196:    1b14        ..      SUBS     r4,r2,r4
        0x10003198:    41b5        .A      SBCS     r5,r5,r6
        0x1000319a:    d306        ..      BCC      0x100031aa ; __aeabi_ddiv + 146
        0x1000319c:    4665        eF      MOV      r5,r12
        0x1000319e:    1b52        R.      SUBS     r2,r2,r5
        0x100031a0:    41b3        .A      SBCS     r3,r3,r6
        0x100031a2:    4674        tF      MOV      r4,lr
        0x100031a4:    4307        .C      ORRS     r7,r7,r0
        0x100031a6:    430c        .C      ORRS     r4,r4,r1
        0x100031a8:    46a6        .F      MOV      lr,r4
        0x100031aa:    07cd        ..      LSLS     r5,r1,#31
        0x100031ac:    0840        @.      LSRS     r0,r0,#1
        0x100031ae:    0849        I.      LSRS     r1,r1,#1
        0x100031b0:    4328        (C      ORRS     r0,r0,r5
        0x100031b2:    1892        ..      ADDS     r2,r2,r2
        0x100031b4:    415b        [A      ADCS     r3,r3,r3
        0x100031b6:    4605        .F      MOV      r5,r0
        0x100031b8:    430d        .C      ORRS     r5,r5,r1
        0x100031ba:    d1ea        ..      BNE      0x10003192 ; __aeabi_ddiv + 122
        0x100031bc:    4610        .F      MOV      r0,r2
        0x100031be:    4318        .C      ORRS     r0,r0,r3
        0x100031c0:    d013        ..      BEQ      0x100031ea ; __aeabi_ddiv + 210
        0x100031c2:    4660        `F      MOV      r0,r12
        0x100031c4:    4619        .F      MOV      r1,r3
        0x100031c6:    4050        P@      EORS     r0,r0,r2
        0x100031c8:    4071        q@      EORS     r1,r1,r6
        0x100031ca:    4308        .C      ORRS     r0,r0,r1
        0x100031cc:    d006        ..      BEQ      0x100031dc ; __aeabi_ddiv + 196
        0x100031ce:    4660        `F      MOV      r0,r12
        0x100031d0:    1a10        ..      SUBS     r0,r2,r0
        0x100031d2:    41b3        .A      SBCS     r3,r3,r6
        0x100031d4:    d206        ..      BCS      0x100031e4 ; __aeabi_ddiv + 204
        0x100031d6:    2201        ."      MOVS     r2,#1
        0x100031d8:    2300        .#      MOVS     r3,#0
        0x100031da:    e006        ..      B        0x100031ea ; __aeabi_ddiv + 210
        0x100031dc:    2200        ."      MOVS     r2,#0
        0x100031de:    2301        .#      MOVS     r3,#1
        0x100031e0:    07db        ..      LSLS     r3,r3,#31
        0x100031e2:    e002        ..      B        0x100031ea ; __aeabi_ddiv + 210
        0x100031e4:    2201        ."      MOVS     r2,#1
        0x100031e6:    43d2        .C      MVNS     r2,r2
        0x100031e8:    1053        S.      ASRS     r3,r2,#1
        0x100031ea:    9800        ..      LDR      r0,[sp,#0]
        0x100031ec:    4674        tF      MOV      r4,lr
        0x100031ee:    0501        ..      LSLS     r1,r0,#20
        0x100031f0:    1c38        8.      ADDS     r0,r7,#0
        0x100031f2:    4161        aA      ADCS     r1,r1,r4
        0x100031f4:    9c02        ..      LDR      r4,[sp,#8]
        0x100031f6:    9d03        ..      LDR      r5,[sp,#0xc]
        0x100031f8:    1900        ..      ADDS     r0,r0,r4
        0x100031fa:    4169        iA      ADCS     r1,r1,r5
        0x100031fc:    f000f905    ....    BL       _double_round ; 0x1000340a
        0x10003200:    e7bf        ..      B        0x10003182 ; __aeabi_ddiv + 106
    $d
        0x10003202:    0000        ..      DCW    0
        0x10003204:    000003fd    ....    DCD    1021
    $t
    .text
    __aeabi_ui2f
        0x10003208:    b510        ..      PUSH     {r4,lr}
        0x1000320a:    2200        ."      MOVS     r2,#0
        0x1000320c:    2396        .#      MOVS     r3,#0x96
        0x1000320e:    4611        .F      MOV      r1,r2
        0x10003210:    f000f8c2    ....    BL       _float_epilogue ; 0x10003398
        0x10003214:    bd10        ..      POP      {r4,pc}
        0x10003216:    0000        ..      MOVS     r0,r0
    .text
    __aeabi_i2d
        0x10003218:    b50e        ..      PUSH     {r1-r3,lr}
        0x1000321a:    17c2        ..      ASRS     r2,r0,#31
        0x1000321c:    0fc1        ..      LSRS     r1,r0,#31
        0x1000321e:    4050        P@      EORS     r0,r0,r2
        0x10003220:    07ca        ..      LSLS     r2,r1,#31
        0x10003222:    1840        @.      ADDS     r0,r0,r1
        0x10003224:    2100        .!      MOVS     r1,#0
        0x10003226:    4b05        .K      LDR      r3,[pc,#20] ; [0x1000323c] = 0x433
        0x10003228:    9302        ..      STR      r3,[sp,#8]
        0x1000322a:    9201        ..      STR      r2,[sp,#4]
        0x1000322c:    9100        ..      STR      r1,[sp,#0]
        0x1000322e:    460a        .F      MOV      r2,r1
        0x10003230:    460b        .F      MOV      r3,r1
        0x10003232:    f000f8f7    ....    BL       _double_epilogue ; 0x10003424
        0x10003236:    b003        ..      ADD      sp,sp,#0xc
        0x10003238:    bd00        ..      POP      {pc}
    $d
        0x1000323a:    0000        ..      DCW    0
        0x1000323c:    00000433    3...    DCD    1075
    $t
    .text
    __aeabi_ui2d
        0x10003240:    b50e        ..      PUSH     {r1-r3,lr}
        0x10003242:    4905        .I      LDR      r1,[pc,#20] ; [0x10003258] = 0x433
        0x10003244:    9102        ..      STR      r1,[sp,#8]
        0x10003246:    2100        .!      MOVS     r1,#0
        0x10003248:    9100        ..      STR      r1,[sp,#0]
        0x1000324a:    460a        .F      MOV      r2,r1
        0x1000324c:    460b        .F      MOV      r3,r1
        0x1000324e:    9101        ..      STR      r1,[sp,#4]
        0x10003250:    f000f8e8    ....    BL       _double_epilogue ; 0x10003424
        0x10003254:    b003        ..      ADD      sp,sp,#0xc
        0x10003256:    bd00        ..      POP      {pc}
    $d
        0x10003258:    00000433    3...    DCD    1075
    $t
    .text
    __aeabi_d2uiz
        0x1000325c:    004a        J.      LSLS     r2,r1,#1
        0x1000325e:    0309        ..      LSLS     r1,r1,#12
        0x10003260:    2301        .#      MOVS     r3,#1
        0x10003262:    0b09        ..      LSRS     r1,r1,#12
        0x10003264:    051b        ..      LSLS     r3,r3,#20
        0x10003266:    4319        .C      ORRS     r1,r1,r3
        0x10003268:    4b09        .K      LDR      r3,[pc,#36] ; [0x10003290] = 0x3ff
        0x1000326a:    b510        ..      PUSH     {r4,lr}
        0x1000326c:    0d52        R.      LSRS     r2,r2,#21
        0x1000326e:    429a        .B      CMP      r2,r3
        0x10003270:    da01        ..      BGE      0x10003276 ; __aeabi_d2uiz + 26
        0x10003272:    2000        .       MOVS     r0,#0
        0x10003274:    bd10        ..      POP      {r4,pc}
        0x10003276:    4b06        .K      LDR      r3,[pc,#24] ; [0x10003290] = 0x3ff
        0x10003278:    3334        43      ADDS     r3,r3,#0x34
        0x1000327a:    429a        .B      CMP      r2,r3
        0x1000327c:    dc03        ..      BGT      0x10003286 ; __aeabi_d2uiz + 42
        0x1000327e:    1a9a        ..      SUBS     r2,r3,r2
        0x10003280:    f000f85e    ..^.    BL       __aeabi_llsr ; 0x10003340
        0x10003284:    bd10        ..      POP      {r4,pc}
        0x10003286:    4903        .I      LDR      r1,[pc,#12] ; [0x10003294] = 0xfffffbcd
        0x10003288:    1851        Q.      ADDS     r1,r2,r1
        0x1000328a:    4088        .@      LSLS     r0,r0,r1
        0x1000328c:    bd10        ..      POP      {r4,pc}
    $d
        0x1000328e:    0000        ..      DCW    0
        0x10003290:    000003ff    ....    DCD    1023
        0x10003294:    fffffbcd    ....    DCD    4294966221
    $t
    .text
    __aeabi_f2d
        0x10003298:    0fc2        ..      LSRS     r2,r0,#31
        0x1000329a:    07d2        ..      LSLS     r2,r2,#31
        0x1000329c:    0040        @.      LSLS     r0,r0,#1
        0x1000329e:    0840        @.      LSRS     r0,r0,#1
        0x100032a0:    d00b        ..      BEQ      0x100032ba ; __aeabi_f2d + 34
        0x100032a2:    0dc1        ..      LSRS     r1,r0,#23
        0x100032a4:    2307        .#      MOVS     r3,#7
        0x100032a6:    01db        ..      LSLS     r3,r3,#7
        0x100032a8:    18c9        ..      ADDS     r1,r1,r3
        0x100032aa:    0240        @.      LSLS     r0,r0,#9
        0x100032ac:    0509        ..      LSLS     r1,r1,#20
        0x100032ae:    0a40        @.      LSRS     r0,r0,#9
        0x100032b0:    4311        .C      ORRS     r1,r1,r2
        0x100032b2:    08c2        ..      LSRS     r2,r0,#3
        0x100032b4:    0740        @.      LSLS     r0,r0,#29
        0x100032b6:    4311        .C      ORRS     r1,r1,r2
        0x100032b8:    4770        pG      BX       lr
        0x100032ba:    2000        .       MOVS     r0,#0
        0x100032bc:    4601        .F      MOV      r1,r0
        0x100032be:    4770        pG      BX       lr
    .text
    __aeabi_uldivmod
        0x100032c0:    b5f0        ..      PUSH     {r4-r7,lr}
        0x100032c2:    b41f        ..      PUSH     {r0-r4}
        0x100032c4:    4606        .F      MOV      r6,r0
        0x100032c6:    2000        .       MOVS     r0,#0
        0x100032c8:    b082        ..      SUB      sp,sp,#8
        0x100032ca:    4605        .F      MOV      r5,r0
        0x100032cc:    2440        @$      MOVS     r4,#0x40
        0x100032ce:    9101        ..      STR      r1,[sp,#4]
        0x100032d0:    9000        ..      STR      r0,[sp,#0]
        0x100032d2:    e01b        ..      B        0x1000330c ; __aeabi_uldivmod + 76
        0x100032d4:    9901        ..      LDR      r1,[sp,#4]
        0x100032d6:    4622        "F      MOV      r2,r4
        0x100032d8:    460f        .F      MOV      r7,r1
        0x100032da:    4630        0F      MOV      r0,r6
        0x100032dc:    f000f830    ..0.    BL       __aeabi_llsr ; 0x10003340
        0x100032e0:    9a04        ..      LDR      r2,[sp,#0x10]
        0x100032e2:    9b05        ..      LDR      r3,[sp,#0x14]
        0x100032e4:    1a80        ..      SUBS     r0,r0,r2
        0x100032e6:    4199        .A      SBCS     r1,r1,r3
        0x100032e8:    d310        ..      BCC      0x1000330c ; __aeabi_uldivmod + 76
        0x100032ea:    4610        .F      MOV      r0,r2
        0x100032ec:    4619        .F      MOV      r1,r3
        0x100032ee:    4622        "F      MOV      r2,r4
        0x100032f0:    f000f816    ....    BL       __aeabi_llsl ; 0x10003320
        0x100032f4:    1a36        6.      SUBS     r6,r6,r0
        0x100032f6:    418f        .A      SBCS     r7,r7,r1
        0x100032f8:    9701        ..      STR      r7,[sp,#4]
        0x100032fa:    4622        "F      MOV      r2,r4
        0x100032fc:    2001        .       MOVS     r0,#1
        0x100032fe:    2100        .!      MOVS     r1,#0
        0x10003300:    9f00        ..      LDR      r7,[sp,#0]
        0x10003302:    f000f80d    ....    BL       __aeabi_llsl ; 0x10003320
        0x10003306:    1838        8.      ADDS     r0,r7,r0
        0x10003308:    414d        MA      ADCS     r5,r5,r1
        0x1000330a:    9000        ..      STR      r0,[sp,#0]
        0x1000330c:    4620         F      MOV      r0,r4
        0x1000330e:    1e64        d.      SUBS     r4,r4,#1
        0x10003310:    2800        .(      CMP      r0,#0
        0x10003312:    dcdf        ..      BGT      0x100032d4 ; __aeabi_uldivmod + 20
        0x10003314:    9b01        ..      LDR      r3,[sp,#4]
        0x10003316:    9800        ..      LDR      r0,[sp,#0]
        0x10003318:    4629        )F      MOV      r1,r5
        0x1000331a:    4632        2F      MOV      r2,r6
        0x1000331c:    b007        ..      ADD      sp,sp,#0x1c
        0x1000331e:    bdf0        ..      POP      {r4-r7,pc}
    .text
    __aeabi_llsl
    _ll_shift_l
        0x10003320:    b510        ..      PUSH     {r4,lr}
        0x10003322:    2a20         *      CMP      r2,#0x20
        0x10003324:    db04        ..      BLT      0x10003330 ; __aeabi_llsl + 16
        0x10003326:    4601        .F      MOV      r1,r0
        0x10003328:    3a20         :      SUBS     r2,r2,#0x20
        0x1000332a:    4091        .@      LSLS     r1,r1,r2
        0x1000332c:    2000        .       MOVS     r0,#0
        0x1000332e:    bd10        ..      POP      {r4,pc}
        0x10003330:    4091        .@      LSLS     r1,r1,r2
        0x10003332:    2320         #      MOVS     r3,#0x20
        0x10003334:    1a9c        ..      SUBS     r4,r3,r2
        0x10003336:    4603        .F      MOV      r3,r0
        0x10003338:    40e3        .@      LSRS     r3,r3,r4
        0x1000333a:    4319        .C      ORRS     r1,r1,r3
        0x1000333c:    4090        .@      LSLS     r0,r0,r2
        0x1000333e:    bd10        ..      POP      {r4,pc}
    .text
    __aeabi_llsr
    _ll_ushift_r
        0x10003340:    b510        ..      PUSH     {r4,lr}
        0x10003342:    2a20         *      CMP      r2,#0x20
        0x10003344:    db04        ..      BLT      0x10003350 ; __aeabi_llsr + 16
        0x10003346:    4608        .F      MOV      r0,r1
        0x10003348:    3a20         :      SUBS     r2,r2,#0x20
        0x1000334a:    40d0        .@      LSRS     r0,r0,r2
        0x1000334c:    2100        .!      MOVS     r1,#0
        0x1000334e:    bd10        ..      POP      {r4,pc}
        0x10003350:    460b        .F      MOV      r3,r1
        0x10003352:    40d3        .@      LSRS     r3,r3,r2
        0x10003354:    40d0        .@      LSRS     r0,r0,r2
        0x10003356:    2420         $      MOVS     r4,#0x20
        0x10003358:    1aa2        ..      SUBS     r2,r4,r2
        0x1000335a:    4091        .@      LSLS     r1,r1,r2
        0x1000335c:    4308        .C      ORRS     r0,r0,r1
        0x1000335e:    4619        .F      MOV      r1,r3
        0x10003360:    bd10        ..      POP      {r4,pc}
    .text
    __aeabi_lasr
    _ll_sshift_r
        0x10003362:    b510        ..      PUSH     {r4,lr}
        0x10003364:    2a20         *      CMP      r2,#0x20
        0x10003366:    db06        ..      BLT      0x10003376 ; __aeabi_lasr + 20
        0x10003368:    17cb        ..      ASRS     r3,r1,#31
        0x1000336a:    4608        .F      MOV      r0,r1
        0x1000336c:    3a20         :      SUBS     r2,r2,#0x20
        0x1000336e:    4110        .A      ASRS     r0,r0,r2
        0x10003370:    17c1        ..      ASRS     r1,r0,#31
        0x10003372:    430b        .C      ORRS     r3,r3,r1
        0x10003374:    e006        ..      B        0x10003384 ; __aeabi_lasr + 34
        0x10003376:    460b        .F      MOV      r3,r1
        0x10003378:    4113        .A      ASRS     r3,r3,r2
        0x1000337a:    40d0        .@      LSRS     r0,r0,r2
        0x1000337c:    2420         $      MOVS     r4,#0x20
        0x1000337e:    1aa2        ..      SUBS     r2,r4,r2
        0x10003380:    4091        .@      LSLS     r1,r1,r2
        0x10003382:    4308        .C      ORRS     r0,r0,r1
        0x10003384:    4619        .F      MOV      r1,r3
        0x10003386:    bd10        ..      POP      {r4,pc}
    .text
    .text
    __I$use$fp
    _float_round
        0x10003388:    2900        .)      CMP      r1,#0
        0x1000338a:    da04        ..      BGE      0x10003396 ; __I$use$fp + 14
        0x1000338c:    1c40        @.      ADDS     r0,r0,#1
        0x1000338e:    0049        I.      LSLS     r1,r1,#1
        0x10003390:    d101        ..      BNE      0x10003396 ; __I$use$fp + 14
        0x10003392:    0840        @.      LSRS     r0,r0,#1
        0x10003394:    0040        @.      LSLS     r0,r0,#1
        0x10003396:    4770        pG      BX       lr
    _float_epilogue
        0x10003398:    b470        p.      PUSH     {r4-r6}
        0x1000339a:    2400        .$      MOVS     r4,#0
        0x1000339c:    0c05        ..      LSRS     r5,r0,#16
        0x1000339e:    d105        ..      BNE      0x100033ac ; _float_epilogue + 20
        0x100033a0:    2410        .$      MOVS     r4,#0x10
        0x100033a2:    0400        ..      LSLS     r0,r0,#16
        0x100033a4:    d102        ..      BNE      0x100033ac ; _float_epilogue + 20
        0x100033a6:    2900        .)      CMP      r1,#0
        0x100033a8:    d021        !.      BEQ      0x100033ee ; _float_epilogue + 86
        0x100033aa:    2411        .$      MOVS     r4,#0x11
        0x100033ac:    0e05        ..      LSRS     r5,r0,#24
        0x100033ae:    d101        ..      BNE      0x100033b4 ; _float_epilogue + 28
        0x100033b0:    0200        ..      LSLS     r0,r0,#8
        0x100033b2:    3408        .4      ADDS     r4,r4,#8
        0x100033b4:    0f05        ..      LSRS     r5,r0,#28
        0x100033b6:    d101        ..      BNE      0x100033bc ; _float_epilogue + 36
        0x100033b8:    0100        ..      LSLS     r0,r0,#4
        0x100033ba:    1d24        $.      ADDS     r4,r4,#4
        0x100033bc:    0f85        ..      LSRS     r5,r0,#30
        0x100033be:    d101        ..      BNE      0x100033c4 ; _float_epilogue + 44
        0x100033c0:    0080        ..      LSLS     r0,r0,#2
        0x100033c2:    1ca4        ..      ADDS     r4,r4,#2
        0x100033c4:    2800        .(      CMP      r0,#0
        0x100033c6:    db01        ..      BLT      0x100033cc ; _float_epilogue + 52
        0x100033c8:    0040        @.      LSLS     r0,r0,#1
        0x100033ca:    1c64        d.      ADDS     r4,r4,#1
        0x100033cc:    2900        .)      CMP      r1,#0
        0x100033ce:    d008        ..      BEQ      0x100033e2 ; _float_epilogue + 74
        0x100033d0:    2520         %      MOVS     r5,#0x20
        0x100033d2:    1b2e        ..      SUBS     r6,r5,r4
        0x100033d4:    460d        .F      MOV      r5,r1
        0x100033d6:    40f5        .@      LSRS     r5,r5,r6
        0x100033d8:    40a1        .@      LSLS     r1,r1,r4
        0x100033da:    d000        ..      BEQ      0x100033de ; _float_epilogue + 70
        0x100033dc:    2101        .!      MOVS     r1,#1
        0x100033de:    4329        )C      ORRS     r1,r1,r5
        0x100033e0:    4308        .C      ORRS     r0,r0,r1
        0x100033e2:    0601        ..      LSLS     r1,r0,#24
        0x100033e4:    1b1b        ..      SUBS     r3,r3,r4
        0x100033e6:    0a00        ..      LSRS     r0,r0,#8
        0x100033e8:    1ddb        ..      ADDS     r3,r3,#7
        0x100033ea:    d502        ..      BPL      0x100033f2 ; _float_epilogue + 90
        0x100033ec:    2000        .       MOVS     r0,#0
        0x100033ee:    bc70        p.      POP      {r4-r6}
        0x100033f0:    4770        pG      BX       lr
        0x100033f2:    05db        ..      LSLS     r3,r3,#23
        0x100033f4:    1818        ..      ADDS     r0,r3,r0
        0x100033f6:    1880        ..      ADDS     r0,r0,r2
        0x100033f8:    2900        .)      CMP      r1,#0
        0x100033fa:    daf8        ..      BGE      0x100033ee ; _float_epilogue + 86
        0x100033fc:    1c40        @.      ADDS     r0,r0,#1
        0x100033fe:    0049        I.      LSLS     r1,r1,#1
        0x10003400:    d1f5        ..      BNE      0x100033ee ; _float_epilogue + 86
        0x10003402:    bc70        p.      POP      {r4-r6}
        0x10003404:    0840        @.      LSRS     r0,r0,#1
        0x10003406:    0040        @.      LSLS     r0,r0,#1
        0x10003408:    4770        pG      BX       lr
    .text
    _double_round
        0x1000340a:    b510        ..      PUSH     {r4,lr}
        0x1000340c:    2b00        .+      CMP      r3,#0
        0x1000340e:    da08        ..      BGE      0x10003422 ; _double_round + 24
        0x10003410:    2400        .$      MOVS     r4,#0
        0x10003412:    1c40        @.      ADDS     r0,r0,#1
        0x10003414:    4161        aA      ADCS     r1,r1,r4
        0x10003416:    1892        ..      ADDS     r2,r2,r2
        0x10003418:    415b        [A      ADCS     r3,r3,r3
        0x1000341a:    431a        .C      ORRS     r2,r2,r3
        0x1000341c:    d101        ..      BNE      0x10003422 ; _double_round + 24
        0x1000341e:    0840        @.      LSRS     r0,r0,#1
        0x10003420:    0040        @.      LSLS     r0,r0,#1
        0x10003422:    bd10        ..      POP      {r4,pc}
    _double_epilogue
        0x10003424:    b5f0        ..      PUSH     {r4-r7,lr}
        0x10003426:    b41f        ..      PUSH     {r0-r4}
        0x10003428:    b082        ..      SUB      sp,sp,#8
        0x1000342a:    4605        .F      MOV      r5,r0
        0x1000342c:    000c        ..      MOVS     r4,r1
        0x1000342e:    d003        ..      BEQ      0x10003438 ; _double_epilogue + 20
        0x10003430:    4608        .F      MOV      r0,r1
        0x10003432:    f000f8a1    ....    BL       __ARM_clz ; 0x10003578
        0x10003436:    e002        ..      B        0x1000343e ; _double_epilogue + 26
        0x10003438:    f000f89e    ....    BL       __ARM_clz ; 0x10003578
        0x1000343c:    3020         0      ADDS     r0,r0,#0x20
        0x1000343e:    4602        .F      MOV      r2,r0
        0x10003440:    9000        ..      STR      r0,[sp,#0]
        0x10003442:    4621        !F      MOV      r1,r4
        0x10003444:    4628        (F      MOV      r0,r5
        0x10003446:    f7ffff6b    ..k.    BL       __aeabi_llsl ; 0x10003320
        0x1000344a:    9b04        ..      LDR      r3,[sp,#0x10]
        0x1000344c:    9a05        ..      LDR      r2,[sp,#0x14]
        0x1000344e:    4604        .F      MOV      r4,r0
        0x10003450:    460f        .F      MOV      r7,r1
        0x10003452:    4318        .C      ORRS     r0,r0,r3
        0x10003454:    4311        .C      ORRS     r1,r1,r2
        0x10003456:    4308        .C      ORRS     r0,r0,r1
        0x10003458:    d014        ..      BEQ      0x10003484 ; _double_epilogue + 96
        0x1000345a:    4618        .F      MOV      r0,r3
        0x1000345c:    4310        .C      ORRS     r0,r0,r2
        0x1000345e:    d01b        ..      BEQ      0x10003498 ; _double_epilogue + 116
        0x10003460:    9800        ..      LDR      r0,[sp,#0]
        0x10003462:    2140        @!      MOVS     r1,#0x40
        0x10003464:    1a0a        ..      SUBS     r2,r1,r0
        0x10003466:    4618        .F      MOV      r0,r3
        0x10003468:    9905        ..      LDR      r1,[sp,#0x14]
        0x1000346a:    f7ffff69    ..i.    BL       __aeabi_llsr ; 0x10003340
        0x1000346e:    4605        .F      MOV      r5,r0
        0x10003470:    460e        .F      MOV      r6,r1
        0x10003472:    9a00        ..      LDR      r2,[sp,#0]
        0x10003474:    9905        ..      LDR      r1,[sp,#0x14]
        0x10003476:    9804        ..      LDR      r0,[sp,#0x10]
        0x10003478:    f7ffff52    ..R.    BL       __aeabi_llsl ; 0x10003320
        0x1000347c:    4308        .C      ORRS     r0,r0,r1
        0x1000347e:    d005        ..      BEQ      0x1000348c ; _double_epilogue + 104
        0x10003480:    2001        .       MOVS     r0,#1
        0x10003482:    e004        ..      B        0x1000348e ; _double_epilogue + 106
        0x10003484:    4620         F      MOV      r0,r4
        0x10003486:    4639        9F      MOV      r1,r7
        0x10003488:    b007        ..      ADD      sp,sp,#0x1c
        0x1000348a:    bdf0        ..      POP      {r4-r7,pc}
        0x1000348c:    2000        .       MOVS     r0,#0
        0x1000348e:    17c1        ..      ASRS     r1,r0,#31
        0x10003490:    4305        .C      ORRS     r5,r5,r0
        0x10003492:    430e        .C      ORRS     r6,r6,r1
        0x10003494:    432c        ,C      ORRS     r4,r4,r5
        0x10003496:    4337        7C      ORRS     r7,r7,r6
        0x10003498:    9900        ..      LDR      r1,[sp,#0]
        0x1000349a:    980e        ..      LDR      r0,[sp,#0x38]
        0x1000349c:    0563        c.      LSLS     r3,r4,#21
        0x1000349e:    1a40        @.      SUBS     r0,r0,r1
        0x100034a0:    0579        y.      LSLS     r1,r7,#21
        0x100034a2:    0ae4        ..      LSRS     r4,r4,#11
        0x100034a4:    2200        ."      MOVS     r2,#0
        0x100034a6:    430c        .C      ORRS     r4,r4,r1
        0x100034a8:    0afd        ..      LSRS     r5,r7,#11
        0x100034aa:    300a        .0      ADDS     r0,r0,#0xa
        0x100034ac:    d502        ..      BPL      0x100034b4 ; _double_epilogue + 144
        0x100034ae:    2000        .       MOVS     r0,#0
        0x100034b0:    4601        .F      MOV      r1,r0
        0x100034b2:    e7e9        ..      B        0x10003488 ; _double_epilogue + 100
        0x100034b4:    0501        ..      LSLS     r1,r0,#20
        0x100034b6:    1910        ..      ADDS     r0,r2,r4
        0x100034b8:    4169        iA      ADCS     r1,r1,r5
        0x100034ba:    9c0c        ..      LDR      r4,[sp,#0x30]
        0x100034bc:    9d0d        ..      LDR      r5,[sp,#0x34]
        0x100034be:    1900        ..      ADDS     r0,r0,r4
        0x100034c0:    4169        iA      ADCS     r1,r1,r5
        0x100034c2:    f7ffffa2    ....    BL       _double_round ; 0x1000340a
        0x100034c6:    e7df        ..      B        0x10003488 ; _double_epilogue + 100
    .text
    __aeabi_d2ulz
        0x100034c8:    004a        J.      LSLS     r2,r1,#1
        0x100034ca:    0309        ..      LSLS     r1,r1,#12
        0x100034cc:    2301        .#      MOVS     r3,#1
        0x100034ce:    0b09        ..      LSRS     r1,r1,#12
        0x100034d0:    051b        ..      LSLS     r3,r3,#20
        0x100034d2:    4319        .C      ORRS     r1,r1,r3
        0x100034d4:    4b0a        .K      LDR      r3,[pc,#40] ; [0x10003500] = 0x3ff
        0x100034d6:    b510        ..      PUSH     {r4,lr}
        0x100034d8:    0d52        R.      LSRS     r2,r2,#21
        0x100034da:    429a        .B      CMP      r2,r3
        0x100034dc:    da02        ..      BGE      0x100034e4 ; __aeabi_d2ulz + 28
        0x100034de:    2000        .       MOVS     r0,#0
        0x100034e0:    4601        .F      MOV      r1,r0
        0x100034e2:    bd10        ..      POP      {r4,pc}
        0x100034e4:    4b06        .K      LDR      r3,[pc,#24] ; [0x10003500] = 0x3ff
        0x100034e6:    3334        43      ADDS     r3,r3,#0x34
        0x100034e8:    429a        .B      CMP      r2,r3
        0x100034ea:    dc03        ..      BGT      0x100034f4 ; __aeabi_d2ulz + 44
        0x100034ec:    1a9a        ..      SUBS     r2,r3,r2
        0x100034ee:    f7ffff27    ..'.    BL       __aeabi_llsr ; 0x10003340
        0x100034f2:    bd10        ..      POP      {r4,pc}
        0x100034f4:    4b03        .K      LDR      r3,[pc,#12] ; [0x10003504] = 0xfffffbcd
        0x100034f6:    18d2        ..      ADDS     r2,r2,r3
        0x100034f8:    f7ffff12    ....    BL       __aeabi_llsl ; 0x10003320
        0x100034fc:    bd10        ..      POP      {r4,pc}
    $d
        0x100034fe:    0000        ..      DCW    0
        0x10003500:    000003ff    ....    DCD    1023
        0x10003504:    fffffbcd    ....    DCD    4294966221
    $t
    .text
    __aeabi_cdrcmple
        0x10003508:    b510        ..      PUSH     {r4,lr}
        0x1000350a:    2900        .)      CMP      r1,#0
        0x1000350c:    db04        ..      BLT      0x10003518 ; __aeabi_cdrcmple + 16
        0x1000350e:    2401        .$      MOVS     r4,#1
        0x10003510:    07e4        ..      LSLS     r4,r4,#31
        0x10003512:    4240        @B      RSBS     r0,r0,#0
        0x10003514:    418c        .A      SBCS     r4,r4,r1
        0x10003516:    4621        !F      MOV      r1,r4
        0x10003518:    2b00        .+      CMP      r3,#0
        0x1000351a:    db04        ..      BLT      0x10003526 ; __aeabi_cdrcmple + 30
        0x1000351c:    461c        .F      MOV      r4,r3
        0x1000351e:    2301        .#      MOVS     r3,#1
        0x10003520:    07db        ..      LSLS     r3,r3,#31
        0x10003522:    4252        RB      RSBS     r2,r2,#0
        0x10003524:    41a3        .A      SBCS     r3,r3,r4
        0x10003526:    4299        .B      CMP      r1,r3
        0x10003528:    d100        ..      BNE      0x1000352c ; __aeabi_cdrcmple + 36
        0x1000352a:    4290        .B      CMP      r0,r2
        0x1000352c:    bd10        ..      POP      {r4,pc}
    $d
        0x1000352e:    0000        ..      DCW    0
    $t
    .text
    __scatterload
    __scatterload_rt2
        0x10003530:    4c06        .L      LDR      r4,[pc,#24] ; [0x1000354c] = 0x10003ebc
        0x10003532:    2501        .%      MOVS     r5,#1
        0x10003534:    4e06        .N      LDR      r6,[pc,#24] ; [0x10003550] = 0x10003edc
        0x10003536:    e005        ..      B        0x10003544 ; __scatterload + 20
        0x10003538:    68e3        .h      LDR      r3,[r4,#0xc]
        0x1000353a:    cc07        ..      LDM      r4!,{r0-r2}
        0x1000353c:    432b        +C      ORRS     r3,r3,r5
        0x1000353e:    3c0c        .<      SUBS     r4,r4,#0xc
        0x10003540:    4798        .G      BLX      r3
        0x10003542:    3410        .4      ADDS     r4,r4,#0x10
        0x10003544:    42b4        .B      CMP      r4,r6
        0x10003546:    d3f7        ..      BCC      0x10003538 ; __scatterload + 8
        0x10003548:    f7fcfdbe    ....    BL       __main_after_scatterload ; 0x100000c8
    $d
        0x1000354c:    10003ebc    .>..    DCD    268451516
        0x10003550:    10003edc    .>..    DCD    268451548
    $t
    i.__0vsprintf
    __0vsprintf
    __1vsprintf
    __2vsprintf
    __c89vsprintf
    vsprintf
        0x10003554:    b537        7.      PUSH     {r0-r2,r4,r5,lr}
        0x10003556:    4614        .F      MOV      r4,r2
        0x10003558:    4608        .F      MOV      r0,r1
        0x1000355a:    4b06        .K      LDR      r3,[pc,#24] ; [0x10003574] = 0x10003e8d
        0x1000355c:    466a        jF      MOV      r2,sp
        0x1000355e:    4621        !F      MOV      r1,r4
        0x10003560:    f000f8f8    ....    BL       _printf_core ; 0x10003754
        0x10003564:    4604        .F      MOV      r4,r0
        0x10003566:    4669        iF      MOV      r1,sp
        0x10003568:    2000        .       MOVS     r0,#0
        0x1000356a:    f000fc8f    ....    BL       _sputc ; 0x10003e8c
        0x1000356e:    4620         F      MOV      r0,r4
        0x10003570:    bd3e        >.      POP      {r1-r5,pc}
    $d
        0x10003572:    0000        ..      DCW    0
        0x10003574:    10003e8d    .>..    DCD    268451469
    $t
    i.__ARM_clz
    __ARM_clz
        0x10003578:    2120         !      MOVS     r1,#0x20
        0x1000357a:    0c02        ..      LSRS     r2,r0,#16
        0x1000357c:    d001        ..      BEQ      0x10003582 ; __ARM_clz + 10
        0x1000357e:    2110        .!      MOVS     r1,#0x10
        0x10003580:    4610        .F      MOV      r0,r2
        0x10003582:    0a02        ..      LSRS     r2,r0,#8
        0x10003584:    d001        ..      BEQ      0x1000358a ; __ARM_clz + 18
        0x10003586:    4610        .F      MOV      r0,r2
        0x10003588:    3908        .9      SUBS     r1,r1,#8
        0x1000358a:    0902        ..      LSRS     r2,r0,#4
        0x1000358c:    d001        ..      BEQ      0x10003592 ; __ARM_clz + 26
        0x1000358e:    4610        .F      MOV      r0,r2
        0x10003590:    1f09        ..      SUBS     r1,r1,#4
        0x10003592:    0882        ..      LSRS     r2,r0,#2
        0x10003594:    d001        ..      BEQ      0x1000359a ; __ARM_clz + 34
        0x10003596:    4610        .F      MOV      r0,r2
        0x10003598:    1e89        ..      SUBS     r1,r1,#2
        0x1000359a:    0842        B.      LSRS     r2,r0,#1
        0x1000359c:    d001        ..      BEQ      0x100035a2 ; __ARM_clz + 42
        0x1000359e:    1e88        ..      SUBS     r0,r1,#2
        0x100035a0:    4770        pG      BX       lr
        0x100035a2:    1a08        ..      SUBS     r0,r1,r0
        0x100035a4:    4770        pG      BX       lr
    i.__ARM_common_switch8
    __ARM_common_switch8
        0x100035a6:    b430        0.      PUSH     {r4,r5}
        0x100035a8:    4674        tF      MOV      r4,lr
        0x100035aa:    1e64        d.      SUBS     r4,r4,#1
        0x100035ac:    7825        %x      LDRB     r5,[r4,#0]
        0x100035ae:    1c64        d.      ADDS     r4,r4,#1
        0x100035b0:    42ab        .B      CMP      r3,r5
        0x100035b2:    d200        ..      BCS      0x100035b6 ; __ARM_common_switch8 + 16
        0x100035b4:    461d        .F      MOV      r5,r3
        0x100035b6:    5d63        c]      LDRB     r3,[r4,r5]
        0x100035b8:    005b        [.      LSLS     r3,r3,#1
        0x100035ba:    18e3        ..      ADDS     r3,r4,r3
        0x100035bc:    bc30        0.      POP      {r4,r5}
        0x100035be:    4718        .G      BX       r3
    i.__scatterload_copy
    __scatterload_copy
        0x100035c0:    e002        ..      B        0x100035c8 ; __scatterload_copy + 8
        0x100035c2:    c808        ..      LDM      r0!,{r3}
        0x100035c4:    1f12        ..      SUBS     r2,r2,#4
        0x100035c6:    c108        ..      STM      r1!,{r3}
        0x100035c8:    2a00        .*      CMP      r2,#0
        0x100035ca:    d1fa        ..      BNE      0x100035c2 ; __scatterload_copy + 2
        0x100035cc:    4770        pG      BX       lr
    i.__scatterload_null
    __scatterload_null
        0x100035ce:    4770        pG      BX       lr
    i.__scatterload_zeroinit
    __scatterload_zeroinit
        0x100035d0:    2000        .       MOVS     r0,#0
        0x100035d2:    e001        ..      B        0x100035d8 ; __scatterload_zeroinit + 8
        0x100035d4:    c101        ..      STM      r1!,{r0}
        0x100035d6:    1f12        ..      SUBS     r2,r2,#4
        0x100035d8:    2a00        .*      CMP      r2,#0
        0x100035da:    d1fb        ..      BNE      0x100035d4 ; __scatterload_zeroinit + 4
        0x100035dc:    4770        pG      BX       lr
        0x100035de:    0000        ..      MOVS     r0,r0
    i._fp_digits
    _fp_digits
        0x100035e0:    b5f0        ..      PUSH     {r4-r7,lr}
        0x100035e2:    b41f        ..      PUSH     {r0-r4}
        0x100035e4:    b086        ..      SUB      sp,sp,#0x18
        0x100035e6:    9809        ..      LDR      r0,[sp,#0x24]
        0x100035e8:    9a08        ..      LDR      r2,[sp,#0x20]
        0x100035ea:    0d03        ..      LSRS     r3,r0,#20
        0x100035ec:    2100        .!      MOVS     r1,#0
        0x100035ee:    4302        .C      ORRS     r2,r2,r0
        0x100035f0:    d014        ..      BEQ      0x1000361c ; _fp_digits + 60
        0x100035f2:    4851        QH      LDR      r0,[pc,#324] ; [0x10003738] = 0xfffffc01
        0x100035f4:    4a51        QJ      LDR      r2,[pc,#324] ; [0x1000373c] = 0x4d10
        0x100035f6:    1818        ..      ADDS     r0,r3,r0
        0x100035f8:    4350        PC      MULS     r0,r2,r0
        0x100035fa:    1405        ..      ASRS     r5,r0,#16
        0x100035fc:    9811        ..      LDR      r0,[sp,#0x44]
        0x100035fe:    2801        .(      CMP      r0,#1
        0x10003600:    9810        ..      LDR      r0,[sp,#0x40]
        0x10003602:    d01a        ..      BEQ      0x1000363a ; _fp_digits + 90
        0x10003604:    1a28        (.      SUBS     r0,r5,r0
        0x10003606:    1c40        @.      ADDS     r0,r0,#1
        0x10003608:    2600        .&      MOVS     r6,#0
        0x1000360a:    4f4d        MO      LDR      r7,[pc,#308] ; [0x10003740] = 0x40140000
        0x1000360c:    494d        MI      LDR      r1,[pc,#308] ; [0x10003744] = 0x3ff00000
        0x1000360e:    9600        ..      STR      r6,[sp,#0]
        0x10003610:    9101        ..      STR      r1,[sp,#4]
        0x10003612:    9004        ..      STR      r0,[sp,#0x10]
        0x10003614:    2800        .(      CMP      r0,#0
        0x10003616:    da12        ..      BGE      0x1000363e ; _fp_digits + 94
        0x10003618:    4244        DB      RSBS     r4,r0,#0
        0x1000361a:    e011        ..      B        0x10003640 ; _fp_digits + 96
        0x1000361c:    9811        ..      LDR      r0,[sp,#0x44]
        0x1000361e:    2401        .$      MOVS     r4,#1
        0x10003620:    a349        I.      ADR      r3,{pc}+0x128 ; 0x10003748
        0x10003622:    2801        .(      CMP      r0,#1
        0x10003624:    d101        ..      BNE      0x1000362a ; _fp_digits + 74
        0x10003626:    9810        ..      LDR      r0,[sp,#0x40]
        0x10003628:    43c1        .C      MVNS     r1,r0
        0x1000362a:    9806        ..      LDR      r0,[sp,#0x18]
        0x1000362c:    9a11        ..      LDR      r2,[sp,#0x44]
        0x1000362e:    6084        .`      STR      r4,[r0,#8]
        0x10003630:    6003        .`      STR      r3,[r0,#0]
        0x10003632:    60c2        .`      STR      r2,[r0,#0xc]
        0x10003634:    6041        A`      STR      r1,[r0,#4]
        0x10003636:    b00b        ..      ADD      sp,sp,#0x2c
        0x10003638:    bdf0        ..      POP      {r4-r7,pc}
        0x1000363a:    4240        @B      RSBS     r0,r0,#0
        0x1000363c:    e7e4        ..      B        0x10003608 ; _fp_digits + 40
        0x1000363e:    4604        .F      MOV      r4,r0
        0x10003640:    0521        !.      LSLS     r1,r4,#20
        0x10003642:    2000        .       MOVS     r0,#0
        0x10003644:    4a3f        ?J      LDR      r2,[pc,#252] ; [0x10003744] = 0x3ff00000
        0x10003646:    1c00        ..      ADDS     r0,r0,#0
        0x10003648:    4151        QA      ADCS     r1,r1,r2
        0x1000364a:    9103        ..      STR      r1,[sp,#0xc]
        0x1000364c:    9002        ..      STR      r0,[sp,#8]
        0x1000364e:    e012        ..      B        0x10003676 ; _fp_digits + 150
        0x10003650:    07e0        ..      LSLS     r0,r4,#31
        0x10003652:    d007        ..      BEQ      0x10003664 ; _fp_digits + 132
        0x10003654:    4632        2F      MOV      r2,r6
        0x10003656:    463b        ;F      MOV      r3,r7
        0x10003658:    9901        ..      LDR      r1,[sp,#4]
        0x1000365a:    9800        ..      LDR      r0,[sp,#0]
        0x1000365c:    f7fffcf4    ....    BL       __aeabi_dmul ; 0x10003048
        0x10003660:    9101        ..      STR      r1,[sp,#4]
        0x10003662:    9000        ..      STR      r0,[sp,#0]
        0x10003664:    4632        2F      MOV      r2,r6
        0x10003666:    463b        ;F      MOV      r3,r7
        0x10003668:    4610        .F      MOV      r0,r2
        0x1000366a:    4619        .F      MOV      r1,r3
        0x1000366c:    f7fffcec    ....    BL       __aeabi_dmul ; 0x10003048
        0x10003670:    4606        .F      MOV      r6,r0
        0x10003672:    460f        .F      MOV      r7,r1
        0x10003674:    1064        d.      ASRS     r4,r4,#1
        0x10003676:    2c00        .,      CMP      r4,#0
        0x10003678:    d1ea        ..      BNE      0x10003650 ; _fp_digits + 112
        0x1000367a:    9804        ..      LDR      r0,[sp,#0x10]
        0x1000367c:    9b03        ..      LDR      r3,[sp,#0xc]
        0x1000367e:    2800        .(      CMP      r0,#0
        0x10003680:    9a02        ..      LDR      r2,[sp,#8]
        0x10003682:    9909        ..      LDR      r1,[sp,#0x24]
        0x10003684:    9808        ..      LDR      r0,[sp,#0x20]
        0x10003686:    da06        ..      BGE      0x10003696 ; _fp_digits + 182
        0x10003688:    f7fffcde    ....    BL       __aeabi_dmul ; 0x10003048
        0x1000368c:    9b01        ..      LDR      r3,[sp,#4]
        0x1000368e:    9a00        ..      LDR      r2,[sp,#0]
        0x10003690:    f7fffcda    ....    BL       __aeabi_dmul ; 0x10003048
        0x10003694:    e005        ..      B        0x100036a2 ; _fp_digits + 194
        0x10003696:    f7fffd3f    ..?.    BL       __aeabi_ddiv ; 0x10003118
        0x1000369a:    9b01        ..      LDR      r3,[sp,#4]
        0x1000369c:    9a00        ..      LDR      r2,[sp,#0]
        0x1000369e:    f7fffd3b    ..;.    BL       __aeabi_ddiv ; 0x10003118
        0x100036a2:    4604        .F      MOV      r4,r0
        0x100036a4:    460e        .F      MOV      r6,r1
        0x100036a6:    2200        ."      MOVS     r2,#0
        0x100036a8:    4b28        (K      LDR      r3,[pc,#160] ; [0x1000374c] = 0x43f00000
        0x100036aa:    f7ffff2d    ..-.    BL       __aeabi_cdrcmple ; 0x10003508
        0x100036ae:    d803        ..      BHI      0x100036b8 ; _fp_digits + 216
        0x100036b0:    2000        .       MOVS     r0,#0
        0x100036b2:    43c0        .C      MVNS     r0,r0
        0x100036b4:    4601        .F      MOV      r1,r0
        0x100036b6:    e007        ..      B        0x100036c8 ; _fp_digits + 232
        0x100036b8:    2200        ."      MOVS     r2,#0
        0x100036ba:    4b25        %K      LDR      r3,[pc,#148] ; [0x10003750] = 0x3fe00000
        0x100036bc:    4620         F      MOV      r0,r4
        0x100036be:    4631        1F      MOV      r1,r6
        0x100036c0:    f7fffc10    ....    BL       __aeabi_dadd ; 0x10002ee4
        0x100036c4:    f7ffff00    ....    BL       __aeabi_d2ulz ; 0x100034c8
        0x100036c8:    2410        .$      MOVS     r4,#0x10
        0x100036ca:    e009        ..      B        0x100036e0 ; _fp_digits + 256
        0x100036cc:    2c00        .,      CMP      r4,#0
        0x100036ce:    db0a        ..      BLT      0x100036e6 ; _fp_digits + 262
        0x100036d0:    220a        ."      MOVS     r2,#0xa
        0x100036d2:    2300        .#      MOVS     r3,#0
        0x100036d4:    f7fffdf4    ....    BL       __aeabi_uldivmod ; 0x100032c0
        0x100036d8:    9b07        ..      LDR      r3,[sp,#0x1c]
        0x100036da:    3230        02      ADDS     r2,r2,#0x30
        0x100036dc:    551a        .U      STRB     r2,[r3,r4]
        0x100036de:    1e64        d.      SUBS     r4,r4,#1
        0x100036e0:    4602        .F      MOV      r2,r0
        0x100036e2:    430a        .C      ORRS     r2,r2,r1
        0x100036e4:    d1f2        ..      BNE      0x100036cc ; _fp_digits + 236
        0x100036e6:    2211        ."      MOVS     r2,#0x11
        0x100036e8:    1c64        d.      ADDS     r4,r4,#1
        0x100036ea:    9b07        ..      LDR      r3,[sp,#0x1c]
        0x100036ec:    1b12        ..      SUBS     r2,r2,r4
        0x100036ee:    191c        ..      ADDS     r4,r3,r4
        0x100036f0:    9b11        ..      LDR      r3,[sp,#0x44]
        0x100036f2:    2b01        .+      CMP      r3,#1
        0x100036f4:    d003        ..      BEQ      0x100036fe ; _fp_digits + 286
        0x100036f6:    2301        .#      MOVS     r3,#1
        0x100036f8:    4308        .C      ORRS     r0,r0,r1
        0x100036fa:    d10e        ..      BNE      0x1000371a ; _fp_digits + 314
        0x100036fc:    e00a        ..      B        0x10003714 ; _fp_digits + 308
        0x100036fe:    4308        .C      ORRS     r0,r0,r1
        0x10003700:    d004        ..      BEQ      0x1000370c ; _fp_digits + 300
        0x10003702:    2011        .       MOVS     r0,#0x11
        0x10003704:    9010        ..      STR      r0,[sp,#0x40]
        0x10003706:    2000        .       MOVS     r0,#0
        0x10003708:    9011        ..      STR      r0,[sp,#0x44]
        0x1000370a:    e777        w.      B        0x100035fc ; _fp_digits + 28
        0x1000370c:    9810        ..      LDR      r0,[sp,#0x40]
        0x1000370e:    1a15        ..      SUBS     r5,r2,r0
        0x10003710:    1e6d        m.      SUBS     r5,r5,#1
        0x10003712:    e00b        ..      B        0x1000372c ; _fp_digits + 332
        0x10003714:    9810        ..      LDR      r0,[sp,#0x40]
        0x10003716:    4282        .B      CMP      r2,r0
        0x10003718:    dd02        ..      BLE      0x10003720 ; _fp_digits + 320
        0x1000371a:    2300        .#      MOVS     r3,#0
        0x1000371c:    1c6d        m.      ADDS     r5,r5,#1
        0x1000371e:    e003        ..      B        0x10003728 ; _fp_digits + 328
        0x10003720:    4282        .B      CMP      r2,r0
        0x10003722:    da01        ..      BGE      0x10003728 ; _fp_digits + 328
        0x10003724:    2300        .#      MOVS     r3,#0
        0x10003726:    1e6d        m.      SUBS     r5,r5,#1
        0x10003728:    2b00        .+      CMP      r3,#0
        0x1000372a:    d0ee        ..      BEQ      0x1000370a ; _fp_digits + 298
        0x1000372c:    9806        ..      LDR      r0,[sp,#0x18]
        0x1000372e:    9911        ..      LDR      r1,[sp,#0x44]
        0x10003730:    6082        .`      STR      r2,[r0,#8]
        0x10003732:    60c1        .`      STR      r1,[r0,#0xc]
        0x10003734:    c030        0.      STM      r0!,{r4,r5}
        0x10003736:    e77e        ~.      B        0x10003636 ; _fp_digits + 86
    $d
        0x10003738:    fffffc01    ....    DCD    4294966273
        0x1000373c:    00004d10    .M..    DCD    19728
        0x10003740:    40140000    ...@    DCD    1075052544
        0x10003744:    3ff00000    ...?    DCD    1072693248
        0x10003748:    00000030    0...    DCD    48
        0x1000374c:    43f00000    ...C    DCD    1139802112
        0x10003750:    3fe00000    ...?    DCD    1071644672
    $t
    i._printf_core
    _printf_core
        0x10003754:    b5ff        ..      PUSH     {r0-r7,lr}
        0x10003756:    b097        ..      SUB      sp,sp,#0x5c
        0x10003758:    4606        .F      MOV      r6,r0
        0x1000375a:    2500        .%      MOVS     r5,#0
        0x1000375c:    e218        ..      B        0x10003b90 ; _printf_core + 1084
        0x1000375e:    2825        %(      CMP      r0,#0x25
        0x10003760:    d177        w.      BNE      0x10003852 ; _printf_core + 254
        0x10003762:    2400        .$      MOVS     r4,#0
        0x10003764:    4627        'F      MOV      r7,r4
        0x10003766:    49fd        .I      LDR      r1,[pc,#1012] ; [0x10003b5c] = 0x12809
        0x10003768:    9404        ..      STR      r4,[sp,#0x10]
        0x1000376a:    e000        ..      B        0x1000376e ; _printf_core + 26
        0x1000376c:    4304        .C      ORRS     r4,r4,r0
        0x1000376e:    1c76        v.      ADDS     r6,r6,#1
        0x10003770:    7832        2x      LDRB     r2,[r6,#0]
        0x10003772:    2001        .       MOVS     r0,#1
        0x10003774:    3a20         :      SUBS     r2,r2,#0x20
        0x10003776:    4090        .@      LSLS     r0,r0,r2
        0x10003778:    4208        .B      TST      r0,r1
        0x1000377a:    d1f7        ..      BNE      0x1000376c ; _printf_core + 24
        0x1000377c:    7830        0x      LDRB     r0,[r6,#0]
        0x1000377e:    282a        *(      CMP      r0,#0x2a
        0x10003780:    d00e        ..      BEQ      0x100037a0 ; _printf_core + 76
        0x10003782:    2202        ."      MOVS     r2,#2
        0x10003784:    7830        0x      LDRB     r0,[r6,#0]
        0x10003786:    4601        .F      MOV      r1,r0
        0x10003788:    3930        09      SUBS     r1,r1,#0x30
        0x1000378a:    2909        .)      CMP      r1,#9
        0x1000378c:    d816        ..      BHI      0x100037bc ; _printf_core + 104
        0x1000378e:    9904        ..      LDR      r1,[sp,#0x10]
        0x10003790:    230a        .#      MOVS     r3,#0xa
        0x10003792:    4359        YC      MULS     r1,r3,r1
        0x10003794:    3930        09      SUBS     r1,r1,#0x30
        0x10003796:    1840        @.      ADDS     r0,r0,r1
        0x10003798:    4314        .C      ORRS     r4,r4,r2
        0x1000379a:    1c76        v.      ADDS     r6,r6,#1
        0x1000379c:    9004        ..      STR      r0,[sp,#0x10]
        0x1000379e:    e7f1        ..      B        0x10003784 ; _printf_core + 48
        0x100037a0:    9818        ..      LDR      r0,[sp,#0x60]
        0x100037a2:    c802        ..      LDM      r0!,{r1}
        0x100037a4:    9104        ..      STR      r1,[sp,#0x10]
        0x100037a6:    9018        ..      STR      r0,[sp,#0x60]
        0x100037a8:    2900        .)      CMP      r1,#0
        0x100037aa:    da04        ..      BGE      0x100037b6 ; _printf_core + 98
        0x100037ac:    2001        .       MOVS     r0,#1
        0x100037ae:    0340        @.      LSLS     r0,r0,#13
        0x100037b0:    4304        .C      ORRS     r4,r4,r0
        0x100037b2:    4248        HB      RSBS     r0,r1,#0
        0x100037b4:    9004        ..      STR      r0,[sp,#0x10]
        0x100037b6:    2002        .       MOVS     r0,#2
        0x100037b8:    4304        .C      ORRS     r4,r4,r0
        0x100037ba:    1c76        v.      ADDS     r6,r6,#1
        0x100037bc:    7830        0x      LDRB     r0,[r6,#0]
        0x100037be:    282e        .(      CMP      r0,#0x2e
        0x100037c0:    d114        ..      BNE      0x100037ec ; _printf_core + 152
        0x100037c2:    2004        .       MOVS     r0,#4
        0x100037c4:    4304        .C      ORRS     r4,r4,r0
        0x100037c6:    7870        px      LDRB     r0,[r6,#1]
        0x100037c8:    1c76        v.      ADDS     r6,r6,#1
        0x100037ca:    282a        *(      CMP      r0,#0x2a
        0x100037cc:    d109        ..      BNE      0x100037e2 ; _printf_core + 142
        0x100037ce:    9818        ..      LDR      r0,[sp,#0x60]
        0x100037d0:    1c76        v.      ADDS     r6,r6,#1
        0x100037d2:    c880        ..      LDM      r0!,{r7}
        0x100037d4:    9018        ..      STR      r0,[sp,#0x60]
        0x100037d6:    e009        ..      B        0x100037ec ; _printf_core + 152
        0x100037d8:    210a        .!      MOVS     r1,#0xa
        0x100037da:    434f        OC      MULS     r7,r1,r7
        0x100037dc:    3f30        0?      SUBS     r7,r7,#0x30
        0x100037de:    19c7        ..      ADDS     r7,r0,r7
        0x100037e0:    1c76        v.      ADDS     r6,r6,#1
        0x100037e2:    7830        0x      LDRB     r0,[r6,#0]
        0x100037e4:    4601        .F      MOV      r1,r0
        0x100037e6:    3930        09      SUBS     r1,r1,#0x30
        0x100037e8:    2909        .)      CMP      r1,#9
        0x100037ea:    d9f5        ..      BLS      0x100037d8 ; _printf_core + 132
        0x100037ec:    7830        0x      LDRB     r0,[r6,#0]
        0x100037ee:    286c        l(      CMP      r0,#0x6c
        0x100037f0:    d010        ..      BEQ      0x10003814 ; _printf_core + 192
        0x100037f2:    dc06        ..      BGT      0x10003802 ; _printf_core + 174
        0x100037f4:    284c        L(      CMP      r0,#0x4c
        0x100037f6:    d01a        ..      BEQ      0x1000382e ; _printf_core + 218
        0x100037f8:    2868        h(      CMP      r0,#0x68
        0x100037fa:    d00e        ..      BEQ      0x1000381a ; _printf_core + 198
        0x100037fc:    286a        j(      CMP      r0,#0x6a
        0x100037fe:    d117        ..      BNE      0x10003830 ; _printf_core + 220
        0x10003800:    e004        ..      B        0x1000380c ; _printf_core + 184
        0x10003802:    2874        t(      CMP      r0,#0x74
        0x10003804:    d013        ..      BEQ      0x1000382e ; _printf_core + 218
        0x10003806:    287a        z(      CMP      r0,#0x7a
        0x10003808:    d112        ..      BNE      0x10003830 ; _printf_core + 220
        0x1000380a:    e010        ..      B        0x1000382e ; _printf_core + 218
        0x1000380c:    2001        .       MOVS     r0,#1
        0x1000380e:    0540        @.      LSLS     r0,r0,#21
        0x10003810:    4304        .C      ORRS     r4,r4,r0
        0x10003812:    e00c        ..      B        0x1000382e ; _printf_core + 218
        0x10003814:    2101        .!      MOVS     r1,#1
        0x10003816:    0509        ..      LSLS     r1,r1,#20
        0x10003818:    e001        ..      B        0x1000381e ; _printf_core + 202
        0x1000381a:    2103        .!      MOVS     r1,#3
        0x1000381c:    0509        ..      LSLS     r1,r1,#20
        0x1000381e:    430c        .C      ORRS     r4,r4,r1
        0x10003820:    7871        qx      LDRB     r1,[r6,#1]
        0x10003822:    4281        .B      CMP      r1,r0
        0x10003824:    d103        ..      BNE      0x1000382e ; _printf_core + 218
        0x10003826:    2001        .       MOVS     r0,#1
        0x10003828:    0500        ..      LSLS     r0,r0,#20
        0x1000382a:    1824        $.      ADDS     r4,r4,r0
        0x1000382c:    1c76        v.      ADDS     r6,r6,#1
        0x1000382e:    1c76        v.      ADDS     r6,r6,#1
        0x10003830:    7830        0x      LDRB     r0,[r6,#0]
        0x10003832:    9011        ..      STR      r0,[sp,#0x44]
        0x10003834:    2866        f(      CMP      r0,#0x66
        0x10003836:    d00b        ..      BEQ      0x10003850 ; _printf_core + 252
        0x10003838:    dc13        ..      BGT      0x10003862 ; _printf_core + 270
        0x1000383a:    2858        X(      CMP      r0,#0x58
        0x1000383c:    d07d        }.      BEQ      0x1000393a ; _printf_core + 486
        0x1000383e:    dc09        ..      BGT      0x10003854 ; _printf_core + 256
        0x10003840:    2800        .(      CMP      r0,#0
        0x10003842:    d07b        {.      BEQ      0x1000393c ; _printf_core + 488
        0x10003844:    2845        E(      CMP      r0,#0x45
        0x10003846:    d0f6        ..      BEQ      0x10003836 ; _printf_core + 226
        0x10003848:    2846        F(      CMP      r0,#0x46
        0x1000384a:    d0f4        ..      BEQ      0x10003836 ; _printf_core + 226
        0x1000384c:    2847        G(      CMP      r0,#0x47
        0x1000384e:    d11a        ..      BNE      0x10003886 ; _printf_core + 306
        0x10003850:    e1a5        ..      B        0x10003b9e ; _printf_core + 1098
        0x10003852:    e018        ..      B        0x10003886 ; _printf_core + 306
        0x10003854:    2863        c(      CMP      r0,#0x63
        0x10003856:    d035        5.      BEQ      0x100038c4 ; _printf_core + 368
        0x10003858:    2864        d(      CMP      r0,#0x64
        0x1000385a:    d070        p.      BEQ      0x1000393e ; _printf_core + 490
        0x1000385c:    2865        e(      CMP      r0,#0x65
        0x1000385e:    d112        ..      BNE      0x10003886 ; _printf_core + 306
        0x10003860:    e19d        ..      B        0x10003b9e ; _printf_core + 1098
        0x10003862:    2870        p(      CMP      r0,#0x70
        0x10003864:    d06c        l.      BEQ      0x10003940 ; _printf_core + 492
        0x10003866:    dc08        ..      BGT      0x1000387a ; _printf_core + 294
        0x10003868:    2867        g(      CMP      r0,#0x67
        0x1000386a:    d0f1        ..      BEQ      0x10003850 ; _printf_core + 252
        0x1000386c:    2869        i(      CMP      r0,#0x69
        0x1000386e:    d07b        {.      BEQ      0x10003968 ; _printf_core + 532
        0x10003870:    286e        n(      CMP      r0,#0x6e
        0x10003872:    d00d        ..      BEQ      0x10003890 ; _printf_core + 316
        0x10003874:    286f        o(      CMP      r0,#0x6f
        0x10003876:    d106        ..      BNE      0x10003886 ; _printf_core + 306
        0x10003878:    e0ba        ..      B        0x100039f0 ; _printf_core + 668
        0x1000387a:    2873        s(      CMP      r0,#0x73
        0x1000387c:    d02e        ..      BEQ      0x100038dc ; _printf_core + 392
        0x1000387e:    2875        u(      CMP      r0,#0x75
        0x10003880:    d071        q.      BEQ      0x10003966 ; _printf_core + 530
        0x10003882:    2878        x(      CMP      r0,#0x78
        0x10003884:    d059        Y.      BEQ      0x1000393a ; _printf_core + 486
        0x10003886:    9a1a        ..      LDR      r2,[sp,#0x68]
        0x10003888:    9919        ..      LDR      r1,[sp,#0x64]
        0x1000388a:    4790        .G      BLX      r2
        0x1000388c:    1c6d        m.      ADDS     r5,r5,#1
        0x1000388e:    e17e        ~.      B        0x10003b8e ; _printf_core + 1082
        0x10003890:    0260        `.      LSLS     r0,r4,#9
        0x10003892:    0f40        @.      LSRS     r0,r0,#29
        0x10003894:    2802        .(      CMP      r0,#2
        0x10003896:    d009        ..      BEQ      0x100038ac ; _printf_core + 344
        0x10003898:    2803        .(      CMP      r0,#3
        0x1000389a:    d00d        ..      BEQ      0x100038b8 ; _printf_core + 356
        0x1000389c:    2804        .(      CMP      r0,#4
        0x1000389e:    9818        ..      LDR      r0,[sp,#0x60]
        0x100038a0:    6801        .h      LDR      r1,[r0,#0]
        0x100038a2:    d00d        ..      BEQ      0x100038c0 ; _printf_core + 364
        0x100038a4:    600d        .`      STR      r5,[r1,#0]
        0x100038a6:    1d00        ..      ADDS     r0,r0,#4
        0x100038a8:    9018        ..      STR      r0,[sp,#0x60]
        0x100038aa:    e170        p.      B        0x10003b8e ; _printf_core + 1082
        0x100038ac:    9818        ..      LDR      r0,[sp,#0x60]
        0x100038ae:    17ea        ..      ASRS     r2,r5,#31
        0x100038b0:    6801        .h      LDR      r1,[r0,#0]
        0x100038b2:    600d        .`      STR      r5,[r1,#0]
        0x100038b4:    604a        J`      STR      r2,[r1,#4]
        0x100038b6:    e7f6        ..      B        0x100038a6 ; _printf_core + 338
        0x100038b8:    9818        ..      LDR      r0,[sp,#0x60]
        0x100038ba:    6801        .h      LDR      r1,[r0,#0]
        0x100038bc:    800d        ..      STRH     r5,[r1,#0]
        0x100038be:    e7f2        ..      B        0x100038a6 ; _printf_core + 338
        0x100038c0:    700d        .p      STRB     r5,[r1,#0]
        0x100038c2:    e7f0        ..      B        0x100038a6 ; _printf_core + 338
        0x100038c4:    9818        ..      LDR      r0,[sp,#0x60]
        0x100038c6:    466a        jF      MOV      r2,sp
        0x100038c8:    7801        .x      LDRB     r1,[r0,#0]
        0x100038ca:    7211        .r      STRB     r1,[r2,#8]
        0x100038cc:    1d00        ..      ADDS     r0,r0,#4
        0x100038ce:    9018        ..      STR      r0,[sp,#0x60]
        0x100038d0:    2000        .       MOVS     r0,#0
        0x100038d2:    7250        Pr      STRB     r0,[r2,#9]
        0x100038d4:    a802        ..      ADD      r0,sp,#8
        0x100038d6:    9000        ..      STR      r0,[sp,#0]
        0x100038d8:    2001        .       MOVS     r0,#1
        0x100038da:    e005        ..      B        0x100038e8 ; _printf_core + 404
        0x100038dc:    9818        ..      LDR      r0,[sp,#0x60]
        0x100038de:    c802        ..      LDM      r0!,{r1}
        0x100038e0:    9018        ..      STR      r0,[sp,#0x60]
        0x100038e2:    2000        .       MOVS     r0,#0
        0x100038e4:    9100        ..      STR      r1,[sp,#0]
        0x100038e6:    43c0        .C      MVNS     r0,r0
        0x100038e8:    0761        a.      LSLS     r1,r4,#29
        0x100038ea:    d50d        ..      BPL      0x10003908 ; _printf_core + 436
        0x100038ec:    2100        .!      MOVS     r1,#0
        0x100038ee:    e001        ..      B        0x100038f4 ; _printf_core + 416
        0x100038f0:    9901        ..      LDR      r1,[sp,#4]
        0x100038f2:    1c49        I.      ADDS     r1,r1,#1
        0x100038f4:    9101        ..      STR      r1,[sp,#4]
        0x100038f6:    42b9        .B      CMP      r1,r7
        0x100038f8:    da12        ..      BGE      0x10003920 ; _printf_core + 460
        0x100038fa:    4281        .B      CMP      r1,r0
        0x100038fc:    dbf8        ..      BLT      0x100038f0 ; _printf_core + 412
        0x100038fe:    9a00        ..      LDR      r2,[sp,#0]
        0x10003900:    5c51        Q\      LDRB     r1,[r2,r1]
        0x10003902:    2900        .)      CMP      r1,#0
        0x10003904:    d1f4        ..      BNE      0x100038f0 ; _printf_core + 412
        0x10003906:    e00b        ..      B        0x10003920 ; _printf_core + 460
        0x10003908:    2100        .!      MOVS     r1,#0
        0x1000390a:    e001        ..      B        0x10003910 ; _printf_core + 444
        0x1000390c:    9901        ..      LDR      r1,[sp,#4]
        0x1000390e:    1c49        I.      ADDS     r1,r1,#1
        0x10003910:    9101        ..      STR      r1,[sp,#4]
        0x10003912:    4281        .B      CMP      r1,r0
        0x10003914:    dbfa        ..      BLT      0x1000390c ; _printf_core + 440
        0x10003916:    9a01        ..      LDR      r2,[sp,#4]
        0x10003918:    9900        ..      LDR      r1,[sp,#0]
        0x1000391a:    5c89        .\      LDRB     r1,[r1,r2]
        0x1000391c:    2900        .)      CMP      r1,#0
        0x1000391e:    d1f5        ..      BNE      0x1000390c ; _printf_core + 440
        0x10003920:    9901        ..      LDR      r1,[sp,#4]
        0x10003922:    9804        ..      LDR      r0,[sp,#0x10]
        0x10003924:    9b1a        ..      LDR      r3,[sp,#0x68]
        0x10003926:    1a47        G.      SUBS     r7,r0,r1
        0x10003928:    4621        !F      MOV      r1,r4
        0x1000392a:    4638        8F      MOV      r0,r7
        0x1000392c:    9a19        ..      LDR      r2,[sp,#0x64]
        0x1000392e:    f000fa97    ....    BL       _printf_pre_padding ; 0x10003e60
        0x10003932:    9901        ..      LDR      r1,[sp,#4]
        0x10003934:    1940        @.      ADDS     r0,r0,r5
        0x10003936:    1845        E.      ADDS     r5,r0,r1
        0x10003938:    e00b        ..      B        0x10003952 ; _printf_core + 510
        0x1000393a:    e04f        O.      B        0x100039dc ; _printf_core + 648
        0x1000393c:    e12c        ,.      B        0x10003b98 ; _printf_core + 1092
        0x1000393e:    e013        ..      B        0x10003968 ; _printf_core + 532
        0x10003940:    e04e        N.      B        0x100039e0 ; _printf_core + 652
        0x10003942:    9800        ..      LDR      r0,[sp,#0]
        0x10003944:    9900        ..      LDR      r1,[sp,#0]
        0x10003946:    7800        .x      LDRB     r0,[r0,#0]
        0x10003948:    1c49        I.      ADDS     r1,r1,#1
        0x1000394a:    9100        ..      STR      r1,[sp,#0]
        0x1000394c:    9a1a        ..      LDR      r2,[sp,#0x68]
        0x1000394e:    9919        ..      LDR      r1,[sp,#0x64]
        0x10003950:    4790        .G      BLX      r2
        0x10003952:    9801        ..      LDR      r0,[sp,#4]
        0x10003954:    1e40        @.      SUBS     r0,r0,#1
        0x10003956:    9001        ..      STR      r0,[sp,#4]
        0x10003958:    1c40        @.      ADDS     r0,r0,#1
        0x1000395a:    d1f2        ..      BNE      0x10003942 ; _printf_core + 494
        0x1000395c:    4621        !F      MOV      r1,r4
        0x1000395e:    4638        8F      MOV      r0,r7
        0x10003960:    9b1a        ..      LDR      r3,[sp,#0x68]
        0x10003962:    9a19        ..      LDR      r2,[sp,#0x64]
        0x10003964:    e110        ..      B        0x10003b88 ; _printf_core + 1076
        0x10003966:    e037        7.      B        0x100039d8 ; _printf_core + 644
        0x10003968:    200a        .       MOVS     r0,#0xa
        0x1000396a:    2100        .!      MOVS     r1,#0
        0x1000396c:    9000        ..      STR      r0,[sp,#0]
        0x1000396e:    9101        ..      STR      r1,[sp,#4]
        0x10003970:    0260        `.      LSLS     r0,r4,#9
        0x10003972:    0f41        A.      LSRS     r1,r0,#29
        0x10003974:    2902        .)      CMP      r1,#2
        0x10003976:    d007        ..      BEQ      0x10003988 ; _printf_core + 564
        0x10003978:    9a18        ..      LDR      r2,[sp,#0x60]
        0x1000397a:    ca01        ..      LDM      r2!,{r0}
        0x1000397c:    9218        ..      STR      r2,[sp,#0x60]
        0x1000397e:    17c2        ..      ASRS     r2,r0,#31
        0x10003980:    4694        .F      MOV      r12,r2
        0x10003982:    2903        .)      CMP      r1,#3
        0x10003984:    d008        ..      BEQ      0x10003998 ; _printf_core + 580
        0x10003986:    e00a        ..      B        0x1000399e ; _printf_core + 586
        0x10003988:    9818        ..      LDR      r0,[sp,#0x60]
        0x1000398a:    1dc0        ..      ADDS     r0,r0,#7
        0x1000398c:    08c1        ..      LSRS     r1,r0,#3
        0x1000398e:    00c9        ..      LSLS     r1,r1,#3
        0x10003990:    c905        ..      LDM      r1!,{r0,r2}
        0x10003992:    9118        ..      STR      r1,[sp,#0x60]
        0x10003994:    4694        .F      MOV      r12,r2
        0x10003996:    e007        ..      B        0x100039a8 ; _printf_core + 596
        0x10003998:    b200        ..      SXTH     r0,r0
        0x1000399a:    17c2        ..      ASRS     r2,r0,#31
        0x1000399c:    4694        .F      MOV      r12,r2
        0x1000399e:    2904        .)      CMP      r1,#4
        0x100039a0:    d102        ..      BNE      0x100039a8 ; _printf_core + 596
        0x100039a2:    b240        @.      SXTB     r0,r0
        0x100039a4:    17c1        ..      ASRS     r1,r0,#31
        0x100039a6:    468c        .F      MOV      r12,r1
        0x100039a8:    2200        ."      MOVS     r2,#0
        0x100039aa:    4661        aF      MOV      r1,r12
        0x100039ac:    4594        .E      CMP      r12,r2
        0x100039ae:    da06        ..      BGE      0x100039be ; _printf_core + 618
        0x100039b0:    460a        .F      MOV      r2,r1
        0x100039b2:    2100        .!      MOVS     r1,#0
        0x100039b4:    4240        @B      RSBS     r0,r0,#0
        0x100039b6:    4191        .A      SBCS     r1,r1,r2
        0x100039b8:    468c        .F      MOV      r12,r1
        0x100039ba:    212d        -!      MOVS     r1,#0x2d
        0x100039bc:    e002        ..      B        0x100039c4 ; _printf_core + 624
        0x100039be:    0521        !.      LSLS     r1,r4,#20
        0x100039c0:    d504        ..      BPL      0x100039cc ; _printf_core + 632
        0x100039c2:    212b        +!      MOVS     r1,#0x2b
        0x100039c4:    466a        jF      MOV      r2,sp
        0x100039c6:    7311        .s      STRB     r1,[r2,#0xc]
        0x100039c8:    2101        .!      MOVS     r1,#1
        0x100039ca:    e003        ..      B        0x100039d4 ; _printf_core + 640
        0x100039cc:    07e1        ..      LSLS     r1,r4,#31
        0x100039ce:    d001        ..      BEQ      0x100039d4 ; _printf_core + 640
        0x100039d0:    2120         !      MOVS     r1,#0x20
        0x100039d2:    e7f7        ..      B        0x100039c4 ; _printf_core + 624
        0x100039d4:    9102        ..      STR      r1,[sp,#8]
        0x100039d6:    e055        U.      B        0x10003a84 ; _printf_core + 816
        0x100039d8:    200a        .       MOVS     r0,#0xa
        0x100039da:    e00a        ..      B        0x100039f2 ; _printf_core + 670
        0x100039dc:    2010        .       MOVS     r0,#0x10
        0x100039de:    e008        ..      B        0x100039f2 ; _printf_core + 670
        0x100039e0:    2010        .       MOVS     r0,#0x10
        0x100039e2:    9000        ..      STR      r0,[sp,#0]
        0x100039e4:    2100        .!      MOVS     r1,#0
        0x100039e6:    2004        .       MOVS     r0,#4
        0x100039e8:    4304        .C      ORRS     r4,r4,r0
        0x100039ea:    9101        ..      STR      r1,[sp,#4]
        0x100039ec:    2708        .'      MOVS     r7,#8
        0x100039ee:    e003        ..      B        0x100039f8 ; _printf_core + 676
        0x100039f0:    2008        .       MOVS     r0,#8
        0x100039f2:    2100        .!      MOVS     r1,#0
        0x100039f4:    9101        ..      STR      r1,[sp,#4]
        0x100039f6:    9000        ..      STR      r0,[sp,#0]
        0x100039f8:    0260        `.      LSLS     r0,r4,#9
        0x100039fa:    0f41        A.      LSRS     r1,r0,#29
        0x100039fc:    2902        .)      CMP      r1,#2
        0x100039fe:    d007        ..      BEQ      0x10003a10 ; _printf_core + 700
        0x10003a00:    9a18        ..      LDR      r2,[sp,#0x60]
        0x10003a02:    ca01        ..      LDM      r2!,{r0}
        0x10003a04:    9218        ..      STR      r2,[sp,#0x60]
        0x10003a06:    2200        ."      MOVS     r2,#0
        0x10003a08:    4694        .F      MOV      r12,r2
        0x10003a0a:    2903        .)      CMP      r1,#3
        0x10003a0c:    d008        ..      BEQ      0x10003a20 ; _printf_core + 716
        0x10003a0e:    e008        ..      B        0x10003a22 ; _printf_core + 718
        0x10003a10:    9818        ..      LDR      r0,[sp,#0x60]
        0x10003a12:    1dc0        ..      ADDS     r0,r0,#7
        0x10003a14:    08c1        ..      LSRS     r1,r0,#3
        0x10003a16:    00c9        ..      LSLS     r1,r1,#3
        0x10003a18:    c905        ..      LDM      r1!,{r0,r2}
        0x10003a1a:    9118        ..      STR      r1,[sp,#0x60]
        0x10003a1c:    4694        .F      MOV      r12,r2
        0x10003a1e:    e003        ..      B        0x10003a28 ; _printf_core + 724
        0x10003a20:    b280        ..      UXTH     r0,r0
        0x10003a22:    2904        .)      CMP      r1,#4
        0x10003a24:    d100        ..      BNE      0x10003a28 ; _printf_core + 724
        0x10003a26:    b2c0        ..      UXTB     r0,r0
        0x10003a28:    2100        .!      MOVS     r1,#0
        0x10003a2a:    9102        ..      STR      r1,[sp,#8]
        0x10003a2c:    0721        !.      LSLS     r1,r4,#28
        0x10003a2e:    d529        ).      BPL      0x10003a84 ; _printf_core + 816
        0x10003a30:    9911        ..      LDR      r1,[sp,#0x44]
        0x10003a32:    2970        p)      CMP      r1,#0x70
        0x10003a34:    d006        ..      BEQ      0x10003a44 ; _printf_core + 752
        0x10003a36:    9a00        ..      LDR      r2,[sp,#0]
        0x10003a38:    2110        .!      MOVS     r1,#0x10
        0x10003a3a:    9b01        ..      LDR      r3,[sp,#4]
        0x10003a3c:    404a        J@      EORS     r2,r2,r1
        0x10003a3e:    431a        .C      ORRS     r2,r2,r3
        0x10003a40:    d005        ..      BEQ      0x10003a4e ; _printf_core + 762
        0x10003a42:    e00e        ..      B        0x10003a62 ; _printf_core + 782
        0x10003a44:    2140        @!      MOVS     r1,#0x40
        0x10003a46:    466a        jF      MOV      r2,sp
        0x10003a48:    7311        .s      STRB     r1,[r2,#0xc]
        0x10003a4a:    2101        .!      MOVS     r1,#1
        0x10003a4c:    e008        ..      B        0x10003a60 ; _printf_core + 780
        0x10003a4e:    4661        aF      MOV      r1,r12
        0x10003a50:    4301        .C      ORRS     r1,r1,r0
        0x10003a52:    d006        ..      BEQ      0x10003a62 ; _printf_core + 782
        0x10003a54:    2130        0!      MOVS     r1,#0x30
        0x10003a56:    466a        jF      MOV      r2,sp
        0x10003a58:    7311        .s      STRB     r1,[r2,#0xc]
        0x10003a5a:    9911        ..      LDR      r1,[sp,#0x44]
        0x10003a5c:    7351        Qs      STRB     r1,[r2,#0xd]
        0x10003a5e:    2102        .!      MOVS     r1,#2
        0x10003a60:    9102        ..      STR      r1,[sp,#8]
        0x10003a62:    9a00        ..      LDR      r2,[sp,#0]
        0x10003a64:    2108        .!      MOVS     r1,#8
        0x10003a66:    9b01        ..      LDR      r3,[sp,#4]
        0x10003a68:    404a        J@      EORS     r2,r2,r1
        0x10003a6a:    431a        .C      ORRS     r2,r2,r3
        0x10003a6c:    d10a        ..      BNE      0x10003a84 ; _printf_core + 816
        0x10003a6e:    4661        aF      MOV      r1,r12
        0x10003a70:    4301        .C      ORRS     r1,r1,r0
        0x10003a72:    d101        ..      BNE      0x10003a78 ; _printf_core + 804
        0x10003a74:    0761        a.      LSLS     r1,r4,#29
        0x10003a76:    d505        ..      BPL      0x10003a84 ; _printf_core + 816
        0x10003a78:    2130        0!      MOVS     r1,#0x30
        0x10003a7a:    466a        jF      MOV      r2,sp
        0x10003a7c:    7311        .s      STRB     r1,[r2,#0xc]
        0x10003a7e:    2101        .!      MOVS     r1,#1
        0x10003a80:    1e7f        ..      SUBS     r7,r7,#1
        0x10003a82:    9102        ..      STR      r1,[sp,#8]
        0x10003a84:    9911        ..      LDR      r1,[sp,#0x44]
        0x10003a86:    2958        X)      CMP      r1,#0x58
        0x10003a88:    d004        ..      BEQ      0x10003a94 ; _printf_core + 832
        0x10003a8a:    a135        5.      ADR      r1,{pc}+0xd6 ; 0x10003b60
        0x10003a8c:    910e        ..      STR      r1,[sp,#0x38]
        0x10003a8e:    a90d        ..      ADD      r1,sp,#0x34
        0x10003a90:    910d        ..      STR      r1,[sp,#0x34]
        0x10003a92:    e00d        ..      B        0x10003ab0 ; _printf_core + 860
        0x10003a94:    a137        7.      ADR      r1,{pc}+0xe0 ; 0x10003b74
        0x10003a96:    e7f9        ..      B        0x10003a8c ; _printf_core + 824
        0x10003a98:    4661        aF      MOV      r1,r12
        0x10003a9a:    9b01        ..      LDR      r3,[sp,#4]
        0x10003a9c:    9a00        ..      LDR      r2,[sp,#0]
        0x10003a9e:    f7fffc0f    ....    BL       __aeabi_uldivmod ; 0x100032c0
        0x10003aa2:    9b0e        ..      LDR      r3,[sp,#0x38]
        0x10003aa4:    468c        .F      MOV      r12,r1
        0x10003aa6:    5c9b        .\      LDRB     r3,[r3,r2]
        0x10003aa8:    9a0d        ..      LDR      r2,[sp,#0x34]
        0x10003aaa:    1e52        R.      SUBS     r2,r2,#1
        0x10003aac:    920d        ..      STR      r2,[sp,#0x34]
        0x10003aae:    7013        .p      STRB     r3,[r2,#0]
        0x10003ab0:    4661        aF      MOV      r1,r12
        0x10003ab2:    4301        .C      ORRS     r1,r1,r0
        0x10003ab4:    d1f0        ..      BNE      0x10003a98 ; _printf_core + 836
        0x10003ab6:    980d        ..      LDR      r0,[sp,#0x34]
        0x10003ab8:    a905        ..      ADD      r1,sp,#0x14
        0x10003aba:    1a08        ..      SUBS     r0,r1,r0
        0x10003abc:    3020         0      ADDS     r0,r0,#0x20
        0x10003abe:    9001        ..      STR      r0,[sp,#4]
        0x10003ac0:    0760        `.      LSLS     r0,r4,#29
        0x10003ac2:    d503        ..      BPL      0x10003acc ; _printf_core + 888
        0x10003ac4:    2001        .       MOVS     r0,#1
        0x10003ac6:    0400        ..      LSLS     r0,r0,#16
        0x10003ac8:    4384        .C      BICS     r4,r4,r0
        0x10003aca:    e000        ..      B        0x10003ace ; _printf_core + 890
        0x10003acc:    2701        .'      MOVS     r7,#1
        0x10003ace:    9801        ..      LDR      r0,[sp,#4]
        0x10003ad0:    4287        .B      CMP      r7,r0
        0x10003ad2:    dd01        ..      BLE      0x10003ad8 ; _printf_core + 900
        0x10003ad4:    1a38        8.      SUBS     r0,r7,r0
        0x10003ad6:    e000        ..      B        0x10003ada ; _printf_core + 902
        0x10003ad8:    2000        .       MOVS     r0,#0
        0x10003ada:    9901        ..      LDR      r1,[sp,#4]
        0x10003adc:    9000        ..      STR      r0,[sp,#0]
        0x10003ade:    1841        A.      ADDS     r1,r0,r1
        0x10003ae0:    9802        ..      LDR      r0,[sp,#8]
        0x10003ae2:    1809        ..      ADDS     r1,r1,r0
        0x10003ae4:    9804        ..      LDR      r0,[sp,#0x10]
        0x10003ae6:    1a40        @.      SUBS     r0,r0,r1
        0x10003ae8:    9004        ..      STR      r0,[sp,#0x10]
        0x10003aea:    03e0        ..      LSLS     r0,r4,#15
        0x10003aec:    d406        ..      BMI      0x10003afc ; _printf_core + 936
        0x10003aee:    4621        !F      MOV      r1,r4
        0x10003af0:    9b1a        ..      LDR      r3,[sp,#0x68]
        0x10003af2:    9a19        ..      LDR      r2,[sp,#0x64]
        0x10003af4:    9804        ..      LDR      r0,[sp,#0x10]
        0x10003af6:    f000f9b3    ....    BL       _printf_pre_padding ; 0x10003e60
        0x10003afa:    1945        E.      ADDS     r5,r0,r5
        0x10003afc:    2700        .'      MOVS     r7,#0
        0x10003afe:    e006        ..      B        0x10003b0e ; _printf_core + 954
        0x10003b00:    a803        ..      ADD      r0,sp,#0xc
        0x10003b02:    9a1a        ..      LDR      r2,[sp,#0x68]
        0x10003b04:    5dc0        .]      LDRB     r0,[r0,r7]
        0x10003b06:    9919        ..      LDR      r1,[sp,#0x64]
        0x10003b08:    4790        .G      BLX      r2
        0x10003b0a:    1c6d        m.      ADDS     r5,r5,#1
        0x10003b0c:    1c7f        ..      ADDS     r7,r7,#1
        0x10003b0e:    9802        ..      LDR      r0,[sp,#8]
        0x10003b10:    4287        .B      CMP      r7,r0
        0x10003b12:    dbf5        ..      BLT      0x10003b00 ; _printf_core + 940
        0x10003b14:    03e0        ..      LSLS     r0,r4,#15
        0x10003b16:    d50c        ..      BPL      0x10003b32 ; _printf_core + 990
        0x10003b18:    4621        !F      MOV      r1,r4
        0x10003b1a:    9b1a        ..      LDR      r3,[sp,#0x68]
        0x10003b1c:    9a19        ..      LDR      r2,[sp,#0x64]
        0x10003b1e:    9804        ..      LDR      r0,[sp,#0x10]
        0x10003b20:    f000f99e    ....    BL       _printf_pre_padding ; 0x10003e60
        0x10003b24:    1945        E.      ADDS     r5,r0,r5
        0x10003b26:    e004        ..      B        0x10003b32 ; _printf_core + 990
        0x10003b28:    9a1a        ..      LDR      r2,[sp,#0x68]
        0x10003b2a:    2030        0       MOVS     r0,#0x30
        0x10003b2c:    9919        ..      LDR      r1,[sp,#0x64]
        0x10003b2e:    4790        .G      BLX      r2
        0x10003b30:    1c6d        m.      ADDS     r5,r5,#1
        0x10003b32:    9900        ..      LDR      r1,[sp,#0]
        0x10003b34:    1e48        H.      SUBS     r0,r1,#1
        0x10003b36:    9000        ..      STR      r0,[sp,#0]
        0x10003b38:    2900        .)      CMP      r1,#0
        0x10003b3a:    dcf5        ..      BGT      0x10003b28 ; _printf_core + 980
        0x10003b3c:    e008        ..      B        0x10003b50 ; _printf_core + 1020
        0x10003b3e:    980d        ..      LDR      r0,[sp,#0x34]
        0x10003b40:    990d        ..      LDR      r1,[sp,#0x34]
        0x10003b42:    7800        .x      LDRB     r0,[r0,#0]
        0x10003b44:    1c49        I.      ADDS     r1,r1,#1
        0x10003b46:    910d        ..      STR      r1,[sp,#0x34]
        0x10003b48:    9a1a        ..      LDR      r2,[sp,#0x68]
        0x10003b4a:    9919        ..      LDR      r1,[sp,#0x64]
        0x10003b4c:    4790        .G      BLX      r2
        0x10003b4e:    1c6d        m.      ADDS     r5,r5,#1
        0x10003b50:    9901        ..      LDR      r1,[sp,#4]
        0x10003b52:    1e48        H.      SUBS     r0,r1,#1
        0x10003b54:    9001        ..      STR      r0,[sp,#4]
        0x10003b56:    2900        .)      CMP      r1,#0
        0x10003b58:    dcf1        ..      BGT      0x10003b3e ; _printf_core + 1002
        0x10003b5a:    e163        c.      B        0x10003e24 ; _printf_core + 1744
    $d
        0x10003b5c:    00012809    .(..    DCD    75785
        0x10003b60:    33323130    0123    DCD    858927408
        0x10003b64:    37363534    4567    DCD    926299444
        0x10003b68:    62613938    89ab    DCD    1650538808
        0x10003b6c:    66656463    cdef    DCD    1717920867
        0x10003b70:    00000000    ....    DCD    0
        0x10003b74:    33323130    0123    DCD    858927408
        0x10003b78:    37363534    4567    DCD    926299444
        0x10003b7c:    42413938    89AB    DCD    1111570744
        0x10003b80:    46454443    CDEF    DCD    1178944579
        0x10003b84:    00000000    ....    DCD    0
    $t
        0x10003b88:    f000f95a    ..Z.    BL       _printf_post_padding ; 0x10003e40
        0x10003b8c:    1945        E.      ADDS     r5,r0,r5
        0x10003b8e:    1c76        v.      ADDS     r6,r6,#1
        0x10003b90:    7830        0x      LDRB     r0,[r6,#0]
        0x10003b92:    2800        .(      CMP      r0,#0
        0x10003b94:    d000        ..      BEQ      0x10003b98 ; _printf_core + 1092
        0x10003b96:    e5e2        ..      B        0x1000375e ; _printf_core + 10
        0x10003b98:    4628        (F      MOV      r0,r5
        0x10003b9a:    b01b        ..      ADD      sp,sp,#0x6c
        0x10003b9c:    bdf0        ..      POP      {r4-r7,pc}
        0x10003b9e:    0760        `.      LSLS     r0,r4,#29
        0x10003ba0:    d400        ..      BMI      0x10003ba4 ; _printf_core + 1104
        0x10003ba2:    2706        .'      MOVS     r7,#6
        0x10003ba4:    9818        ..      LDR      r0,[sp,#0x60]
        0x10003ba6:    1dc0        ..      ADDS     r0,r0,#7
        0x10003ba8:    08c1        ..      LSRS     r1,r0,#3
        0x10003baa:    00c9        ..      LSLS     r1,r1,#3
        0x10003bac:    6848        Hh      LDR      r0,[r1,#4]
        0x10003bae:    680a        .h      LDR      r2,[r1,#0]
        0x10003bb0:    3108        .1      ADDS     r1,r1,#8
        0x10003bb2:    0fc3        ..      LSRS     r3,r0,#31
        0x10003bb4:    07db        ..      LSLS     r3,r3,#31
        0x10003bb6:    9118        ..      STR      r1,[sp,#0x60]
        0x10003bb8:    0019        ..      MOVS     r1,r3
        0x10003bba:    d001        ..      BEQ      0x10003bc0 ; _printf_core + 1132
        0x10003bbc:    a19c        ..      ADR      r1,{pc}+0x274 ; 0x10003e30
        0x10003bbe:    e008        ..      B        0x10003bd2 ; _printf_core + 1150
        0x10003bc0:    0521        !.      LSLS     r1,r4,#20
        0x10003bc2:    d501        ..      BPL      0x10003bc8 ; _printf_core + 1140
        0x10003bc4:    a19b        ..      ADR      r1,{pc}+0x270 ; 0x10003e34
        0x10003bc6:    e004        ..      B        0x10003bd2 ; _printf_core + 1150
        0x10003bc8:    07e1        ..      LSLS     r1,r4,#31
        0x10003bca:    d001        ..      BEQ      0x10003bd0 ; _printf_core + 1148
        0x10003bcc:    a19a        ..      ADR      r1,{pc}+0x26c ; 0x10003e38
        0x10003bce:    e000        ..      B        0x10003bd2 ; _printf_core + 1150
        0x10003bd0:    a19a        ..      ADR      r1,{pc}+0x26c ; 0x10003e3c
        0x10003bd2:    0043        C.      LSLS     r3,r0,#1
        0x10003bd4:    9811        ..      LDR      r0,[sp,#0x44]
        0x10003bd6:    085b        [.      LSRS     r3,r3,#1
        0x10003bd8:    9110        ..      STR      r1,[sp,#0x40]
        0x10003bda:    2865        e(      CMP      r0,#0x65
        0x10003bdc:    d00c        ..      BEQ      0x10003bf8 ; _printf_core + 1188
        0x10003bde:    dc06        ..      BGT      0x10003bee ; _printf_core + 1178
        0x10003be0:    2845        E(      CMP      r0,#0x45
        0x10003be2:    d009        ..      BEQ      0x10003bf8 ; _printf_core + 1188
        0x10003be4:    2846        F(      CMP      r0,#0x46
        0x10003be6:    d01d        ..      BEQ      0x10003c24 ; _printf_core + 1232
        0x10003be8:    2847        G(      CMP      r0,#0x47
        0x10003bea:    d141        A.      BNE      0x10003c70 ; _printf_core + 1308
        0x10003bec:    e041        A.      B        0x10003c72 ; _printf_core + 1310
        0x10003bee:    2866        f(      CMP      r0,#0x66
        0x10003bf0:    d018        ..      BEQ      0x10003c24 ; _printf_core + 1232
        0x10003bf2:    2867        g(      CMP      r0,#0x67
        0x10003bf4:    d13c        <.      BNE      0x10003c70 ; _printf_core + 1308
        0x10003bf6:    e03c        <.      B        0x10003c72 ; _printf_core + 1310
        0x10003bf8:    2100        .!      MOVS     r1,#0
        0x10003bfa:    2f11        ./      CMP      r7,#0x11
        0x10003bfc:    db01        ..      BLT      0x10003c02 ; _printf_core + 1198
        0x10003bfe:    2011        .       MOVS     r0,#0x11
        0x10003c00:    e000        ..      B        0x10003c04 ; _printf_core + 1200
        0x10003c02:    1c78        x.      ADDS     r0,r7,#1
        0x10003c04:    9101        ..      STR      r1,[sp,#4]
        0x10003c06:    9000        ..      STR      r0,[sp,#0]
        0x10003c08:    a908        ..      ADD      r1,sp,#0x20
        0x10003c0a:    a811        ..      ADD      r0,sp,#0x44
        0x10003c0c:    f7fffce8    ....    BL       _fp_digits ; 0x100035e0
        0x10003c10:    9913        ..      LDR      r1,[sp,#0x4c]
        0x10003c12:    9105        ..      STR      r1,[sp,#0x14]
        0x10003c14:    2100        .!      MOVS     r1,#0
        0x10003c16:    9a11        ..      LDR      r2,[sp,#0x44]
        0x10003c18:    9215        ..      STR      r2,[sp,#0x54]
        0x10003c1a:    1c7f        ..      ADDS     r7,r7,#1
        0x10003c1c:    9812        ..      LDR      r0,[sp,#0x48]
        0x10003c1e:    9701        ..      STR      r7,[sp,#4]
        0x10003c20:    9100        ..      STR      r1,[sp,#0]
        0x10003c22:    e050        P.      B        0x10003cc6 ; _printf_core + 1394
        0x10003c24:    2001        .       MOVS     r0,#1
        0x10003c26:    07c0        ..      LSLS     r0,r0,#31
        0x10003c28:    9003        ..      STR      r0,[sp,#0xc]
        0x10003c2a:    2001        .       MOVS     r0,#1
        0x10003c2c:    9001        ..      STR      r0,[sp,#4]
        0x10003c2e:    a908        ..      ADD      r1,sp,#0x20
        0x10003c30:    9700        ..      STR      r7,[sp,#0]
        0x10003c32:    a811        ..      ADD      r0,sp,#0x44
        0x10003c34:    f7fffcd4    ....    BL       _fp_digits ; 0x100035e0
        0x10003c38:    9a13        ..      LDR      r2,[sp,#0x4c]
        0x10003c3a:    9914        ..      LDR      r1,[sp,#0x50]
        0x10003c3c:    9205        ..      STR      r2,[sp,#0x14]
        0x10003c3e:    2200        ."      MOVS     r2,#0
        0x10003c40:    9b11        ..      LDR      r3,[sp,#0x44]
        0x10003c42:    9200        ..      STR      r2,[sp,#0]
        0x10003c44:    9812        ..      LDR      r0,[sp,#0x48]
        0x10003c46:    9315        ..      STR      r3,[sp,#0x54]
        0x10003c48:    9a05        ..      LDR      r2,[sp,#0x14]
        0x10003c4a:    9201        ..      STR      r2,[sp,#4]
        0x10003c4c:    2900        .)      CMP      r1,#0
        0x10003c4e:    d001        ..      BEQ      0x10003c54 ; _printf_core + 1280
        0x10003c50:    4610        .F      MOV      r0,r2
        0x10003c52:    e002        ..      B        0x10003c5a ; _printf_core + 1286
        0x10003c54:    1c79        y.      ADDS     r1,r7,#1
        0x10003c56:    1840        @.      ADDS     r0,r0,r1
        0x10003c58:    9001        ..      STR      r0,[sp,#4]
        0x10003c5a:    1a38        8.      SUBS     r0,r7,r0
        0x10003c5c:    d501        ..      BPL      0x10003c62 ; _printf_core + 1294
        0x10003c5e:    9801        ..      LDR      r0,[sp,#4]
        0x10003c60:    e004        ..      B        0x10003c6c ; _printf_core + 1304
        0x10003c62:    4240        @B      RSBS     r0,r0,#0
        0x10003c64:    1e40        @.      SUBS     r0,r0,#1
        0x10003c66:    9000        ..      STR      r0,[sp,#0]
        0x10003c68:    1c78        x.      ADDS     r0,r7,#1
        0x10003c6a:    9001        ..      STR      r0,[sp,#4]
        0x10003c6c:    1bc0        ..      SUBS     r0,r0,r7
        0x10003c6e:    9002        ..      STR      r0,[sp,#8]
        0x10003c70:    e043        C.      B        0x10003cfa ; _printf_core + 1446
        0x10003c72:    2f01        ./      CMP      r7,#1
        0x10003c74:    da00        ..      BGE      0x10003c78 ; _printf_core + 1316
        0x10003c76:    2701        .'      MOVS     r7,#1
        0x10003c78:    2100        .!      MOVS     r1,#0
        0x10003c7a:    2f11        ./      CMP      r7,#0x11
        0x10003c7c:    dd01        ..      BLE      0x10003c82 ; _printf_core + 1326
        0x10003c7e:    2011        .       MOVS     r0,#0x11
        0x10003c80:    e000        ..      B        0x10003c84 ; _printf_core + 1328
        0x10003c82:    4638        8F      MOV      r0,r7
        0x10003c84:    9101        ..      STR      r1,[sp,#4]
        0x10003c86:    9000        ..      STR      r0,[sp,#0]
        0x10003c88:    a908        ..      ADD      r1,sp,#0x20
        0x10003c8a:    a811        ..      ADD      r0,sp,#0x44
        0x10003c8c:    f7fffca8    ....    BL       _fp_digits ; 0x100035e0
        0x10003c90:    9913        ..      LDR      r1,[sp,#0x4c]
        0x10003c92:    9105        ..      STR      r1,[sp,#0x14]
        0x10003c94:    9a11        ..      LDR      r2,[sp,#0x44]
        0x10003c96:    2100        .!      MOVS     r1,#0
        0x10003c98:    9812        ..      LDR      r0,[sp,#0x48]
        0x10003c9a:    9215        ..      STR      r2,[sp,#0x54]
        0x10003c9c:    9100        ..      STR      r1,[sp,#0]
        0x10003c9e:    9701        ..      STR      r7,[sp,#4]
        0x10003ca0:    0721        !.      LSLS     r1,r4,#28
        0x10003ca2:    d40c        ..      BMI      0x10003cbe ; _printf_core + 1386
        0x10003ca4:    9905        ..      LDR      r1,[sp,#0x14]
        0x10003ca6:    42b9        .B      CMP      r1,r7
        0x10003ca8:    db01        ..      BLT      0x10003cae ; _printf_core + 1370
        0x10003caa:    9901        ..      LDR      r1,[sp,#4]
        0x10003cac:    e000        ..      B        0x10003cb0 ; _printf_core + 1372
        0x10003cae:    9101        ..      STR      r1,[sp,#4]
        0x10003cb0:    2901        .)      CMP      r1,#1
        0x10003cb2:    dd04        ..      BLE      0x10003cbe ; _printf_core + 1386
        0x10003cb4:    9a15        ..      LDR      r2,[sp,#0x54]
        0x10003cb6:    1e49        I.      SUBS     r1,r1,#1
        0x10003cb8:    5c51        Q\      LDRB     r1,[r2,r1]
        0x10003cba:    2930        0)      CMP      r1,#0x30
        0x10003cbc:    d006        ..      BEQ      0x10003ccc ; _printf_core + 1400
        0x10003cbe:    42b8        .B      CMP      r0,r7
        0x10003cc0:    da01        ..      BGE      0x10003cc6 ; _printf_core + 1394
        0x10003cc2:    1d01        ..      ADDS     r1,r0,#4
        0x10003cc4:    da05        ..      BGE      0x10003cd2 ; _printf_core + 1406
        0x10003cc6:    2101        .!      MOVS     r1,#1
        0x10003cc8:    9102        ..      STR      r1,[sp,#8]
        0x10003cca:    e015        ..      B        0x10003cf8 ; _printf_core + 1444
        0x10003ccc:    9901        ..      LDR      r1,[sp,#4]
        0x10003cce:    1e49        I.      SUBS     r1,r1,#1
        0x10003cd0:    e7ed        ..      B        0x10003cae ; _printf_core + 1370
        0x10003cd2:    2800        .(      CMP      r0,#0
        0x10003cd4:    dc05        ..      BGT      0x10003ce2 ; _printf_core + 1422
        0x10003cd6:    9900        ..      LDR      r1,[sp,#0]
        0x10003cd8:    1841        A.      ADDS     r1,r0,r1
        0x10003cda:    9100        ..      STR      r1,[sp,#0]
        0x10003cdc:    9901        ..      LDR      r1,[sp,#4]
        0x10003cde:    1a09        ..      SUBS     r1,r1,r0
        0x10003ce0:    e003        ..      B        0x10003cea ; _printf_core + 1430
        0x10003ce2:    9a01        ..      LDR      r2,[sp,#4]
        0x10003ce4:    1c41        A.      ADDS     r1,r0,#1
        0x10003ce6:    4291        .B      CMP      r1,r2
        0x10003ce8:    dd00        ..      BLE      0x10003cec ; _printf_core + 1432
        0x10003cea:    9101        ..      STR      r1,[sp,#4]
        0x10003cec:    9900        ..      LDR      r1,[sp,#0]
        0x10003cee:    1a40        @.      SUBS     r0,r0,r1
        0x10003cf0:    1c40        @.      ADDS     r0,r0,#1
        0x10003cf2:    9002        ..      STR      r0,[sp,#8]
        0x10003cf4:    2001        .       MOVS     r0,#1
        0x10003cf6:    07c0        ..      LSLS     r0,r0,#31
        0x10003cf8:    9003        ..      STR      r0,[sp,#0xc]
        0x10003cfa:    0720         .      LSLS     r0,r4,#28
        0x10003cfc:    d406        ..      BMI      0x10003d0c ; _printf_core + 1464
        0x10003cfe:    9902        ..      LDR      r1,[sp,#8]
        0x10003d00:    9801        ..      LDR      r0,[sp,#4]
        0x10003d02:    4281        .B      CMP      r1,r0
        0x10003d04:    db02        ..      BLT      0x10003d0c ; _printf_core + 1464
        0x10003d06:    2000        .       MOVS     r0,#0
        0x10003d08:    43c0        .C      MVNS     r0,r0
        0x10003d0a:    9002        ..      STR      r0,[sp,#8]
        0x10003d0c:    2000        .       MOVS     r0,#0
        0x10003d0e:    4669        iF      MOV      r1,sp
        0x10003d10:    77c8        .w      STRB     r0,[r1,#0x1f]
        0x10003d12:    af07        ..      ADD      r7,sp,#0x1c
        0x10003d14:    2101        .!      MOVS     r1,#1
        0x10003d16:    9803        ..      LDR      r0,[sp,#0xc]
        0x10003d18:    3703        .7      ADDS     r7,#3
        0x10003d1a:    07c9        ..      LSLS     r1,r1,#31
        0x10003d1c:    4288        .B      CMP      r0,r1
        0x10003d1e:    d024        $.      BEQ      0x10003d6a ; _printf_core + 1558
        0x10003d20:    2002        .       MOVS     r0,#2
        0x10003d22:    9011        ..      STR      r0,[sp,#0x44]
        0x10003d24:    202b        +       MOVS     r0,#0x2b
        0x10003d26:    9012        ..      STR      r0,[sp,#0x48]
        0x10003d28:    9803        ..      LDR      r0,[sp,#0xc]
        0x10003d2a:    2800        .(      CMP      r0,#0
        0x10003d2c:    da0c        ..      BGE      0x10003d48 ; _printf_core + 1524
        0x10003d2e:    4240        @B      RSBS     r0,r0,#0
        0x10003d30:    9003        ..      STR      r0,[sp,#0xc]
        0x10003d32:    202d        -       MOVS     r0,#0x2d
        0x10003d34:    9012        ..      STR      r0,[sp,#0x48]
        0x10003d36:    e007        ..      B        0x10003d48 ; _printf_core + 1524
        0x10003d38:    210a        .!      MOVS     r1,#0xa
        0x10003d3a:    9803        ..      LDR      r0,[sp,#0xc]
        0x10003d3c:    f7fff80a    ....    BL       __aeabi_uidiv ; 0x10002d54
        0x10003d40:    3130        01      ADDS     r1,r1,#0x30
        0x10003d42:    1e7f        ..      SUBS     r7,r7,#1
        0x10003d44:    9003        ..      STR      r0,[sp,#0xc]
        0x10003d46:    7039        9p      STRB     r1,[r7,#0]
        0x10003d48:    9911        ..      LDR      r1,[sp,#0x44]
        0x10003d4a:    1e48        H.      SUBS     r0,r1,#1
        0x10003d4c:    9011        ..      STR      r0,[sp,#0x44]
        0x10003d4e:    2900        .)      CMP      r1,#0
        0x10003d50:    dcf2        ..      BGT      0x10003d38 ; _printf_core + 1508
        0x10003d52:    9803        ..      LDR      r0,[sp,#0xc]
        0x10003d54:    2800        .(      CMP      r0,#0
        0x10003d56:    d1ef        ..      BNE      0x10003d38 ; _printf_core + 1508
        0x10003d58:    1e79        y.      SUBS     r1,r7,#1
        0x10003d5a:    9812        ..      LDR      r0,[sp,#0x48]
        0x10003d5c:    7008        .p      STRB     r0,[r1,#0]
        0x10003d5e:    7830        0x      LDRB     r0,[r6,#0]
        0x10003d60:    2120         !      MOVS     r1,#0x20
        0x10003d62:    4008        .@      ANDS     r0,r0,r1
        0x10003d64:    3045        E0      ADDS     r0,r0,#0x45
        0x10003d66:    1ebf        ..      SUBS     r7,r7,#2
        0x10003d68:    7038        8p      STRB     r0,[r7,#0]
        0x10003d6a:    a806        ..      ADD      r0,sp,#0x18
        0x10003d6c:    1bc0        ..      SUBS     r0,r0,r7
        0x10003d6e:    1dc0        ..      ADDS     r0,r0,#7
        0x10003d70:    9003        ..      STR      r0,[sp,#0xc]
        0x10003d72:    9810        ..      LDR      r0,[sp,#0x40]
        0x10003d74:    7800        .x      LDRB     r0,[r0,#0]
        0x10003d76:    2800        .(      CMP      r0,#0
        0x10003d78:    d000        ..      BEQ      0x10003d7c ; _printf_core + 1576
        0x10003d7a:    2001        .       MOVS     r0,#1
        0x10003d7c:    9901        ..      LDR      r1,[sp,#4]
        0x10003d7e:    1841        A.      ADDS     r1,r0,r1
        0x10003d80:    9802        ..      LDR      r0,[sp,#8]
        0x10003d82:    17c0        ..      ASRS     r0,r0,#31
        0x10003d84:    1809        ..      ADDS     r1,r1,r0
        0x10003d86:    9803        ..      LDR      r0,[sp,#0xc]
        0x10003d88:    1809        ..      ADDS     r1,r1,r0
        0x10003d8a:    9804        ..      LDR      r0,[sp,#0x10]
        0x10003d8c:    1a40        @.      SUBS     r0,r0,r1
        0x10003d8e:    1e40        @.      SUBS     r0,r0,#1
        0x10003d90:    9004        ..      STR      r0,[sp,#0x10]
        0x10003d92:    03e0        ..      LSLS     r0,r4,#15
        0x10003d94:    d406        ..      BMI      0x10003da4 ; _printf_core + 1616
        0x10003d96:    4621        !F      MOV      r1,r4
        0x10003d98:    9b1a        ..      LDR      r3,[sp,#0x68]
        0x10003d9a:    9a19        ..      LDR      r2,[sp,#0x64]
        0x10003d9c:    9804        ..      LDR      r0,[sp,#0x10]
        0x10003d9e:    f000f85f    .._.    BL       _printf_pre_padding ; 0x10003e60
        0x10003da2:    1945        E.      ADDS     r5,r0,r5
        0x10003da4:    9810        ..      LDR      r0,[sp,#0x40]
        0x10003da6:    7800        .x      LDRB     r0,[r0,#0]
        0x10003da8:    2800        .(      CMP      r0,#0
        0x10003daa:    d003        ..      BEQ      0x10003db4 ; _printf_core + 1632
        0x10003dac:    9a1a        ..      LDR      r2,[sp,#0x68]
        0x10003dae:    9919        ..      LDR      r1,[sp,#0x64]
        0x10003db0:    4790        .G      BLX      r2
        0x10003db2:    1c6d        m.      ADDS     r5,r5,#1
        0x10003db4:    03e0        ..      LSLS     r0,r4,#15
        0x10003db6:    d524        $.      BPL      0x10003e02 ; _printf_core + 1710
        0x10003db8:    4621        !F      MOV      r1,r4
        0x10003dba:    9b1a        ..      LDR      r3,[sp,#0x68]
        0x10003dbc:    9a19        ..      LDR      r2,[sp,#0x64]
        0x10003dbe:    9804        ..      LDR      r0,[sp,#0x10]
        0x10003dc0:    f000f84e    ..N.    BL       _printf_pre_padding ; 0x10003e60
        0x10003dc4:    1945        E.      ADDS     r5,r0,r5
        0x10003dc6:    e01c        ..      B        0x10003e02 ; _printf_core + 1710
        0x10003dc8:    9800        ..      LDR      r0,[sp,#0]
        0x10003dca:    2800        .(      CMP      r0,#0
        0x10003dcc:    db07        ..      BLT      0x10003dde ; _printf_core + 1674
        0x10003dce:    9900        ..      LDR      r1,[sp,#0]
        0x10003dd0:    9805        ..      LDR      r0,[sp,#0x14]
        0x10003dd2:    4288        .B      CMP      r0,r1
        0x10003dd4:    dd03        ..      BLE      0x10003dde ; _printf_core + 1674
        0x10003dd6:    9815        ..      LDR      r0,[sp,#0x54]
        0x10003dd8:    5c40        @\      LDRB     r0,[r0,r1]
        0x10003dda:    9919        ..      LDR      r1,[sp,#0x64]
        0x10003ddc:    e001        ..      B        0x10003de2 ; _printf_core + 1678
        0x10003dde:    9919        ..      LDR      r1,[sp,#0x64]
        0x10003de0:    2030        0       MOVS     r0,#0x30
        0x10003de2:    9a1a        ..      LDR      r2,[sp,#0x68]
        0x10003de4:    4790        .G      BLX      r2
        0x10003de6:    9800        ..      LDR      r0,[sp,#0]
        0x10003de8:    1c6d        m.      ADDS     r5,r5,#1
        0x10003dea:    1c40        @.      ADDS     r0,r0,#1
        0x10003dec:    9000        ..      STR      r0,[sp,#0]
        0x10003dee:    9802        ..      LDR      r0,[sp,#8]
        0x10003df0:    1e40        @.      SUBS     r0,r0,#1
        0x10003df2:    9002        ..      STR      r0,[sp,#8]
        0x10003df4:    2800        .(      CMP      r0,#0
        0x10003df6:    d104        ..      BNE      0x10003e02 ; _printf_core + 1710
        0x10003df8:    9a1a        ..      LDR      r2,[sp,#0x68]
        0x10003dfa:    202e        .       MOVS     r0,#0x2e
        0x10003dfc:    9919        ..      LDR      r1,[sp,#0x64]
        0x10003dfe:    4790        .G      BLX      r2
        0x10003e00:    1c6d        m.      ADDS     r5,r5,#1
        0x10003e02:    9901        ..      LDR      r1,[sp,#4]
        0x10003e04:    1e48        H.      SUBS     r0,r1,#1
        0x10003e06:    9001        ..      STR      r0,[sp,#4]
        0x10003e08:    2900        .)      CMP      r1,#0
        0x10003e0a:    dcdd        ..      BGT      0x10003dc8 ; _printf_core + 1652
        0x10003e0c:    e005        ..      B        0x10003e1a ; _printf_core + 1734
        0x10003e0e:    7838        8x      LDRB     r0,[r7,#0]
        0x10003e10:    9a1a        ..      LDR      r2,[sp,#0x68]
        0x10003e12:    1c7f        ..      ADDS     r7,r7,#1
        0x10003e14:    9919        ..      LDR      r1,[sp,#0x64]
        0x10003e16:    4790        .G      BLX      r2
        0x10003e18:    1c6d        m.      ADDS     r5,r5,#1
        0x10003e1a:    9903        ..      LDR      r1,[sp,#0xc]
        0x10003e1c:    1e48        H.      SUBS     r0,r1,#1
        0x10003e1e:    9003        ..      STR      r0,[sp,#0xc]
        0x10003e20:    2900        .)      CMP      r1,#0
        0x10003e22:    dcf4        ..      BGT      0x10003e0e ; _printf_core + 1722
        0x10003e24:    4621        !F      MOV      r1,r4
        0x10003e26:    9b1a        ..      LDR      r3,[sp,#0x68]
        0x10003e28:    9a19        ..      LDR      r2,[sp,#0x64]
        0x10003e2a:    9804        ..      LDR      r0,[sp,#0x10]
        0x10003e2c:    e6ac        ..      B        0x10003b88 ; _printf_core + 1076
    $d
        0x10003e2e:    0000        ..      DCW    0
        0x10003e30:    0000002d    -...    DCD    45
        0x10003e34:    0000002b    +...    DCD    43
        0x10003e38:    00000020     ...    DCD    32
        0x10003e3c:    00000000    ....    DCD    0
    $t
    i._printf_post_padding
    _printf_post_padding
        0x10003e40:    b5f8        ..      PUSH     {r3-r7,lr}
        0x10003e42:    4604        .F      MOV      r4,r0
        0x10003e44:    2500        .%      MOVS     r5,#0
        0x10003e46:    461e        .F      MOV      r6,r3
        0x10003e48:    4617        .F      MOV      r7,r2
        0x10003e4a:    0488        ..      LSLS     r0,r1,#18
        0x10003e4c:    d404        ..      BMI      0x10003e58 ; _printf_post_padding + 24
        0x10003e4e:    e005        ..      B        0x10003e5c ; _printf_post_padding + 28
        0x10003e50:    4639        9F      MOV      r1,r7
        0x10003e52:    2020                MOVS     r0,#0x20
        0x10003e54:    47b0        .G      BLX      r6
        0x10003e56:    1c6d        m.      ADDS     r5,r5,#1
        0x10003e58:    1e64        d.      SUBS     r4,r4,#1
        0x10003e5a:    d5f9        ..      BPL      0x10003e50 ; _printf_post_padding + 16
        0x10003e5c:    4628        (F      MOV      r0,r5
        0x10003e5e:    bdf8        ..      POP      {r3-r7,pc}
    i._printf_pre_padding
    _printf_pre_padding
        0x10003e60:    b5ff        ..      PUSH     {r0-r7,lr}
        0x10003e62:    4604        .F      MOV      r4,r0
        0x10003e64:    2500        .%      MOVS     r5,#0
        0x10003e66:    b081        ..      SUB      sp,sp,#4
        0x10003e68:    461e        .F      MOV      r6,r3
        0x10003e6a:    03c8        ..      LSLS     r0,r1,#15
        0x10003e6c:    d501        ..      BPL      0x10003e72 ; _printf_pre_padding + 18
        0x10003e6e:    2730        0'      MOVS     r7,#0x30
        0x10003e70:    e000        ..      B        0x10003e74 ; _printf_pre_padding + 20
        0x10003e72:    2720         '      MOVS     r7,#0x20
        0x10003e74:    0488        ..      LSLS     r0,r1,#18
        0x10003e76:    d504        ..      BPL      0x10003e82 ; _printf_pre_padding + 34
        0x10003e78:    e005        ..      B        0x10003e86 ; _printf_pre_padding + 38
        0x10003e7a:    4638        8F      MOV      r0,r7
        0x10003e7c:    9903        ..      LDR      r1,[sp,#0xc]
        0x10003e7e:    47b0        .G      BLX      r6
        0x10003e80:    1c6d        m.      ADDS     r5,r5,#1
        0x10003e82:    1e64        d.      SUBS     r4,r4,#1
        0x10003e84:    d5f9        ..      BPL      0x10003e7a ; _printf_pre_padding + 26
        0x10003e86:    4628        (F      MOV      r0,r5
        0x10003e88:    b005        ..      ADD      sp,sp,#0x14
        0x10003e8a:    bdf0        ..      POP      {r4-r7,pc}
    i._sputc
    _sputc
        0x10003e8c:    680a        .h      LDR      r2,[r1,#0]
        0x10003e8e:    1c53        S.      ADDS     r3,r2,#1
        0x10003e90:    600b        .`      STR      r3,[r1,#0]
        0x10003e92:    7010        .p      STRB     r0,[r2,#0]
        0x10003e94:    4770        pG      BX       lr
    $d.realdata
    .constdata
    _ll_packet_length
        0x10003e96:    080c        ..      DCW    2060
        0x10003e98:    010d1702    ....    DCD    17635074
        0x10003e9c:    09090201    ....    DCD    151585281
        0x10003ea0:    02060101    ....    DCD    33947905
        0x10003ea4:    0000        ..      DCW    0
    _smp_packet_lenght
        0x10003ea6:    0007        ..      DCW    7
        0x10003ea8:    00110007    ....    DCD    1114119
        0x10003eac:    00020011    ....    DCD    131089
        0x10003eb0:    000b0011    ....    DCD    720913
        0x10003eb4:    00080011    ....    DCD    524305
        0x10003eb8:    00020011    ....    DCD    131089
    Region$$Table$$Base
        0x10003ebc:    10003edc    .>..    DCD    268451548
        0x10003ec0:    20003000    .0.     DCD    536883200
        0x10003ec4:    000000a4    ....    DCD    164
        0x10003ec8:    100035c0    .5..    DCD    268449216
        0x10003ecc:    10003f80    .?..    DCD    268451712
        0x10003ed0:    200030a4    .0.     DCD    536883364
        0x10003ed4:    000004f4    ....    DCD    1268
        0x10003ed8:    100035d0    .5..    DCD    268449232
    Region$$Table$$Limit

** Section #2 'RW_IRAM1' (SHT_PROGBITS) [SHF_ALLOC + SHF_WRITE]
    Size   : 164 bytes (alignment 4)
    Address: 0x20003000


** Section #3 'RW_IRAM1' (SHT_NOBITS) [SHF_ALLOC + SHF_WRITE]
    Size   : 1268 bytes (alignment 8)
    Address: 0x200030a4


** Section #4 '.debug_abbrev' (SHT_PROGBITS)
    Size   : 1476 bytes


** Section #5 '.debug_frame' (SHT_PROGBITS)
    Size   : 5996 bytes


** Section #6 '.debug_info' (SHT_PROGBITS)
    Size   : 105468 bytes


** Section #7 '.debug_line' (SHT_PROGBITS)
    Size   : 11760 bytes


** Section #8 '.debug_loc' (SHT_PROGBITS)
    Size   : 12280 bytes


** Section #9 '.debug_macinfo' (SHT_PROGBITS)
    Size   : 18564 bytes


** Section #10 '.debug_pubnames' (SHT_PROGBITS)
    Size   : 3461 bytes


** Section #11 '.symtab' (SHT_SYMTAB)
    Size   : 8400 bytes (alignment 4)
    String table #12 '.strtab'
    Last local symbol no. 258


** Section #12 '.strtab' (SHT_STRTAB)
    Size   : 6312 bytes


** Section #13 '.note' (SHT_NOTE)
    Size   : 28 bytes (alignment 4)


** Section #14 '.comment' (SHT_PROGBITS)
    Size   : 10728 bytes


** Section #15 '.shstrtab' (SHT_STRTAB)
    Size   : 156 bytes


